; Listing generated by Microsoft (R) Optimizing Compiler Version 19.33.31630.0 

include listing.inc

INCLUDELIB MSVCRTD
INCLUDELIB OLDNAMES

msvcjmc	SEGMENT
__529D0EAA_concurrencysal@h DB 01H
__7EC34687_sal@h DB 01H
__35A2D2DF_vadefs@h DB 01H
__5F022EB5_vcruntime@h DB 01H
__BBDF6BA8_xkeycheck@h DB 01H
__7F8F4960_yvals_core@h DB 01H
__1B0272D9_corecrt@h DB 01H
__44420885_corecrt_stdio_config@h DB 01H
__AB601D8D_corecrt_wstdio@h DB 01H
__C1EC35D3_stdio@h DB 01H
__46E22952_cstdio DB 01H
__26288F36_Vector@h DB 01H
__4DAFBCB9_stdint@h DB 01H
__CB505695_cstdint DB 01H
__0ED14FEE_winpackagefamily@h DB 01H
__F92EF742_winapifamily@h DB 01H
__22E515EB_sdkddkver@h DB 01H
__3F7A3B5F_excpt@h DB 01H
__79700276_stdarg@h DB 01H
__29F49F40_specstrings_undef@h DB 01H
__D0F42932_specstrings_strict@h DB 01H
__F00405FD_sdv_driverspecs@h DB 01H
__173E09CA_driverspecs@h DB 01H
__9A452361_specstrings@h DB 01H
__74484FB3_corecrt_wctype@h DB 01H
__1EC467ED_ctype@h DB 01H
__98517906_kernelspecs@h DB 01H
__D3497022_basetsd@h DB 01H
__61CC25A1_errno@h DB 01H
__74AC4223_vcruntime_string@h DB 01H
__E4C945B4_corecrt_memcpy_s@h DB 01H
__8EAFF484_corecrt_memory@h DB 01H
__6490AEC5_corecrt_wstring@h DB 01H
__E8295E1E_string@h DB 01H
__7FCB5136_guiddef@h DB 01H
__FF8A9E11_pshpack4@h DB 01H
__D5438902_poppack@h DB 01H
__FB07E2A3_pshpack2@h DB 01H
__F6906775_pshpack8@h DB 01H
__F9415CFA_pshpack1@h DB 01H
__E58C6F1C_apiset@h DB 01H
__A5C52262_ktmtypes@h DB 01H
__FBBA8F9D_winnt@h DB 01H
__A32D3D2C_minwindef@h DB 01H
__7D798299_windef@h DB 01H
__9AE108E9_apisetcconv@h DB 01H
__9CE53D2C_minwinbase@h DB 01H
__5D0AA210_apiquery2@h DB 01H
__4DD4E726_processenv@h DB 01H
__3575CC96_fileapi@h DB 01H
__8EA220E6_fileapifromapp@h DB 01H
__BF9B31FE_debugapi@h DB 01H
__C3AFE134_utilapiset@h DB 01H
__76F69E51_handleapi@h DB 01H
__7E63D784_errhandlingapi@h DB 01H
__FFA7003C_fibersapi@h DB 01H
__8971CECF_namedpipeapi@h DB 01H
__46C9D8A6_profileapi@h DB 01H
__98D4F0A3_heapapi@h DB 01H
__50EF2A88_ioapiset@h DB 01H
__92EA1464_synchapi@h DB 01H
__A53D8AED_interlockedapi@h DB 01H
__B506CAAF_processthreadsapi@h DB 01H
__FF735694_sysinfoapi@h DB 01H
__29589789_memoryapi@h DB 01H
__E9C7A663_enclaveapi@h DB 01H
__D035F9F7_threadpoollegacyapiset@h DB 01H
__C899130C_threadpoolapiset@h DB 01H
__E0441EE7_jobapi@h DB 01H
__CEF86838_jobapi2@h DB 01H
__35AC6B9A_wow64apiset@h DB 01H
__C8AE41A5_libloaderapi@h DB 01H
__CC9E232D_securitybaseapi@h DB 01H
__C9D0C9B8_namespaceapi@h DB 01H
__30FF9CAD_systemtopologyapi@h DB 01H
__4D358795_processtopologyapi@h DB 01H
__40446D10_securityappcontainer@h DB 01H
__3A952EDF_realtimeapiset@h DB 01H
__F4865F4B_winerror@h DB 01H
__53C1BD93_timezoneapi@h DB 01H
__1FFBEDBF_winbase@h DB 01H
__43D3FA34_wingdi@h DB 01H
__D24A7391_tvout@h DB 01H
__7713A6C8_winuser@h DB 01H
__0B345F71_datetimeapi@h DB 01H
__9AC6960C_winnls@h DB 01H
__973A40A8_stringapiset@h DB 01H
__CC46FEE2_wincontypes@h DB 01H
__97D70BE1_consoleapi@h DB 01H
__27EC5E18_consoleapi2@h DB 01H
__262E342F_consoleapi3@h DB 01H
__641DCD70_wincon@h DB 01H
__5A96C7A7_verrsrc@h DB 01H
__B69C6FF2_winver@h DB 01H
__7AEB8C37_reason@h DB 01H
__59F1A8A9_winreg@h DB 01H
__EE0E2B7F_wnnc@h DB 01H
__DCDB7054_winnetwk@h DB 01H
__EDC72EEB_cderr@h DB 01H
__95F9199D_dde@h DB 01H
__66427627_ddeml@h DB 01H
__957C29A0_dlgs@h DB 01H
__12EA15AF_lzexpand@h DB 01H
__62131F15_mmsyscom@h DB 01H
__47E68D49_mciapi@h DB 01H
__5D7DD356_mmiscapi@h DB 01H
__7223D2EF_mmiscapi2@h DB 01H
__A330DBB3_playsoundapi@h DB 01H
__601B366F_mmeapi@h DB 01H
__1134ADD5_timeapi@h DB 01H
__93F2265A_joystickapi@h DB 01H
__DF6EB4E3_mmsystem@h DB 01H
__BD641FCB_nb30@h DB 01H
__DF8704F0_rpcdcep@h DB 01H
__5C6CA7BB_rpcdce@h DB 01H
__853533C4_rpcnsi@h DB 01H
__2D2406C3_rpcnterr@h DB 01H
__64521D71_rpcasync@h DB 01H
__AADCBA08_rpc@h DB 01H
__19E26CFF_shellapi@h DB 01H
__1E9F31D3_winperf@h DB 01H
__832A4112_inaddr@h DB 01H
__32C6F875_winsock@h DB 01H
__7953A3F8_bcrypt@h DB 01H
__E4169492_ncrypt@h DB 01H
__AF3DDDC3_dpapi@h DB 01H
__D1E23BF2_wincrypt@h DB 01H
__82AB4779_winefs@h DB 01H
__1FE431C9_rpcnsip@h DB 01H
__2B741F2D_rpcsal@h DB 01H
__92623256_rpcndr@h DB 01H
__9C18532E_wtypesbase@h DB 01H
__EA2E1D6D_wtypes@h DB 01H
__7DDD9F45_winioctl@h DB 01H
__E550A843_winsmcrd@h DB 01H
__9809C1BA_winscard@h DB 01H
__EA174FA4_prsht@h DB 01H
__0E1BD114_winspool@h DB 01H
__45DED006_corecrt_malloc@h DB 01H
__13F5961F_stddef@h DB 01H
__FD6DBD68_corecrt_search@h DB 01H
__E2E33A61_corecrt_wstdlib@h DB 01H
__F3D99286_limits@h DB 01H
__6E5ACABA_stdlib@h DB 01H
__30B1AFDA_unknwnbase@h DB 01H
__328C1996_objidlbase@h DB 01H
__C4E06B6A_cguid@h DB 01H
__434718C5_combaseapi@h DB 01H
__DE6FDEF1_unknwn@h DB 01H
__CCE0BACC_objidl@h DB 01H
__8C7011E5_oaidl@h DB 01H
__2E0B7863_propidlbase@h DB 01H
__BF4CF2EC_coml2api@h DB 01H
__6D897344_oleidl@h DB 01H
__1129FC2C_servprov@h DB 01H
__757952E4_msxml@h DB 01H
__B1191D53_urlmon@h DB 01H
__404D1A47_propidl@h DB 01H
__A1C63593_objbase@h DB 01H
__C1B0A9CB_oleauto@h DB 01H
__24EAF61F_ole2@h DB 01H
__2B1843DA_commdlg@h DB 01H
__81DDEDE3_stralign@h DB 01H
__2134D1B4_winsvc@h DB 01H
__11C07376_mcx@h DB 01H
__577CE3E7_ime_cmodes@h DB 01H
__1E72C31E_imm@h DB 01H
__63AA7AF5_Windows@h DB 01H
__B06CCC37_Input@h DB 01H
__26447149_Core@hpp DB 01H
__C8655DC5_Application@h DB 01H
__BB16330F_corecrt_math@h DB 01H
__3BF2A406_math@h DB 01H
__760EB7E8_cstdlib DB 01H
__B9985323_float@h DB 01H
__35A6E2D5_cfloat DB 01H
__F2E1951A_climits DB 01H
__EF1F6BBA_corecrt_wconio@h DB 01H
__3D1D430C_corecrt_wdirect@h DB 01H
__8ECB7138_corecrt_share@h DB 01H
__DB7FEBA6_corecrt_wio@h DB 01H
__9A9F0068_corecrt_wprocess@h DB 01H
__369A9BC3_corecrt_wtime@h DB 01H
__CE789B9D_types@h DB 01H
__9901C817_stat@h DB 01H
__3FCAD62E_wchar@h DB 01H
__DC69FF01_cwchar DB 01H
__E5CDC221_intrin0@inl@h DB 01H
__16DCCB76_intrin0@h DB 01H
__A7274850_isa_availability@h DB 01H
__C9757830_xtr1common DB 01H
__D3C56D45_cstddef DB 01H
__485B7899_initializer_list DB 01H
__B61CA571_xstddef DB 01H
__5340AFB1_limits DB 01H
__8B8B49C3_vcruntime_new@h DB 01H
__5021BF8A_vcruntime_new_debug@h DB 01H
__935DC21B_crtdbg@h DB 01H
__0FF1727D_crtdefs@h DB 01H
__327B4A79_use_ansi@h DB 01H
__C04E0157_yvals@h DB 01H
__F576AD63_type_traits DB 01H
__FA77ED4C_malloc@h DB 01H
__89766DA4_corecrt_terminate@h DB 01H
__5569C08B_eh@h DB 01H
__58CFBAD8_vcruntime_exception@h DB 01H
__C7AE1CEB_exception DB 01H
__C7AADC23_new DB 01H
__CDA2903D_xatomic@h DB 01H
__3A9C1F08_cstring DB 01H
__41033263_utility DB 01H
__2177C444_xutility DB 01H
__2B9651A0_xmemory DB 01H
__BA5A5171_tuple DB 01H
__0374BC07_xpolymorphic_allocator@h DB 01H
__1EEDDF51_vector DB 01H
__9FA97A37_iosfwd DB 01H
__5F45D73C_xstring DB 01H
__4929CEF5_cctype DB 01H
__9B3D25A3_string DB 01H
__3106C9CE_memory@h DB 01H
__427947DE_defs@h DB 01H
__1C794830_cmath DB 01H
__56B62A30_pushpack1@h DB 01H
__A28EE514_poppack1@h DB 01H
__E8890047_vector3@h DB 01H
__E94B6A70_vector2@h DB 01H
__F12EF6E1_color4@h DB 01H
__316093B4_matrix3x3@h DB 01H
__860F5921_matrix4x4@h DB 01H
__63D9E03D_quaternion@h DB 01H
__3CE01996_vector2@inl DB 01H
__01803026_vector3@inl DB 01H
__AD0365C7_color4@inl DB 01H
__745AC872_quaternion@inl DB 01H
__2D625E3F_algorithm DB 01H
__5717994F_matrix3x3@inl DB 01H
__20907BD1_matrix4x4@inl DB 01H
__691F0ED1_types@h DB 01H
__E1C73DD4_texture@h DB 01H
__12C2FD2A_mesh@h DB 01H
__1B1D5B29_light@h DB 01H
__4A8AAAE3_camera@h DB 01H
__F53A84F5_material@inl DB 01H
__820DF1D0_material@h DB 01H
__2BBF7950_anim@h DB 01H
__19139D6C_assert@h DB 01H
__A14E1A76_metadata@h DB 01H
__695F5193_scene@h DB 01H
__426C2C7F__fixes@hpp DB 01H
__15CDE20A_cassert DB 01H
__8352D49E_platform@h DB 01H
__E9022D7B_setup@hpp DB 01H
__03B1FCBD_qualifier@hpp DB 01H
__93C46FAE_fwd@hpp DB 01H
__6550F366_compute_vector_relational@hpp DB 01H
__21E1621A_type_vec2@inl DB 01H
__E0636BBD_type_vec2@hpp DB 01H
__44E84EE0_vector_bool2@hpp DB 01H
__3B6F42FD_vector_bool2_precision@hpp DB 01H
__71A1E0AE_vector_float2@hpp DB 01H
__5BF37FA3_vector_float2_precision@hpp DB 01H
__29C0F6B1_vector_double2@hpp DB 01H
__5EF799C8_vector_double2_precision@hpp DB 01H
__158F8600_vector_int2@hpp DB 01H
__FECBBD42_scalar_int_sized@hpp DB 01H
__2C73C0BB_vector_int2_sized@hpp DB 01H
__03D4E39D_vector_uint2@hpp DB 01H
__C0F7AB10_scalar_uint_sized@hpp DB 01H
__D8FE6A7A_vector_uint2_sized@hpp DB 01H
__F95D3862_vec2@hpp DB 01H
__1C814BAA_type_vec3@inl DB 01H
__DD03420D_type_vec3@hpp DB 01H
__79886750_vector_bool3@hpp DB 01H
__82949915_vector_bool3_precision@hpp DB 01H
__4CC1C91E_vector_float3@hpp DB 01H
__E208A44B_vector_float3_precision@hpp DB 01H
__14A0DF01_vector_double3@hpp DB 01H
__E70C4220_vector_double3_precision@hpp DB 01H
__28EFAFB0_vector_int3@hpp DB 01H
__EDFD1F7B_vector_int3_sized@hpp DB 01H
__3EB4CA2D_vector_uint3@hpp DB 01H
__1970B5BA_vector_uint3_sized@hpp DB 01H
__C43D11D2_vec3@hpp DB 01H
__AEA197BA_type_vec4@inl DB 01H
__6F239E1D_type_vec4@hpp DB 01H
__CBA8BB40_vector_bool4@hpp DB 01H
__1995960F_vector_bool4_precision@hpp DB 01H
__FEE1150E_vector_float4@hpp DB 01H
__7909AB51_vector_float4_precision@hpp DB 01H
__A6800311_vector_double4@hpp DB 01H
__7C0D4D3A_vector_double4_precision@hpp DB 01H
__9ACF73A0_vector_int4@hpp DB 01H
__C4C60AF8_vector_int4_sized@hpp DB 01H
__8C94163D_vector_uint4@hpp DB 01H
__304BA039_vector_uint4_sized@hpp DB 01H
__761DCDC2_vec4@hpp DB 01H
__6D9C0563_type_mat2x3@inl DB 01H
__AC1E0CC4_type_mat2x3@hpp DB 01H
__1D32BE8A_matrix_double2x3@hpp DB 01H
__4ACCD36E_matrix_double2x3_precision@hpp DB 01H
__65C56086_matrix_float2x3@hpp DB 01H
__A61C2A54_matrix_float2x3_precision@hpp DB 01H
__58DCCC64_mat2x3@hpp DB 01H
__DFBCD973_type_mat2x4@inl DB 01H
__1E3ED0D4_type_mat2x4@hpp DB 01H
__AF12629A_matrix_double2x4@hpp DB 01H
__D1CDDC74_matrix_double2x4_precision@hpp DB 01H
__D7E5BC96_matrix_float2x4@hpp DB 01H
__3D1D254E_matrix_float2x4_precision@hpp DB 01H
__EAFC1074_mat2x4@hpp DB 01H
__F68B2767_type_mat3x2@inl DB 01H
__37092EC0_type_mat3x2@hpp DB 01H
__86259C8E_matrix_double3x2@hpp DB 01H
__7491C3C5_matrix_double3x2_precision@hpp DB 01H
__FED24282_matrix_float3x2@hpp DB 01H
__98413AFF_matrix_float3x2_precision@hpp DB 01H
__C3CBEE60_mat3x2@hpp DB 01H
__CBEB0ED7_type_mat3x3@inl DB 01H
__0A690770_type_mat3x3@hpp DB 01H
__BB45B53E_matrix_double3x3@hpp DB 01H
__CD6A182D_matrix_double3x3_precision@hpp DB 01H
__C3B26B32_matrix_float3x3@hpp DB 01H
__21BAE117_matrix_float3x3_precision@hpp DB 01H
__FEABC7D0_mat3x3@hpp DB 01H
__79CBD2C7_type_mat3x4@inl DB 01H
__B849DB60_type_mat3x4@hpp DB 01H
__0965692E_matrix_double3x4@hpp DB 01H
__566B1737_matrix_double3x4_precision@hpp DB 01H
__7192B722_matrix_float3x4@hpp DB 01H
__BABBEE0D_matrix_float3x4_precision@hpp DB 01H
__4C8B1BC0_mat3x4@hpp DB 01H
__332C19E9_type_mat4x2@inl DB 01H
__F2AE104E_type_mat4x2@hpp DB 01H
__4382A200_matrix_double4x2@hpp DB 01H
__5403BF8E_matrix_double4x2_precision@hpp DB 01H
__3B757C0C_matrix_float4x2@hpp DB 01H
__B8D346B4_matrix_float4x2_precision@hpp DB 01H
__066CD0EE_mat4x2@hpp DB 01H
__0E4C3059_type_mat4x3@inl DB 01H
__CFCE39FE_type_mat4x3@hpp DB 01H
__7EE28BB0_matrix_double4x3@hpp DB 01H
__EDF86466_matrix_double4x3_precision@hpp DB 01H
__061555BC_matrix_float4x3@hpp DB 01H
__01289D5C_matrix_float4x3_precision@hpp DB 01H
__3B0CF95E_mat4x3@hpp DB 01H
__BC6CEC49_type_mat4x4@inl DB 01H
__7DEEE5EE_type_mat4x4@hpp DB 01H
__CCC257A0_matrix_double4x4@hpp DB 01H
__76F96B7C_matrix_double4x4_precision@hpp DB 01H
__B43589AC_matrix_float4x4@hpp DB 01H
__9A299246_matrix_float4x4_precision@hpp DB 01H
__892C254E_mat4x4@hpp DB 01H
__664118CA_type_vec1@inl DB 01H
__A7C3116D_type_vec1@hpp DB 01H
__CBB77B71_func_vector_relational@inl DB 01H
__F6D85DB3_vector_relational@hpp DB 01H
__39A564C8__vectorize@hpp DB 01H
__A46288C7_func_exponential@inl DB 01H
__DB0AA230_exponential@hpp DB 01H
__D6C7EB8E_compute_common@hpp DB 01H
__B463D43C_func_common@inl DB 01H
__E6EEAD42_common@hpp DB 01H
__C3ADFCC3_func_geometric@inl DB 01H
__3FF79F2F_geometric@hpp DB 01H
__A9F37805_func_matrix@inl DB 01H
__FB7E017B_matrix@hpp DB 01H
__50FC2CD3_type_mat2x2@inl DB 01H
__917E2574_type_mat2x2@hpp DB 01H
__2052973A_matrix_double2x2@hpp DB 01H
__F3370886_matrix_double2x2_precision@hpp DB 01H
__58A54936_matrix_float2x2@hpp DB 01H
__1FE7F1BC_matrix_float2x2_precision@hpp DB 01H
__65BCE5D4_mat2x2@hpp DB 01H
__2B2260A5_func_trigonometric@inl DB 01H
__F27CFBCE_trigonometric@hpp DB 01H
__805ABECE_type_half@inl DB 01H
__41D8B769_type_half@hpp DB 01H
__4B2669CD_func_packing@inl DB 01H
__7538056A_packing@hpp DB 01H
__DDCC54BA_setjmp@h DB 01H
__F75BE1FA_mmintrin@h DB 01H
__DFD742E1_xmmintrin@h DB 01H
__BAB5CB2D_emmintrin@h DB 01H
__6514A3A4_pmmintrin@h DB 01H
__D5CDD026_tmmintrin@h DB 01H
__FCF6C5A5_smmintrin@h DB 01H
__99944C69_nmmintrin@h DB 01H
__4C2FB627_wmmintrin@h DB 01H
__87BBFB20_zmmintrin@h DB 01H
__B0AF59EA_immintrin@h DB 01H
__0A6CB8AF_ammintrin@h DB 01H
__FBFAE8CD_intrin@h DB 01H
__204566E8_func_integer@inl DB 01H
__1E5B0A4F_integer@hpp DB 01H
__51B2F433_glm@hpp DB 01H
__3E21C180_khrplatform@h DB 01H
__6F297E97_glad@h DB 01H
__574035C6_vk_platform@h DB 01H
__67A404B0_vulkan_core@h DB 01H
__02D50DED_vulkan@h DB 01H
__DD4EC5F2_glfw3@h DB 01H
__B9D4B5B0_scalar_constants@inl DB 01H
__7856BC17_scalar_constants@hpp DB 01H
__AE85D934_constants@inl DB 01H
__6F07D093_constants@hpp DB 01H
__628FDAAC_matrix_projection@inl DB 01H
__A30DD30B_matrix_projection@hpp DB 01H
__F17FB1A9_matrix_clip_space@inl DB 01H
__30FDB80E_matrix_clip_space@hpp DB 01H
__675FFADA_matrix_transform@inl DB 01H
__A6DDF37D_matrix_transform@hpp DB 01H
__72AFA061_matrix_transform@inl DB 01H
__B32DA9C6_matrix_transform@hpp DB 01H
__C5E9B652_type_float@hpp DB 01H
__B8B6D95C_vector_relational@inl DB 01H
__7934D0FB_vector_relational@hpp DB 01H
__9CA3A914_quaternion_geometric@inl DB 01H
__5D21A0B3_quaternion_geometric@hpp DB 01H
__02CE0479_quaternion_common@inl DB 01H
__C34C0DDE_quaternion_common@hpp DB 01H
__286CA3B4_quaternion_relational@inl DB 01H
__E9EEAA13_quaternion_relational@hpp DB 01H
__D681FB2F_type_quat@inl DB 01H
__1703F288_type_quat@hpp DB 01H
__1EEE7BF6_quaternion_float@hpp DB 01H
__34B389B1_quaternion_float_precision@hpp DB 01H
__89C20F6F_quaternion_double@hpp DB 01H
__20F487E0_quaternion_double_precision@hpp DB 01H
__9F816C35_quaternion_trigonometric@inl DB 01H
__5E036592_quaternion_trigonometric@hpp DB 01H
__65C34BEC_quaternion_transform@inl DB 01H
__A441424B_quaternion_transform@hpp DB 01H
__B8E4F448_epsilon@inl DB 01H
__7966FDEF_epsilon@hpp DB 01H
__71400996_quaternion@inl DB 01H
__B0C20031_quaternion@hpp DB 01H
__03483430_vector_bool1@hpp DB 01H
__2A122884_vector_bool1_precision@hpp DB 01H
__36019A7E_vector_float1@hpp DB 01H
__4A8E15DA_vector_float1_precision@hpp DB 01H
__6E608C61_vector_double1@hpp DB 01H
__4F8AF3B1_vector_double1_precision@hpp DB 01H
__522FFCD0_vector_int1@hpp DB 01H
__B591A6BA_vector_int1_sized@hpp DB 01H
__4474994D_vector_uint1@hpp DB 01H
__411C0C7B_vector_uint1_sized@hpp DB 01H
__6291C08F_vec1@hpp DB 01H
__29887829_type_ptr@inl DB 01H
__E80A718E_type_ptr@hpp DB 01H
__30DB7304_iterator DB 01H
__F7972D0B_share@h DB 01H
__33989847___msvc_system_error_abi@hpp DB 01H
__DBC35DA9_cerrno DB 01H
__4EE026B6_stdexcept DB 01H
__3C179730_xcall_once@h DB 01H
__68DB1458_xerrc@h DB 01H
__0A9237D2_time@h DB 01H
__DACAD438_ctime DB 01H
__97B32705_xtimec@h DB 01H
__53357DCA_xthreads@h DB 01H
__3875F373_atomic DB 01H
__834A8510_system_error DB 01H
__B3F9668E_vcruntime_typeinfo@h DB 01H
__51A8375D_typeinfo DB 01H
__EFEEA33F_memory DB 01H
__C3ABF430_xfacet DB 01H
__215922A6___msvc_xlocinfo_types@hpp DB 01H
__791C33B7_locale@h DB 01H
__E5A26B39_clocale DB 01H
__4E21D495_xlocinfo DB 01H
__807BA30D_xlocale DB 01H
__77C4A386_xiosbase DB 01H
__4C409E0A_streambuf DB 01H
__1EFCC51A_xlocnum DB 01H
__3F67E635_ios DB 01H
__936B79C9_ostream DB 01H
__F0BB4CF3_istream DB 01H
__430EBE5B_iostream DB 01H
__2F5FA0DE_VulkanAPI@h DB 01H
__3DED4845_RenderAPI@h DB 01H
__7108E2E6_Shader@h DB 01H
__DD128BC6_Mesh@h DB 01H
__65BF9D60_Model@h DB 01H
__A52B8F80_imconfig@h DB 01H
__21D911DF_imgui@h DB 01H
__D3953CEF_imgui_impl_glfw@h DB 01H
__60175028_imgui_impl_opengl3@h DB 01H
__10615243_deque DB 01H
__CD02128B_stack DB 01H
__70CAD19E_ratio DB 01H
__2664BE5C___msvc_chrono@hpp DB 01H
__CE1CBB5F_vcruntime_startup@h DB 01H
__005E73E1_corecrt_startup@h DB 01H
__8B12B2C4_process@h DB 01H
__34A3DB89_thread DB 01H
__32B79A60_list DB 01H
__E63F29F7_xbit_ops@h DB 01H
__553ED5D1_xnode_handle@h DB 01H
__73D68856_xhash DB 01H
__89C101AF_unordered_map DB 01H
__3166FC21_functional DB 01H
__37ADA93B_chrono DB 01H
__359ED022_xlocmon DB 01H
__EA3C7D87_xloctime DB 01H
__0C798AA1_iomanip DB 01H
__8034E5F6_xlocbuf DB 01H
__AC775471_xlocmes DB 01H
__44035192_locale DB 01H
__7B97B3D0_string_view DB 01H
__CE692294_xfilesystem_abi@h DB 01H
__3F97E32A_filesystem DB 01H
__10B67A16_ImFileDialog@h DB 01H
__38B03CD2_imgui_node_editor@h DB 01H
__F524C5E8_RaiEng@h DB 01H
__D038210C_Application@cpp DB 01H
msvcjmc	ENDS
PUBLIC	??_H@YAXPEAX_K1P6APEAX0@Z@Z			; `vector constructor iterator'
PUBLIC	?__empty_global_delete@@YAXPEAX@Z		; __empty_global_delete
PUBLIC	?__empty_global_delete@@YAXPEAX_K@Z		; __empty_global_delete
PUBLIC	?__empty_global_delete@@YAXPEAXW4align_val_t@std@@@Z ; __empty_global_delete
PUBLIC	?__empty_global_delete@@YAXPEAX_KW4align_val_t@std@@@Z ; __empty_global_delete
PUBLIC	__local_stdio_printf_options
PUBLIC	_vfprintf_l
PUBLIC	printf
PUBLIC	??0Vector2D@@QEAA@MM@Z				; Vector2D::Vector2D
PUBLIC	??0Vector2D@@QEAA@AEBU0@@Z			; Vector2D::Vector2D
PUBLIC	??GVector2D@@QEAA?AU0@U0@@Z			; Vector2D::operator-
PUBLIC	??0sInputRegistered@RaisinEng@@QEAA@XZ		; RaisinEng::sInputRegistered::sInputRegistered
PUBLIC	??0CApplication@RaisinEng@@QEAA@XZ		; RaisinEng::CApplication::CApplication
PUBLIC	??1CApplication@RaisinEng@@UEAA@XZ		; RaisinEng::CApplication::~CApplication
PUBLIC	?Run@CApplication@RaisinEng@@UEAAXXZ		; RaisinEng::CApplication::Run
PUBLIC	??0CApplication@RaisinEng@@QEAA@AEBV01@@Z	; RaisinEng::CApplication::CApplication
PUBLIC	??4CApplication@RaisinEng@@QEAAAEAV01@AEBV01@@Z	; RaisinEng::CApplication::operator=
PUBLIC	??_GCApplication@RaisinEng@@UEAAPEAXI@Z		; RaisinEng::CApplication::`scalar deleting destructor'
PUBLIC	??_ECApplication@RaisinEng@@UEAAPEAXI@Z		; RaisinEng::CApplication::`vector deleting destructor'
PUBLIC	wmemcpy
PUBLIC	?max@?$numeric_limits@_J@std@@SA_JXZ		; std::numeric_limits<__int64>::max
PUBLIC	??2@YAPEAX_KPEAX@Z				; operator new
PUBLIC	??0exception@std@@QEAA@QEBDH@Z			; std::exception::exception
PUBLIC	??0exception@std@@QEAA@AEBV01@@Z		; std::exception::exception
PUBLIC	??1exception@std@@UEAA@XZ			; std::exception::~exception
PUBLIC	?what@exception@std@@UEBAPEBDXZ			; std::exception::what
PUBLIC	??_Gexception@std@@UEAAPEAXI@Z			; std::exception::`scalar deleting destructor'
PUBLIC	??0bad_alloc@std@@AEAA@QEBD@Z			; std::bad_alloc::bad_alloc
PUBLIC	??1bad_alloc@std@@UEAA@XZ			; std::bad_alloc::~bad_alloc
PUBLIC	??0bad_alloc@std@@QEAA@AEBV01@@Z		; std::bad_alloc::bad_alloc
PUBLIC	??_Gbad_alloc@std@@UEAAPEAXI@Z			; std::bad_alloc::`scalar deleting destructor'
PUBLIC	??0bad_array_new_length@std@@QEAA@XZ		; std::bad_array_new_length::bad_array_new_length
PUBLIC	??1bad_array_new_length@std@@UEAA@XZ		; std::bad_array_new_length::~bad_array_new_length
PUBLIC	??0bad_array_new_length@std@@QEAA@AEBV01@@Z	; std::bad_array_new_length::bad_array_new_length
PUBLIC	??_Gbad_array_new_length@std@@UEAAPEAXI@Z	; std::bad_array_new_length::`scalar deleting destructor'
PUBLIC	?_Throw_bad_array_new_length@std@@YAXXZ		; std::_Throw_bad_array_new_length
PUBLIC	?_Allocate@_Default_allocate_traits@std@@SAPEAX_K@Z ; std::_Default_allocate_traits::_Allocate
PUBLIC	?_Adjust_manually_vector_aligned@std@@YAXAEAPEAXAEA_K@Z ; std::_Adjust_manually_vector_aligned
PUBLIC	??0_Container_proxy@std@@QEAA@PEAU_Container_base12@1@@Z ; std::_Container_proxy::_Container_proxy
PUBLIC	??0_Container_base12@std@@QEAA@XZ		; std::_Container_base12::_Container_base12
PUBLIC	?_Orphan_all@_Container_base12@std@@QEAAXXZ	; std::_Container_base12::_Orphan_all
PUBLIC	?_Orphan_all_unlocked_v3@_Container_base12@std@@AEAAXXZ ; std::_Container_base12::_Orphan_all_unlocked_v3
PUBLIC	?_Orphan_all_locked_v3@_Container_base12@std@@AEAAXXZ ; std::_Container_base12::_Orphan_all_locked_v3
PUBLIC	?_Release@_Basic_container_proxy_ptr12@std@@QEAAXXZ ; std::_Basic_container_proxy_ptr12::_Release
PUBLIC	??0_Basic_container_proxy_ptr12@std@@IEAA@XZ	; std::_Basic_container_proxy_ptr12::_Basic_container_proxy_ptr12
PUBLIC	??$_Maklocstr@_W@std@@YAPEA_WPEBDPEA_WAEBU_Cvtvec@@@Z ; std::_Maklocstr<wchar_t>
PUBLIC	?_Maklocwcs@std@@YAPEA_WPEB_W@Z			; std::_Maklocwcs
PUBLIC	??0?$allocator@PEBD@std@@QEAA@XZ		; std::allocator<char const *>::allocator<char const *>
PUBLIC	?deallocate@?$allocator@PEBD@std@@QEAAXQEAPEBD_K@Z ; std::allocator<char const *>::deallocate
PUBLIC	?allocate@?$allocator@PEBD@std@@QEAAPEAPEBD_K@Z	; std::allocator<char const *>::allocate
PUBLIC	?max_size@?$_Default_allocator_traits@V?$allocator@PEBD@std@@@std@@SA_KAEBV?$allocator@PEBD@2@@Z ; std::_Default_allocator_traits<std::allocator<char const *> >::max_size
PUBLIC	??0?$vector@PEBDV?$allocator@PEBD@std@@@std@@QEAA@V?$initializer_list@PEBD@1@AEBV?$allocator@PEBD@1@@Z ; std::vector<char const *,std::allocator<char const *> >::vector<char const *,std::allocator<char const *> >
PUBLIC	??1?$vector@PEBDV?$allocator@PEBD@std@@@std@@QEAA@XZ ; std::vector<char const *,std::allocator<char const *> >::~vector<char const *,std::allocator<char const *> >
PUBLIC	?max_size@?$vector@PEBDV?$allocator@PEBD@std@@@std@@QEBA_KXZ ; std::vector<char const *,std::allocator<char const *> >::max_size
PUBLIC	?_Buy_raw@?$vector@PEBDV?$allocator@PEBD@std@@@std@@AEAAX_K@Z ; std::vector<char const *,std::allocator<char const *> >::_Buy_raw
PUBLIC	?_Buy_nonzero@?$vector@PEBDV?$allocator@PEBD@std@@@std@@AEAAX_K@Z ; std::vector<char const *,std::allocator<char const *> >::_Buy_nonzero
PUBLIC	?_Tidy@?$vector@PEBDV?$allocator@PEBD@std@@@std@@AEAAXXZ ; std::vector<char const *,std::allocator<char const *> >::_Tidy
PUBLIC	?_Xlength@?$vector@PEBDV?$allocator@PEBD@std@@@std@@CAXXZ ; std::vector<char const *,std::allocator<char const *> >::_Xlength
PUBLIC	?_Getal@?$vector@PEBDV?$allocator@PEBD@std@@@std@@AEAAAEAV?$allocator@PEBD@2@XZ ; std::vector<char const *,std::allocator<char const *> >::_Getal
PUBLIC	?_Getal@?$vector@PEBDV?$allocator@PEBD@std@@@std@@AEBAAEBV?$allocator@PEBD@2@XZ ; std::vector<char const *,std::allocator<char const *> >::_Getal
PUBLIC	??0?$_Vector_val@U?$_Simple_types@PEBD@std@@@std@@QEAA@XZ ; std::_Vector_val<std::_Simple_types<char const *> >::_Vector_val<std::_Simple_types<char const *> >
PUBLIC	?_Get_first@?$_Compressed_pair@V?$allocator@PEBD@std@@V?$_Vector_val@U?$_Simple_types@PEBD@std@@@2@$00@std@@QEAAAEAV?$allocator@PEBD@2@XZ ; std::_Compressed_pair<std::allocator<char const *>,std::_Vector_val<std::_Simple_types<char const *> >,1>::_Get_first
PUBLIC	?_Get_first@?$_Compressed_pair@V?$allocator@PEBD@std@@V?$_Vector_val@U?$_Simple_types@PEBD@std@@@2@$00@std@@QEBAAEBV?$allocator@PEBD@2@XZ ; std::_Compressed_pair<std::allocator<char const *>,std::_Vector_val<std::_Simple_types<char const *> >,1>::_Get_first
PUBLIC	?__autoclassinit2@?$vector@PEBDV?$allocator@PEBD@std@@@std@@QEAAX_K@Z ; std::vector<char const *,std::allocator<char const *> >::__autoclassinit2
PUBLIC	??0?$initializer_list@PEBD@std@@QEAA@PEBQEBD0@Z	; std::initializer_list<char const *>::initializer_list<char const *>
PUBLIC	?begin@?$initializer_list@PEBD@std@@QEBAPEBQEBDXZ ; std::initializer_list<char const *>::begin
PUBLIC	?end@?$initializer_list@PEBD@std@@QEBAPEBQEBDXZ	; std::initializer_list<char const *>::end
PUBLIC	?size@?$initializer_list@PEBD@std@@QEBA_KXZ	; std::initializer_list<char const *>::size
PUBLIC	??$_Getvals@_W@?$time_get@DV?$istreambuf_iterator@DU?$char_traits@D@std@@@std@@@std@@IEAAX_WAEBV_Locinfo@1@@Z ; std::time_get<char,std::istreambuf_iterator<char,std::char_traits<char> > >::_Getvals<wchar_t>
PUBLIC	??$_Getvals@_W@?$time_get@_WV?$istreambuf_iterator@_WU?$char_traits@_W@std@@@std@@@std@@IEAAX_WAEBV_Locinfo@1@@Z ; std::time_get<wchar_t,std::istreambuf_iterator<wchar_t,std::char_traits<wchar_t> > >::_Getvals<wchar_t>
PUBLIC	?allocate@?$allocator@U_Container_proxy@std@@@std@@QEAAPEAU_Container_proxy@2@_K@Z ; std::allocator<std::_Container_proxy>::allocate
PUBLIC	??$exchange@PEAU_Container_proxy@std@@$$T@std@@YAPEAU_Container_proxy@0@AEAPEAU10@$$QEA$$T@Z ; std::exchange<std::_Container_proxy *,std::nullptr_t>
PUBLIC	??$_Delete_plain_internal@V?$allocator@U_Container_proxy@std@@@std@@@std@@YAXAEAV?$allocator@U_Container_proxy@std@@@0@QEAU_Container_proxy@0@@Z ; std::_Delete_plain_internal<std::allocator<std::_Container_proxy> >
PUBLIC	??$?0PEBD@?$allocator@U_Container_proxy@std@@@std@@QEAA@AEBV?$allocator@PEBD@1@@Z ; std::allocator<std::_Container_proxy>::allocator<std::_Container_proxy><char const *>
PUBLIC	??$?0AEBV?$allocator@PEBD@std@@$$V@?$_Compressed_pair@V?$allocator@PEBD@std@@V?$_Vector_val@U?$_Simple_types@PEBD@std@@@2@$00@std@@QEAA@U_One_then_variadic_args_t@1@AEBV?$allocator@PEBD@1@@Z ; std::_Compressed_pair<std::allocator<char const *>,std::_Vector_val<std::_Simple_types<char const *> >,1>::_Compressed_pair<std::allocator<char const *>,std::_Vector_val<std::_Simple_types<char const *> >,1><std::allocator<char const *> const &>
PUBLIC	??$_Convert_size@_K@std@@YA_K_K@Z		; std::_Convert_size<unsigned __int64>
PUBLIC	??$_Construct_n@PEBQEBDPEBQEBD@?$vector@PEBDV?$allocator@PEBD@std@@@std@@AEAAX_K$$QEAPEBQEBD1@Z ; std::vector<char const *,std::allocator<char const *> >::_Construct_n<char const * const *,char const * const *>
PUBLIC	??$min@_K@std@@YAAEB_KAEB_K0@Z			; std::min<unsigned __int64>
PUBLIC	??0?$_Container_proxy_ptr12@V?$allocator@U_Container_proxy@std@@@std@@@std@@QEAA@AEAV?$allocator@U_Container_proxy@std@@@1@AEAU_Container_base12@1@@Z ; std::_Container_proxy_ptr12<std::allocator<std::_Container_proxy> >::_Container_proxy_ptr12<std::allocator<std::_Container_proxy> >
PUBLIC	??1?$_Container_proxy_ptr12@V?$allocator@U_Container_proxy@std@@@std@@@std@@QEAA@XZ ; std::_Container_proxy_ptr12<std::allocator<std::_Container_proxy> >::~_Container_proxy_ptr12<std::allocator<std::_Container_proxy> >
PUBLIC	??$_Destroy_range@V?$allocator@PEBD@std@@@std@@YAXPEAPEBDQEAPEBDAEAV?$allocator@PEBD@0@@Z ; std::_Destroy_range<std::allocator<char const *> >
PUBLIC	??$_Unfancy@U_Container_proxy@std@@@std@@YAPEAU_Container_proxy@0@PEAU10@@Z ; std::_Unfancy<std::_Container_proxy>
PUBLIC	??$addressof@U_Container_base12@std@@@std@@YAPEAU_Container_base12@0@AEAU10@@Z ; std::addressof<std::_Container_base12>
PUBLIC	??$_Construct_in_place@U_Container_proxy@std@@PEAU_Container_base12@2@@std@@YAXAEAU_Container_proxy@0@$$QEAPEAU_Container_base12@0@@Z ; std::_Construct_in_place<std::_Container_proxy,std::_Container_base12 *>
PUBLIC	??$_Deallocate@$0BA@$0A@@std@@YAXPEAX_K@Z	; std::_Deallocate<16,0>
PUBLIC	??$_Allocate@$0BA@U_Default_allocate_traits@std@@$0A@@std@@YAPEAX_K@Z ; std::_Allocate<16,std::_Default_allocate_traits,0>
PUBLIC	??$_Get_size_of_n@$0BA@@std@@YA_K_K@Z		; std::_Get_size_of_n<16>
PUBLIC	??$_Maklocstr@D@std@@YAPEADPEBDPEADAEBU_Cvtvec@@@Z ; std::_Maklocstr<char>
PUBLIC	??$_Deallocate_plain@V?$allocator@U_Container_proxy@std@@@std@@@std@@YAXAEAV?$allocator@U_Container_proxy@std@@@0@QEAU_Container_proxy@0@@Z ; std::_Deallocate_plain<std::allocator<std::_Container_proxy> >
PUBLIC	??$forward@AEBV?$allocator@PEBD@std@@@std@@YAAEBV?$allocator@PEBD@0@AEBV10@@Z ; std::forward<std::allocator<char const *> const &>
PUBLIC	??1?$_Tidy_guard@V?$vector@PEBDV?$allocator@PEBD@std@@@std@@@std@@QEAA@XZ ; std::_Tidy_guard<std::vector<char const *,std::allocator<char const *> > >::~_Tidy_guard<std::vector<char const *,std::allocator<char const *> > >
PUBLIC	??$forward@PEBQEBD@std@@YA$$QEAPEBQEBDAEAPEBQEBD@Z ; std::forward<char const * const *>
PUBLIC	??$_Uninitialized_copy@PEBQEBDV?$allocator@PEBD@std@@@std@@YAPEAPEBDQEBQEBD0PEAPEBDAEAV?$allocator@PEBD@0@@Z ; std::_Uninitialized_copy<char const * const *,std::allocator<char const *> >
PUBLIC	??$addressof@U_Container_proxy@std@@@std@@YAPEAU_Container_proxy@0@AEAU10@@Z ; std::addressof<std::_Container_proxy>
PUBLIC	??$_Voidify_iter@PEAU_Container_proxy@std@@@std@@YAPEAXPEAU_Container_proxy@0@@Z ; std::_Voidify_iter<std::_Container_proxy *>
PUBLIC	??$forward@PEAU_Container_base12@std@@@std@@YA$$QEAPEAU_Container_base12@0@AEAPEAU10@@Z ; std::forward<std::_Container_base12 *>
PUBLIC	??$_Allocate_manually_vector_aligned@U_Default_allocate_traits@std@@@std@@YAPEAX_K@Z ; std::_Allocate_manually_vector_aligned<std::_Default_allocate_traits>
PUBLIC	??$_Get_size_of_n@$07@std@@YA_K_K@Z		; std::_Get_size_of_n<8>
PUBLIC	?deallocate@?$_Default_allocator_traits@V?$allocator@U_Container_proxy@std@@@std@@@std@@SAXAEAV?$allocator@U_Container_proxy@std@@@2@QEAU_Container_proxy@2@_K@Z ; std::_Default_allocator_traits<std::allocator<std::_Container_proxy> >::deallocate
PUBLIC	??$_Get_unwrapped@AEBQEBQEBD@std@@YA?A_TAEBQEBQEBD@Z ; std::_Get_unwrapped<char const * const * const &>
PUBLIC	??$_Unfancy@PEBD@std@@YAPEAPEBDPEAPEBD@Z	; std::_Unfancy<char const *>
PUBLIC	??$_Copy_memmove@PEBQEBDPEAPEBD@std@@YAPEAPEBDPEBQEBD0PEAPEBD@Z ; std::_Copy_memmove<char const * const *,char const * *>
PUBLIC	??0?$_Uninitialized_backout_al@V?$allocator@PEBD@std@@@std@@QEAA@PEAPEBDAEAV?$allocator@PEBD@1@@Z ; std::_Uninitialized_backout_al<std::allocator<char const *> >::_Uninitialized_backout_al<std::allocator<char const *> >
PUBLIC	??1?$_Uninitialized_backout_al@V?$allocator@PEBD@std@@@std@@QEAA@XZ ; std::_Uninitialized_backout_al<std::allocator<char const *> >::~_Uninitialized_backout_al<std::allocator<char const *> >
PUBLIC	?_Release@?$_Uninitialized_backout_al@V?$allocator@PEBD@std@@@std@@QEAAPEAPEBDXZ ; std::_Uninitialized_backout_al<std::allocator<char const *> >::_Release
PUBLIC	?__autoclassinit2@?$_Uninitialized_backout_al@V?$allocator@PEBD@std@@@std@@QEAAX_K@Z ; std::_Uninitialized_backout_al<std::allocator<char const *> >::__autoclassinit2
PUBLIC	??$_Emplace_back@AEBQEBD@?$_Uninitialized_backout_al@V?$allocator@PEBD@std@@@std@@QEAAXAEBQEBD@Z ; std::_Uninitialized_backout_al<std::allocator<char const *> >::_Emplace_back<char const * const &>
PUBLIC	??$_To_address@PEBQEBD@std@@YA?A_PAEBQEBQEBD@Z	; std::_To_address<char const * const *>
PUBLIC	??$_To_address@PEAPEBD@std@@YA?A_PAEBQEAPEBD@Z	; std::_To_address<char const * *>
PUBLIC	??$forward@AEBQEBD@std@@YAAEBQEBDAEBQEBD@Z	; std::forward<char const * const &>
PUBLIC	??$construct@PEBDAEBQEBD@?$_Default_allocator_traits@V?$allocator@PEBD@std@@@std@@SAXAEAV?$allocator@PEBD@1@QEAPEBDAEBQEBD@Z ; std::_Default_allocator_traits<std::allocator<char const *> >::construct<char const *,char const * const &>
PUBLIC	??$_Voidify_iter@PEAPEBD@std@@YAPEAXPEAPEBD@Z	; std::_Voidify_iter<char const * *>
PUBLIC	__JustMyCode_Default
PUBLIC	?_OptionsStorage@?1??__local_stdio_printf_options@@9@4_KA ; `__local_stdio_printf_options'::`2'::_OptionsStorage
PUBLIC	?m_inputs@RaisinEng@@3PAUsInputRegistered@1@A	; RaisinEng::m_inputs
PUBLIC	??_7CApplication@RaisinEng@@6B@			; RaisinEng::CApplication::`vftable'
PUBLIC	??_7exception@std@@6B@				; std::exception::`vftable'
PUBLIC	??_C@_0BC@EOODALEL@Unknown?5exception@		; `string'
PUBLIC	??_7bad_alloc@std@@6B@				; std::bad_alloc::`vftable'
PUBLIC	??_7bad_array_new_length@std@@6B@		; std::bad_array_new_length::`vftable'
PUBLIC	??_C@_0BF@KINCDENJ@bad?5array?5new?5length@	; `string'
PUBLIC	_TI3?AVbad_array_new_length@std@@
PUBLIC	_CTA3?AVbad_array_new_length@std@@
PUBLIC	??_R0?AVbad_array_new_length@std@@@8		; std::bad_array_new_length `RTTI Type Descriptor'
PUBLIC	_CT??_R0?AVbad_array_new_length@std@@@8??0bad_array_new_length@std@@QEAA@AEBV01@@Z24
PUBLIC	??_R0?AVbad_alloc@std@@@8			; std::bad_alloc `RTTI Type Descriptor'
PUBLIC	_CT??_R0?AVbad_alloc@std@@@8??0bad_alloc@std@@QEAA@AEBV01@@Z24
PUBLIC	??_R0?AVexception@std@@@8			; std::exception `RTTI Type Descriptor'
PUBLIC	_CT??_R0?AVexception@std@@@8??0exception@std@@QEAA@AEBV01@@Z24
PUBLIC	?__LINE__Var@?0??_Adjust_manually_vector_aligned@std@@YAXAEAPEAXAEA_K@Z@4JA ; `std::_Adjust_manually_vector_aligned'::`1'::__LINE__Var
PUBLIC	??_C@_0BB@FCMFBGOM@invalid?5argument@		; `string'
PUBLIC	??_C@_02DKCKIIND@?$CFs@				; `string'
PUBLIC	??_C@_0GC@GFIHGGPN@C?3?2Program?5Files?2Microsoft?5Visu@ ; `string'
PUBLIC	??_C@_1ME@KDCJLOP@?$AAC?$AA?3?$AA?2?$AAP?$AAr?$AAo?$AAg?$AAr?$AAa?$AAm?$AA?5?$AAF?$AAi?$AAl?$AAe@ ; `string'
PUBLIC	??_C@_11LOCGONAA@@				; `string'
PUBLIC	??_C@_1CG@JNLFBNGN@?$AA?$CC?$AAi?$AAn?$AAv?$AAa?$AAl?$AAi?$AAd?$AA?5?$AAa?$AAr?$AAg?$AAu?$AAm?$AAe@ ; `string'
PUBLIC	??_C@_0GC@MNELFEFK@C?3?2Program?5Files?2Microsoft?5Visu@ ; `string'
PUBLIC	?__LINE__Var@?0??_Maklocwcs@std@@YAPEA_WPEB_W@Z@4JA ; `std::_Maklocwcs'::`1'::__LINE__Var
PUBLIC	??_C@_0GC@EOAGFGPL@C?3?2Program?5Files?2Microsoft?5Visu@ ; `string'
PUBLIC	?g_ValidationLayers@@3V?$vector@PEBDV?$allocator@PEBD@std@@@std@@B ; g_ValidationLayers
PUBLIC	??_C@_0BM@LGHMGEMH@VK_LAYER_KHRONOS_validation@	; `string'
PUBLIC	??_C@_0P@LGAKDABA@Raisin?5Loaded?6@		; `string'
PUBLIC	??_C@_0N@DKNOFGJI@RaisinEngine@			; `string'
PUBLIC	??_C@_0N@LPFKKEBD@?3AM?3am?3PM?3pm@		; `string'
PUBLIC	??_C@_0DG@KGHKKGBC@null?5pointer?5cannot?5point?5to?5a?5@ ; `string'
PUBLIC	??_C@_1HA@FACCKGGH@?$AA?$CC?$AAn?$AAu?$AAl?$AAl?$AA?5?$AAp?$AAo?$AAi?$AAn?$AAt?$AAe?$AAr?$AA?5?$AAc@ ; `string'
PUBLIC	??_C@_1BK@MHIKGOKE@?$AA?3?$AAA?$AAM?$AA?3?$AAa?$AAm?$AA?3?$AAP?$AAM?$AA?3?$AAp?$AAm@ ; `string'
PUBLIC	??_C@_0BA@FOIKENOD@vector?5too?5long@		; `string'
PUBLIC	??_R4CApplication@RaisinEng@@6B@		; RaisinEng::CApplication::`RTTI Complete Object Locator'
PUBLIC	??_R0?AVCApplication@RaisinEng@@@8		; RaisinEng::CApplication `RTTI Type Descriptor'
PUBLIC	??_R3CApplication@RaisinEng@@8			; RaisinEng::CApplication::`RTTI Class Hierarchy Descriptor'
PUBLIC	??_R2CApplication@RaisinEng@@8			; RaisinEng::CApplication::`RTTI Base Class Array'
PUBLIC	??_R1A@?0A@EA@CApplication@RaisinEng@@8		; RaisinEng::CApplication::`RTTI Base Class Descriptor at (0,-1,0,64)'
PUBLIC	??_R4exception@std@@6B@				; std::exception::`RTTI Complete Object Locator'
PUBLIC	??_R3exception@std@@8				; std::exception::`RTTI Class Hierarchy Descriptor'
PUBLIC	??_R2exception@std@@8				; std::exception::`RTTI Base Class Array'
PUBLIC	??_R1A@?0A@EA@exception@std@@8			; std::exception::`RTTI Base Class Descriptor at (0,-1,0,64)'
PUBLIC	??_R4bad_alloc@std@@6B@				; std::bad_alloc::`RTTI Complete Object Locator'
PUBLIC	??_R3bad_alloc@std@@8				; std::bad_alloc::`RTTI Class Hierarchy Descriptor'
PUBLIC	??_R2bad_alloc@std@@8				; std::bad_alloc::`RTTI Base Class Array'
PUBLIC	??_R1A@?0A@EA@bad_alloc@std@@8			; std::bad_alloc::`RTTI Base Class Descriptor at (0,-1,0,64)'
PUBLIC	??_R4bad_array_new_length@std@@6B@		; std::bad_array_new_length::`RTTI Complete Object Locator'
PUBLIC	??_R3bad_array_new_length@std@@8		; std::bad_array_new_length::`RTTI Class Hierarchy Descriptor'
PUBLIC	??_R2bad_array_new_length@std@@8		; std::bad_array_new_length::`RTTI Base Class Array'
PUBLIC	??_R1A@?0A@EA@bad_array_new_length@std@@8	; std::bad_array_new_length::`RTTI Base Class Descriptor at (0,-1,0,64)'
PUBLIC	__real@40400000
PUBLIC	__real@40800000
EXTRN	??_M@YAXPEAX_K1P6AX0@Z@Z:PROC			; `eh vector destructor iterator'
EXTRN	??2@YAPEAX_K@Z:PROC				; operator new
EXTRN	??3@YAXPEAX_K@Z:PROC				; operator delete
EXTRN	??_V@YAXPEAX_K@Z:PROC				; operator delete[]
EXTRN	atexit:PROC
EXTRN	__imp__invalid_parameter:PROC
EXTRN	__imp___acrt_iob_func:PROC
EXTRN	__imp___stdio_common_vfprintf:PROC
EXTRN	__imp__calloc_dbg:PROC
EXTRN	__imp__CrtDbgReport:PROC
EXTRN	__imp_??0_Lockit@std@@QEAA@H@Z:PROC
EXTRN	__imp_??1_Lockit@std@@QEAA@XZ:PROC
EXTRN	__std_exception_copy:PROC
EXTRN	__std_exception_destroy:PROC
EXTRN	??_Eexception@std@@UEAAPEAXI@Z:PROC		; std::exception::`vector deleting destructor'
EXTRN	??_Ebad_alloc@std@@UEAAPEAXI@Z:PROC		; std::bad_alloc::`vector deleting destructor'
EXTRN	??_Ebad_array_new_length@std@@UEAAPEAXI@Z:PROC	; std::bad_array_new_length::`vector deleting destructor'
EXTRN	?_Xbad_alloc@std@@YAXXZ:PROC			; std::_Xbad_alloc
EXTRN	?_Xlength_error@std@@YAXPEBD@Z:PROC		; std::_Xlength_error
EXTRN	_Mbrtowc:PROC
EXTRN	__imp_?_Getcvt@_Locinfo@std@@QEBA?AU_Cvtvec@@XZ:PROC
EXTRN	__imp_?_Getdays@_Locinfo@std@@QEBAPEBDXZ:PROC
EXTRN	__imp_?_Getmonths@_Locinfo@std@@QEBAPEBDXZ:PROC
EXTRN	__imp_?_W_Getdays@_Locinfo@std@@QEBAPEBGXZ:PROC
EXTRN	__imp_?_W_Getmonths@_Locinfo@std@@QEBAPEBGXZ:PROC
EXTRN	?_Destroy@RaisinEng@@YAXXZ:PROC			; RaisinEng::_Destroy
EXTRN	?_Loop@RaisinEng@@YAXXZ:PROC			; RaisinEng::_Loop
EXTRN	?_Init@RaisinEng@@YAXHHPEBD@Z:PROC		; RaisinEng::_Init
EXTRN	_CxxThrowException:PROC
EXTRN	_RTC_CheckStackVars:PROC
EXTRN	_RTC_InitBase:PROC
EXTRN	_RTC_Shutdown:PROC
EXTRN	__CheckForDebuggerJustMyCode:PROC
EXTRN	__CxxFrameHandler4:PROC
EXTRN	__GSHandlerCheck:PROC
EXTRN	__GSHandlerCheck_EH4:PROC
EXTRN	__security_check_cookie:PROC
EXTRN	memmove:PROC
EXTRN	??_7type_info@@6B@:BYTE				; type_info::`vftable'
EXTRN	__security_cookie:QWORD
EXTRN	_fltused:DWORD
;	COMDAT ?_OptionsStorage@?1??__local_stdio_printf_options@@9@4_KA
_BSS	SEGMENT
?_OptionsStorage@?1??__local_stdio_printf_options@@9@4_KA DQ 01H DUP (?) ; `__local_stdio_printf_options'::`2'::_OptionsStorage
_BSS	ENDS
;	COMDAT ?m_inputs@RaisinEng@@3PAUsInputRegistered@1@A
_BSS	SEGMENT
?m_inputs@RaisinEng@@3PAUsInputRegistered@1@A DB 02000H DUP (?) ; RaisinEng::m_inputs
_BSS	ENDS
;	COMDAT ?g_ValidationLayers@@3V?$vector@PEBDV?$allocator@PEBD@std@@@std@@B
_BSS	SEGMENT
?g_ValidationLayers@@3V?$vector@PEBDV?$allocator@PEBD@std@@@std@@B DB 020H DUP (?) ; g_ValidationLayers
_BSS	ENDS
;	COMDAT pdata
pdata	SEGMENT
$pdata$??_H@YAXPEAX_K1P6APEAX0@Z@Z DD imagerel $LN7
	DD	imagerel $LN7+172
	DD	imagerel $unwind$??_H@YAXPEAX_K1P6APEAX0@Z@Z
pdata	ENDS
;	COMDAT pdata
pdata	SEGMENT
$pdata$?__empty_global_delete@@YAXPEAX@Z DD imagerel $LN3
	DD	imagerel $LN3+41
	DD	imagerel $unwind$?__empty_global_delete@@YAXPEAX@Z
pdata	ENDS
;	COMDAT pdata
pdata	SEGMENT
$pdata$?__empty_global_delete@@YAXPEAX_K@Z DD imagerel $LN3
	DD	imagerel $LN3+46
	DD	imagerel $unwind$?__empty_global_delete@@YAXPEAX_K@Z
pdata	ENDS
;	COMDAT pdata
pdata	SEGMENT
$pdata$?__empty_global_delete@@YAXPEAXW4align_val_t@std@@@Z DD imagerel $LN3
	DD	imagerel $LN3+46
	DD	imagerel $unwind$?__empty_global_delete@@YAXPEAXW4align_val_t@std@@@Z
pdata	ENDS
;	COMDAT pdata
pdata	SEGMENT
$pdata$?__empty_global_delete@@YAXPEAX_KW4align_val_t@std@@@Z DD imagerel $LN3
	DD	imagerel $LN3+51
	DD	imagerel $unwind$?__empty_global_delete@@YAXPEAX_KW4align_val_t@std@@@Z
pdata	ENDS
;	COMDAT pdata
pdata	SEGMENT
$pdata$__local_stdio_printf_options DD imagerel $LN3
	DD	imagerel $LN3+44
	DD	imagerel $unwind$__local_stdio_printf_options
pdata	ENDS
;	COMDAT pdata
pdata	SEGMENT
$pdata$_vfprintf_l DD imagerel $LN3
	DD	imagerel $LN3+103
	DD	imagerel $unwind$_vfprintf_l
pdata	ENDS
;	COMDAT pdata
pdata	SEGMENT
$pdata$printf DD imagerel $LN3
	DD	imagerel $LN3+216
	DD	imagerel $unwind$printf
pdata	ENDS
;	COMDAT pdata
pdata	SEGMENT
$pdata$??0Vector2D@@QEAA@MM@Z DD imagerel $LN3
	DD	imagerel $LN3+99
	DD	imagerel $unwind$??0Vector2D@@QEAA@MM@Z
pdata	ENDS
;	COMDAT pdata
pdata	SEGMENT
$pdata$??0Vector2D@@QEAA@AEBU0@@Z DD imagerel $LN3
	DD	imagerel $LN3+99
	DD	imagerel $unwind$??0Vector2D@@QEAA@AEBU0@@Z
pdata	ENDS
;	COMDAT pdata
pdata	SEGMENT
$pdata$??GVector2D@@QEAA?AU0@U0@@Z DD imagerel $LN3
	DD	imagerel $LN3+119
	DD	imagerel $unwind$??GVector2D@@QEAA?AU0@U0@@Z
pdata	ENDS
;	COMDAT pdata
pdata	SEGMENT
$pdata$??0sInputRegistered@RaisinEng@@QEAA@XZ DD imagerel $LN3
	DD	imagerel $LN3+76
	DD	imagerel $unwind$??0sInputRegistered@RaisinEng@@QEAA@XZ
pdata	ENDS
;	COMDAT pdata
pdata	SEGMENT
$pdata$??__Em_inputs@RaisinEng@@YAXXZ DD imagerel ??__Em_inputs@RaisinEng@@YAXXZ
	DD	imagerel ??__Em_inputs@RaisinEng@@YAXXZ+67
	DD	imagerel $unwind$??__Em_inputs@RaisinEng@@YAXXZ
pdata	ENDS
;	COMDAT pdata
pdata	SEGMENT
$pdata$??0CApplication@RaisinEng@@QEAA@XZ DD imagerel $LN3
	DD	imagerel $LN3+65
	DD	imagerel $unwind$??0CApplication@RaisinEng@@QEAA@XZ
pdata	ENDS
;	COMDAT pdata
pdata	SEGMENT
$pdata$??1CApplication@RaisinEng@@UEAA@XZ DD imagerel $LN3
	DD	imagerel $LN3+58
	DD	imagerel $unwind$??1CApplication@RaisinEng@@UEAA@XZ
pdata	ENDS
;	COMDAT pdata
pdata	SEGMENT
$pdata$?Run@CApplication@RaisinEng@@UEAAXXZ DD imagerel $LN3
	DD	imagerel $LN3+254
	DD	imagerel $unwind$?Run@CApplication@RaisinEng@@UEAAXXZ
pdata	ENDS
;	COMDAT pdata
pdata	SEGMENT
$pdata$??0CApplication@RaisinEng@@QEAA@AEBV01@@Z DD imagerel $LN3
	DD	imagerel $LN3+56
	DD	imagerel $unwind$??0CApplication@RaisinEng@@QEAA@AEBV01@@Z
pdata	ENDS
;	COMDAT pdata
pdata	SEGMENT
$pdata$??4CApplication@RaisinEng@@QEAAAEAV01@AEBV01@@Z DD imagerel $LN3
	DD	imagerel $LN3+39
	DD	imagerel $unwind$??4CApplication@RaisinEng@@QEAAAEAV01@AEBV01@@Z
pdata	ENDS
;	COMDAT pdata
pdata	SEGMENT
$pdata$??_GCApplication@RaisinEng@@UEAAPEAXI@Z DD imagerel $LN4
	DD	imagerel $LN4+82
	DD	imagerel $unwind$??_GCApplication@RaisinEng@@UEAAPEAXI@Z
pdata	ENDS
;	COMDAT pdata
pdata	SEGMENT
$pdata$??_ECApplication@RaisinEng@@UEAAPEAXI@Z DD imagerel $LN6
	DD	imagerel $LN6+194
	DD	imagerel $unwind$??_ECApplication@RaisinEng@@UEAAPEAXI@Z
pdata	ENDS
;	COMDAT pdata
pdata	SEGMENT
$pdata$wmemcpy DD imagerel $LN3
	DD	imagerel $LN3+89
	DD	imagerel $unwind$wmemcpy
pdata	ENDS
;	COMDAT pdata
pdata	SEGMENT
$pdata$?max@?$numeric_limits@_J@std@@SA_JXZ DD imagerel $LN3
	DD	imagerel $LN3+47
	DD	imagerel $unwind$?max@?$numeric_limits@_J@std@@SA_JXZ
pdata	ENDS
;	COMDAT pdata
pdata	SEGMENT
$pdata$??2@YAPEAX_KPEAX@Z DD imagerel $LN3
	DD	imagerel $LN3+53
	DD	imagerel $unwind$??2@YAPEAX_KPEAX@Z
pdata	ENDS
;	COMDAT pdata
pdata	SEGMENT
$pdata$??0exception@std@@QEAA@QEBDH@Z DD imagerel $LN3
	DD	imagerel $LN3+116
	DD	imagerel $unwind$??0exception@std@@QEAA@QEBDH@Z
pdata	ENDS
;	COMDAT pdata
pdata	SEGMENT
$pdata$??0exception@std@@QEAA@AEBV01@@Z DD imagerel $LN3
	DD	imagerel $LN3+123
	DD	imagerel $unwind$??0exception@std@@QEAA@AEBV01@@Z
pdata	ENDS
;	COMDAT pdata
pdata	SEGMENT
$pdata$??1exception@std@@UEAA@XZ DD imagerel $LN3
	DD	imagerel $LN3+77
	DD	imagerel $unwind$??1exception@std@@UEAA@XZ
pdata	ENDS
;	COMDAT pdata
pdata	SEGMENT
$pdata$?what@exception@std@@UEBAPEBDXZ DD imagerel $LN5
	DD	imagerel $LN5+96
	DD	imagerel $unwind$?what@exception@std@@UEBAPEBDXZ
pdata	ENDS
;	COMDAT pdata
pdata	SEGMENT
$pdata$??_Gexception@std@@UEAAPEAXI@Z DD imagerel $LN4
	DD	imagerel $LN4+82
	DD	imagerel $unwind$??_Gexception@std@@UEAAPEAXI@Z
pdata	ENDS
;	COMDAT pdata
pdata	SEGMENT
$pdata$??0bad_alloc@std@@AEAA@QEBD@Z DD imagerel $LN3
	DD	imagerel $LN3+95
	DD	imagerel $unwind$??0bad_alloc@std@@AEAA@QEBD@Z
pdata	ENDS
;	COMDAT pdata
pdata	SEGMENT
$pdata$??1bad_alloc@std@@UEAA@XZ DD imagerel $LN3
	DD	imagerel $LN3+41
	DD	imagerel $unwind$??1bad_alloc@std@@UEAA@XZ
pdata	ENDS
;	COMDAT pdata
pdata	SEGMENT
$pdata$??0bad_alloc@std@@QEAA@AEBV01@@Z DD imagerel $LN3
	DD	imagerel $LN3+77
	DD	imagerel $unwind$??0bad_alloc@std@@QEAA@AEBV01@@Z
pdata	ENDS
;	COMDAT pdata
pdata	SEGMENT
$pdata$??_Gbad_alloc@std@@UEAAPEAXI@Z DD imagerel $LN4
	DD	imagerel $LN4+82
	DD	imagerel $unwind$??_Gbad_alloc@std@@UEAAPEAXI@Z
pdata	ENDS
;	COMDAT pdata
pdata	SEGMENT
$pdata$??0bad_array_new_length@std@@QEAA@XZ DD imagerel $LN3
	DD	imagerel $LN3+84
	DD	imagerel $unwind$??0bad_array_new_length@std@@QEAA@XZ
pdata	ENDS
;	COMDAT pdata
pdata	SEGMENT
$pdata$??1bad_array_new_length@std@@UEAA@XZ DD imagerel $LN3
	DD	imagerel $LN3+41
	DD	imagerel $unwind$??1bad_array_new_length@std@@UEAA@XZ
pdata	ENDS
;	COMDAT pdata
pdata	SEGMENT
$pdata$??0bad_array_new_length@std@@QEAA@AEBV01@@Z DD imagerel $LN3
	DD	imagerel $LN3+77
	DD	imagerel $unwind$??0bad_array_new_length@std@@QEAA@AEBV01@@Z
pdata	ENDS
;	COMDAT pdata
pdata	SEGMENT
$pdata$??_Gbad_array_new_length@std@@UEAAPEAXI@Z DD imagerel $LN4
	DD	imagerel $LN4+82
	DD	imagerel $unwind$??_Gbad_array_new_length@std@@UEAAPEAXI@Z
pdata	ENDS
;	COMDAT pdata
pdata	SEGMENT
$pdata$?_Throw_bad_array_new_length@std@@YAXXZ DD imagerel $LN3
	DD	imagerel $LN3+68
	DD	imagerel $unwind$?_Throw_bad_array_new_length@std@@YAXXZ
pdata	ENDS
;	COMDAT pdata
pdata	SEGMENT
$pdata$?_Allocate@_Default_allocate_traits@std@@SAPEAX_K@Z DD imagerel $LN3
	DD	imagerel $LN3+53
	DD	imagerel $unwind$?_Allocate@_Default_allocate_traits@std@@SAPEAX_K@Z
pdata	ENDS
;	COMDAT pdata
pdata	SEGMENT
$pdata$?_Adjust_manually_vector_aligned@std@@YAXAEAPEAXAEA_K@Z DD imagerel $LN21
	DD	imagerel $LN21+453
	DD	imagerel $unwind$?_Adjust_manually_vector_aligned@std@@YAXAEAPEAXAEA_K@Z
pdata	ENDS
;	COMDAT pdata
pdata	SEGMENT
$pdata$??0_Container_proxy@std@@QEAA@PEAU_Container_base12@1@@Z DD imagerel $LN3
	DD	imagerel $LN3+85
	DD	imagerel $unwind$??0_Container_proxy@std@@QEAA@PEAU_Container_base12@1@@Z
pdata	ENDS
;	COMDAT pdata
pdata	SEGMENT
$pdata$??0_Container_base12@std@@QEAA@XZ DD imagerel $LN3
	DD	imagerel $LN3+62
	DD	imagerel $unwind$??0_Container_base12@std@@QEAA@XZ
pdata	ENDS
;	COMDAT pdata
pdata	SEGMENT
$pdata$?_Orphan_all@_Container_base12@std@@QEAAXXZ DD imagerel $LN3
	DD	imagerel $LN3+53
	DD	imagerel $unwind$?_Orphan_all@_Container_base12@std@@QEAAXXZ
pdata	ENDS
;	COMDAT pdata
pdata	SEGMENT
$pdata$?_Orphan_all_unlocked_v3@_Container_base12@std@@AEAAXXZ DD imagerel $LN7
	DD	imagerel $LN7+138
	DD	imagerel $unwind$?_Orphan_all_unlocked_v3@_Container_base12@std@@AEAAXXZ
pdata	ENDS
;	COMDAT pdata
pdata	SEGMENT
$pdata$?_Orphan_all_locked_v3@_Container_base12@std@@AEAAXXZ DD imagerel $LN3
	DD	imagerel $LN3+151
	DD	imagerel $unwind$?_Orphan_all_locked_v3@_Container_base12@std@@AEAAXXZ
pdata	ENDS
;	COMDAT pdata
pdata	SEGMENT
$pdata$?_Release@_Basic_container_proxy_ptr12@std@@QEAAXXZ DD imagerel $LN3
	DD	imagerel $LN3+55
	DD	imagerel $unwind$?_Release@_Basic_container_proxy_ptr12@std@@QEAAXXZ
pdata	ENDS
;	COMDAT pdata
pdata	SEGMENT
$pdata$??0_Basic_container_proxy_ptr12@std@@IEAA@XZ DD imagerel $LN3
	DD	imagerel $LN3+62
	DD	imagerel $unwind$??0_Basic_container_proxy_ptr12@std@@IEAA@XZ
pdata	ENDS
;	COMDAT pdata
pdata	SEGMENT
$pdata$??$_Maklocstr@_W@std@@YAPEA_WPEBDPEA_WAEBU_Cvtvec@@@Z DD imagerel $LN13
	DD	imagerel $LN13+633
	DD	imagerel $unwind$??$_Maklocstr@_W@std@@YAPEA_WPEBDPEA_WAEBU_Cvtvec@@@Z
pdata	ENDS
;	COMDAT pdata
pdata	SEGMENT
$pdata$?_Maklocwcs@std@@YAPEA_WPEB_W@Z DD imagerel $LN5
	DD	imagerel $LN5+189
	DD	imagerel $unwind$?_Maklocwcs@std@@YAPEA_WPEB_W@Z
pdata	ENDS
;	COMDAT pdata
pdata	SEGMENT
$pdata$??0?$allocator@PEBD@std@@QEAA@XZ DD imagerel $LN3
	DD	imagerel $LN3+48
	DD	imagerel $unwind$??0?$allocator@PEBD@std@@QEAA@XZ
pdata	ENDS
;	COMDAT pdata
pdata	SEGMENT
$pdata$?deallocate@?$allocator@PEBD@std@@QEAAXQEAPEBD_K@Z DD imagerel $LN13
	DD	imagerel $LN13+216
	DD	imagerel $unwind$?deallocate@?$allocator@PEBD@std@@QEAAXQEAPEBD_K@Z
pdata	ENDS
;	COMDAT pdata
pdata	SEGMENT
$pdata$?allocate@?$allocator@PEBD@std@@QEAAPEAPEBD_K@Z DD imagerel $LN3
	DD	imagerel $LN3+66
	DD	imagerel $unwind$?allocate@?$allocator@PEBD@std@@QEAAPEAPEBD_K@Z
pdata	ENDS
;	COMDAT pdata
pdata	SEGMENT
$pdata$?max_size@?$_Default_allocator_traits@V?$allocator@PEBD@std@@@std@@SA_KAEBV?$allocator@PEBD@2@@Z DD imagerel $LN3
	DD	imagerel $LN3+51
	DD	imagerel $unwind$?max_size@?$_Default_allocator_traits@V?$allocator@PEBD@std@@@std@@SA_KAEBV?$allocator@PEBD@2@@Z
pdata	ENDS
;	COMDAT pdata
pdata	SEGMENT
$pdata$??0?$vector@PEBDV?$allocator@PEBD@std@@@std@@QEAA@V?$initializer_list@PEBD@1@AEBV?$allocator@PEBD@1@@Z DD imagerel $LN3
	DD	imagerel $LN3+185
	DD	imagerel $unwind$??0?$vector@PEBDV?$allocator@PEBD@std@@@std@@QEAA@V?$initializer_list@PEBD@1@AEBV?$allocator@PEBD@1@@Z
pdata	ENDS
;	COMDAT pdata
pdata	SEGMENT
$pdata$??1?$vector@PEBDV?$allocator@PEBD@std@@@std@@QEAA@XZ DD imagerel $LN3
	DD	imagerel $LN3+203
	DD	imagerel $unwind$??1?$vector@PEBDV?$allocator@PEBD@std@@@std@@QEAA@XZ
pdata	ENDS
;	COMDAT pdata
pdata	SEGMENT
$pdata$?max_size@?$vector@PEBDV?$allocator@PEBD@std@@@std@@QEBA_KXZ DD imagerel $LN3
	DD	imagerel $LN3+102
	DD	imagerel $unwind$?max_size@?$vector@PEBDV?$allocator@PEBD@std@@@std@@QEBA_KXZ
pdata	ENDS
;	COMDAT pdata
pdata	SEGMENT
$pdata$?_Buy_raw@?$vector@PEBDV?$allocator@PEBD@std@@@std@@AEAAX_K@Z DD imagerel $LN3
	DD	imagerel $LN3+191
	DD	imagerel $unwind$?_Buy_raw@?$vector@PEBDV?$allocator@PEBD@std@@@std@@AEAAX_K@Z
pdata	ENDS
;	COMDAT pdata
pdata	SEGMENT
$pdata$?_Buy_nonzero@?$vector@PEBDV?$allocator@PEBD@std@@@std@@AEAAX_K@Z DD imagerel $LN4
	DD	imagerel $LN4+91
	DD	imagerel $unwind$?_Buy_nonzero@?$vector@PEBDV?$allocator@PEBD@std@@@std@@AEAAX_K@Z
pdata	ENDS
;	COMDAT pdata
pdata	SEGMENT
$pdata$?_Tidy@?$vector@PEBDV?$allocator@PEBD@std@@@std@@AEAAXXZ DD imagerel $LN4
	DD	imagerel $LN4+228
	DD	imagerel $unwind$?_Tidy@?$vector@PEBDV?$allocator@PEBD@std@@@std@@AEAAXXZ
pdata	ENDS
;	COMDAT pdata
pdata	SEGMENT
$pdata$?_Xlength@?$vector@PEBDV?$allocator@PEBD@std@@@std@@CAXXZ DD imagerel $LN3
	DD	imagerel $LN3+49
	DD	imagerel $unwind$?_Xlength@?$vector@PEBDV?$allocator@PEBD@std@@@std@@CAXXZ
pdata	ENDS
;	COMDAT pdata
pdata	SEGMENT
$pdata$?_Getal@?$vector@PEBDV?$allocator@PEBD@std@@@std@@AEAAAEAV?$allocator@PEBD@2@XZ DD imagerel $LN3
	DD	imagerel $LN3+56
	DD	imagerel $unwind$?_Getal@?$vector@PEBDV?$allocator@PEBD@std@@@std@@AEAAAEAV?$allocator@PEBD@2@XZ
pdata	ENDS
;	COMDAT pdata
pdata	SEGMENT
$pdata$?_Getal@?$vector@PEBDV?$allocator@PEBD@std@@@std@@AEBAAEBV?$allocator@PEBD@2@XZ DD imagerel $LN3
	DD	imagerel $LN3+56
	DD	imagerel $unwind$?_Getal@?$vector@PEBDV?$allocator@PEBD@std@@@std@@AEBAAEBV?$allocator@PEBD@2@XZ
pdata	ENDS
;	COMDAT pdata
pdata	SEGMENT
$pdata$??0?$_Vector_val@U?$_Simple_types@PEBD@std@@@std@@QEAA@XZ DD imagerel $LN3
	DD	imagerel $LN3+105
	DD	imagerel $unwind$??0?$_Vector_val@U?$_Simple_types@PEBD@std@@@std@@QEAA@XZ
pdata	ENDS
;	COMDAT pdata
pdata	SEGMENT
$pdata$?_Get_first@?$_Compressed_pair@V?$allocator@PEBD@std@@V?$_Vector_val@U?$_Simple_types@PEBD@std@@@2@$00@std@@QEAAAEAV?$allocator@PEBD@2@XZ DD imagerel $LN3
	DD	imagerel $LN3+48
	DD	imagerel $unwind$?_Get_first@?$_Compressed_pair@V?$allocator@PEBD@std@@V?$_Vector_val@U?$_Simple_types@PEBD@std@@@2@$00@std@@QEAAAEAV?$allocator@PEBD@2@XZ
pdata	ENDS
;	COMDAT pdata
pdata	SEGMENT
$pdata$?_Get_first@?$_Compressed_pair@V?$allocator@PEBD@std@@V?$_Vector_val@U?$_Simple_types@PEBD@std@@@2@$00@std@@QEBAAEBV?$allocator@PEBD@2@XZ DD imagerel $LN3
	DD	imagerel $LN3+48
	DD	imagerel $unwind$?_Get_first@?$_Compressed_pair@V?$allocator@PEBD@std@@V?$_Vector_val@U?$_Simple_types@PEBD@std@@@2@$00@std@@QEBAAEBV?$allocator@PEBD@2@XZ
pdata	ENDS
;	COMDAT pdata
pdata	SEGMENT
$pdata$?__autoclassinit2@?$vector@PEBDV?$allocator@PEBD@std@@@std@@QEAAX_K@Z DD imagerel $LN3
	DD	imagerel $LN3+50
	DD	imagerel $unwind$?__autoclassinit2@?$vector@PEBDV?$allocator@PEBD@std@@@std@@QEAAX_K@Z
pdata	ENDS
;	COMDAT pdata
pdata	SEGMENT
$pdata$??__Eg_ValidationLayers@@YAXXZ DD imagerel ??__Eg_ValidationLayers@@YAXXZ
	DD	imagerel ??__Eg_ValidationLayers@@YAXXZ+203
	DD	imagerel $unwind$??__Eg_ValidationLayers@@YAXXZ
pdata	ENDS
;	COMDAT pdata
pdata	SEGMENT
$pdata$??0?$initializer_list@PEBD@std@@QEAA@PEBQEBD0@Z DD imagerel $LN3
	DD	imagerel $LN3+93
	DD	imagerel $unwind$??0?$initializer_list@PEBD@std@@QEAA@PEBQEBD0@Z
pdata	ENDS
;	COMDAT pdata
pdata	SEGMENT
$pdata$?begin@?$initializer_list@PEBD@std@@QEBAPEBQEBDXZ DD imagerel $LN3
	DD	imagerel $LN3+51
	DD	imagerel $unwind$?begin@?$initializer_list@PEBD@std@@QEBAPEBQEBDXZ
pdata	ENDS
;	COMDAT pdata
pdata	SEGMENT
$pdata$?end@?$initializer_list@PEBD@std@@QEBAPEBQEBDXZ DD imagerel $LN3
	DD	imagerel $LN3+52
	DD	imagerel $unwind$?end@?$initializer_list@PEBD@std@@QEBAPEBQEBDXZ
pdata	ENDS
;	COMDAT pdata
pdata	SEGMENT
$pdata$?size@?$initializer_list@PEBD@std@@QEBA_KXZ DD imagerel $LN3
	DD	imagerel $LN3+69
	DD	imagerel $unwind$?size@?$initializer_list@PEBD@std@@QEBA_KXZ
pdata	ENDS
;	COMDAT pdata
pdata	SEGMENT
$pdata$??__Fg_ValidationLayers@@YAXXZ DD imagerel ??__Fg_ValidationLayers@@YAXXZ
	DD	imagerel ??__Fg_ValidationLayers@@YAXXZ+37
	DD	imagerel $unwind$??__Fg_ValidationLayers@@YAXXZ
pdata	ENDS
;	COMDAT pdata
pdata	SEGMENT
$pdata$??$_Getvals@_W@?$time_get@DV?$istreambuf_iterator@DU?$char_traits@D@std@@@std@@@std@@IEAAX_WAEBV_Locinfo@1@@Z DD imagerel $LN5
	DD	imagerel $LN5+356
	DD	imagerel $unwind$??$_Getvals@_W@?$time_get@DV?$istreambuf_iterator@DU?$char_traits@D@std@@@std@@@std@@IEAAX_WAEBV_Locinfo@1@@Z
pdata	ENDS
;	COMDAT pdata
pdata	SEGMENT
$pdata$??$_Getvals@_W@?$time_get@_WV?$istreambuf_iterator@_WU?$char_traits@_W@std@@@std@@@std@@IEAAX_WAEBV_Locinfo@1@@Z DD imagerel $LN5
	DD	imagerel $LN5+356
	DD	imagerel $unwind$??$_Getvals@_W@?$time_get@_WV?$istreambuf_iterator@_WU?$char_traits@_W@std@@@std@@@std@@IEAAX_WAEBV_Locinfo@1@@Z
pdata	ENDS
;	COMDAT pdata
pdata	SEGMENT
$pdata$?allocate@?$allocator@U_Container_proxy@std@@@std@@QEAAPEAU_Container_proxy@2@_K@Z DD imagerel $LN3
	DD	imagerel $LN3+66
	DD	imagerel $unwind$?allocate@?$allocator@U_Container_proxy@std@@@std@@QEAAPEAU_Container_proxy@2@_K@Z
pdata	ENDS
;	COMDAT pdata
pdata	SEGMENT
$pdata$??$exchange@PEAU_Container_proxy@std@@$$T@std@@YAPEAU_Container_proxy@0@AEAPEAU10@$$QEA$$T@Z DD imagerel $LN3
	DD	imagerel $LN3+84
	DD	imagerel $unwind$??$exchange@PEAU_Container_proxy@std@@$$T@std@@YAPEAU_Container_proxy@0@AEAPEAU10@$$QEA$$T@Z
pdata	ENDS
;	COMDAT pdata
pdata	SEGMENT
$pdata$??$_Delete_plain_internal@V?$allocator@U_Container_proxy@std@@@std@@@std@@YAXAEAV?$allocator@U_Container_proxy@std@@@0@QEAU_Container_proxy@0@@Z DD imagerel $LN3
	DD	imagerel $LN3+65
	DD	imagerel $unwind$??$_Delete_plain_internal@V?$allocator@U_Container_proxy@std@@@std@@@std@@YAXAEAV?$allocator@U_Container_proxy@std@@@0@QEAU_Container_proxy@0@@Z
pdata	ENDS
;	COMDAT pdata
pdata	SEGMENT
$pdata$??$?0PEBD@?$allocator@U_Container_proxy@std@@@std@@QEAA@AEBV?$allocator@PEBD@1@@Z DD imagerel $LN3
	DD	imagerel $LN3+53
	DD	imagerel $unwind$??$?0PEBD@?$allocator@U_Container_proxy@std@@@std@@QEAA@AEBV?$allocator@PEBD@1@@Z
pdata	ENDS
;	COMDAT pdata
pdata	SEGMENT
$pdata$??$?0AEBV?$allocator@PEBD@std@@$$V@?$_Compressed_pair@V?$allocator@PEBD@std@@V?$_Vector_val@U?$_Simple_types@PEBD@std@@@2@$00@std@@QEAA@U_One_then_variadic_args_t@1@AEBV?$allocator@PEBD@1@@Z DD imagerel $LN3
	DD	imagerel $LN3+84
	DD	imagerel $unwind$??$?0AEBV?$allocator@PEBD@std@@$$V@?$_Compressed_pair@V?$allocator@PEBD@std@@V?$_Vector_val@U?$_Simple_types@PEBD@std@@@2@$00@std@@QEAA@U_One_then_variadic_args_t@1@AEBV?$allocator@PEBD@1@@Z
pdata	ENDS
;	COMDAT pdata
pdata	SEGMENT
$pdata$??$_Convert_size@_K@std@@YA_K_K@Z DD imagerel $LN3
	DD	imagerel $LN3+48
	DD	imagerel $unwind$??$_Convert_size@_K@std@@YA_K_K@Z
pdata	ENDS
;	COMDAT pdata
pdata	SEGMENT
$pdata$??$_Construct_n@PEBQEBDPEBQEBD@?$vector@PEBDV?$allocator@PEBD@std@@@std@@AEAAX_K$$QEAPEBQEBD1@Z DD imagerel $LN6
	DD	imagerel $LN6+390
	DD	imagerel $unwind$??$_Construct_n@PEBQEBDPEBQEBD@?$vector@PEBDV?$allocator@PEBD@std@@@std@@AEAAX_K$$QEAPEBQEBD1@Z
pdata	ENDS
;	COMDAT pdata
pdata	SEGMENT
$pdata$?dtor$0@?0???$_Construct_n@PEBQEBDPEBQEBD@?$vector@PEBDV?$allocator@PEBD@std@@@std@@AEAAX_K$$QEAPEBQEBD1@Z@4HA DD imagerel ?dtor$0@?0???$_Construct_n@PEBQEBDPEBQEBD@?$vector@PEBDV?$allocator@PEBD@std@@@std@@AEAAX_K$$QEAPEBQEBD1@Z@4HA
	DD	imagerel ?dtor$0@?0???$_Construct_n@PEBQEBDPEBQEBD@?$vector@PEBDV?$allocator@PEBD@std@@@std@@AEAAX_K$$QEAPEBQEBD1@Z@4HA+39
	DD	imagerel $unwind$?dtor$0@?0???$_Construct_n@PEBQEBDPEBQEBD@?$vector@PEBDV?$allocator@PEBD@std@@@std@@AEAAX_K$$QEAPEBQEBD1@Z@4HA
pdata	ENDS
;	COMDAT pdata
pdata	SEGMENT
$pdata$?dtor$1@?0???$_Construct_n@PEBQEBDPEBQEBD@?$vector@PEBDV?$allocator@PEBD@std@@@std@@AEAAX_K$$QEAPEBQEBD1@Z@4HA DD imagerel ?dtor$1@?0???$_Construct_n@PEBQEBDPEBQEBD@?$vector@PEBDV?$allocator@PEBD@std@@@std@@AEAAX_K$$QEAPEBQEBD1@Z@4HA
	DD	imagerel ?dtor$1@?0???$_Construct_n@PEBQEBDPEBQEBD@?$vector@PEBDV?$allocator@PEBD@std@@@std@@AEAAX_K$$QEAPEBQEBD1@Z@4HA+39
	DD	imagerel $unwind$?dtor$1@?0???$_Construct_n@PEBQEBDPEBQEBD@?$vector@PEBDV?$allocator@PEBD@std@@@std@@AEAAX_K$$QEAPEBQEBD1@Z@4HA
pdata	ENDS
;	COMDAT pdata
pdata	SEGMENT
$pdata$??$min@_K@std@@YAAEB_KAEB_K0@Z DD imagerel $LN5
	DD	imagerel $LN5+119
	DD	imagerel $unwind$??$min@_K@std@@YAAEB_KAEB_K0@Z
pdata	ENDS
;	COMDAT pdata
pdata	SEGMENT
$pdata$??0?$_Container_proxy_ptr12@V?$allocator@U_Container_proxy@std@@@std@@@std@@QEAA@AEAV?$allocator@U_Container_proxy@std@@@1@AEAU_Container_base12@1@@Z DD imagerel $LN3
	DD	imagerel $LN3+184
	DD	imagerel $unwind$??0?$_Container_proxy_ptr12@V?$allocator@U_Container_proxy@std@@@std@@@std@@QEAA@AEAV?$allocator@U_Container_proxy@std@@@1@AEAU_Container_base12@1@@Z
pdata	ENDS
;	COMDAT pdata
pdata	SEGMENT
$pdata$??1?$_Container_proxy_ptr12@V?$allocator@U_Container_proxy@std@@@std@@@std@@QEAA@XZ DD imagerel $LN4
	DD	imagerel $LN4+80
	DD	imagerel $unwind$??1?$_Container_proxy_ptr12@V?$allocator@U_Container_proxy@std@@@std@@@std@@QEAA@XZ
pdata	ENDS
;	COMDAT pdata
pdata	SEGMENT
$pdata$??$_Destroy_range@V?$allocator@PEBD@std@@@std@@YAXPEAPEBDQEAPEBDAEAV?$allocator@PEBD@0@@Z DD imagerel $LN3
	DD	imagerel $LN3+51
	DD	imagerel $unwind$??$_Destroy_range@V?$allocator@PEBD@std@@@std@@YAXPEAPEBDQEAPEBDAEAV?$allocator@PEBD@0@@Z
pdata	ENDS
;	COMDAT pdata
pdata	SEGMENT
$pdata$??$_Unfancy@U_Container_proxy@std@@@std@@YAPEAU_Container_proxy@0@PEAU10@@Z DD imagerel $LN3
	DD	imagerel $LN3+48
	DD	imagerel $unwind$??$_Unfancy@U_Container_proxy@std@@@std@@YAPEAU_Container_proxy@0@PEAU10@@Z
pdata	ENDS
;	COMDAT pdata
pdata	SEGMENT
$pdata$??$addressof@U_Container_base12@std@@@std@@YAPEAU_Container_base12@0@AEAU10@@Z DD imagerel $LN3
	DD	imagerel $LN3+48
	DD	imagerel $unwind$??$addressof@U_Container_base12@std@@@std@@YAPEAU_Container_base12@0@AEAU10@@Z
pdata	ENDS
;	COMDAT pdata
pdata	SEGMENT
$pdata$??$_Construct_in_place@U_Container_proxy@std@@PEAU_Container_base12@2@@std@@YAXAEAU_Container_proxy@0@$$QEAPEAU_Container_base12@0@@Z DD imagerel $LN3
	DD	imagerel $LN3+127
	DD	imagerel $unwind$??$_Construct_in_place@U_Container_proxy@std@@PEAU_Container_base12@2@@std@@YAXAEAU_Container_proxy@0@$$QEAPEAU_Container_base12@0@@Z
pdata	ENDS
;	COMDAT pdata
pdata	SEGMENT
$pdata$??$_Deallocate@$0BA@$0A@@std@@YAXPEAX_K@Z DD imagerel $LN4
	DD	imagerel $LN4+98
	DD	imagerel $unwind$??$_Deallocate@$0BA@$0A@@std@@YAXPEAX_K@Z
pdata	ENDS
;	COMDAT pdata
pdata	SEGMENT
$pdata$??$_Allocate@$0BA@U_Default_allocate_traits@std@@$0A@@std@@YAPEAX_K@Z DD imagerel $LN5
	DD	imagerel $LN5+94
	DD	imagerel $unwind$??$_Allocate@$0BA@U_Default_allocate_traits@std@@$0A@@std@@YAPEAX_K@Z
pdata	ENDS
;	COMDAT pdata
pdata	SEGMENT
$pdata$??$_Get_size_of_n@$0BA@@std@@YA_K_K@Z DD imagerel $LN4
	DD	imagerel $LN4+91
	DD	imagerel $unwind$??$_Get_size_of_n@$0BA@@std@@YA_K_K@Z
pdata	ENDS
;	COMDAT pdata
pdata	SEGMENT
$pdata$??$_Maklocstr@D@std@@YAPEADPEBDPEADAEBU_Cvtvec@@@Z DD imagerel $LN8
	DD	imagerel $LN8+247
	DD	imagerel $unwind$??$_Maklocstr@D@std@@YAPEADPEBDPEADAEBU_Cvtvec@@@Z
pdata	ENDS
;	COMDAT pdata
pdata	SEGMENT
$pdata$??$_Deallocate_plain@V?$allocator@U_Container_proxy@std@@@std@@@std@@YAXAEAV?$allocator@U_Container_proxy@std@@@0@QEAU_Container_proxy@0@@Z DD imagerel $LN3
	DD	imagerel $LN3+72
	DD	imagerel $unwind$??$_Deallocate_plain@V?$allocator@U_Container_proxy@std@@@std@@@std@@YAXAEAV?$allocator@U_Container_proxy@std@@@0@QEAU_Container_proxy@0@@Z
pdata	ENDS
;	COMDAT pdata
pdata	SEGMENT
$pdata$??$forward@AEBV?$allocator@PEBD@std@@@std@@YAAEBV?$allocator@PEBD@0@AEBV10@@Z DD imagerel $LN3
	DD	imagerel $LN3+48
	DD	imagerel $unwind$??$forward@AEBV?$allocator@PEBD@std@@@std@@YAAEBV?$allocator@PEBD@0@AEBV10@@Z
pdata	ENDS
;	COMDAT pdata
pdata	SEGMENT
$pdata$??1?$_Tidy_guard@V?$vector@PEBDV?$allocator@PEBD@std@@@std@@@std@@QEAA@XZ DD imagerel $LN4
	DD	imagerel $LN4+69
	DD	imagerel $unwind$??1?$_Tidy_guard@V?$vector@PEBDV?$allocator@PEBD@std@@@std@@@std@@QEAA@XZ
pdata	ENDS
;	COMDAT pdata
pdata	SEGMENT
$pdata$??$forward@PEBQEBD@std@@YA$$QEAPEBQEBDAEAPEBQEBD@Z DD imagerel $LN3
	DD	imagerel $LN3+48
	DD	imagerel $unwind$??$forward@PEBQEBD@std@@YA$$QEAPEBQEBDAEAPEBQEBD@Z
pdata	ENDS
;	COMDAT pdata
pdata	SEGMENT
$pdata$??$_Uninitialized_copy@PEBQEBDV?$allocator@PEBD@std@@@std@@YAPEAPEBDQEBQEBD0PEAPEBDAEAV?$allocator@PEBD@0@@Z DD imagerel $LN7
	DD	imagerel $LN7+348
	DD	imagerel $unwind$??$_Uninitialized_copy@PEBQEBDV?$allocator@PEBD@std@@@std@@YAPEAPEBDQEBQEBD0PEAPEBDAEAV?$allocator@PEBD@0@@Z
pdata	ENDS
;	COMDAT pdata
pdata	SEGMENT
$pdata$?dtor$0@?0???$_Uninitialized_copy@PEBQEBDV?$allocator@PEBD@std@@@std@@YAPEAPEBDQEBQEBD0PEAPEBDAEAV?$allocator@PEBD@0@@Z@4HA DD imagerel ?dtor$0@?0???$_Uninitialized_copy@PEBQEBDV?$allocator@PEBD@std@@@std@@YAPEAPEBDQEBQEBD0PEAPEBDAEAV?$allocator@PEBD@0@@Z@4HA
	DD	imagerel ?dtor$0@?0???$_Uninitialized_copy@PEBQEBDV?$allocator@PEBD@std@@@std@@YAPEAPEBDQEBQEBD0PEAPEBDAEAV?$allocator@PEBD@0@@Z@4HA+36
	DD	imagerel $unwind$?dtor$0@?0???$_Uninitialized_copy@PEBQEBDV?$allocator@PEBD@std@@@std@@YAPEAPEBDQEBQEBD0PEAPEBDAEAV?$allocator@PEBD@0@@Z@4HA
pdata	ENDS
;	COMDAT pdata
pdata	SEGMENT
$pdata$??$addressof@U_Container_proxy@std@@@std@@YAPEAU_Container_proxy@0@AEAU10@@Z DD imagerel $LN3
	DD	imagerel $LN3+48
	DD	imagerel $unwind$??$addressof@U_Container_proxy@std@@@std@@YAPEAU_Container_proxy@0@AEAU10@@Z
pdata	ENDS
;	COMDAT pdata
pdata	SEGMENT
$pdata$??$_Voidify_iter@PEAU_Container_proxy@std@@@std@@YAPEAXPEAU_Container_proxy@0@@Z DD imagerel $LN3
	DD	imagerel $LN3+48
	DD	imagerel $unwind$??$_Voidify_iter@PEAU_Container_proxy@std@@@std@@YAPEAXPEAU_Container_proxy@0@@Z
pdata	ENDS
;	COMDAT pdata
pdata	SEGMENT
$pdata$??$forward@PEAU_Container_base12@std@@@std@@YA$$QEAPEAU_Container_base12@0@AEAPEAU10@@Z DD imagerel $LN3
	DD	imagerel $LN3+48
	DD	imagerel $unwind$??$forward@PEAU_Container_base12@std@@@std@@YA$$QEAPEAU_Container_base12@0@AEAPEAU10@@Z
pdata	ENDS
;	COMDAT pdata
pdata	SEGMENT
$pdata$??$_Allocate_manually_vector_aligned@U_Default_allocate_traits@std@@@std@@YAPEAX_K@Z DD imagerel $LN13
	DD	imagerel $LN13+277
	DD	imagerel $unwind$??$_Allocate_manually_vector_aligned@U_Default_allocate_traits@std@@@std@@YAPEAX_K@Z
pdata	ENDS
;	COMDAT pdata
pdata	SEGMENT
$pdata$??$_Get_size_of_n@$07@std@@YA_K_K@Z DD imagerel $LN4
	DD	imagerel $LN4+94
	DD	imagerel $unwind$??$_Get_size_of_n@$07@std@@YA_K_K@Z
pdata	ENDS
;	COMDAT pdata
pdata	SEGMENT
$pdata$?deallocate@?$_Default_allocator_traits@V?$allocator@U_Container_proxy@std@@@std@@@std@@SAXAEAV?$allocator@U_Container_proxy@std@@@2@QEAU_Container_proxy@2@_K@Z DD imagerel $LN3
	DD	imagerel $LN3+74
	DD	imagerel $unwind$?deallocate@?$_Default_allocator_traits@V?$allocator@U_Container_proxy@std@@@std@@@std@@SAXAEAV?$allocator@U_Container_proxy@std@@@2@QEAU_Container_proxy@2@_K@Z
pdata	ENDS
;	COMDAT pdata
pdata	SEGMENT
$pdata$??$_Get_unwrapped@AEBQEBQEBD@std@@YA?A_TAEBQEBQEBD@Z DD imagerel $LN3
	DD	imagerel $LN3+51
	DD	imagerel $unwind$??$_Get_unwrapped@AEBQEBQEBD@std@@YA?A_TAEBQEBQEBD@Z
pdata	ENDS
;	COMDAT pdata
pdata	SEGMENT
$pdata$??$_Unfancy@PEBD@std@@YAPEAPEBDPEAPEBD@Z DD imagerel $LN3
	DD	imagerel $LN3+48
	DD	imagerel $unwind$??$_Unfancy@PEBD@std@@YAPEAPEBDPEAPEBD@Z
pdata	ENDS
;	COMDAT pdata
pdata	SEGMENT
$pdata$??$_Copy_memmove@PEBQEBDPEAPEBD@std@@YAPEAPEBDPEBQEBD0PEAPEBD@Z DD imagerel $LN3
	DD	imagerel $LN3+196
	DD	imagerel $unwind$??$_Copy_memmove@PEBQEBDPEAPEBD@std@@YAPEAPEBDPEBQEBD0PEAPEBD@Z
pdata	ENDS
;	COMDAT pdata
pdata	SEGMENT
$pdata$??0?$_Uninitialized_backout_al@V?$allocator@PEBD@std@@@std@@QEAA@PEAPEBDAEAV?$allocator@PEBD@1@@Z DD imagerel $LN3
	DD	imagerel $LN3+111
	DD	imagerel $unwind$??0?$_Uninitialized_backout_al@V?$allocator@PEBD@std@@@std@@QEAA@PEAPEBDAEAV?$allocator@PEBD@1@@Z
pdata	ENDS
;	COMDAT pdata
pdata	SEGMENT
$pdata$??1?$_Uninitialized_backout_al@V?$allocator@PEBD@std@@@std@@QEAA@XZ DD imagerel $LN3
	DD	imagerel $LN3+78
	DD	imagerel $unwind$??1?$_Uninitialized_backout_al@V?$allocator@PEBD@std@@@std@@QEAA@XZ
pdata	ENDS
;	COMDAT pdata
pdata	SEGMENT
$pdata$?_Release@?$_Uninitialized_backout_al@V?$allocator@PEBD@std@@@std@@QEAAPEAPEBDXZ DD imagerel $LN3
	DD	imagerel $LN3+73
	DD	imagerel $unwind$?_Release@?$_Uninitialized_backout_al@V?$allocator@PEBD@std@@@std@@QEAAPEAPEBDXZ
pdata	ENDS
;	COMDAT pdata
pdata	SEGMENT
$pdata$?__autoclassinit2@?$_Uninitialized_backout_al@V?$allocator@PEBD@std@@@std@@QEAAX_K@Z DD imagerel $LN3
	DD	imagerel $LN3+50
	DD	imagerel $unwind$?__autoclassinit2@?$_Uninitialized_backout_al@V?$allocator@PEBD@std@@@std@@QEAAX_K@Z
pdata	ENDS
;	COMDAT pdata
pdata	SEGMENT
$pdata$??$_Emplace_back@AEBQEBD@?$_Uninitialized_backout_al@V?$allocator@PEBD@std@@@std@@QEAAXAEBQEBD@Z DD imagerel $LN3
	DD	imagerel $LN3+158
	DD	imagerel $unwind$??$_Emplace_back@AEBQEBD@?$_Uninitialized_backout_al@V?$allocator@PEBD@std@@@std@@QEAAXAEBQEBD@Z
pdata	ENDS
;	COMDAT pdata
pdata	SEGMENT
$pdata$??$_To_address@PEBQEBD@std@@YA?A_PAEBQEBQEBD@Z DD imagerel $LN3
	DD	imagerel $LN3+51
	DD	imagerel $unwind$??$_To_address@PEBQEBD@std@@YA?A_PAEBQEBQEBD@Z
pdata	ENDS
;	COMDAT pdata
pdata	SEGMENT
$pdata$??$_To_address@PEAPEBD@std@@YA?A_PAEBQEAPEBD@Z DD imagerel $LN3
	DD	imagerel $LN3+51
	DD	imagerel $unwind$??$_To_address@PEAPEBD@std@@YA?A_PAEBQEAPEBD@Z
pdata	ENDS
;	COMDAT pdata
pdata	SEGMENT
$pdata$??$forward@AEBQEBD@std@@YAAEBQEBDAEBQEBD@Z DD imagerel $LN3
	DD	imagerel $LN3+48
	DD	imagerel $unwind$??$forward@AEBQEBD@std@@YAAEBQEBDAEBQEBD@Z
pdata	ENDS
;	COMDAT pdata
pdata	SEGMENT
$pdata$??$construct@PEBDAEBQEBD@?$_Default_allocator_traits@V?$allocator@PEBD@std@@@std@@SAXAEAV?$allocator@PEBD@1@QEAPEBDAEBQEBD@Z DD imagerel $LN3
	DD	imagerel $LN3+108
	DD	imagerel $unwind$??$construct@PEBDAEBQEBD@?$_Default_allocator_traits@V?$allocator@PEBD@std@@@std@@SAXAEAV?$allocator@PEBD@1@QEAPEBDAEBQEBD@Z
pdata	ENDS
;	COMDAT pdata
pdata	SEGMENT
$pdata$??$_Voidify_iter@PEAPEBD@std@@YAPEAXPEAPEBD@Z DD imagerel $LN3
	DD	imagerel $LN3+48
	DD	imagerel $unwind$??$_Voidify_iter@PEAPEBD@std@@YAPEAXPEAPEBD@Z
pdata	ENDS
;	COMDAT CRT$XCU
CRT$XCU	SEGMENT
?m_inputs$initializer$@RaisinEng@@3P6AXXZEA DQ FLAT:??__Em_inputs@RaisinEng@@YAXXZ ; RaisinEng::m_inputs$initializer$
CRT$XCU	ENDS
;	COMDAT __real@40800000
CONST	SEGMENT
__real@40800000 DD 040800000r			; 4
CONST	ENDS
;	COMDAT __real@40400000
CONST	SEGMENT
__real@40400000 DD 040400000r			; 3
CONST	ENDS
;	COMDAT rtc$TMZ
rtc$TMZ	SEGMENT
_RTC_Shutdown.rtc$TMZ DQ FLAT:_RTC_Shutdown
rtc$TMZ	ENDS
;	COMDAT rtc$IMZ
rtc$IMZ	SEGMENT
_RTC_InitBase.rtc$IMZ DQ FLAT:_RTC_InitBase
rtc$IMZ	ENDS
;	COMDAT ??_R1A@?0A@EA@bad_array_new_length@std@@8
rdata$r	SEGMENT
??_R1A@?0A@EA@bad_array_new_length@std@@8 DD imagerel ??_R0?AVbad_array_new_length@std@@@8 ; std::bad_array_new_length::`RTTI Base Class Descriptor at (0,-1,0,64)'
	DD	02H
	DD	00H
	DD	0ffffffffH
	DD	00H
	DD	040H
	DD	imagerel ??_R3bad_array_new_length@std@@8
rdata$r	ENDS
;	COMDAT ??_R2bad_array_new_length@std@@8
rdata$r	SEGMENT
??_R2bad_array_new_length@std@@8 DD imagerel ??_R1A@?0A@EA@bad_array_new_length@std@@8 ; std::bad_array_new_length::`RTTI Base Class Array'
	DD	imagerel ??_R1A@?0A@EA@bad_alloc@std@@8
	DD	imagerel ??_R1A@?0A@EA@exception@std@@8
	ORG $+3
rdata$r	ENDS
;	COMDAT ??_R3bad_array_new_length@std@@8
rdata$r	SEGMENT
??_R3bad_array_new_length@std@@8 DD 00H			; std::bad_array_new_length::`RTTI Class Hierarchy Descriptor'
	DD	00H
	DD	03H
	DD	imagerel ??_R2bad_array_new_length@std@@8
rdata$r	ENDS
;	COMDAT ??_R4bad_array_new_length@std@@6B@
rdata$r	SEGMENT
??_R4bad_array_new_length@std@@6B@ DD 01H		; std::bad_array_new_length::`RTTI Complete Object Locator'
	DD	00H
	DD	00H
	DD	imagerel ??_R0?AVbad_array_new_length@std@@@8
	DD	imagerel ??_R3bad_array_new_length@std@@8
	DD	imagerel ??_R4bad_array_new_length@std@@6B@
rdata$r	ENDS
;	COMDAT ??_R1A@?0A@EA@bad_alloc@std@@8
rdata$r	SEGMENT
??_R1A@?0A@EA@bad_alloc@std@@8 DD imagerel ??_R0?AVbad_alloc@std@@@8 ; std::bad_alloc::`RTTI Base Class Descriptor at (0,-1,0,64)'
	DD	01H
	DD	00H
	DD	0ffffffffH
	DD	00H
	DD	040H
	DD	imagerel ??_R3bad_alloc@std@@8
rdata$r	ENDS
;	COMDAT ??_R2bad_alloc@std@@8
rdata$r	SEGMENT
??_R2bad_alloc@std@@8 DD imagerel ??_R1A@?0A@EA@bad_alloc@std@@8 ; std::bad_alloc::`RTTI Base Class Array'
	DD	imagerel ??_R1A@?0A@EA@exception@std@@8
	ORG $+3
rdata$r	ENDS
;	COMDAT ??_R3bad_alloc@std@@8
rdata$r	SEGMENT
??_R3bad_alloc@std@@8 DD 00H				; std::bad_alloc::`RTTI Class Hierarchy Descriptor'
	DD	00H
	DD	02H
	DD	imagerel ??_R2bad_alloc@std@@8
rdata$r	ENDS
;	COMDAT ??_R4bad_alloc@std@@6B@
rdata$r	SEGMENT
??_R4bad_alloc@std@@6B@ DD 01H				; std::bad_alloc::`RTTI Complete Object Locator'
	DD	00H
	DD	00H
	DD	imagerel ??_R0?AVbad_alloc@std@@@8
	DD	imagerel ??_R3bad_alloc@std@@8
	DD	imagerel ??_R4bad_alloc@std@@6B@
rdata$r	ENDS
;	COMDAT ??_R1A@?0A@EA@exception@std@@8
rdata$r	SEGMENT
??_R1A@?0A@EA@exception@std@@8 DD imagerel ??_R0?AVexception@std@@@8 ; std::exception::`RTTI Base Class Descriptor at (0,-1,0,64)'
	DD	00H
	DD	00H
	DD	0ffffffffH
	DD	00H
	DD	040H
	DD	imagerel ??_R3exception@std@@8
rdata$r	ENDS
;	COMDAT ??_R2exception@std@@8
rdata$r	SEGMENT
??_R2exception@std@@8 DD imagerel ??_R1A@?0A@EA@exception@std@@8 ; std::exception::`RTTI Base Class Array'
	ORG $+3
rdata$r	ENDS
;	COMDAT ??_R3exception@std@@8
rdata$r	SEGMENT
??_R3exception@std@@8 DD 00H				; std::exception::`RTTI Class Hierarchy Descriptor'
	DD	00H
	DD	01H
	DD	imagerel ??_R2exception@std@@8
rdata$r	ENDS
;	COMDAT ??_R4exception@std@@6B@
rdata$r	SEGMENT
??_R4exception@std@@6B@ DD 01H				; std::exception::`RTTI Complete Object Locator'
	DD	00H
	DD	00H
	DD	imagerel ??_R0?AVexception@std@@@8
	DD	imagerel ??_R3exception@std@@8
	DD	imagerel ??_R4exception@std@@6B@
rdata$r	ENDS
;	COMDAT ??_R1A@?0A@EA@CApplication@RaisinEng@@8
rdata$r	SEGMENT
??_R1A@?0A@EA@CApplication@RaisinEng@@8 DD imagerel ??_R0?AVCApplication@RaisinEng@@@8 ; RaisinEng::CApplication::`RTTI Base Class Descriptor at (0,-1,0,64)'
	DD	00H
	DD	00H
	DD	0ffffffffH
	DD	00H
	DD	040H
	DD	imagerel ??_R3CApplication@RaisinEng@@8
rdata$r	ENDS
;	COMDAT ??_R2CApplication@RaisinEng@@8
rdata$r	SEGMENT
??_R2CApplication@RaisinEng@@8 DD imagerel ??_R1A@?0A@EA@CApplication@RaisinEng@@8 ; RaisinEng::CApplication::`RTTI Base Class Array'
	ORG $+3
rdata$r	ENDS
;	COMDAT ??_R3CApplication@RaisinEng@@8
rdata$r	SEGMENT
??_R3CApplication@RaisinEng@@8 DD 00H			; RaisinEng::CApplication::`RTTI Class Hierarchy Descriptor'
	DD	00H
	DD	01H
	DD	imagerel ??_R2CApplication@RaisinEng@@8
rdata$r	ENDS
;	COMDAT ??_R0?AVCApplication@RaisinEng@@@8
data$rs	SEGMENT
??_R0?AVCApplication@RaisinEng@@@8 DQ FLAT:??_7type_info@@6B@ ; RaisinEng::CApplication `RTTI Type Descriptor'
	DQ	0000000000000000H
	DB	'.?AVCApplication@RaisinEng@@', 00H
data$rs	ENDS
;	COMDAT ??_R4CApplication@RaisinEng@@6B@
rdata$r	SEGMENT
??_R4CApplication@RaisinEng@@6B@ DD 01H			; RaisinEng::CApplication::`RTTI Complete Object Locator'
	DD	00H
	DD	00H
	DD	imagerel ??_R0?AVCApplication@RaisinEng@@@8
	DD	imagerel ??_R3CApplication@RaisinEng@@8
	DD	imagerel ??_R4CApplication@RaisinEng@@6B@
rdata$r	ENDS
;	COMDAT ??_C@_0BA@FOIKENOD@vector?5too?5long@
CONST	SEGMENT
??_C@_0BA@FOIKENOD@vector?5too?5long@ DB 'vector too long', 00H ; `string'
CONST	ENDS
;	COMDAT ??_C@_1BK@MHIKGOKE@?$AA?3?$AAA?$AAM?$AA?3?$AAa?$AAm?$AA?3?$AAP?$AAM?$AA?3?$AAp?$AAm@
CONST	SEGMENT
??_C@_1BK@MHIKGOKE@?$AA?3?$AAA?$AAM?$AA?3?$AAa?$AAm?$AA?3?$AAP?$AAM?$AA?3?$AAp?$AAm@ DB ':'
	DB	00H, 'A', 00H, 'M', 00H, ':', 00H, 'a', 00H, 'm', 00H, ':', 00H
	DB	'P', 00H, 'M', 00H, ':', 00H, 'p', 00H, 'm', 00H, 00H, 00H ; `string'
CONST	ENDS
;	COMDAT ??_C@_1HA@FACCKGGH@?$AA?$CC?$AAn?$AAu?$AAl?$AAl?$AA?5?$AAp?$AAo?$AAi?$AAn?$AAt?$AAe?$AAr?$AA?5?$AAc@
CONST	SEGMENT
??_C@_1HA@FACCKGGH@?$AA?$CC?$AAn?$AAu?$AAl?$AAl?$AA?5?$AAp?$AAo?$AAi?$AAn?$AAt?$AAe?$AAr?$AA?5?$AAc@ DB '"'
	DB	00H, 'n', 00H, 'u', 00H, 'l', 00H, 'l', 00H, ' ', 00H, 'p', 00H
	DB	'o', 00H, 'i', 00H, 'n', 00H, 't', 00H, 'e', 00H, 'r', 00H, ' '
	DB	00H, 'c', 00H, 'a', 00H, 'n', 00H, 'n', 00H, 'o', 00H, 't', 00H
	DB	' ', 00H, 'p', 00H, 'o', 00H, 'i', 00H, 'n', 00H, 't', 00H, ' '
	DB	00H, 't', 00H, 'o', 00H, ' ', 00H, 'a', 00H, ' ', 00H, 'b', 00H
	DB	'l', 00H, 'o', 00H, 'c', 00H, 'k', 00H, ' ', 00H, 'o', 00H, 'f'
	DB	00H, ' ', 00H, 'n', 00H, 'o', 00H, 'n', 00H, '-', 00H, 'z', 00H
	DB	'e', 00H, 'r', 00H, 'o', 00H, ' ', 00H, 's', 00H, 'i', 00H, 'z'
	DB	00H, 'e', 00H, '"', 00H, 00H, 00H		; `string'
CONST	ENDS
;	COMDAT ??_C@_0DG@KGHKKGBC@null?5pointer?5cannot?5point?5to?5a?5@
CONST	SEGMENT
??_C@_0DG@KGHKKGBC@null?5pointer?5cannot?5point?5to?5a?5@ DB 'null pointe'
	DB	'r cannot point to a block of non-zero size', 00H ; `string'
CONST	ENDS
;	COMDAT ??_C@_0N@LPFKKEBD@?3AM?3am?3PM?3pm@
CONST	SEGMENT
??_C@_0N@LPFKKEBD@?3AM?3am?3PM?3pm@ DB ':AM:am:PM:pm', 00H ; `string'
CONST	ENDS
;	COMDAT ??_C@_0N@DKNOFGJI@RaisinEngine@
CONST	SEGMENT
??_C@_0N@DKNOFGJI@RaisinEngine@ DB 'RaisinEngine', 00H	; `string'
CONST	ENDS
;	COMDAT ??_C@_0P@LGAKDABA@Raisin?5Loaded?6@
CONST	SEGMENT
??_C@_0P@LGAKDABA@Raisin?5Loaded?6@ DB 'Raisin Loaded', 0aH, 00H ; `string'
CONST	ENDS
;	COMDAT ??_C@_0BM@LGHMGEMH@VK_LAYER_KHRONOS_validation@
CONST	SEGMENT
??_C@_0BM@LGHMGEMH@VK_LAYER_KHRONOS_validation@ DB 'VK_LAYER_KHRONOS_vali'
	DB	'dation', 00H				; `string'
CONST	ENDS
;	COMDAT ??_C@_0GC@EOAGFGPL@C?3?2Program?5Files?2Microsoft?5Visu@
CONST	SEGMENT
??_C@_0GC@EOAGFGPL@C?3?2Program?5Files?2Microsoft?5Visu@ DB 'C:\Program F'
	DB	'iles\Microsoft Visual Studio\2022\Community\VC\Tools\MSVC\14.'
	DB	'33.31629\include\xlocnum', 00H		; `string'
CONST	ENDS
;	COMDAT ?__LINE__Var@?0??_Maklocwcs@std@@YAPEA_WPEB_W@Z@4JA
_DATA	SEGMENT
?__LINE__Var@?0??_Maklocwcs@std@@YAPEA_WPEB_W@Z@4JA DD 052H ; `std::_Maklocwcs'::`1'::__LINE__Var
_DATA	ENDS
;	COMDAT ??_C@_0GC@MNELFEFK@C?3?2Program?5Files?2Microsoft?5Visu@
CONST	SEGMENT
??_C@_0GC@MNELFEFK@C?3?2Program?5Files?2Microsoft?5Visu@ DB 'C:\Program F'
	DB	'iles\Microsoft Visual Studio\2022\Community\VC\Tools\MSVC\14.'
	DB	'33.31629\include\xlocale', 00H		; `string'
CONST	ENDS
;	COMDAT ??_C@_1CG@JNLFBNGN@?$AA?$CC?$AAi?$AAn?$AAv?$AAa?$AAl?$AAi?$AAd?$AA?5?$AAa?$AAr?$AAg?$AAu?$AAm?$AAe@
CONST	SEGMENT
??_C@_1CG@JNLFBNGN@?$AA?$CC?$AAi?$AAn?$AAv?$AAa?$AAl?$AAi?$AAd?$AA?5?$AAa?$AAr?$AAg?$AAu?$AAm?$AAe@ DB '"'
	DB	00H, 'i', 00H, 'n', 00H, 'v', 00H, 'a', 00H, 'l', 00H, 'i', 00H
	DB	'd', 00H, ' ', 00H, 'a', 00H, 'r', 00H, 'g', 00H, 'u', 00H, 'm'
	DB	00H, 'e', 00H, 'n', 00H, 't', 00H, '"', 00H, 00H, 00H ; `string'
CONST	ENDS
;	COMDAT ??_C@_11LOCGONAA@@
CONST	SEGMENT
??_C@_11LOCGONAA@@ DB 00H, 00H				; `string'
CONST	ENDS
;	COMDAT ??_C@_1ME@KDCJLOP@?$AAC?$AA?3?$AA?2?$AAP?$AAr?$AAo?$AAg?$AAr?$AAa?$AAm?$AA?5?$AAF?$AAi?$AAl?$AAe@
CONST	SEGMENT
??_C@_1ME@KDCJLOP@?$AAC?$AA?3?$AA?2?$AAP?$AAr?$AAo?$AAg?$AAr?$AAa?$AAm?$AA?5?$AAF?$AAi?$AAl?$AAe@ DB 'C'
	DB	00H, ':', 00H, '\', 00H, 'P', 00H, 'r', 00H, 'o', 00H, 'g', 00H
	DB	'r', 00H, 'a', 00H, 'm', 00H, ' ', 00H, 'F', 00H, 'i', 00H, 'l'
	DB	00H, 'e', 00H, 's', 00H, '\', 00H, 'M', 00H, 'i', 00H, 'c', 00H
	DB	'r', 00H, 'o', 00H, 's', 00H, 'o', 00H, 'f', 00H, 't', 00H, ' '
	DB	00H, 'V', 00H, 'i', 00H, 's', 00H, 'u', 00H, 'a', 00H, 'l', 00H
	DB	' ', 00H, 'S', 00H, 't', 00H, 'u', 00H, 'd', 00H, 'i', 00H, 'o'
	DB	00H, '\', 00H, '2', 00H, '0', 00H, '2', 00H, '2', 00H, '\', 00H
	DB	'C', 00H, 'o', 00H, 'm', 00H, 'm', 00H, 'u', 00H, 'n', 00H, 'i'
	DB	00H, 't', 00H, 'y', 00H, '\', 00H, 'V', 00H, 'C', 00H, '\', 00H
	DB	'T', 00H, 'o', 00H, 'o', 00H, 'l', 00H, 's', 00H, '\', 00H, 'M'
	DB	00H, 'S', 00H, 'V', 00H, 'C', 00H, '\', 00H, '1', 00H, '4', 00H
	DB	'.', 00H, '3', 00H, '3', 00H, '.', 00H, '3', 00H, '1', 00H, '6'
	DB	00H, '2', 00H, '9', 00H, '\', 00H, 'i', 00H, 'n', 00H, 'c', 00H
	DB	'l', 00H, 'u', 00H, 'd', 00H, 'e', 00H, '\', 00H, 'x', 00H, 'm'
	DB	00H, 'e', 00H, 'm', 00H, 'o', 00H, 'r', 00H, 'y', 00H, 00H, 00H ; `string'
CONST	ENDS
;	COMDAT ??_C@_0GC@GFIHGGPN@C?3?2Program?5Files?2Microsoft?5Visu@
CONST	SEGMENT
??_C@_0GC@GFIHGGPN@C?3?2Program?5Files?2Microsoft?5Visu@ DB 'C:\Program F'
	DB	'iles\Microsoft Visual Studio\2022\Community\VC\Tools\MSVC\14.'
	DB	'33.31629\include\xmemory', 00H		; `string'
CONST	ENDS
;	COMDAT ??_C@_02DKCKIIND@?$CFs@
CONST	SEGMENT
??_C@_02DKCKIIND@?$CFs@ DB '%s', 00H			; `string'
CONST	ENDS
;	COMDAT ??_C@_0BB@FCMFBGOM@invalid?5argument@
CONST	SEGMENT
??_C@_0BB@FCMFBGOM@invalid?5argument@ DB 'invalid argument', 00H ; `string'
CONST	ENDS
;	COMDAT ?__LINE__Var@?0??_Adjust_manually_vector_aligned@std@@YAXAEAPEAXAEA_K@Z@4JA
_DATA	SEGMENT
?__LINE__Var@?0??_Adjust_manually_vector_aligned@std@@YAXAEAPEAXAEA_K@Z@4JA DD 093H ; `std::_Adjust_manually_vector_aligned'::`1'::__LINE__Var
_DATA	ENDS
;	COMDAT _CT??_R0?AVexception@std@@@8??0exception@std@@QEAA@AEBV01@@Z24
xdata$x	SEGMENT
_CT??_R0?AVexception@std@@@8??0exception@std@@QEAA@AEBV01@@Z24 DD 00H
	DD	imagerel ??_R0?AVexception@std@@@8
	DD	00H
	DD	0ffffffffH
	ORG $+4
	DD	018H
	DD	imagerel ??0exception@std@@QEAA@AEBV01@@Z
xdata$x	ENDS
;	COMDAT ??_R0?AVexception@std@@@8
data$r	SEGMENT
??_R0?AVexception@std@@@8 DQ FLAT:??_7type_info@@6B@	; std::exception `RTTI Type Descriptor'
	DQ	0000000000000000H
	DB	'.?AVexception@std@@', 00H
data$r	ENDS
;	COMDAT _CT??_R0?AVbad_alloc@std@@@8??0bad_alloc@std@@QEAA@AEBV01@@Z24
xdata$x	SEGMENT
_CT??_R0?AVbad_alloc@std@@@8??0bad_alloc@std@@QEAA@AEBV01@@Z24 DD 010H
	DD	imagerel ??_R0?AVbad_alloc@std@@@8
	DD	00H
	DD	0ffffffffH
	ORG $+4
	DD	018H
	DD	imagerel ??0bad_alloc@std@@QEAA@AEBV01@@Z
xdata$x	ENDS
;	COMDAT ??_R0?AVbad_alloc@std@@@8
data$r	SEGMENT
??_R0?AVbad_alloc@std@@@8 DQ FLAT:??_7type_info@@6B@	; std::bad_alloc `RTTI Type Descriptor'
	DQ	0000000000000000H
	DB	'.?AVbad_alloc@std@@', 00H
data$r	ENDS
;	COMDAT _CT??_R0?AVbad_array_new_length@std@@@8??0bad_array_new_length@std@@QEAA@AEBV01@@Z24
xdata$x	SEGMENT
_CT??_R0?AVbad_array_new_length@std@@@8??0bad_array_new_length@std@@QEAA@AEBV01@@Z24 DD 00H
	DD	imagerel ??_R0?AVbad_array_new_length@std@@@8
	DD	00H
	DD	0ffffffffH
	ORG $+4
	DD	018H
	DD	imagerel ??0bad_array_new_length@std@@QEAA@AEBV01@@Z
xdata$x	ENDS
;	COMDAT ??_R0?AVbad_array_new_length@std@@@8
data$r	SEGMENT
??_R0?AVbad_array_new_length@std@@@8 DQ FLAT:??_7type_info@@6B@ ; std::bad_array_new_length `RTTI Type Descriptor'
	DQ	0000000000000000H
	DB	'.?AVbad_array_new_length@std@@', 00H
data$r	ENDS
;	COMDAT _CTA3?AVbad_array_new_length@std@@
xdata$x	SEGMENT
_CTA3?AVbad_array_new_length@std@@ DD 03H
	DD	imagerel _CT??_R0?AVbad_array_new_length@std@@@8??0bad_array_new_length@std@@QEAA@AEBV01@@Z24
	DD	imagerel _CT??_R0?AVbad_alloc@std@@@8??0bad_alloc@std@@QEAA@AEBV01@@Z24
	DD	imagerel _CT??_R0?AVexception@std@@@8??0exception@std@@QEAA@AEBV01@@Z24
xdata$x	ENDS
;	COMDAT _TI3?AVbad_array_new_length@std@@
xdata$x	SEGMENT
_TI3?AVbad_array_new_length@std@@ DD 00H
	DD	imagerel ??1bad_array_new_length@std@@UEAA@XZ
	DD	00H
	DD	imagerel _CTA3?AVbad_array_new_length@std@@
xdata$x	ENDS
;	COMDAT ??_C@_0BF@KINCDENJ@bad?5array?5new?5length@
CONST	SEGMENT
??_C@_0BF@KINCDENJ@bad?5array?5new?5length@ DB 'bad array new length', 00H ; `string'
CONST	ENDS
;	COMDAT ??_7bad_array_new_length@std@@6B@
CONST	SEGMENT
??_7bad_array_new_length@std@@6B@ DQ FLAT:??_R4bad_array_new_length@std@@6B@ ; std::bad_array_new_length::`vftable'
	DQ	FLAT:??_Ebad_array_new_length@std@@UEAAPEAXI@Z
	DQ	FLAT:?what@exception@std@@UEBAPEBDXZ
CONST	ENDS
;	COMDAT ??_7bad_alloc@std@@6B@
CONST	SEGMENT
??_7bad_alloc@std@@6B@ DQ FLAT:??_R4bad_alloc@std@@6B@	; std::bad_alloc::`vftable'
	DQ	FLAT:??_Ebad_alloc@std@@UEAAPEAXI@Z
	DQ	FLAT:?what@exception@std@@UEBAPEBDXZ
CONST	ENDS
;	COMDAT ??_C@_0BC@EOODALEL@Unknown?5exception@
CONST	SEGMENT
??_C@_0BC@EOODALEL@Unknown?5exception@ DB 'Unknown exception', 00H ; `string'
CONST	ENDS
;	COMDAT ??_7exception@std@@6B@
CONST	SEGMENT
??_7exception@std@@6B@ DQ FLAT:??_R4exception@std@@6B@	; std::exception::`vftable'
	DQ	FLAT:??_Eexception@std@@UEAAPEAXI@Z
	DQ	FLAT:?what@exception@std@@UEBAPEBDXZ
CONST	ENDS
;	COMDAT ??_7CApplication@RaisinEng@@6B@
CONST	SEGMENT
??_7CApplication@RaisinEng@@6B@ DQ FLAT:??_R4CApplication@RaisinEng@@6B@ ; RaisinEng::CApplication::`vftable'
	DQ	FLAT:??_ECApplication@RaisinEng@@UEAAPEAXI@Z
	DQ	FLAT:?Run@CApplication@RaisinEng@@UEAAXXZ
CONST	ENDS
;	COMDAT xdata
xdata	SEGMENT
$unwind$??$_Voidify_iter@PEAPEBD@std@@YAPEAXPEAPEBD@Z DD 025051301H
	DD	010e2313H
	DD	07007001dH
	DD	05006H
xdata	ENDS
;	COMDAT xdata
xdata	SEGMENT
$unwind$??$construct@PEBDAEBQEBD@?$_Default_allocator_traits@V?$allocator@PEBD@std@@@std@@SAXAEAV?$allocator@PEBD@1@QEAPEBDAEBQEBD@Z DD 025051d01H
	DD	0118231dH
	DD	070110021H
	DD	05010H
xdata	ENDS
;	COMDAT xdata
xdata	SEGMENT
$unwind$??$forward@AEBQEBD@std@@YAAEBQEBDAEBQEBD@Z DD 025051301H
	DD	010e2313H
	DD	07007001dH
	DD	05006H
xdata	ENDS
;	COMDAT xdata
xdata	SEGMENT
$unwind$??$_To_address@PEAPEBD@std@@YA?A_PAEBQEAPEBD@Z DD 025051301H
	DD	010e2313H
	DD	07007001dH
	DD	05006H
xdata	ENDS
;	COMDAT xdata
xdata	SEGMENT
$unwind$??$_To_address@PEBQEBD@std@@YA?A_PAEBQEBQEBD@Z DD 025051301H
	DD	010e2313H
	DD	07007001dH
	DD	05006H
xdata	ENDS
;	COMDAT xdata
xdata	SEGMENT
$unwind$??$_Emplace_back@AEBQEBD@?$_Uninitialized_backout_al@V?$allocator@PEBD@std@@@std@@QEAAXAEBQEBD@Z DD 025051801H
	DD	01132318H
	DD	0700c0021H
	DD	0500bH
xdata	ENDS
;	COMDAT xdata
xdata	SEGMENT
$unwind$?__autoclassinit2@?$_Uninitialized_backout_al@V?$allocator@PEBD@std@@@std@@QEAAX_K@Z DD 05051601H
	DD	01130316H
	DD	0700c0019H
	DD	0500bH
xdata	ENDS
;	COMDAT xdata
xdata	SEGMENT
$unwind$?_Release@?$_Uninitialized_backout_al@V?$allocator@PEBD@std@@@std@@QEAAPEAPEBDXZ DD 025051301H
	DD	010e2313H
	DD	07007001dH
	DD	05006H
xdata	ENDS
;	COMDAT xdata
xdata	SEGMENT
$unwind$??1?$_Uninitialized_backout_al@V?$allocator@PEBD@std@@@std@@QEAA@XZ DD 025051301H
	DD	010e2313H
	DD	07007001dH
	DD	05006H
xdata	ENDS
;	COMDAT xdata
xdata	SEGMENT
$unwind$??0?$_Uninitialized_backout_al@V?$allocator@PEBD@std@@@std@@QEAA@PEAPEBDAEAV?$allocator@PEBD@1@@Z DD 025051d01H
	DD	0118231dH
	DD	07011001dH
	DD	05010H
xdata	ENDS
;	COMDAT xdata
xdata	SEGMENT
$unwind$??$_Copy_memmove@PEBQEBDPEAPEBD@std@@YAPEAPEBDPEBQEBD0PEAPEBD@Z DD 025051d01H
	DD	0118231dH
	DD	070110039H
	DD	05010H
xdata	ENDS
;	COMDAT xdata
xdata	SEGMENT
$unwind$??$_Unfancy@PEBD@std@@YAPEAPEBDPEAPEBD@Z DD 025051301H
	DD	010e2313H
	DD	07007001dH
	DD	05006H
xdata	ENDS
;	COMDAT xdata
xdata	SEGMENT
$unwind$??$_Get_unwrapped@AEBQEBQEBD@std@@YA?A_TAEBQEBQEBD@Z DD 025051301H
	DD	010e2313H
	DD	07007001dH
	DD	05006H
xdata	ENDS
;	COMDAT xdata
xdata	SEGMENT
$unwind$?deallocate@?$_Default_allocator_traits@V?$allocator@U_Container_proxy@std@@@std@@@std@@SAXAEAV?$allocator@U_Container_proxy@std@@@2@QEAU_Container_proxy@2@_K@Z DD 025051d01H
	DD	0118231dH
	DD	07011001dH
	DD	05010H
xdata	ENDS
;	COMDAT xdata
xdata	SEGMENT
$unwind$??$_Get_size_of_n@$07@std@@YA_K_K@Z DD 025051301H
	DD	010e2313H
	DD	070070025H
	DD	05006H
xdata	ENDS
;	COMDAT xdata
xdata	SEGMENT
$unwind$??$_Allocate_manually_vector_aligned@U_Default_allocate_traits@std@@@std@@YAPEAX_K@Z DD 035051301H
	DD	010e3313H
	DD	07007002bH
	DD	05006H
xdata	ENDS
;	COMDAT xdata
xdata	SEGMENT
$unwind$??$forward@PEAU_Container_base12@std@@@std@@YA$$QEAPEAU_Container_base12@0@AEAPEAU10@@Z DD 025051301H
	DD	010e2313H
	DD	07007001dH
	DD	05006H
xdata	ENDS
;	COMDAT xdata
xdata	SEGMENT
$unwind$??$_Voidify_iter@PEAU_Container_proxy@std@@@std@@YAPEAXPEAU_Container_proxy@0@@Z DD 025051301H
	DD	010e2313H
	DD	07007001dH
	DD	05006H
xdata	ENDS
;	COMDAT xdata
xdata	SEGMENT
$unwind$??$addressof@U_Container_proxy@std@@@std@@YAPEAU_Container_proxy@0@AEAU10@@Z DD 025051301H
	DD	010e2313H
	DD	07007001dH
	DD	05006H
xdata	ENDS
;	COMDAT voltbl
voltbl	SEGMENT
_volmd	DB	00H
	DB	05H
voltbl	ENDS
;	COMDAT voltbl
voltbl	SEGMENT
_volmd	DW	045H
	DW	0143H
voltbl	ENDS
;	COMDAT xdata
xdata	SEGMENT
$unwind$?dtor$0@?0???$_Uninitialized_copy@PEBQEBDV?$allocator@PEBD@std@@@std@@YAPEAPEBDQEBQEBD0PEAPEBDAEAV?$allocator@PEBD@0@@Z@4HA DD 031001H
	DD	0700c4210H
	DD	0500bH
xdata	ENDS
;	COMDAT xdata
xdata	SEGMENT
$ip2state$??$_Uninitialized_copy@PEBQEBDV?$allocator@PEBD@std@@@std@@YAPEAPEBDQEBQEBD0PEAPEBDAEAV?$allocator@PEBD@0@@Z DB 02H
	DB	00H
	DB	00H
xdata	ENDS
;	COMDAT xdata
xdata	SEGMENT
$stateUnwindMap$??$_Uninitialized_copy@PEBQEBDV?$allocator@PEBD@std@@@std@@YAPEAPEBDQEBQEBD0PEAPEBDAEAV?$allocator@PEBD@0@@Z DB 02H
	DB	0eH
	DD	imagerel ?dtor$0@?0???$_Uninitialized_copy@PEBQEBDV?$allocator@PEBD@std@@@std@@YAPEAPEBDQEBQEBD0PEAPEBDAEAV?$allocator@PEBD@0@@Z@4HA
xdata	ENDS
;	COMDAT xdata
xdata	SEGMENT
$cppxdata$??$_Uninitialized_copy@PEBQEBDV?$allocator@PEBD@std@@@std@@YAPEAPEBDQEBQEBD0PEAPEBDAEAV?$allocator@PEBD@0@@Z DB 028H
	DD	imagerel $stateUnwindMap$??$_Uninitialized_copy@PEBQEBDV?$allocator@PEBD@std@@@std@@YAPEAPEBDQEBQEBD0PEAPEBDAEAV?$allocator@PEBD@0@@Z
	DD	imagerel $ip2state$??$_Uninitialized_copy@PEBQEBDV?$allocator@PEBD@std@@@std@@YAPEAPEBDQEBQEBD0PEAPEBDAEAV?$allocator@PEBD@0@@Z
xdata	ENDS
;	COMDAT xdata
xdata	SEGMENT
$unwind$??$_Uninitialized_copy@PEBQEBDV?$allocator@PEBD@std@@@std@@YAPEAPEBDQEBQEBD0PEAPEBDAEAV?$allocator@PEBD@0@@Z DD 025054c19H
	DD	011d2322H
	DD	07016002fH
	DD	05015H
	DD	imagerel __GSHandlerCheck_EH4
	DD	imagerel $cppxdata$??$_Uninitialized_copy@PEBQEBDV?$allocator@PEBD@std@@@std@@YAPEAPEBDQEBQEBD0PEAPEBDAEAV?$allocator@PEBD@0@@Z
	DD	016aH
xdata	ENDS
;	COMDAT CONST
CONST	SEGMENT
??$_Uninitialized_copy@PEBQEBDV?$allocator@PEBD@std@@@std@@YAPEAPEBDQEBQEBD0PEAPEBDAEAV?$allocator@PEBD@0@@Z$rtcName$0 DB 05fH ; std::_Uninitialized_copy<char const * const *,std::allocator<char const *> >
	DB	042H
	DB	061H
	DB	063H
	DB	06bH
	DB	06fH
	DB	075H
	DB	074H
	DB	00H
	ORG $+7
??$_Uninitialized_copy@PEBQEBDV?$allocator@PEBD@std@@@std@@YAPEAPEBDQEBQEBD0PEAPEBDAEAV?$allocator@PEBD@0@@Z$rtcVarDesc DD 068H ; std::_Uninitialized_copy<char const * const *,std::allocator<char const *> >
	DD	018H
	DQ	FLAT:??$_Uninitialized_copy@PEBQEBDV?$allocator@PEBD@std@@@std@@YAPEAPEBDQEBQEBD0PEAPEBDAEAV?$allocator@PEBD@0@@Z$rtcName$0
	ORG $+48
??$_Uninitialized_copy@PEBQEBDV?$allocator@PEBD@std@@@std@@YAPEAPEBDQEBQEBD0PEAPEBDAEAV?$allocator@PEBD@0@@Z$rtcFrameData DD 01H ; std::_Uninitialized_copy<char const * const *,std::allocator<char const *> >
	DD	00H
	DQ	FLAT:??$_Uninitialized_copy@PEBQEBDV?$allocator@PEBD@std@@@std@@YAPEAPEBDQEBQEBD0PEAPEBDAEAV?$allocator@PEBD@0@@Z$rtcVarDesc
CONST	ENDS
;	COMDAT xdata
xdata	SEGMENT
$unwind$??$forward@PEBQEBD@std@@YA$$QEAPEBQEBDAEAPEBQEBD@Z DD 025051301H
	DD	010e2313H
	DD	07007001dH
	DD	05006H
xdata	ENDS
;	COMDAT xdata
xdata	SEGMENT
$unwind$??1?$_Tidy_guard@V?$vector@PEBDV?$allocator@PEBD@std@@@std@@@std@@QEAA@XZ DD 025051301H
	DD	010e2313H
	DD	07007001dH
	DD	05006H
xdata	ENDS
;	COMDAT xdata
xdata	SEGMENT
$unwind$??$forward@AEBV?$allocator@PEBD@std@@@std@@YAAEBV?$allocator@PEBD@0@AEBV10@@Z DD 025051301H
	DD	010e2313H
	DD	07007001dH
	DD	05006H
xdata	ENDS
;	COMDAT xdata
xdata	SEGMENT
$ip2state$??$_Deallocate_plain@V?$allocator@U_Container_proxy@std@@@std@@@std@@YAXAEAV?$allocator@U_Container_proxy@std@@@0@QEAU_Container_proxy@0@@Z DB 02H
	DB	00H
	DB	00H
xdata	ENDS
;	COMDAT xdata
xdata	SEGMENT
$cppxdata$??$_Deallocate_plain@V?$allocator@U_Container_proxy@std@@@std@@@std@@YAXAEAV?$allocator@U_Container_proxy@std@@@0@QEAU_Container_proxy@0@@Z DB 060H
	DD	imagerel $ip2state$??$_Deallocate_plain@V?$allocator@U_Container_proxy@std@@@std@@@std@@YAXAEAV?$allocator@U_Container_proxy@std@@@0@QEAU_Container_proxy@0@@Z
xdata	ENDS
;	COMDAT xdata
xdata	SEGMENT
$unwind$??$_Deallocate_plain@V?$allocator@U_Container_proxy@std@@@std@@@std@@YAXAEAV?$allocator@U_Container_proxy@std@@@0@QEAU_Container_proxy@0@@Z DD 025051819H
	DD	01132318H
	DD	0700c001dH
	DD	0500bH
	DD	imagerel __CxxFrameHandler4
	DD	imagerel $cppxdata$??$_Deallocate_plain@V?$allocator@U_Container_proxy@std@@@std@@@std@@YAXAEAV?$allocator@U_Container_proxy@std@@@0@QEAU_Container_proxy@0@@Z
xdata	ENDS
;	COMDAT xdata
xdata	SEGMENT
$unwind$??$_Maklocstr@D@std@@YAPEADPEBDPEADAEBU_Cvtvec@@@Z DD 035051d01H
	DD	0118331dH
	DD	07011002dH
	DD	05010H
xdata	ENDS
;	COMDAT xdata
xdata	SEGMENT
$unwind$??$_Get_size_of_n@$0BA@@std@@YA_K_K@Z DD 025051301H
	DD	010e2313H
	DD	070070025H
	DD	05006H
xdata	ENDS
;	COMDAT xdata
xdata	SEGMENT
$unwind$??$_Allocate@$0BA@U_Default_allocate_traits@std@@$0A@@std@@YAPEAX_K@Z DD 025051301H
	DD	010e2313H
	DD	07007001dH
	DD	05006H
xdata	ENDS
;	COMDAT xdata
xdata	SEGMENT
$ip2state$??$_Deallocate@$0BA@$0A@@std@@YAXPEAX_K@Z DB 02H
	DB	00H
	DB	00H
xdata	ENDS
;	COMDAT xdata
xdata	SEGMENT
$cppxdata$??$_Deallocate@$0BA@$0A@@std@@YAXPEAX_K@Z DB 060H
	DD	imagerel $ip2state$??$_Deallocate@$0BA@$0A@@std@@YAXPEAX_K@Z
xdata	ENDS
;	COMDAT xdata
xdata	SEGMENT
$unwind$??$_Deallocate@$0BA@$0A@@std@@YAXPEAX_K@Z DD 025051819H
	DD	01132318H
	DD	0700c001dH
	DD	0500bH
	DD	imagerel __CxxFrameHandler4
	DD	imagerel $cppxdata$??$_Deallocate@$0BA@$0A@@std@@YAXPEAX_K@Z
xdata	ENDS
;	COMDAT xdata
xdata	SEGMENT
$unwind$??$_Construct_in_place@U_Container_proxy@std@@PEAU_Container_base12@2@@std@@YAXAEAU_Container_proxy@0@$$QEAPEAU_Container_base12@0@@Z DD 025051801H
	DD	01132318H
	DD	0700c0021H
	DD	0500bH
xdata	ENDS
;	COMDAT xdata
xdata	SEGMENT
$unwind$??$addressof@U_Container_base12@std@@@std@@YAPEAU_Container_base12@0@AEAU10@@Z DD 025051301H
	DD	010e2313H
	DD	07007001dH
	DD	05006H
xdata	ENDS
;	COMDAT xdata
xdata	SEGMENT
$unwind$??$_Unfancy@U_Container_proxy@std@@@std@@YAPEAU_Container_proxy@0@PEAU10@@Z DD 025051301H
	DD	010e2313H
	DD	07007001dH
	DD	05006H
xdata	ENDS
;	COMDAT xdata
xdata	SEGMENT
$unwind$??$_Destroy_range@V?$allocator@PEBD@std@@@std@@YAXPEAPEBDQEAPEBDAEAV?$allocator@PEBD@0@@Z DD 025051d01H
	DD	0118231dH
	DD	07011001dH
	DD	05010H
xdata	ENDS
;	COMDAT xdata
xdata	SEGMENT
$unwind$??1?$_Container_proxy_ptr12@V?$allocator@U_Container_proxy@std@@@std@@@std@@QEAA@XZ DD 025051301H
	DD	010e2313H
	DD	07007001dH
	DD	05006H
xdata	ENDS
;	COMDAT xdata
xdata	SEGMENT
$unwind$??0?$_Container_proxy_ptr12@V?$allocator@U_Container_proxy@std@@@std@@@std@@QEAA@AEAV?$allocator@U_Container_proxy@std@@@1@AEAU_Container_base12@1@@Z DD 025051d01H
	DD	0118231dH
	DD	070110021H
	DD	05010H
xdata	ENDS
;	COMDAT xdata
xdata	SEGMENT
$unwind$??$min@_K@std@@YAAEB_KAEB_K0@Z DD 025051801H
	DD	01132318H
	DD	0700c0021H
	DD	0500bH
xdata	ENDS
;	COMDAT voltbl
voltbl	SEGMENT
_volmd	DB	00H
	DB	05H
voltbl	ENDS
;	COMDAT voltbl
voltbl	SEGMENT
_volmd	DB	00H
	DB	05H
voltbl	ENDS
;	COMDAT voltbl
voltbl	SEGMENT
_volmd	DW	045H
	DW	016dH
voltbl	ENDS
;	COMDAT xdata
xdata	SEGMENT
$unwind$?dtor$1@?0???$_Construct_n@PEBQEBDPEBQEBD@?$vector@PEBDV?$allocator@PEBD@std@@@std@@AEAAX_K$$QEAPEBQEBD1@Z@4HA DD 031001H
	DD	0700c4210H
	DD	0500bH
xdata	ENDS
;	COMDAT xdata
xdata	SEGMENT
$unwind$?dtor$0@?0???$_Construct_n@PEBQEBDPEBQEBD@?$vector@PEBDV?$allocator@PEBD@std@@@std@@AEAAX_K$$QEAPEBQEBD1@Z@4HA DD 031001H
	DD	0700c4210H
	DD	0500bH
xdata	ENDS
;	COMDAT xdata
xdata	SEGMENT
$ip2state$??$_Construct_n@PEBQEBDPEBQEBD@?$vector@PEBDV?$allocator@PEBD@std@@@std@@AEAAX_K$$QEAPEBQEBD1@Z DB 0aH
	DB	00H
	DB	00H
	DB	'u', 02H
	DB	02H
	DB	'^'
	DB	04H
	DB	0d8H
	DB	02H
	DB	'2'
	DB	00H
xdata	ENDS
;	COMDAT xdata
xdata	SEGMENT
$stateUnwindMap$??$_Construct_n@PEBQEBDPEBQEBD@?$vector@PEBDV?$allocator@PEBD@std@@@std@@AEAAX_K$$QEAPEBQEBD1@Z DB 04H
	DB	0eH
	DD	imagerel ?dtor$0@?0???$_Construct_n@PEBQEBDPEBQEBD@?$vector@PEBDV?$allocator@PEBD@std@@@std@@AEAAX_K$$QEAPEBQEBD1@Z@4HA
	DB	02eH
	DD	imagerel ?dtor$1@?0???$_Construct_n@PEBQEBDPEBQEBD@?$vector@PEBDV?$allocator@PEBD@std@@@std@@AEAAX_K$$QEAPEBQEBD1@Z@4HA
xdata	ENDS
;	COMDAT xdata
xdata	SEGMENT
$cppxdata$??$_Construct_n@PEBQEBDPEBQEBD@?$vector@PEBDV?$allocator@PEBD@std@@@std@@AEAAX_K$$QEAPEBQEBD1@Z DB 028H
	DD	imagerel $stateUnwindMap$??$_Construct_n@PEBQEBDPEBQEBD@?$vector@PEBDV?$allocator@PEBD@std@@@std@@AEAAX_K$$QEAPEBQEBD1@Z
	DD	imagerel $ip2state$??$_Construct_n@PEBQEBDPEBQEBD@?$vector@PEBDV?$allocator@PEBD@std@@@std@@AEAAX_K$$QEAPEBQEBD1@Z
xdata	ENDS
;	COMDAT xdata
xdata	SEGMENT
$unwind$??$_Construct_n@PEBQEBDPEBQEBD@?$vector@PEBDV?$allocator@PEBD@std@@@std@@AEAAX_K$$QEAPEBQEBD1@Z DD 025054c19H
	DD	011d2322H
	DD	07016003bH
	DD	05015H
	DD	imagerel __GSHandlerCheck_EH4
	DD	imagerel $cppxdata$??$_Construct_n@PEBQEBDPEBQEBD@?$vector@PEBDV?$allocator@PEBD@std@@@std@@AEAAX_K$$QEAPEBQEBD1@Z
	DD	01c2H
xdata	ENDS
;	COMDAT CONST
CONST	SEGMENT
??$_Construct_n@PEBQEBDPEBQEBD@?$vector@PEBDV?$allocator@PEBD@std@@@std@@AEAAX_K$$QEAPEBQEBD1@Z$rtcName$0 DB 024H ; std::vector<char const *,std::allocator<char const *> >::_Construct_n<char const * const *,char const * const *>
	DB	053H
	DB	031H
	DB	037H
	DB	00H
	ORG $+3
??$_Construct_n@PEBQEBDPEBQEBD@?$vector@PEBDV?$allocator@PEBD@std@@@std@@AEAAX_K$$QEAPEBQEBD1@Z$rtcName$1 DB 05fH ; std::vector<char const *,std::allocator<char const *> >::_Construct_n<char const * const *,char const * const *>
	DB	050H
	DB	072H
	DB	06fH
	DB	078H
	DB	079H
	DB	00H
	ORG $+1
??$_Construct_n@PEBQEBDPEBQEBD@?$vector@PEBDV?$allocator@PEBD@std@@@std@@AEAAX_K$$QEAPEBQEBD1@Z$rtcName$2 DB 05fH ; std::vector<char const *,std::allocator<char const *> >::_Construct_n<char const * const *,char const * const *>
	DB	047H
	DB	075H
	DB	061H
	DB	072H
	DB	064H
	DB	00H
	ORG $+1
??$_Construct_n@PEBQEBDPEBQEBD@?$vector@PEBDV?$allocator@PEBD@std@@@std@@AEAAX_K$$QEAPEBQEBD1@Z$rtcFrameData DD 03H ; std::vector<char const *,std::allocator<char const *> >::_Construct_n<char const * const *,char const * const *>
	DD	00H
	DQ	FLAT:??$_Construct_n@PEBQEBDPEBQEBD@?$vector@PEBDV?$allocator@PEBD@std@@@std@@AEAAX_K$$QEAPEBQEBD1@Z$rtcVarDesc
	ORG $+8
??$_Construct_n@PEBQEBDPEBQEBD@?$vector@PEBDV?$allocator@PEBD@std@@@std@@AEAAX_K$$QEAPEBQEBD1@Z$rtcVarDesc DD 0d8H ; std::vector<char const *,std::allocator<char const *> >::_Construct_n<char const * const *,char const * const *>
	DD	08H
	DQ	FLAT:??$_Construct_n@PEBQEBDPEBQEBD@?$vector@PEBDV?$allocator@PEBD@std@@@std@@AEAAX_K$$QEAPEBQEBD1@Z$rtcName$2
	DD	0a8H
	DD	010H
	DQ	FLAT:??$_Construct_n@PEBQEBDPEBQEBD@?$vector@PEBDV?$allocator@PEBD@std@@@std@@AEAAX_K$$QEAPEBQEBD1@Z$rtcName$1
	DD	064H
	DD	01H
	DQ	FLAT:??$_Construct_n@PEBQEBDPEBQEBD@?$vector@PEBDV?$allocator@PEBD@std@@@std@@AEAAX_K$$QEAPEBQEBD1@Z$rtcName$0
CONST	ENDS
;	COMDAT xdata
xdata	SEGMENT
$unwind$??$_Convert_size@_K@std@@YA_K_K@Z DD 025051301H
	DD	010e2313H
	DD	07007001dH
	DD	05006H
xdata	ENDS
;	COMDAT xdata
xdata	SEGMENT
$unwind$??$?0AEBV?$allocator@PEBD@std@@$$V@?$_Compressed_pair@V?$allocator@PEBD@std@@V?$_Vector_val@U?$_Simple_types@PEBD@std@@@2@$00@std@@QEAA@U_One_then_variadic_args_t@1@AEBV?$allocator@PEBD@1@@Z DD 025051c01H
	DD	0117231cH
	DD	07010001dH
	DD	0500fH
xdata	ENDS
;	COMDAT xdata
xdata	SEGMENT
$unwind$??$?0PEBD@?$allocator@U_Container_proxy@std@@@std@@QEAA@AEBV?$allocator@PEBD@1@@Z DD 025051801H
	DD	01132318H
	DD	0700c001dH
	DD	0500bH
xdata	ENDS
;	COMDAT xdata
xdata	SEGMENT
$unwind$??$_Delete_plain_internal@V?$allocator@U_Container_proxy@std@@@std@@@std@@YAXAEAV?$allocator@U_Container_proxy@std@@@0@QEAU_Container_proxy@0@@Z DD 025051801H
	DD	01132318H
	DD	0700c001dH
	DD	0500bH
xdata	ENDS
;	COMDAT xdata
xdata	SEGMENT
$unwind$??$exchange@PEAU_Container_proxy@std@@$$T@std@@YAPEAU_Container_proxy@0@AEAPEAU10@$$QEA$$T@Z DD 025051801H
	DD	01132318H
	DD	0700c0021H
	DD	0500bH
xdata	ENDS
;	COMDAT xdata
xdata	SEGMENT
$unwind$?allocate@?$allocator@U_Container_proxy@std@@@std@@QEAAPEAU_Container_proxy@2@_K@Z DD 025051801H
	DD	01132318H
	DD	0700c001dH
	DD	0500bH
xdata	ENDS
;	COMDAT xdata
xdata	SEGMENT
$unwind$??$_Getvals@_W@?$time_get@_WV?$istreambuf_iterator@_WU?$char_traits@_W@std@@@std@@@std@@IEAAX_WAEBV_Locinfo@1@@Z DD 025061e01H
	DD	0119231eH
	DD	070120026H
	DD	050106011H
xdata	ENDS
;	COMDAT xdata
xdata	SEGMENT
$unwind$??$_Getvals@_W@?$time_get@DV?$istreambuf_iterator@DU?$char_traits@D@std@@@std@@@std@@IEAAX_WAEBV_Locinfo@1@@Z DD 025061e01H
	DD	0119231eH
	DD	070120026H
	DD	050106011H
xdata	ENDS
;	COMDAT xdata
xdata	SEGMENT
$unwind$??__Fg_ValidationLayers@@YAXXZ DD 025050f01H
	DD	010a230fH
	DD	07003001dH
	DD	05002H
xdata	ENDS
;	COMDAT xdata
xdata	SEGMENT
$unwind$?size@?$initializer_list@PEBD@std@@QEBA_KXZ DD 025051301H
	DD	010e2313H
	DD	07007001dH
	DD	05006H
xdata	ENDS
;	COMDAT xdata
xdata	SEGMENT
$unwind$?end@?$initializer_list@PEBD@std@@QEBAPEBQEBDXZ DD 025051301H
	DD	010e2313H
	DD	07007001dH
	DD	05006H
xdata	ENDS
;	COMDAT xdata
xdata	SEGMENT
$unwind$?begin@?$initializer_list@PEBD@std@@QEBAPEBQEBDXZ DD 025051301H
	DD	010e2313H
	DD	07007001dH
	DD	05006H
xdata	ENDS
;	COMDAT xdata
xdata	SEGMENT
$unwind$??0?$initializer_list@PEBD@std@@QEAA@PEBQEBD0@Z DD 025051d01H
	DD	0118231dH
	DD	07011001dH
	DD	05010H
xdata	ENDS
;	COMDAT xdata
xdata	SEGMENT
$unwind$??__Eg_ValidationLayers@@YAXXZ DD 025061001H
	DD	010b2310H
	DD	070040036H
	DD	050026003H
xdata	ENDS
;	COMDAT xdata
xdata	SEGMENT
$unwind$?__autoclassinit2@?$vector@PEBDV?$allocator@PEBD@std@@@std@@QEAAX_K@Z DD 05051601H
	DD	01130316H
	DD	0700c0019H
	DD	0500bH
xdata	ENDS
;	COMDAT xdata
xdata	SEGMENT
$unwind$?_Get_first@?$_Compressed_pair@V?$allocator@PEBD@std@@V?$_Vector_val@U?$_Simple_types@PEBD@std@@@2@$00@std@@QEBAAEBV?$allocator@PEBD@2@XZ DD 025051301H
	DD	010e2313H
	DD	07007001dH
	DD	05006H
xdata	ENDS
;	COMDAT xdata
xdata	SEGMENT
$unwind$?_Get_first@?$_Compressed_pair@V?$allocator@PEBD@std@@V?$_Vector_val@U?$_Simple_types@PEBD@std@@@2@$00@std@@QEAAAEAV?$allocator@PEBD@2@XZ DD 025051301H
	DD	010e2313H
	DD	07007001dH
	DD	05006H
xdata	ENDS
;	COMDAT xdata
xdata	SEGMENT
$unwind$??0?$_Vector_val@U?$_Simple_types@PEBD@std@@@std@@QEAA@XZ DD 025051301H
	DD	010e2313H
	DD	07007001dH
	DD	05006H
xdata	ENDS
;	COMDAT xdata
xdata	SEGMENT
$unwind$?_Getal@?$vector@PEBDV?$allocator@PEBD@std@@@std@@AEBAAEBV?$allocator@PEBD@2@XZ DD 025051301H
	DD	010e2313H
	DD	07007001dH
	DD	05006H
xdata	ENDS
;	COMDAT xdata
xdata	SEGMENT
$unwind$?_Getal@?$vector@PEBDV?$allocator@PEBD@std@@@std@@AEAAAEAV?$allocator@PEBD@2@XZ DD 025051301H
	DD	010e2313H
	DD	07007001dH
	DD	05006H
xdata	ENDS
;	COMDAT xdata
xdata	SEGMENT
$unwind$?_Xlength@?$vector@PEBDV?$allocator@PEBD@std@@@std@@CAXXZ DD 025050f01H
	DD	010a230fH
	DD	07003001dH
	DD	05002H
xdata	ENDS
;	COMDAT xdata
xdata	SEGMENT
$ip2state$?_Tidy@?$vector@PEBDV?$allocator@PEBD@std@@@std@@AEAAXXZ DB 02H
	DB	00H
	DB	00H
xdata	ENDS
;	COMDAT xdata
xdata	SEGMENT
$cppxdata$?_Tidy@?$vector@PEBDV?$allocator@PEBD@std@@@std@@AEAAXXZ DB 060H
	DD	imagerel $ip2state$?_Tidy@?$vector@PEBDV?$allocator@PEBD@std@@@std@@AEAAXXZ
xdata	ENDS
;	COMDAT xdata
xdata	SEGMENT
$unwind$?_Tidy@?$vector@PEBDV?$allocator@PEBD@std@@@std@@AEAAXXZ DD 025051319H
	DD	010e2313H
	DD	070070031H
	DD	05006H
	DD	imagerel __CxxFrameHandler4
	DD	imagerel $cppxdata$?_Tidy@?$vector@PEBDV?$allocator@PEBD@std@@@std@@AEAAXXZ
xdata	ENDS
;	COMDAT xdata
xdata	SEGMENT
$unwind$?_Buy_nonzero@?$vector@PEBDV?$allocator@PEBD@std@@@std@@AEAAX_K@Z DD 025051801H
	DD	01132318H
	DD	0700c001dH
	DD	0500bH
xdata	ENDS
;	COMDAT xdata
xdata	SEGMENT
$unwind$?_Buy_raw@?$vector@PEBDV?$allocator@PEBD@std@@@std@@AEAAX_K@Z DD 025051801H
	DD	01132318H
	DD	0700c0031H
	DD	0500bH
xdata	ENDS
;	COMDAT xdata
xdata	SEGMENT
$unwind$?max_size@?$vector@PEBDV?$allocator@PEBD@std@@@std@@QEBA_KXZ DD 025051301H
	DD	010e2313H
	DD	070070025H
	DD	05006H
xdata	ENDS
;	COMDAT voltbl
voltbl	SEGMENT
_volmd	DB	036H
	DB	0b2H
voltbl	ENDS
;	COMDAT xdata
xdata	SEGMENT
$unwind$??1?$vector@PEBDV?$allocator@PEBD@std@@@std@@QEAA@XZ DD 025053d19H
	DD	010e2313H
	DD	070070029H
	DD	05006H
	DD	imagerel __GSHandlerCheck
	DD	0138H
xdata	ENDS
;	COMDAT CONST
CONST	SEGMENT
??1?$vector@PEBDV?$allocator@PEBD@std@@@std@@QEAA@XZ$rtcName$0 DB 024H ; std::vector<char const *,std::allocator<char const *> >::~vector<char const *,std::allocator<char const *> >
	DB	053H
	DB	031H
	DB	030H
	DB	00H
	ORG $+11
??1?$vector@PEBDV?$allocator@PEBD@std@@@std@@QEAA@XZ$rtcVarDesc DD 044H ; std::vector<char const *,std::allocator<char const *> >::~vector<char const *,std::allocator<char const *> >
	DD	01H
	DQ	FLAT:??1?$vector@PEBDV?$allocator@PEBD@std@@@std@@QEAA@XZ$rtcName$0
	ORG $+48
??1?$vector@PEBDV?$allocator@PEBD@std@@@std@@QEAA@XZ$rtcFrameData DD 01H ; std::vector<char const *,std::allocator<char const *> >::~vector<char const *,std::allocator<char const *> >
	DD	00H
	DQ	FLAT:??1?$vector@PEBDV?$allocator@PEBD@std@@@std@@QEAA@XZ$rtcVarDesc
CONST	ENDS
;	COMDAT xdata
xdata	SEGMENT
$unwind$??0?$vector@PEBDV?$allocator@PEBD@std@@@std@@QEAA@V?$initializer_list@PEBD@1@AEBV?$allocator@PEBD@1@@Z DD 025051d01H
	DD	0118231dH
	DD	070110029H
	DD	05010H
xdata	ENDS
;	COMDAT xdata
xdata	SEGMENT
$unwind$?max_size@?$_Default_allocator_traits@V?$allocator@PEBD@std@@@std@@SA_KAEBV?$allocator@PEBD@2@@Z DD 025051301H
	DD	010e2313H
	DD	07007001dH
	DD	05006H
xdata	ENDS
;	COMDAT xdata
xdata	SEGMENT
$unwind$?allocate@?$allocator@PEBD@std@@QEAAPEAPEBD_K@Z DD 025051801H
	DD	01132318H
	DD	0700c001dH
	DD	0500bH
xdata	ENDS
;	COMDAT xdata
xdata	SEGMENT
$unwind$?deallocate@?$allocator@PEBD@std@@QEAAXQEAPEBD_K@Z DD 035051d01H
	DD	0118331dH
	DD	07011001fH
	DD	05010H
xdata	ENDS
;	COMDAT xdata
xdata	SEGMENT
$unwind$??0?$allocator@PEBD@std@@QEAA@XZ DD 025051301H
	DD	010e2313H
	DD	07007001dH
	DD	05006H
xdata	ENDS
;	COMDAT xdata
xdata	SEGMENT
$unwind$?_Maklocwcs@std@@YAPEA_WPEB_W@Z DD 035051301H
	DD	010e3313H
	DD	070070029H
	DD	05006H
xdata	ENDS
;	COMDAT voltbl
voltbl	SEGMENT
_volmd	DW	040H
	DW	0260H
voltbl	ENDS
;	COMDAT xdata
xdata	SEGMENT
$unwind$??$_Maklocstr@_W@std@@YAPEA_WPEBDPEA_WAEBU_Cvtvec@@@Z DD 035054719H
	DD	0118331dH
	DD	070110049H
	DD	05010H
	DD	imagerel __GSHandlerCheck
	DD	0238H
xdata	ENDS
;	COMDAT CONST
CONST	SEGMENT
??$_Maklocstr@_W@std@@YAPEA_WPEBDPEA_WAEBU_Cvtvec@@@Z$rtcName$0 DB 05fH ; std::_Maklocstr<wchar_t>
	DB	057H
	DB	063H
	DB	00H
??$_Maklocstr@_W@std@@YAPEA_WPEBDPEA_WAEBU_Cvtvec@@@Z$rtcName$1 DB 05fH ; std::_Maklocstr<wchar_t>
	DB	04dH
	DB	062H
	DB	073H
	DB	074H
	DB	031H
	DB	00H
	ORG $+1
??$_Maklocstr@_W@std@@YAPEA_WPEBDPEA_WAEBU_Cvtvec@@@Z$rtcName$2 DB 05fH ; std::_Maklocstr<wchar_t>
	DB	04dH
	DB	062H
	DB	073H
	DB	074H
	DB	032H
	DB	00H
	ORG $+13
??$_Maklocstr@_W@std@@YAPEA_WPEBDPEA_WAEBU_Cvtvec@@@Z$rtcVarDesc DD 0158H ; std::_Maklocstr<wchar_t>
	DD	08H
	DQ	FLAT:??$_Maklocstr@_W@std@@YAPEA_WPEBDPEA_WAEBU_Cvtvec@@@Z$rtcName$2
	DD	0f8H
	DD	08H
	DQ	FLAT:??$_Maklocstr@_W@std@@YAPEA_WPEBDPEA_WAEBU_Cvtvec@@@Z$rtcName$1
	DD	0d4H
	DD	02H
	DQ	FLAT:??$_Maklocstr@_W@std@@YAPEA_WPEBDPEA_WAEBU_Cvtvec@@@Z$rtcName$0
	ORG $+144
??$_Maklocstr@_W@std@@YAPEA_WPEBDPEA_WAEBU_Cvtvec@@@Z$rtcFrameData DD 03H ; std::_Maklocstr<wchar_t>
	DD	00H
	DQ	FLAT:??$_Maklocstr@_W@std@@YAPEA_WPEBDPEA_WAEBU_Cvtvec@@@Z$rtcVarDesc
CONST	ENDS
;	COMDAT xdata
xdata	SEGMENT
$unwind$??0_Basic_container_proxy_ptr12@std@@IEAA@XZ DD 025051301H
	DD	010e2313H
	DD	07007001dH
	DD	05006H
xdata	ENDS
;	COMDAT xdata
xdata	SEGMENT
$unwind$?_Release@_Basic_container_proxy_ptr12@std@@QEAAXXZ DD 025051301H
	DD	010e2313H
	DD	07007001dH
	DD	05006H
xdata	ENDS
;	COMDAT voltbl
voltbl	SEGMENT
_volmd	DB	036H
	DB	07eH
voltbl	ENDS
;	COMDAT xdata
xdata	SEGMENT
$unwind$?_Orphan_all_locked_v3@_Container_base12@std@@AEAAXXZ DD 025053d19H
	DD	010e2313H
	DD	070070021H
	DD	05006H
	DD	imagerel __GSHandlerCheck
	DD	0f8H
xdata	ENDS
;	COMDAT CONST
CONST	SEGMENT
?_Orphan_all_locked_v3@_Container_base12@std@@AEAAXXZ$rtcName$0 DB 05fH ; std::_Container_base12::_Orphan_all_locked_v3
	DB	04cH
	DB	06fH
	DB	063H
	DB	06bH
	DB	00H
	ORG $+10
?_Orphan_all_locked_v3@_Container_base12@std@@AEAAXXZ$rtcVarDesc DD 024H ; std::_Container_base12::_Orphan_all_locked_v3
	DD	04H
	DQ	FLAT:?_Orphan_all_locked_v3@_Container_base12@std@@AEAAXXZ$rtcName$0
	ORG $+48
?_Orphan_all_locked_v3@_Container_base12@std@@AEAAXXZ$rtcFrameData DD 01H ; std::_Container_base12::_Orphan_all_locked_v3
	DD	00H
	DQ	FLAT:?_Orphan_all_locked_v3@_Container_base12@std@@AEAAXXZ$rtcVarDesc
CONST	ENDS
;	COMDAT xdata
xdata	SEGMENT
$unwind$?_Orphan_all_unlocked_v3@_Container_base12@std@@AEAAXXZ DD 025051301H
	DD	010e2313H
	DD	070070021H
	DD	05006H
xdata	ENDS
;	COMDAT xdata
xdata	SEGMENT
$unwind$?_Orphan_all@_Container_base12@std@@QEAAXXZ DD 025051301H
	DD	010e2313H
	DD	07007001dH
	DD	05006H
xdata	ENDS
;	COMDAT xdata
xdata	SEGMENT
$unwind$??0_Container_base12@std@@QEAA@XZ DD 025051301H
	DD	010e2313H
	DD	07007001dH
	DD	05006H
xdata	ENDS
;	COMDAT xdata
xdata	SEGMENT
$unwind$??0_Container_proxy@std@@QEAA@PEAU_Container_base12@1@@Z DD 025051801H
	DD	01132318H
	DD	0700c001dH
	DD	0500bH
xdata	ENDS
;	COMDAT xdata
xdata	SEGMENT
$unwind$?_Adjust_manually_vector_aligned@std@@YAXAEAPEAXAEA_K@Z DD 035051801H
	DD	01133318H
	DD	0700c002fH
	DD	0500bH
xdata	ENDS
;	COMDAT xdata
xdata	SEGMENT
$unwind$?_Allocate@_Default_allocate_traits@std@@SAPEAX_K@Z DD 025051301H
	DD	010e2313H
	DD	07007001dH
	DD	05006H
xdata	ENDS
;	COMDAT xdata
xdata	SEGMENT
$unwind$?_Throw_bad_array_new_length@std@@YAXXZ DD 025050f01H
	DD	010a230fH
	DD	070030023H
	DD	05002H
xdata	ENDS
;	COMDAT xdata
xdata	SEGMENT
$unwind$??_Gbad_array_new_length@std@@UEAAPEAXI@Z DD 025051701H
	DD	01122317H
	DD	0700b001dH
	DD	0500aH
xdata	ENDS
;	COMDAT xdata
xdata	SEGMENT
$unwind$??0bad_array_new_length@std@@QEAA@AEBV01@@Z DD 025051801H
	DD	01132318H
	DD	0700c001dH
	DD	0500bH
xdata	ENDS
;	COMDAT xdata
xdata	SEGMENT
$unwind$??1bad_array_new_length@std@@UEAA@XZ DD 025051301H
	DD	010e2313H
	DD	07007001dH
	DD	05006H
xdata	ENDS
;	COMDAT xdata
xdata	SEGMENT
$unwind$??0bad_array_new_length@std@@QEAA@XZ DD 025051301H
	DD	010e2313H
	DD	07007001dH
	DD	05006H
xdata	ENDS
;	COMDAT xdata
xdata	SEGMENT
$unwind$??_Gbad_alloc@std@@UEAAPEAXI@Z DD 025051701H
	DD	01122317H
	DD	0700b001dH
	DD	0500aH
xdata	ENDS
;	COMDAT xdata
xdata	SEGMENT
$unwind$??0bad_alloc@std@@QEAA@AEBV01@@Z DD 025051801H
	DD	01132318H
	DD	0700c001dH
	DD	0500bH
xdata	ENDS
;	COMDAT xdata
xdata	SEGMENT
$unwind$??1bad_alloc@std@@UEAA@XZ DD 025051301H
	DD	010e2313H
	DD	07007001dH
	DD	05006H
xdata	ENDS
;	COMDAT xdata
xdata	SEGMENT
$unwind$??0bad_alloc@std@@AEAA@QEBD@Z DD 025051801H
	DD	01132318H
	DD	0700c001dH
	DD	0500bH
xdata	ENDS
;	COMDAT xdata
xdata	SEGMENT
$unwind$??_Gexception@std@@UEAAPEAXI@Z DD 025051701H
	DD	01122317H
	DD	0700b001dH
	DD	0500aH
xdata	ENDS
;	COMDAT xdata
xdata	SEGMENT
$unwind$?what@exception@std@@UEBAPEBDXZ DD 025051301H
	DD	010e2313H
	DD	07007001fH
	DD	05006H
xdata	ENDS
;	COMDAT xdata
xdata	SEGMENT
$unwind$??1exception@std@@UEAA@XZ DD 025051301H
	DD	010e2313H
	DD	07007001dH
	DD	05006H
xdata	ENDS
;	COMDAT xdata
xdata	SEGMENT
$unwind$??0exception@std@@QEAA@AEBV01@@Z DD 025051801H
	DD	01132318H
	DD	0700c001dH
	DD	0500bH
xdata	ENDS
;	COMDAT xdata
xdata	SEGMENT
$unwind$??0exception@std@@QEAA@QEBDH@Z DD 025051d01H
	DD	0118231dH
	DD	07011001dH
	DD	05010H
xdata	ENDS
;	COMDAT xdata
xdata	SEGMENT
$unwind$??2@YAPEAX_KPEAX@Z DD 025051801H
	DD	01132318H
	DD	0700c001dH
	DD	0500bH
xdata	ENDS
;	COMDAT xdata
xdata	SEGMENT
$unwind$?max@?$numeric_limits@_J@std@@SA_JXZ DD 025050f01H
	DD	010a230fH
	DD	07003001dH
	DD	05002H
xdata	ENDS
;	COMDAT xdata
xdata	SEGMENT
$unwind$wmemcpy DD 025061e01H
	DD	0119231eH
	DD	07012001cH
	DD	050106011H
xdata	ENDS
;	COMDAT xdata
xdata	SEGMENT
$ip2state$??_ECApplication@RaisinEng@@UEAAPEAXI@Z DB 02H
	DB	00H
	DB	00H
xdata	ENDS
;	COMDAT xdata
xdata	SEGMENT
$cppxdata$??_ECApplication@RaisinEng@@UEAAPEAXI@Z DB 060H
	DD	imagerel $ip2state$??_ECApplication@RaisinEng@@UEAAPEAXI@Z
xdata	ENDS
;	COMDAT xdata
xdata	SEGMENT
$unwind$??_ECApplication@RaisinEng@@UEAAPEAXI@Z DD 025051719H
	DD	01122317H
	DD	0700b001dH
	DD	0500aH
	DD	imagerel __CxxFrameHandler4
	DD	imagerel $cppxdata$??_ECApplication@RaisinEng@@UEAAPEAXI@Z
xdata	ENDS
;	COMDAT xdata
xdata	SEGMENT
$unwind$??_GCApplication@RaisinEng@@UEAAPEAXI@Z DD 025051701H
	DD	01122317H
	DD	0700b001dH
	DD	0500aH
xdata	ENDS
;	COMDAT xdata
xdata	SEGMENT
$unwind$??4CApplication@RaisinEng@@QEAAAEAV01@AEBV01@@Z DD 05051601H
	DD	01130316H
	DD	0700c0019H
	DD	0500bH
xdata	ENDS
;	COMDAT xdata
xdata	SEGMENT
$unwind$??0CApplication@RaisinEng@@QEAA@AEBV01@@Z DD 05051601H
	DD	01130316H
	DD	0700c0019H
	DD	0500bH
xdata	ENDS
;	COMDAT voltbl
voltbl	SEGMENT
_volmd	DB	036H
	DB	0e5H
voltbl	ENDS
;	COMDAT xdata
xdata	SEGMENT
$unwind$?Run@CApplication@RaisinEng@@UEAAXXZ DD 025053d19H
	DD	010e2313H
	DD	070070031H
	DD	05006H
	DD	imagerel __GSHandlerCheck
	DD	0178H
xdata	ENDS
;	COMDAT CONST
CONST	SEGMENT
?Run@CApplication@RaisinEng@@UEAAXXZ$rtcName$0 DB 076H	; RaisinEng::CApplication::Run
	DB	00H
	ORG $+2
?Run@CApplication@RaisinEng@@UEAAXXZ$rtcName$1 DB 077H	; RaisinEng::CApplication::Run
	DB	00H
	ORG $+2
?Run@CApplication@RaisinEng@@UEAAXXZ$rtcName$2 DB 074H	; RaisinEng::CApplication::Run
	DB	00H
	ORG $+6
?Run@CApplication@RaisinEng@@UEAAXXZ$rtcVarDesc DD 068H	; RaisinEng::CApplication::Run
	DD	08H
	DQ	FLAT:?Run@CApplication@RaisinEng@@UEAAXXZ$rtcName$2
	DD	048H
	DD	08H
	DQ	FLAT:?Run@CApplication@RaisinEng@@UEAAXXZ$rtcName$1
	DD	028H
	DD	08H
	DQ	FLAT:?Run@CApplication@RaisinEng@@UEAAXXZ$rtcName$0
	ORG $+144
?Run@CApplication@RaisinEng@@UEAAXXZ$rtcFrameData DD 03H ; RaisinEng::CApplication::Run
	DD	00H
	DQ	FLAT:?Run@CApplication@RaisinEng@@UEAAXXZ$rtcVarDesc
CONST	ENDS
;	COMDAT xdata
xdata	SEGMENT
$unwind$??1CApplication@RaisinEng@@UEAA@XZ DD 025051301H
	DD	010e2313H
	DD	07007001dH
	DD	05006H
xdata	ENDS
;	COMDAT xdata
xdata	SEGMENT
$unwind$??0CApplication@RaisinEng@@QEAA@XZ DD 025051301H
	DD	010e2313H
	DD	07007001dH
	DD	05006H
xdata	ENDS
;	COMDAT xdata
xdata	SEGMENT
$unwind$??__Em_inputs@RaisinEng@@YAXXZ DD 025050f01H
	DD	010a230fH
	DD	07003001dH
	DD	05002H
xdata	ENDS
;	COMDAT xdata
xdata	SEGMENT
$unwind$??0sInputRegistered@RaisinEng@@QEAA@XZ DD 025051301H
	DD	010e2313H
	DD	07007001dH
	DD	05006H
xdata	ENDS
;	COMDAT xdata
xdata	SEGMENT
$unwind$??GVector2D@@QEAA?AU0@U0@@Z DD 025051d01H
	DD	0118231dH
	DD	07011001dH
	DD	05010H
xdata	ENDS
;	COMDAT xdata
xdata	SEGMENT
$unwind$??0Vector2D@@QEAA@AEBU0@@Z DD 025051801H
	DD	01132318H
	DD	0700c001dH
	DD	0500bH
xdata	ENDS
;	COMDAT xdata
xdata	SEGMENT
$unwind$??0Vector2D@@QEAA@MM@Z DD 025051f01H
	DD	011a231fH
	DD	07013001dH
	DD	05012H
xdata	ENDS
;	COMDAT voltbl
voltbl	SEGMENT
_volmd	DB	045H
	DB	0bfH
voltbl	ENDS
;	COMDAT xdata
xdata	SEGMENT
$unwind$printf DD 025054c19H
	DD	011d2322H
	DD	07016002bH
	DD	05015H
	DD	imagerel __GSHandlerCheck
	DD	0148H
xdata	ENDS
;	COMDAT CONST
CONST	SEGMENT
printf$rtcName$0 DB 05fH
	DB	041H
	DB	072H
	DB	067H
	DB	04cH
	DB	069H
	DB	073H
	DB	074H
	DB	00H
	ORG $+7
printf$rtcVarDesc DD 048H
	DD	08H
	DQ	FLAT:printf$rtcName$0
	ORG $+48
printf$rtcFrameData DD 01H
	DD	00H
	DQ	FLAT:printf$rtcVarDesc
CONST	ENDS
;	COMDAT xdata
xdata	SEGMENT
$unwind$_vfprintf_l DD 035052201H
	DD	011d3322H
	DD	07016001fH
	DD	05015H
xdata	ENDS
;	COMDAT xdata
xdata	SEGMENT
$unwind$__local_stdio_printf_options DD 025050f01H
	DD	010a230fH
	DD	07003001dH
	DD	05002H
xdata	ENDS
;	COMDAT xdata
xdata	SEGMENT
$unwind$?__empty_global_delete@@YAXPEAX_KW4align_val_t@std@@@Z DD 025051d01H
	DD	0118231dH
	DD	07011001dH
	DD	05010H
xdata	ENDS
;	COMDAT xdata
xdata	SEGMENT
$unwind$?__empty_global_delete@@YAXPEAXW4align_val_t@std@@@Z DD 025051801H
	DD	01132318H
	DD	0700c001dH
	DD	0500bH
xdata	ENDS
;	COMDAT xdata
xdata	SEGMENT
$unwind$?__empty_global_delete@@YAXPEAX_K@Z DD 025051801H
	DD	01132318H
	DD	0700c001dH
	DD	0500bH
xdata	ENDS
;	COMDAT xdata
xdata	SEGMENT
$unwind$?__empty_global_delete@@YAXPEAX@Z DD 025051301H
	DD	010e2313H
	DD	07007001dH
	DD	05006H
xdata	ENDS
;	COMDAT xdata
xdata	SEGMENT
$unwind$??_H@YAXPEAX_K1P6APEAX0@Z@Z DD 025052201H
	DD	011d2322H
	DD	07016001fH
	DD	05015H
xdata	ENDS
;	COMDAT CRT$XCU
CRT$XCU	SEGMENT
?g_ValidationLayers$initializer$@@3P6AXXZEA DQ FLAT:??__Eg_ValidationLayers@@YAXXZ ; g_ValidationLayers$initializer$
CRT$XCU	ENDS
; Function compile flags: /Odt
;	COMDAT __JustMyCode_Default
_TEXT	SEGMENT
__JustMyCode_Default PROC				; COMDAT
	ret	0
__JustMyCode_Default ENDP
_TEXT	ENDS
; Function compile flags: /Odtp /RTCsu /ZI
;	COMDAT ??$_Voidify_iter@PEAPEBD@std@@YAPEAXPEAPEBD@Z
_TEXT	SEGMENT
_It$ = 224
??$_Voidify_iter@PEAPEBD@std@@YAPEAXPEAPEBD@Z PROC	; std::_Voidify_iter<char const * *>, COMDAT
; File C:\Program Files\Microsoft Visual Studio\2022\Community\VC\Tools\MSVC\14.33.31629\include\xutility
; Line 212
$LN3:
	mov	QWORD PTR [rsp+8], rcx
	push	rbp
	push	rdi
	sub	rsp, 232				; 000000e8H
	lea	rbp, QWORD PTR [rsp+32]
	lea	rcx, OFFSET FLAT:__2177C444_xutility
	call	__CheckForDebuggerJustMyCode
; Line 214
	mov	rax, QWORD PTR _It$[rbp]
; Line 218
	lea	rsp, QWORD PTR [rbp+200]
	pop	rdi
	pop	rbp
	ret	0
??$_Voidify_iter@PEAPEBD@std@@YAPEAXPEAPEBD@Z ENDP	; std::_Voidify_iter<char const * *>
_TEXT	ENDS
; Function compile flags: /Odtp /RTCsu /ZI
;	COMDAT ??$construct@PEBDAEBQEBD@?$_Default_allocator_traits@V?$allocator@PEBD@std@@@std@@SAXAEAV?$allocator@PEBD@1@QEAPEBDAEBQEBD@Z
_TEXT	SEGMENT
$T1 = 200
__formal$ = 256
_Ptr$ = 264
<_Args_0>$ = 272
??$construct@PEBDAEBQEBD@?$_Default_allocator_traits@V?$allocator@PEBD@std@@@std@@SAXAEAV?$allocator@PEBD@1@QEAPEBDAEBQEBD@Z PROC ; std::_Default_allocator_traits<std::allocator<char const *> >::construct<char const *,char const * const &>, COMDAT
; File C:\Program Files\Microsoft Visual Studio\2022\Community\VC\Tools\MSVC\14.33.31629\include\xmemory
; Line 675
$LN3:
	mov	QWORD PTR [rsp+24], r8
	mov	QWORD PTR [rsp+16], rdx
	mov	QWORD PTR [rsp+8], rcx
	push	rbp
	push	rdi
	sub	rsp, 264				; 00000108H
	lea	rbp, QWORD PTR [rsp+32]
	lea	rcx, OFFSET FLAT:__2B9651A0_xmemory
	call	__CheckForDebuggerJustMyCode
; Line 682
	mov	rcx, QWORD PTR _Ptr$[rbp]
	call	??$_Voidify_iter@PEAPEBD@std@@YAPEAXPEAPEBD@Z ; std::_Voidify_iter<char const * *>
	mov	rdx, rax
	mov	ecx, 8
	call	??2@YAPEAX_KPEAX@Z			; operator new
	mov	QWORD PTR $T1[rbp], rax
	mov	rcx, QWORD PTR <_Args_0>$[rbp]
	call	??$forward@AEBQEBD@std@@YAAEBQEBDAEBQEBD@Z ; std::forward<char const * const &>
	mov	rcx, QWORD PTR $T1[rbp]
	mov	rax, QWORD PTR [rax]
	mov	QWORD PTR [rcx], rax
; Line 684
	lea	rsp, QWORD PTR [rbp+232]
	pop	rdi
	pop	rbp
	ret	0
??$construct@PEBDAEBQEBD@?$_Default_allocator_traits@V?$allocator@PEBD@std@@@std@@SAXAEAV?$allocator@PEBD@1@QEAPEBDAEBQEBD@Z ENDP ; std::_Default_allocator_traits<std::allocator<char const *> >::construct<char const *,char const * const &>
_TEXT	ENDS
; Function compile flags: /Odtp /RTCsu /ZI
;	COMDAT ??$forward@AEBQEBD@std@@YAAEBQEBDAEBQEBD@Z
_TEXT	SEGMENT
_Arg$ = 224
??$forward@AEBQEBD@std@@YAAEBQEBDAEBQEBD@Z PROC		; std::forward<char const * const &>, COMDAT
; File C:\Program Files\Microsoft Visual Studio\2022\Community\VC\Tools\MSVC\14.33.31629\include\type_traits
; Line 1411
$LN3:
	mov	QWORD PTR [rsp+8], rcx
	push	rbp
	push	rdi
	sub	rsp, 232				; 000000e8H
	lea	rbp, QWORD PTR [rsp+32]
	lea	rcx, OFFSET FLAT:__F576AD63_type_traits
	call	__CheckForDebuggerJustMyCode
; Line 1412
	mov	rax, QWORD PTR _Arg$[rbp]
; Line 1413
	lea	rsp, QWORD PTR [rbp+200]
	pop	rdi
	pop	rbp
	ret	0
??$forward@AEBQEBD@std@@YAAEBQEBDAEBQEBD@Z ENDP		; std::forward<char const * const &>
_TEXT	ENDS
; Function compile flags: /Odtp /RTCsu /ZI
;	COMDAT ??$_To_address@PEAPEBD@std@@YA?A_PAEBQEAPEBD@Z
_TEXT	SEGMENT
_Val$ = 224
??$_To_address@PEAPEBD@std@@YA?A_PAEBQEAPEBD@Z PROC	; std::_To_address<char const * *>, COMDAT
; File C:\Program Files\Microsoft Visual Studio\2022\Community\VC\Tools\MSVC\14.33.31629\include\xutility
; Line 4023
$LN3:
	mov	QWORD PTR [rsp+8], rcx
	push	rbp
	push	rdi
	sub	rsp, 232				; 000000e8H
	lea	rbp, QWORD PTR [rsp+32]
	lea	rcx, OFFSET FLAT:__2177C444_xutility
	call	__CheckForDebuggerJustMyCode
; Line 4025
	mov	rax, QWORD PTR _Val$[rbp]
	mov	rax, QWORD PTR [rax]
; Line 4026
	lea	rsp, QWORD PTR [rbp+200]
	pop	rdi
	pop	rbp
	ret	0
??$_To_address@PEAPEBD@std@@YA?A_PAEBQEAPEBD@Z ENDP	; std::_To_address<char const * *>
_TEXT	ENDS
; Function compile flags: /Odtp /RTCsu /ZI
;	COMDAT ??$_To_address@PEBQEBD@std@@YA?A_PAEBQEBQEBD@Z
_TEXT	SEGMENT
_Val$ = 224
??$_To_address@PEBQEBD@std@@YA?A_PAEBQEBQEBD@Z PROC	; std::_To_address<char const * const *>, COMDAT
; File C:\Program Files\Microsoft Visual Studio\2022\Community\VC\Tools\MSVC\14.33.31629\include\xutility
; Line 4023
$LN3:
	mov	QWORD PTR [rsp+8], rcx
	push	rbp
	push	rdi
	sub	rsp, 232				; 000000e8H
	lea	rbp, QWORD PTR [rsp+32]
	lea	rcx, OFFSET FLAT:__2177C444_xutility
	call	__CheckForDebuggerJustMyCode
; Line 4025
	mov	rax, QWORD PTR _Val$[rbp]
	mov	rax, QWORD PTR [rax]
; Line 4026
	lea	rsp, QWORD PTR [rbp+200]
	pop	rdi
	pop	rbp
	ret	0
??$_To_address@PEBQEBD@std@@YA?A_PAEBQEBQEBD@Z ENDP	; std::_To_address<char const * const *>
_TEXT	ENDS
; Function compile flags: /Odtp /RTCsu /ZI
;	COMDAT ??$_Emplace_back@AEBQEBD@?$_Uninitialized_backout_al@V?$allocator@PEBD@std@@@std@@QEAAXAEBQEBD@Z
_TEXT	SEGMENT
tv78 = 192
tv76 = 200
tv74 = 208
this$ = 256
<_Vals_0>$ = 264
??$_Emplace_back@AEBQEBD@?$_Uninitialized_backout_al@V?$allocator@PEBD@std@@@std@@QEAAXAEBQEBD@Z PROC ; std::_Uninitialized_backout_al<std::allocator<char const *> >::_Emplace_back<char const * const &>, COMDAT
; File C:\Program Files\Microsoft Visual Studio\2022\Community\VC\Tools\MSVC\14.33.31629\include\xmemory
; Line 1661
$LN3:
	mov	QWORD PTR [rsp+16], rdx
	mov	QWORD PTR [rsp+8], rcx
	push	rbp
	push	rdi
	sub	rsp, 264				; 00000108H
	lea	rbp, QWORD PTR [rsp+32]
	lea	rcx, OFFSET FLAT:__2B9651A0_xmemory
	call	__CheckForDebuggerJustMyCode
; Line 1662
	mov	rcx, QWORD PTR <_Vals_0>$[rbp]
	call	??$forward@AEBQEBD@std@@YAAEBQEBDAEBQEBD@Z ; std::forward<char const * const &>
	mov	QWORD PTR tv78[rbp], rax
	mov	rax, QWORD PTR this$[rbp]
	mov	rcx, QWORD PTR [rax+8]
	call	??$_Unfancy@PEBD@std@@YAPEAPEBDPEAPEBD@Z ; std::_Unfancy<char const *>
	mov	QWORD PTR tv76[rbp], rax
	mov	rax, QWORD PTR this$[rbp]
	mov	rax, QWORD PTR [rax+16]
	mov	QWORD PTR tv74[rbp], rax
	mov	r8, QWORD PTR tv78[rbp]
	mov	rdx, QWORD PTR tv76[rbp]
	mov	rcx, QWORD PTR tv74[rbp]
	call	??$construct@PEBDAEBQEBD@?$_Default_allocator_traits@V?$allocator@PEBD@std@@@std@@SAXAEAV?$allocator@PEBD@1@QEAPEBDAEBQEBD@Z ; std::_Default_allocator_traits<std::allocator<char const *> >::construct<char const *,char const * const &>
; Line 1663
	mov	rax, QWORD PTR this$[rbp]
	mov	rax, QWORD PTR [rax+8]
	add	rax, 8
	mov	rcx, QWORD PTR this$[rbp]
	mov	QWORD PTR [rcx+8], rax
; Line 1664
	lea	rsp, QWORD PTR [rbp+232]
	pop	rdi
	pop	rbp
	ret	0
??$_Emplace_back@AEBQEBD@?$_Uninitialized_backout_al@V?$allocator@PEBD@std@@@std@@QEAAXAEBQEBD@Z ENDP ; std::_Uninitialized_backout_al<std::allocator<char const *> >::_Emplace_back<char const * const &>
_TEXT	ENDS
; Function compile flags: /Odtp /RTCsu /ZI
;	COMDAT ?__autoclassinit2@?$_Uninitialized_backout_al@V?$allocator@PEBD@std@@@std@@QEAAX_K@Z
_TEXT	SEGMENT
this$ = 224
classSize$ = 232
?__autoclassinit2@?$_Uninitialized_backout_al@V?$allocator@PEBD@std@@@std@@QEAAX_K@Z PROC ; std::_Uninitialized_backout_al<std::allocator<char const *> >::__autoclassinit2, COMDAT
$LN3:
	mov	QWORD PTR [rsp+16], rdx
	mov	QWORD PTR [rsp+8], rcx
	push	rbp
	push	rdi
	sub	rsp, 200				; 000000c8H
	mov	rbp, rsp
	mov	rdi, QWORD PTR this$[rbp]
	xor	eax, eax
	mov	rcx, QWORD PTR classSize$[rbp]
	rep stosb
	lea	rsp, QWORD PTR [rbp+200]
	pop	rdi
	pop	rbp
	ret	0
?__autoclassinit2@?$_Uninitialized_backout_al@V?$allocator@PEBD@std@@@std@@QEAAX_K@Z ENDP ; std::_Uninitialized_backout_al<std::allocator<char const *> >::__autoclassinit2
_TEXT	ENDS
; Function compile flags: /Odtp /RTCsu /ZI
;	COMDAT ?_Release@?$_Uninitialized_backout_al@V?$allocator@PEBD@std@@@std@@QEAAPEAPEBDXZ
_TEXT	SEGMENT
this$ = 224
?_Release@?$_Uninitialized_backout_al@V?$allocator@PEBD@std@@@std@@QEAAPEAPEBDXZ PROC ; std::_Uninitialized_backout_al<std::allocator<char const *> >::_Release, COMDAT
; File C:\Program Files\Microsoft Visual Studio\2022\Community\VC\Tools\MSVC\14.33.31629\include\xmemory
; Line 1666
$LN3:
	mov	QWORD PTR [rsp+8], rcx
	push	rbp
	push	rdi
	sub	rsp, 232				; 000000e8H
	lea	rbp, QWORD PTR [rsp+32]
	lea	rcx, OFFSET FLAT:__2B9651A0_xmemory
	call	__CheckForDebuggerJustMyCode
; Line 1667
	mov	rax, QWORD PTR this$[rbp]
	mov	rcx, QWORD PTR this$[rbp]
	mov	rcx, QWORD PTR [rcx+8]
	mov	QWORD PTR [rax], rcx
; Line 1668
	mov	rax, QWORD PTR this$[rbp]
	mov	rax, QWORD PTR [rax+8]
; Line 1669
	lea	rsp, QWORD PTR [rbp+200]
	pop	rdi
	pop	rbp
	ret	0
?_Release@?$_Uninitialized_backout_al@V?$allocator@PEBD@std@@@std@@QEAAPEAPEBDXZ ENDP ; std::_Uninitialized_backout_al<std::allocator<char const *> >::_Release
_TEXT	ENDS
; Function compile flags: /Odtp /RTCsu /ZI
;	COMDAT ??1?$_Uninitialized_backout_al@V?$allocator@PEBD@std@@@std@@QEAA@XZ
_TEXT	SEGMENT
this$ = 224
??1?$_Uninitialized_backout_al@V?$allocator@PEBD@std@@@std@@QEAA@XZ PROC ; std::_Uninitialized_backout_al<std::allocator<char const *> >::~_Uninitialized_backout_al<std::allocator<char const *> >, COMDAT
; File C:\Program Files\Microsoft Visual Studio\2022\Community\VC\Tools\MSVC\14.33.31629\include\xmemory
; Line 1656
$LN3:
	mov	QWORD PTR [rsp+8], rcx
	push	rbp
	push	rdi
	sub	rsp, 232				; 000000e8H
	lea	rbp, QWORD PTR [rsp+32]
	lea	rcx, OFFSET FLAT:__2B9651A0_xmemory
	call	__CheckForDebuggerJustMyCode
; Line 1657
	mov	rax, QWORD PTR this$[rbp]
	mov	r8, QWORD PTR [rax+16]
	mov	rax, QWORD PTR this$[rbp]
	mov	rdx, QWORD PTR [rax+8]
	mov	rax, QWORD PTR this$[rbp]
	mov	rcx, QWORD PTR [rax]
	call	??$_Destroy_range@V?$allocator@PEBD@std@@@std@@YAXPEAPEBDQEAPEBDAEAV?$allocator@PEBD@0@@Z ; std::_Destroy_range<std::allocator<char const *> >
; Line 1658
	lea	rsp, QWORD PTR [rbp+200]
	pop	rdi
	pop	rbp
	ret	0
??1?$_Uninitialized_backout_al@V?$allocator@PEBD@std@@@std@@QEAA@XZ ENDP ; std::_Uninitialized_backout_al<std::allocator<char const *> >::~_Uninitialized_backout_al<std::allocator<char const *> >
_TEXT	ENDS
; Function compile flags: /Odtp /RTCsu /ZI
;	COMDAT ??0?$_Uninitialized_backout_al@V?$allocator@PEBD@std@@@std@@QEAA@PEAPEBDAEAV?$allocator@PEBD@1@@Z
_TEXT	SEGMENT
this$ = 224
_Dest$ = 232
_Al_$ = 240
??0?$_Uninitialized_backout_al@V?$allocator@PEBD@std@@@std@@QEAA@PEAPEBDAEAV?$allocator@PEBD@1@@Z PROC ; std::_Uninitialized_backout_al<std::allocator<char const *> >::_Uninitialized_backout_al<std::allocator<char const *> >, COMDAT
; File C:\Program Files\Microsoft Visual Studio\2022\Community\VC\Tools\MSVC\14.33.31629\include\xmemory
; Line 1651
$LN3:
	mov	QWORD PTR [rsp+24], r8
	mov	QWORD PTR [rsp+16], rdx
	mov	QWORD PTR [rsp+8], rcx
	push	rbp
	push	rdi
	sub	rsp, 232				; 000000e8H
	lea	rbp, QWORD PTR [rsp+32]
	lea	rcx, OFFSET FLAT:__2B9651A0_xmemory
	call	__CheckForDebuggerJustMyCode
	mov	rax, QWORD PTR this$[rbp]
	mov	rcx, QWORD PTR _Dest$[rbp]
	mov	QWORD PTR [rax], rcx
	mov	rax, QWORD PTR this$[rbp]
	mov	rcx, QWORD PTR _Dest$[rbp]
	mov	QWORD PTR [rax+8], rcx
	mov	rax, QWORD PTR this$[rbp]
	mov	rcx, QWORD PTR _Al_$[rbp]
	mov	QWORD PTR [rax+16], rcx
	mov	rax, QWORD PTR this$[rbp]
	lea	rsp, QWORD PTR [rbp+200]
	pop	rdi
	pop	rbp
	ret	0
??0?$_Uninitialized_backout_al@V?$allocator@PEBD@std@@@std@@QEAA@PEAPEBDAEAV?$allocator@PEBD@1@@Z ENDP ; std::_Uninitialized_backout_al<std::allocator<char const *> >::_Uninitialized_backout_al<std::allocator<char const *> >
_TEXT	ENDS
; Function compile flags: /Odtp /RTCsu /ZI
;	COMDAT ??$_Copy_memmove@PEBQEBDPEAPEBD@std@@YAPEAPEBDPEBQEBD0PEAPEBD@Z
_TEXT	SEGMENT
_FirstPtr$ = 8
_LastPtr$ = 40
_DestPtr$ = 72
_First_ch$ = 104
_Last_ch$ = 136
_Dest_ch$ = 168
_Count$ = 200
_First$ = 448
_Last$ = 456
_Dest$ = 464
??$_Copy_memmove@PEBQEBDPEAPEBD@std@@YAPEAPEBDPEBQEBD0PEAPEBD@Z PROC ; std::_Copy_memmove<char const * const *,char const * *>, COMDAT
; File C:\Program Files\Microsoft Visual Studio\2022\Community\VC\Tools\MSVC\14.33.31629\include\xutility
; Line 4112
$LN3:
	mov	QWORD PTR [rsp+24], r8
	mov	QWORD PTR [rsp+16], rdx
	mov	QWORD PTR [rsp+8], rcx
	push	rbp
	push	rdi
	sub	rsp, 456				; 000001c8H
	lea	rbp, QWORD PTR [rsp+32]
	lea	rcx, OFFSET FLAT:__2177C444_xutility
	call	__CheckForDebuggerJustMyCode
; Line 4113
	lea	rcx, QWORD PTR _First$[rbp]
	call	??$_To_address@PEBQEBD@std@@YA?A_PAEBQEBQEBD@Z ; std::_To_address<char const * const *>
	mov	QWORD PTR _FirstPtr$[rbp], rax
; Line 4114
	lea	rcx, QWORD PTR _Last$[rbp]
	call	??$_To_address@PEBQEBD@std@@YA?A_PAEBQEBQEBD@Z ; std::_To_address<char const * const *>
	mov	QWORD PTR _LastPtr$[rbp], rax
; Line 4115
	lea	rcx, QWORD PTR _Dest$[rbp]
	call	??$_To_address@PEAPEBD@std@@YA?A_PAEBQEAPEBD@Z ; std::_To_address<char const * *>
	mov	QWORD PTR _DestPtr$[rbp], rax
; Line 4116
	mov	rax, QWORD PTR _FirstPtr$[rbp]
	mov	QWORD PTR _First_ch$[rbp], rax
; Line 4117
	mov	rax, QWORD PTR _LastPtr$[rbp]
	mov	QWORD PTR _Last_ch$[rbp], rax
; Line 4118
	mov	rax, QWORD PTR _DestPtr$[rbp]
	mov	QWORD PTR _Dest_ch$[rbp], rax
; Line 4119
	mov	rax, QWORD PTR _First_ch$[rbp]
	mov	rcx, QWORD PTR _Last_ch$[rbp]
	sub	rcx, rax
	mov	rax, rcx
	mov	QWORD PTR _Count$[rbp], rax
; Line 4120
	mov	r8, QWORD PTR _Count$[rbp]
	mov	rdx, QWORD PTR _First_ch$[rbp]
	mov	rcx, QWORD PTR _Dest_ch$[rbp]
	call	memmove
; Line 4122
	mov	rax, QWORD PTR _Count$[rbp]
	mov	rcx, QWORD PTR _Dest_ch$[rbp]
	add	rcx, rax
	mov	rax, rcx
; Line 4126
	lea	rsp, QWORD PTR [rbp+424]
	pop	rdi
	pop	rbp
	ret	0
??$_Copy_memmove@PEBQEBDPEAPEBD@std@@YAPEAPEBDPEBQEBD0PEAPEBD@Z ENDP ; std::_Copy_memmove<char const * const *,char const * *>
_TEXT	ENDS
; Function compile flags: /Odtp /RTCsu /ZI
;	COMDAT ??$_Unfancy@PEBD@std@@YAPEAPEBDPEAPEBD@Z
_TEXT	SEGMENT
_Ptr$ = 224
??$_Unfancy@PEBD@std@@YAPEAPEBDPEAPEBD@Z PROC		; std::_Unfancy<char const *>, COMDAT
; File C:\Program Files\Microsoft Visual Studio\2022\Community\VC\Tools\MSVC\14.33.31629\include\xstddef
; Line 265
$LN3:
	mov	QWORD PTR [rsp+8], rcx
	push	rbp
	push	rdi
	sub	rsp, 232				; 000000e8H
	lea	rbp, QWORD PTR [rsp+32]
	lea	rcx, OFFSET FLAT:__B61CA571_xstddef
	call	__CheckForDebuggerJustMyCode
; Line 266
	mov	rax, QWORD PTR _Ptr$[rbp]
; Line 267
	lea	rsp, QWORD PTR [rbp+200]
	pop	rdi
	pop	rbp
	ret	0
??$_Unfancy@PEBD@std@@YAPEAPEBDPEAPEBD@Z ENDP		; std::_Unfancy<char const *>
_TEXT	ENDS
; Function compile flags: /Odtp /RTCsu /ZI
;	COMDAT ??$_Get_unwrapped@AEBQEBQEBD@std@@YA?A_TAEBQEBQEBD@Z
_TEXT	SEGMENT
_It$ = 224
??$_Get_unwrapped@AEBQEBQEBD@std@@YA?A_TAEBQEBQEBD@Z PROC ; std::_Get_unwrapped<char const * const * const &>, COMDAT
; File C:\Program Files\Microsoft Visual Studio\2022\Community\VC\Tools\MSVC\14.33.31629\include\xutility
; Line 1347
$LN3:
	mov	QWORD PTR [rsp+8], rcx
	push	rbp
	push	rdi
	sub	rsp, 232				; 000000e8H
	lea	rbp, QWORD PTR [rsp+32]
	lea	rcx, OFFSET FLAT:__2177C444_xutility
	call	__CheckForDebuggerJustMyCode
; Line 1350
	mov	rax, QWORD PTR _It$[rbp]
	mov	rax, QWORD PTR [rax]
; Line 1356
	lea	rsp, QWORD PTR [rbp+200]
	pop	rdi
	pop	rbp
	ret	0
??$_Get_unwrapped@AEBQEBQEBD@std@@YA?A_TAEBQEBQEBD@Z ENDP ; std::_Get_unwrapped<char const * const * const &>
_TEXT	ENDS
; Function compile flags: /Odtp /RTCsu /ZI
;	COMDAT ?deallocate@?$_Default_allocator_traits@V?$allocator@U_Container_proxy@std@@@std@@@std@@SAXAEAV?$allocator@U_Container_proxy@std@@@2@QEAU_Container_proxy@2@_K@Z
_TEXT	SEGMENT
_Al$ = 224
_Ptr$ = 232
_Count$ = 240
?deallocate@?$_Default_allocator_traits@V?$allocator@U_Container_proxy@std@@@std@@@std@@SAXAEAV?$allocator@U_Container_proxy@std@@@2@QEAU_Container_proxy@2@_K@Z PROC ; std::_Default_allocator_traits<std::allocator<std::_Container_proxy> >::deallocate, COMDAT
; File C:\Program Files\Microsoft Visual Studio\2022\Community\VC\Tools\MSVC\14.33.31629\include\xmemory
; Line 661
$LN3:
	mov	QWORD PTR [rsp+24], r8
	mov	QWORD PTR [rsp+16], rdx
	mov	QWORD PTR [rsp+8], rcx
	push	rbp
	push	rdi
	sub	rsp, 232				; 000000e8H
	lea	rbp, QWORD PTR [rsp+32]
	lea	rcx, OFFSET FLAT:__2B9651A0_xmemory
	call	__CheckForDebuggerJustMyCode
; Line 670
	imul	rax, QWORD PTR _Count$[rbp], 16
	mov	rdx, rax
	mov	rcx, QWORD PTR _Ptr$[rbp]
	call	??$_Deallocate@$0BA@$0A@@std@@YAXPEAX_K@Z ; std::_Deallocate<16,0>
; Line 672
	lea	rsp, QWORD PTR [rbp+200]
	pop	rdi
	pop	rbp
	ret	0
?deallocate@?$_Default_allocator_traits@V?$allocator@U_Container_proxy@std@@@std@@@std@@SAXAEAV?$allocator@U_Container_proxy@std@@@2@QEAU_Container_proxy@2@_K@Z ENDP ; std::_Default_allocator_traits<std::allocator<std::_Container_proxy> >::deallocate
_TEXT	ENDS
; Function compile flags: /Odtp /RTCsu /ZI
;	COMDAT ??$_Get_size_of_n@$07@std@@YA_K_K@Z
_TEXT	SEGMENT
_Overflow_is_possible$ = 4
_Max_possible$1 = 40
_Count$ = 288
??$_Get_size_of_n@$07@std@@YA_K_K@Z PROC		; std::_Get_size_of_n<8>, COMDAT
; File C:\Program Files\Microsoft Visual Studio\2022\Community\VC\Tools\MSVC\14.33.31629\include\xmemory
; Line 55
$LN4:
	mov	QWORD PTR [rsp+8], rcx
	push	rbp
	push	rdi
	sub	rsp, 296				; 00000128H
	lea	rbp, QWORD PTR [rsp+32]
	lea	rcx, OFFSET FLAT:__2B9651A0_xmemory
	call	__CheckForDebuggerJustMyCode
; Line 56
	mov	BYTE PTR _Overflow_is_possible$[rbp], 1
; Line 59
	mov	rax, 2305843009213693951		; 1fffffffffffffffH
	mov	QWORD PTR _Max_possible$1[rbp], rax
; Line 60
	mov	rax, 2305843009213693951		; 1fffffffffffffffH
	cmp	QWORD PTR _Count$[rbp], rax
	jbe	SHORT $LN2@Get_size_o
; Line 61
	call	?_Throw_bad_array_new_length@std@@YAXXZ	; std::_Throw_bad_array_new_length
$LN2@Get_size_o:
; Line 65
	mov	rax, QWORD PTR _Count$[rbp]
	shl	rax, 3
$LN3@Get_size_o:
; Line 66
	lea	rsp, QWORD PTR [rbp+264]
	pop	rdi
	pop	rbp
	ret	0
??$_Get_size_of_n@$07@std@@YA_K_K@Z ENDP		; std::_Get_size_of_n<8>
_TEXT	ENDS
; Function compile flags: /Odtp /RTCsu /ZI
;	COMDAT ??$_Allocate_manually_vector_aligned@U_Default_allocate_traits@std@@@std@@YAPEAX_K@Z
_TEXT	SEGMENT
_Block_size$ = 8
_Ptr_container$ = 40
_Ptr$ = 72
_Bytes$ = 320
??$_Allocate_manually_vector_aligned@U_Default_allocate_traits@std@@@std@@YAPEAX_K@Z PROC ; std::_Allocate_manually_vector_aligned<std::_Default_allocate_traits>, COMDAT
; File C:\Program Files\Microsoft Visual Studio\2022\Community\VC\Tools\MSVC\14.33.31629\include\xmemory
; Line 129
$LN13:
	mov	QWORD PTR [rsp+8], rcx
	push	rbp
	push	rdi
	sub	rsp, 344				; 00000158H
	lea	rbp, QWORD PTR [rsp+48]
	lea	rcx, OFFSET FLAT:__2B9651A0_xmemory
	call	__CheckForDebuggerJustMyCode
; Line 131
	mov	rax, QWORD PTR _Bytes$[rbp]
	add	rax, 47					; 0000002fH
	mov	QWORD PTR _Block_size$[rbp], rax
; Line 132
	mov	rax, QWORD PTR _Bytes$[rbp]
	cmp	QWORD PTR _Block_size$[rbp], rax
	ja	SHORT $LN8@Allocate_m
; Line 133
	call	?_Throw_bad_array_new_length@std@@YAXXZ	; std::_Throw_bad_array_new_length
$LN8@Allocate_m:
; Line 136
	mov	rcx, QWORD PTR _Block_size$[rbp]
	call	?_Allocate@_Default_allocate_traits@std@@SAPEAX_K@Z ; std::_Default_allocate_traits::_Allocate
	mov	QWORD PTR _Ptr_container$[rbp], rax
$LN4@Allocate_m:
; Line 137
	cmp	QWORD PTR _Ptr_container$[rbp], 0
	je	SHORT $LN9@Allocate_m
	jmp	SHORT $LN10@Allocate_m
$LN9@Allocate_m:
$LN7@Allocate_m:
	lea	rax, OFFSET FLAT:??_C@_0BB@FCMFBGOM@invalid?5argument@
	mov	QWORD PTR [rsp+40], rax
	lea	rax, OFFSET FLAT:??_C@_02DKCKIIND@?$CFs@
	mov	QWORD PTR [rsp+32], rax
	xor	r9d, r9d
	mov	r8d, 137				; 00000089H
	lea	rdx, OFFSET FLAT:??_C@_0GC@GFIHGGPN@C?3?2Program?5Files?2Microsoft?5Visu@
	mov	ecx, 2
	call	QWORD PTR __imp__CrtDbgReport
	cmp	eax, 1
	jne	SHORT $LN12@Allocate_m
	int	3
	xor	eax, eax
$LN12@Allocate_m:
	mov	QWORD PTR [rsp+32], 0
	mov	r9d, 137				; 00000089H
	lea	r8, OFFSET FLAT:??_C@_1ME@KDCJLOP@?$AAC?$AA?3?$AA?2?$AAP?$AAr?$AAo?$AAg?$AAr?$AAa?$AAm?$AA?5?$AAF?$AAi?$AAl?$AAe@
	lea	rdx, OFFSET FLAT:??_C@_11LOCGONAA@@
	lea	rcx, OFFSET FLAT:??_C@_1CG@JNLFBNGN@?$AA?$CC?$AAi?$AAn?$AAv?$AAa?$AAl?$AAi?$AAd?$AA?5?$AAa?$AAr?$AAg?$AAu?$AAm?$AAe@
	call	QWORD PTR __imp__invalid_parameter
	xor	eax, eax
	test	eax, eax
	jne	SHORT $LN7@Allocate_m
$LN10@Allocate_m:
	xor	eax, eax
	test	eax, eax
	jne	SHORT $LN4@Allocate_m
; Line 138
	mov	rax, QWORD PTR _Ptr_container$[rbp]
	add	rax, 47					; 0000002fH
	and	rax, -32				; ffffffffffffffe0H
	mov	QWORD PTR _Ptr$[rbp], rax
; Line 139
	mov	eax, 8
	imul	rax, rax, -1
	mov	rcx, QWORD PTR _Ptr$[rbp]
	mov	rdx, QWORD PTR _Ptr_container$[rbp]
	mov	QWORD PTR [rcx+rax], rdx
; Line 142
	mov	eax, 8
	imul	rax, rax, -2
	mov	rcx, QWORD PTR _Ptr$[rbp]
	mov	rdx, -361700864190383366		; fafafafafafafafaH
	mov	QWORD PTR [rcx+rax], rdx
; Line 144
	mov	rax, QWORD PTR _Ptr$[rbp]
$LN11@Allocate_m:
; Line 145
	lea	rsp, QWORD PTR [rbp+296]
	pop	rdi
	pop	rbp
	ret	0
??$_Allocate_manually_vector_aligned@U_Default_allocate_traits@std@@@std@@YAPEAX_K@Z ENDP ; std::_Allocate_manually_vector_aligned<std::_Default_allocate_traits>
_TEXT	ENDS
; Function compile flags: /Odtp /RTCsu /ZI
;	COMDAT ??$forward@PEAU_Container_base12@std@@@std@@YA$$QEAPEAU_Container_base12@0@AEAPEAU10@@Z
_TEXT	SEGMENT
_Arg$ = 224
??$forward@PEAU_Container_base12@std@@@std@@YA$$QEAPEAU_Container_base12@0@AEAPEAU10@@Z PROC ; std::forward<std::_Container_base12 *>, COMDAT
; File C:\Program Files\Microsoft Visual Studio\2022\Community\VC\Tools\MSVC\14.33.31629\include\type_traits
; Line 1411
$LN3:
	mov	QWORD PTR [rsp+8], rcx
	push	rbp
	push	rdi
	sub	rsp, 232				; 000000e8H
	lea	rbp, QWORD PTR [rsp+32]
	lea	rcx, OFFSET FLAT:__F576AD63_type_traits
	call	__CheckForDebuggerJustMyCode
; Line 1412
	mov	rax, QWORD PTR _Arg$[rbp]
; Line 1413
	lea	rsp, QWORD PTR [rbp+200]
	pop	rdi
	pop	rbp
	ret	0
??$forward@PEAU_Container_base12@std@@@std@@YA$$QEAPEAU_Container_base12@0@AEAPEAU10@@Z ENDP ; std::forward<std::_Container_base12 *>
_TEXT	ENDS
; Function compile flags: /Odtp /RTCsu /ZI
;	COMDAT ??$_Voidify_iter@PEAU_Container_proxy@std@@@std@@YAPEAXPEAU_Container_proxy@0@@Z
_TEXT	SEGMENT
_It$ = 224
??$_Voidify_iter@PEAU_Container_proxy@std@@@std@@YAPEAXPEAU_Container_proxy@0@@Z PROC ; std::_Voidify_iter<std::_Container_proxy *>, COMDAT
; File C:\Program Files\Microsoft Visual Studio\2022\Community\VC\Tools\MSVC\14.33.31629\include\xutility
; Line 212
$LN3:
	mov	QWORD PTR [rsp+8], rcx
	push	rbp
	push	rdi
	sub	rsp, 232				; 000000e8H
	lea	rbp, QWORD PTR [rsp+32]
	lea	rcx, OFFSET FLAT:__2177C444_xutility
	call	__CheckForDebuggerJustMyCode
; Line 214
	mov	rax, QWORD PTR _It$[rbp]
; Line 218
	lea	rsp, QWORD PTR [rbp+200]
	pop	rdi
	pop	rbp
	ret	0
??$_Voidify_iter@PEAU_Container_proxy@std@@@std@@YAPEAXPEAU_Container_proxy@0@@Z ENDP ; std::_Voidify_iter<std::_Container_proxy *>
_TEXT	ENDS
; Function compile flags: /Odtp /RTCsu /ZI
;	COMDAT ??$addressof@U_Container_proxy@std@@@std@@YAPEAU_Container_proxy@0@AEAU10@@Z
_TEXT	SEGMENT
_Val$ = 224
??$addressof@U_Container_proxy@std@@@std@@YAPEAU_Container_proxy@0@AEAU10@@Z PROC ; std::addressof<std::_Container_proxy>, COMDAT
; File C:\Program Files\Microsoft Visual Studio\2022\Community\VC\Tools\MSVC\14.33.31629\include\xstddef
; Line 252
$LN3:
	mov	QWORD PTR [rsp+8], rcx
	push	rbp
	push	rdi
	sub	rsp, 232				; 000000e8H
	lea	rbp, QWORD PTR [rsp+32]
	lea	rcx, OFFSET FLAT:__B61CA571_xstddef
	call	__CheckForDebuggerJustMyCode
; Line 253
	mov	rax, QWORD PTR _Val$[rbp]
; Line 254
	lea	rsp, QWORD PTR [rbp+200]
	pop	rdi
	pop	rbp
	ret	0
??$addressof@U_Container_proxy@std@@@std@@YAPEAU_Container_proxy@0@AEAU10@@Z ENDP ; std::addressof<std::_Container_proxy>
_TEXT	ENDS
; Function compile flags: /Odtp /RTCsu /ZI
;	COMDAT ??$_Uninitialized_copy@PEBQEBDV?$allocator@PEBD@std@@@std@@YAPEAPEBDQEBQEBD0PEAPEBDAEAV?$allocator@PEBD@0@@Z
_TEXT	SEGMENT
_UFirst$ = 8
_ULast$ = 40
_Backout$ = 72
$T4 = 312
__$ArrayPad$ = 328
_First$ = 368
_Last$ = 376
_Dest$ = 384
_Al$ = 392
??$_Uninitialized_copy@PEBQEBDV?$allocator@PEBD@std@@@std@@YAPEAPEBDQEBQEBD0PEAPEBDAEAV?$allocator@PEBD@0@@Z PROC ; std::_Uninitialized_copy<char const * const *,std::allocator<char const *> >, COMDAT
; File C:\Program Files\Microsoft Visual Studio\2022\Community\VC\Tools\MSVC\14.33.31629\include\xmemory
; Line 1679
$LN7:
	mov	QWORD PTR [rsp+32], r9
	mov	QWORD PTR [rsp+24], r8
	mov	QWORD PTR [rsp+16], rdx
	mov	QWORD PTR [rsp+8], rcx
	push	rbp
	push	rdi
	sub	rsp, 376				; 00000178H
	lea	rbp, QWORD PTR [rsp+32]
	lea	rdi, QWORD PTR [rsp+32]
	mov	ecx, 38					; 00000026H
	mov	eax, -858993460				; ccccccccH
	rep stosd
	mov	rcx, QWORD PTR [rsp+408]
	mov	rax, QWORD PTR __security_cookie
	xor	rax, rbp
	mov	QWORD PTR __$ArrayPad$[rbp], rax
	lea	rcx, OFFSET FLAT:__2B9651A0_xmemory
	call	__CheckForDebuggerJustMyCode
; Line 1684
	lea	rcx, QWORD PTR _First$[rbp]
	call	??$_Get_unwrapped@AEBQEBQEBD@std@@YA?A_TAEBQEBQEBD@Z ; std::_Get_unwrapped<char const * const * const &>
	mov	QWORD PTR _UFirst$[rbp], rax
; Line 1685
	lea	rcx, QWORD PTR _Last$[rbp]
	call	??$_Get_unwrapped@AEBQEBQEBD@std@@YA?A_TAEBQEBQEBD@Z ; std::_Get_unwrapped<char const * const * const &>
	mov	QWORD PTR _ULast$[rbp], rax
; Line 1693
	mov	rcx, QWORD PTR _Dest$[rbp]
	call	??$_Unfancy@PEBD@std@@YAPEAPEBDPEAPEBD@Z ; std::_Unfancy<char const *>
	mov	r8, rax
	mov	rdx, QWORD PTR _ULast$[rbp]
	mov	rcx, QWORD PTR _UFirst$[rbp]
	call	??$_Copy_memmove@PEBQEBDPEAPEBD@std@@YAPEAPEBDPEBQEBD0PEAPEBD@Z ; std::_Copy_memmove<char const * const *,char const * *>
; Line 1694
	mov	rax, QWORD PTR _UFirst$[rbp]
	mov	rcx, QWORD PTR _ULast$[rbp]
	sub	rcx, rax
	mov	rax, rcx
	sar	rax, 3
	mov	rcx, QWORD PTR _Dest$[rbp]
	lea	rax, QWORD PTR [rcx+rax*8]
	mov	QWORD PTR _Dest$[rbp], rax
; Line 1695
	mov	rax, QWORD PTR _Dest$[rbp]
	jmp	SHORT $LN1@Uninitiali
; Line 1699
	mov	edx, 24
	lea	rcx, QWORD PTR _Backout$[rbp]
	call	?__autoclassinit2@?$_Uninitialized_backout_al@V?$allocator@PEBD@std@@@std@@QEAAX_K@Z
	mov	r8, QWORD PTR _Al$[rbp]
	mov	rdx, QWORD PTR _Dest$[rbp]
	lea	rcx, QWORD PTR _Backout$[rbp]
	call	??0?$_Uninitialized_backout_al@V?$allocator@PEBD@std@@@std@@QEAA@PEAPEBDAEAV?$allocator@PEBD@1@@Z ; std::_Uninitialized_backout_al<std::allocator<char const *> >::_Uninitialized_backout_al<std::allocator<char const *> >
; Line 1700
	jmp	SHORT $LN4@Uninitiali
$LN2@Uninitiali:
	mov	rax, QWORD PTR _UFirst$[rbp]
	add	rax, 8
	mov	QWORD PTR _UFirst$[rbp], rax
$LN4@Uninitiali:
	mov	rax, QWORD PTR _ULast$[rbp]
	cmp	QWORD PTR _UFirst$[rbp], rax
	je	SHORT $LN3@Uninitiali
; Line 1701
	mov	rdx, QWORD PTR _UFirst$[rbp]
	lea	rcx, QWORD PTR _Backout$[rbp]
	call	??$_Emplace_back@AEBQEBD@?$_Uninitialized_backout_al@V?$allocator@PEBD@std@@@std@@QEAAXAEBQEBD@Z ; std::_Uninitialized_backout_al<std::allocator<char const *> >::_Emplace_back<char const * const &>
; Line 1702
	jmp	SHORT $LN2@Uninitiali
$LN3@Uninitiali:
; Line 1704
	lea	rcx, QWORD PTR _Backout$[rbp]
	call	?_Release@?$_Uninitialized_backout_al@V?$allocator@PEBD@std@@@std@@QEAAPEAPEBDXZ ; std::_Uninitialized_backout_al<std::allocator<char const *> >::_Release
	mov	QWORD PTR $T4[rbp], rax
	lea	rcx, QWORD PTR _Backout$[rbp]
	call	??1?$_Uninitialized_backout_al@V?$allocator@PEBD@std@@@std@@QEAA@XZ ; std::_Uninitialized_backout_al<std::allocator<char const *> >::~_Uninitialized_backout_al<std::allocator<char const *> >
	mov	rax, QWORD PTR $T4[rbp]
$LN1@Uninitiali:
; Line 1705
	mov	rdi, rax
	lea	rcx, QWORD PTR [rbp-32]
	lea	rdx, OFFSET FLAT:??$_Uninitialized_copy@PEBQEBDV?$allocator@PEBD@std@@@std@@YAPEAPEBDQEBQEBD0PEAPEBDAEAV?$allocator@PEBD@0@@Z$rtcFrameData
	call	_RTC_CheckStackVars
	mov	rax, rdi
	mov	rcx, QWORD PTR __$ArrayPad$[rbp]
	xor	rcx, rbp
	call	__security_check_cookie
	lea	rsp, QWORD PTR [rbp+344]
	pop	rdi
	pop	rbp
	ret	0
??$_Uninitialized_copy@PEBQEBDV?$allocator@PEBD@std@@@std@@YAPEAPEBDQEBQEBD0PEAPEBDAEAV?$allocator@PEBD@0@@Z ENDP ; std::_Uninitialized_copy<char const * const *,std::allocator<char const *> >
_TEXT	ENDS
; Function compile flags: /Odtp /RTCsu /ZI
;	COMDAT text$x
text$x	SEGMENT
_UFirst$ = 8
_ULast$ = 40
_Backout$ = 72
$T4 = 312
__$ArrayPad$ = 328
_First$ = 368
_Last$ = 376
_Dest$ = 384
_Al$ = 392
?dtor$0@?0???$_Uninitialized_copy@PEBQEBDV?$allocator@PEBD@std@@@std@@YAPEAPEBDQEBQEBD0PEAPEBDAEAV?$allocator@PEBD@0@@Z@4HA PROC ; `std::_Uninitialized_copy<char const * const *,std::allocator<char const *> >'::`1'::dtor$0
	mov	QWORD PTR [rsp+8], rcx
	mov	QWORD PTR [rsp+16], rdx
	push	rbp
	push	rdi
	sub	rsp, 40					; 00000028H
	lea	rbp, QWORD PTR [rdx+32]
	lea	rcx, QWORD PTR _Backout$[rbp]
	call	??1?$_Uninitialized_backout_al@V?$allocator@PEBD@std@@@std@@QEAA@XZ ; std::_Uninitialized_backout_al<std::allocator<char const *> >::~_Uninitialized_backout_al<std::allocator<char const *> >
	add	rsp, 40					; 00000028H
	pop	rdi
	pop	rbp
	ret	0
?dtor$0@?0???$_Uninitialized_copy@PEBQEBDV?$allocator@PEBD@std@@@std@@YAPEAPEBDQEBQEBD0PEAPEBDAEAV?$allocator@PEBD@0@@Z@4HA ENDP ; `std::_Uninitialized_copy<char const * const *,std::allocator<char const *> >'::`1'::dtor$0
text$x	ENDS
; Function compile flags: /Odtp /RTCsu /ZI
;	COMDAT ??$forward@PEBQEBD@std@@YA$$QEAPEBQEBDAEAPEBQEBD@Z
_TEXT	SEGMENT
_Arg$ = 224
??$forward@PEBQEBD@std@@YA$$QEAPEBQEBDAEAPEBQEBD@Z PROC	; std::forward<char const * const *>, COMDAT
; File C:\Program Files\Microsoft Visual Studio\2022\Community\VC\Tools\MSVC\14.33.31629\include\type_traits
; Line 1411
$LN3:
	mov	QWORD PTR [rsp+8], rcx
	push	rbp
	push	rdi
	sub	rsp, 232				; 000000e8H
	lea	rbp, QWORD PTR [rsp+32]
	lea	rcx, OFFSET FLAT:__F576AD63_type_traits
	call	__CheckForDebuggerJustMyCode
; Line 1412
	mov	rax, QWORD PTR _Arg$[rbp]
; Line 1413
	lea	rsp, QWORD PTR [rbp+200]
	pop	rdi
	pop	rbp
	ret	0
??$forward@PEBQEBD@std@@YA$$QEAPEBQEBDAEAPEBQEBD@Z ENDP	; std::forward<char const * const *>
_TEXT	ENDS
; Function compile flags: /Odtp /RTCsu /ZI
;	COMDAT ??1?$_Tidy_guard@V?$vector@PEBDV?$allocator@PEBD@std@@@std@@@std@@QEAA@XZ
_TEXT	SEGMENT
this$ = 224
??1?$_Tidy_guard@V?$vector@PEBDV?$allocator@PEBD@std@@@std@@@std@@QEAA@XZ PROC ; std::_Tidy_guard<std::vector<char const *,std::allocator<char const *> > >::~_Tidy_guard<std::vector<char const *,std::allocator<char const *> > >, COMDAT
; File C:\Program Files\Microsoft Visual Studio\2022\Community\VC\Tools\MSVC\14.33.31629\include\xmemory
; Line 33
$LN4:
	mov	QWORD PTR [rsp+8], rcx
	push	rbp
	push	rdi
	sub	rsp, 232				; 000000e8H
	lea	rbp, QWORD PTR [rsp+32]
	lea	rcx, OFFSET FLAT:__2B9651A0_xmemory
	call	__CheckForDebuggerJustMyCode
; Line 34
	mov	rax, QWORD PTR this$[rbp]
	cmp	QWORD PTR [rax], 0
	je	SHORT $LN2@Tidy_guard
; Line 35
	mov	rax, QWORD PTR this$[rbp]
	mov	rcx, QWORD PTR [rax]
	call	?_Tidy@?$vector@PEBDV?$allocator@PEBD@std@@@std@@AEAAXXZ ; std::vector<char const *,std::allocator<char const *> >::_Tidy
$LN2@Tidy_guard:
; Line 37
	lea	rsp, QWORD PTR [rbp+200]
	pop	rdi
	pop	rbp
	ret	0
??1?$_Tidy_guard@V?$vector@PEBDV?$allocator@PEBD@std@@@std@@@std@@QEAA@XZ ENDP ; std::_Tidy_guard<std::vector<char const *,std::allocator<char const *> > >::~_Tidy_guard<std::vector<char const *,std::allocator<char const *> > >
_TEXT	ENDS
; Function compile flags: /Odtp /RTCsu /ZI
;	COMDAT ??$forward@AEBV?$allocator@PEBD@std@@@std@@YAAEBV?$allocator@PEBD@0@AEBV10@@Z
_TEXT	SEGMENT
_Arg$ = 224
??$forward@AEBV?$allocator@PEBD@std@@@std@@YAAEBV?$allocator@PEBD@0@AEBV10@@Z PROC ; std::forward<std::allocator<char const *> const &>, COMDAT
; File C:\Program Files\Microsoft Visual Studio\2022\Community\VC\Tools\MSVC\14.33.31629\include\type_traits
; Line 1411
$LN3:
	mov	QWORD PTR [rsp+8], rcx
	push	rbp
	push	rdi
	sub	rsp, 232				; 000000e8H
	lea	rbp, QWORD PTR [rsp+32]
	lea	rcx, OFFSET FLAT:__F576AD63_type_traits
	call	__CheckForDebuggerJustMyCode
; Line 1412
	mov	rax, QWORD PTR _Arg$[rbp]
; Line 1413
	lea	rsp, QWORD PTR [rbp+200]
	pop	rdi
	pop	rbp
	ret	0
??$forward@AEBV?$allocator@PEBD@std@@@std@@YAAEBV?$allocator@PEBD@0@AEBV10@@Z ENDP ; std::forward<std::allocator<char const *> const &>
_TEXT	ENDS
; Function compile flags: /Odtp /RTCsu /ZI
;	COMDAT ??$_Deallocate_plain@V?$allocator@U_Container_proxy@std@@@std@@@std@@YAXAEAV?$allocator@U_Container_proxy@std@@@0@QEAU_Container_proxy@0@@Z
_TEXT	SEGMENT
_Al$ = 224
_Ptr$ = 232
??$_Deallocate_plain@V?$allocator@U_Container_proxy@std@@@std@@@std@@YAXAEAV?$allocator@U_Container_proxy@std@@@0@QEAU_Container_proxy@0@@Z PROC ; std::_Deallocate_plain<std::allocator<std::_Container_proxy> >, COMDAT
; File C:\Program Files\Microsoft Visual Studio\2022\Community\VC\Tools\MSVC\14.33.31629\include\xmemory
; Line 977
$LN3:
	mov	QWORD PTR [rsp+16], rdx
	mov	QWORD PTR [rsp+8], rcx
	push	rbp
	push	rdi
	sub	rsp, 232				; 000000e8H
	lea	rbp, QWORD PTR [rsp+32]
	lea	rcx, OFFSET FLAT:__2B9651A0_xmemory
	call	__CheckForDebuggerJustMyCode
; Line 981
	mov	r8d, 1
	mov	rdx, QWORD PTR _Ptr$[rbp]
	mov	rcx, QWORD PTR _Al$[rbp]
	call	?deallocate@?$_Default_allocator_traits@V?$allocator@U_Container_proxy@std@@@std@@@std@@SAXAEAV?$allocator@U_Container_proxy@std@@@2@QEAU_Container_proxy@2@_K@Z ; std::_Default_allocator_traits<std::allocator<std::_Container_proxy> >::deallocate
	npad	1
; Line 986
	lea	rsp, QWORD PTR [rbp+200]
	pop	rdi
	pop	rbp
	ret	0
??$_Deallocate_plain@V?$allocator@U_Container_proxy@std@@@std@@@std@@YAXAEAV?$allocator@U_Container_proxy@std@@@0@QEAU_Container_proxy@0@@Z ENDP ; std::_Deallocate_plain<std::allocator<std::_Container_proxy> >
_TEXT	ENDS
; Function compile flags: /Odtp /RTCsu /ZI
;	COMDAT ??$_Maklocstr@D@std@@YAPEADPEBDPEADAEBU_Cvtvec@@@Z
_TEXT	SEGMENT
_Count$ = 8
_Ptrdest$ = 40
_Ptrnext$1 = 72
tv84 = 280
tv85 = 288
_Ptr$ = 336
__formal$ = 344
__formal$ = 352
??$_Maklocstr@D@std@@YAPEADPEBDPEADAEBU_Cvtvec@@@Z PROC	; std::_Maklocstr<char>, COMDAT
; File C:\Program Files\Microsoft Visual Studio\2022\Community\VC\Tools\MSVC\14.33.31629\include\xlocale
; Line 513
$LN8:
	mov	QWORD PTR [rsp+24], r8
	mov	QWORD PTR [rsp+16], rdx
	mov	QWORD PTR [rsp+8], rcx
	push	rbp
	push	rdi
	sub	rsp, 360				; 00000168H
	lea	rbp, QWORD PTR [rsp+48]
	lea	rcx, OFFSET FLAT:__807BA30D_xlocale
	call	__CheckForDebuggerJustMyCode
; Line 515
	mov	rax, QWORD PTR _Ptr$[rbp]
	mov	QWORD PTR tv84[rbp], rax
	mov	QWORD PTR tv85[rbp], -1
$LL7@Maklocstr:
	inc	QWORD PTR tv85[rbp]
	mov	rax, QWORD PTR tv84[rbp]
	mov	rcx, QWORD PTR tv85[rbp]
	cmp	BYTE PTR [rax+rcx], 0
	jne	SHORT $LL7@Maklocstr
	mov	rax, QWORD PTR tv85[rbp]
	inc	rax
	mov	QWORD PTR _Count$[rbp], rax
; Line 517
	mov	DWORD PTR [rsp+32], 517			; 00000205H
	lea	r9, OFFSET FLAT:??_C@_0GC@MNELFEFK@C?3?2Program?5Files?2Microsoft?5Visu@
	mov	r8d, 2
	mov	edx, 1
	mov	rcx, QWORD PTR _Count$[rbp]
	call	QWORD PTR __imp__calloc_dbg
	mov	QWORD PTR _Ptrdest$[rbp], rax
; Line 519
	cmp	QWORD PTR _Ptrdest$[rbp], 0
	jne	SHORT $LN5@Maklocstr
; Line 520
	call	?_Xbad_alloc@std@@YAXXZ			; std::_Xbad_alloc
$LN5@Maklocstr:
; Line 523
	mov	rax, QWORD PTR _Ptrdest$[rbp]
	mov	QWORD PTR _Ptrnext$1[rbp], rax
	jmp	SHORT $LN4@Maklocstr
$LN2@Maklocstr:
	mov	rax, QWORD PTR _Count$[rbp]
	dec	rax
	mov	QWORD PTR _Count$[rbp], rax
	mov	rax, QWORD PTR _Ptrnext$1[rbp]
	inc	rax
	mov	QWORD PTR _Ptrnext$1[rbp], rax
	mov	rax, QWORD PTR _Ptr$[rbp]
	inc	rax
	mov	QWORD PTR _Ptr$[rbp], rax
$LN4@Maklocstr:
	cmp	QWORD PTR _Count$[rbp], 0
	jbe	SHORT $LN3@Maklocstr
; Line 524
	mov	rax, QWORD PTR _Ptrnext$1[rbp]
	mov	rcx, QWORD PTR _Ptr$[rbp]
	movzx	ecx, BYTE PTR [rcx]
	mov	BYTE PTR [rax], cl
; Line 525
	jmp	SHORT $LN2@Maklocstr
$LN3@Maklocstr:
; Line 527
	mov	rax, QWORD PTR _Ptrdest$[rbp]
$LN6@Maklocstr:
; Line 528
	lea	rsp, QWORD PTR [rbp+312]
	pop	rdi
	pop	rbp
	ret	0
??$_Maklocstr@D@std@@YAPEADPEBDPEADAEBU_Cvtvec@@@Z ENDP	; std::_Maklocstr<char>
_TEXT	ENDS
; Function compile flags: /Odtp /RTCsu /ZI
;	COMDAT ??$_Get_size_of_n@$0BA@@std@@YA_K_K@Z
_TEXT	SEGMENT
_Overflow_is_possible$ = 4
_Max_possible$1 = 40
_Count$ = 288
??$_Get_size_of_n@$0BA@@std@@YA_K_K@Z PROC		; std::_Get_size_of_n<16>, COMDAT
; File C:\Program Files\Microsoft Visual Studio\2022\Community\VC\Tools\MSVC\14.33.31629\include\xmemory
; Line 55
$LN4:
	mov	QWORD PTR [rsp+8], rcx
	push	rbp
	push	rdi
	sub	rsp, 296				; 00000128H
	lea	rbp, QWORD PTR [rsp+32]
	lea	rcx, OFFSET FLAT:__2B9651A0_xmemory
	call	__CheckForDebuggerJustMyCode
; Line 56
	mov	BYTE PTR _Overflow_is_possible$[rbp], 1
; Line 59
	mov	rax, 1152921504606846975		; 0fffffffffffffffH
	mov	QWORD PTR _Max_possible$1[rbp], rax
; Line 60
	mov	rax, 1152921504606846975		; 0fffffffffffffffH
	cmp	QWORD PTR _Count$[rbp], rax
	jbe	SHORT $LN2@Get_size_o
; Line 61
	call	?_Throw_bad_array_new_length@std@@YAXXZ	; std::_Throw_bad_array_new_length
$LN2@Get_size_o:
; Line 65
	imul	rax, QWORD PTR _Count$[rbp], 16
$LN3@Get_size_o:
; Line 66
	lea	rsp, QWORD PTR [rbp+264]
	pop	rdi
	pop	rbp
	ret	0
??$_Get_size_of_n@$0BA@@std@@YA_K_K@Z ENDP		; std::_Get_size_of_n<16>
_TEXT	ENDS
; Function compile flags: /Odtp /RTCsu /ZI
;	COMDAT ??$_Allocate@$0BA@U_Default_allocate_traits@std@@$0A@@std@@YAPEAX_K@Z
_TEXT	SEGMENT
_Bytes$ = 224
??$_Allocate@$0BA@U_Default_allocate_traits@std@@$0A@@std@@YAPEAX_K@Z PROC ; std::_Allocate<16,std::_Default_allocate_traits,0>, COMDAT
; File C:\Program Files\Microsoft Visual Studio\2022\Community\VC\Tools\MSVC\14.33.31629\include\xmemory
; Line 223
$LN5:
	mov	QWORD PTR [rsp+8], rcx
	push	rbp
	push	rdi
	sub	rsp, 232				; 000000e8H
	lea	rbp, QWORD PTR [rsp+32]
	lea	rcx, OFFSET FLAT:__2B9651A0_xmemory
	call	__CheckForDebuggerJustMyCode
; Line 230
	cmp	QWORD PTR _Bytes$[rbp], 4096		; 00001000H
	jb	SHORT $LN2@Allocate
; Line 231
	mov	rcx, QWORD PTR _Bytes$[rbp]
	call	??$_Allocate_manually_vector_aligned@U_Default_allocate_traits@std@@@std@@YAPEAX_K@Z ; std::_Allocate_manually_vector_aligned<std::_Default_allocate_traits>
	jmp	SHORT $LN1@Allocate
$LN2@Allocate:
; Line 236
	cmp	QWORD PTR _Bytes$[rbp], 0
	je	SHORT $LN3@Allocate
; Line 237
	mov	rcx, QWORD PTR _Bytes$[rbp]
	call	?_Allocate@_Default_allocate_traits@std@@SAPEAX_K@Z ; std::_Default_allocate_traits::_Allocate
	jmp	SHORT $LN1@Allocate
$LN3@Allocate:
; Line 240
	xor	eax, eax
$LN1@Allocate:
; Line 241
	lea	rsp, QWORD PTR [rbp+200]
	pop	rdi
	pop	rbp
	ret	0
??$_Allocate@$0BA@U_Default_allocate_traits@std@@$0A@@std@@YAPEAX_K@Z ENDP ; std::_Allocate<16,std::_Default_allocate_traits,0>
_TEXT	ENDS
; Function compile flags: /Odtp /RTCsu /ZI
;	COMDAT ??$_Deallocate@$0BA@$0A@@std@@YAXPEAX_K@Z
_TEXT	SEGMENT
_Ptr$ = 224
_Bytes$ = 232
??$_Deallocate@$0BA@$0A@@std@@YAXPEAX_K@Z PROC		; std::_Deallocate<16,0>, COMDAT
; File C:\Program Files\Microsoft Visual Studio\2022\Community\VC\Tools\MSVC\14.33.31629\include\xmemory
; Line 244
$LN4:
	mov	QWORD PTR [rsp+16], rdx
	mov	QWORD PTR [rsp+8], rcx
	push	rbp
	push	rdi
	sub	rsp, 232				; 000000e8H
	lea	rbp, QWORD PTR [rsp+32]
	lea	rcx, OFFSET FLAT:__2B9651A0_xmemory
	call	__CheckForDebuggerJustMyCode
; Line 253
	cmp	QWORD PTR _Bytes$[rbp], 4096		; 00001000H
	jb	SHORT $LN2@Deallocate
; Line 254
	lea	rdx, QWORD PTR _Bytes$[rbp]
	lea	rcx, QWORD PTR _Ptr$[rbp]
	call	?_Adjust_manually_vector_aligned@std@@YAXAEAPEAXAEA_K@Z ; std::_Adjust_manually_vector_aligned
$LN2@Deallocate:
; Line 257
	mov	rdx, QWORD PTR _Bytes$[rbp]
	mov	rcx, QWORD PTR _Ptr$[rbp]
	call	??3@YAXPEAX_K@Z				; operator delete
	npad	1
; Line 259
	lea	rsp, QWORD PTR [rbp+200]
	pop	rdi
	pop	rbp
	ret	0
??$_Deallocate@$0BA@$0A@@std@@YAXPEAX_K@Z ENDP		; std::_Deallocate<16,0>
_TEXT	ENDS
; Function compile flags: /Odtp /RTCsu /ZI
;	COMDAT ??$_Construct_in_place@U_Container_proxy@std@@PEAU_Container_base12@2@@std@@YAXAEAU_Container_proxy@0@$$QEAPEAU_Container_base12@0@@Z
_TEXT	SEGMENT
$T1 = 200
tv80 = 216
_Obj$ = 256
<_Args_0>$ = 264
??$_Construct_in_place@U_Container_proxy@std@@PEAU_Container_base12@2@@std@@YAXAEAU_Container_proxy@0@$$QEAPEAU_Container_base12@0@@Z PROC ; std::_Construct_in_place<std::_Container_proxy,std::_Container_base12 *>, COMDAT
; File C:\Program Files\Microsoft Visual Studio\2022\Community\VC\Tools\MSVC\14.33.31629\include\xutility
; Line 231
$LN3:
	mov	QWORD PTR [rsp+16], rdx
	mov	QWORD PTR [rsp+8], rcx
	push	rbp
	push	rdi
	sub	rsp, 264				; 00000108H
	lea	rbp, QWORD PTR [rsp+32]
	lea	rcx, OFFSET FLAT:__2177C444_xutility
	call	__CheckForDebuggerJustMyCode
; Line 238
	mov	rcx, QWORD PTR _Obj$[rbp]
	call	??$addressof@U_Container_proxy@std@@@std@@YAPEAU_Container_proxy@0@AEAU10@@Z ; std::addressof<std::_Container_proxy>
	mov	rcx, rax
	call	??$_Voidify_iter@PEAU_Container_proxy@std@@@std@@YAPEAXPEAU_Container_proxy@0@@Z ; std::_Voidify_iter<std::_Container_proxy *>
	mov	rdx, rax
	mov	ecx, 16
	call	??2@YAPEAX_KPEAX@Z			; operator new
	mov	QWORD PTR $T1[rbp], rax
	mov	rcx, QWORD PTR <_Args_0>$[rbp]
	call	??$forward@PEAU_Container_base12@std@@@std@@YA$$QEAPEAU_Container_base12@0@AEAPEAU10@@Z ; std::forward<std::_Container_base12 *>
	mov	rax, QWORD PTR [rax]
	mov	QWORD PTR tv80[rbp], rax
	mov	rdx, QWORD PTR tv80[rbp]
	mov	rcx, QWORD PTR $T1[rbp]
	call	??0_Container_proxy@std@@QEAA@PEAU_Container_base12@1@@Z ; std::_Container_proxy::_Container_proxy
; Line 240
	lea	rsp, QWORD PTR [rbp+232]
	pop	rdi
	pop	rbp
	ret	0
??$_Construct_in_place@U_Container_proxy@std@@PEAU_Container_base12@2@@std@@YAXAEAU_Container_proxy@0@$$QEAPEAU_Container_base12@0@@Z ENDP ; std::_Construct_in_place<std::_Container_proxy,std::_Container_base12 *>
_TEXT	ENDS
; Function compile flags: /Odtp /RTCsu /ZI
;	COMDAT ??$addressof@U_Container_base12@std@@@std@@YAPEAU_Container_base12@0@AEAU10@@Z
_TEXT	SEGMENT
_Val$ = 224
??$addressof@U_Container_base12@std@@@std@@YAPEAU_Container_base12@0@AEAU10@@Z PROC ; std::addressof<std::_Container_base12>, COMDAT
; File C:\Program Files\Microsoft Visual Studio\2022\Community\VC\Tools\MSVC\14.33.31629\include\xstddef
; Line 252
$LN3:
	mov	QWORD PTR [rsp+8], rcx
	push	rbp
	push	rdi
	sub	rsp, 232				; 000000e8H
	lea	rbp, QWORD PTR [rsp+32]
	lea	rcx, OFFSET FLAT:__B61CA571_xstddef
	call	__CheckForDebuggerJustMyCode
; Line 253
	mov	rax, QWORD PTR _Val$[rbp]
; Line 254
	lea	rsp, QWORD PTR [rbp+200]
	pop	rdi
	pop	rbp
	ret	0
??$addressof@U_Container_base12@std@@@std@@YAPEAU_Container_base12@0@AEAU10@@Z ENDP ; std::addressof<std::_Container_base12>
_TEXT	ENDS
; Function compile flags: /Odtp /RTCsu /ZI
;	COMDAT ??$_Unfancy@U_Container_proxy@std@@@std@@YAPEAU_Container_proxy@0@PEAU10@@Z
_TEXT	SEGMENT
_Ptr$ = 224
??$_Unfancy@U_Container_proxy@std@@@std@@YAPEAU_Container_proxy@0@PEAU10@@Z PROC ; std::_Unfancy<std::_Container_proxy>, COMDAT
; File C:\Program Files\Microsoft Visual Studio\2022\Community\VC\Tools\MSVC\14.33.31629\include\xstddef
; Line 265
$LN3:
	mov	QWORD PTR [rsp+8], rcx
	push	rbp
	push	rdi
	sub	rsp, 232				; 000000e8H
	lea	rbp, QWORD PTR [rsp+32]
	lea	rcx, OFFSET FLAT:__B61CA571_xstddef
	call	__CheckForDebuggerJustMyCode
; Line 266
	mov	rax, QWORD PTR _Ptr$[rbp]
; Line 267
	lea	rsp, QWORD PTR [rbp+200]
	pop	rdi
	pop	rbp
	ret	0
??$_Unfancy@U_Container_proxy@std@@@std@@YAPEAU_Container_proxy@0@PEAU10@@Z ENDP ; std::_Unfancy<std::_Container_proxy>
_TEXT	ENDS
; Function compile flags: /Odtp /RTCsu /ZI
;	COMDAT ??$_Destroy_range@V?$allocator@PEBD@std@@@std@@YAXPEAPEBDQEAPEBDAEAV?$allocator@PEBD@0@@Z
_TEXT	SEGMENT
_First$ = 224
_Last$ = 232
_Al$ = 240
??$_Destroy_range@V?$allocator@PEBD@std@@@std@@YAXPEAPEBDQEAPEBDAEAV?$allocator@PEBD@0@@Z PROC ; std::_Destroy_range<std::allocator<char const *> >, COMDAT
; File C:\Program Files\Microsoft Visual Studio\2022\Community\VC\Tools\MSVC\14.33.31629\include\xmemory
; Line 944
$LN3:
	mov	QWORD PTR [rsp+24], r8
	mov	QWORD PTR [rsp+16], rdx
	mov	QWORD PTR [rsp+8], rcx
	push	rbp
	push	rdi
	sub	rsp, 232				; 000000e8H
	lea	rbp, QWORD PTR [rsp+32]
	lea	rcx, OFFSET FLAT:__2B9651A0_xmemory
	call	__CheckForDebuggerJustMyCode
; Line 952
	lea	rsp, QWORD PTR [rbp+200]
	pop	rdi
	pop	rbp
	ret	0
??$_Destroy_range@V?$allocator@PEBD@std@@@std@@YAXPEAPEBDQEAPEBDAEAV?$allocator@PEBD@0@@Z ENDP ; std::_Destroy_range<std::allocator<char const *> >
_TEXT	ENDS
; Function compile flags: /Odtp /RTCsu /ZI
;	COMDAT ??1?$_Container_proxy_ptr12@V?$allocator@U_Container_proxy@std@@@std@@@std@@QEAA@XZ
_TEXT	SEGMENT
this$ = 224
??1?$_Container_proxy_ptr12@V?$allocator@U_Container_proxy@std@@@std@@@std@@QEAA@XZ PROC ; std::_Container_proxy_ptr12<std::allocator<std::_Container_proxy> >::~_Container_proxy_ptr12<std::allocator<std::_Container_proxy> >, COMDAT
; File C:\Program Files\Microsoft Visual Studio\2022\Community\VC\Tools\MSVC\14.33.31629\include\xmemory
; Line 1339
$LN4:
	mov	QWORD PTR [rsp+8], rcx
	push	rbp
	push	rdi
	sub	rsp, 232				; 000000e8H
	lea	rbp, QWORD PTR [rsp+32]
	lea	rcx, OFFSET FLAT:__2B9651A0_xmemory
	call	__CheckForDebuggerJustMyCode
; Line 1340
	mov	rax, QWORD PTR this$[rbp]
	cmp	QWORD PTR [rax], 0
	je	SHORT $LN2@Container_
; Line 1341
	mov	rax, QWORD PTR this$[rbp]
	mov	rdx, QWORD PTR [rax]
	mov	rax, QWORD PTR this$[rbp]
	mov	rcx, QWORD PTR [rax+8]
	call	??$_Delete_plain_internal@V?$allocator@U_Container_proxy@std@@@std@@@std@@YAXAEAV?$allocator@U_Container_proxy@std@@@0@QEAU_Container_proxy@0@@Z ; std::_Delete_plain_internal<std::allocator<std::_Container_proxy> >
$LN2@Container_:
; Line 1343
	lea	rsp, QWORD PTR [rbp+200]
	pop	rdi
	pop	rbp
	ret	0
??1?$_Container_proxy_ptr12@V?$allocator@U_Container_proxy@std@@@std@@@std@@QEAA@XZ ENDP ; std::_Container_proxy_ptr12<std::allocator<std::_Container_proxy> >::~_Container_proxy_ptr12<std::allocator<std::_Container_proxy> >
_TEXT	ENDS
; Function compile flags: /Odtp /RTCsu /ZI
;	COMDAT ??0?$_Container_proxy_ptr12@V?$allocator@U_Container_proxy@std@@@std@@@std@@QEAA@AEAV?$allocator@U_Container_proxy@std@@@1@AEAU_Container_base12@1@@Z
_TEXT	SEGMENT
$T1 = 200
this$ = 256
_Al_$ = 264
_Mycont$ = 272
??0?$_Container_proxy_ptr12@V?$allocator@U_Container_proxy@std@@@std@@@std@@QEAA@AEAV?$allocator@U_Container_proxy@std@@@1@AEAU_Container_base12@1@@Z PROC ; std::_Container_proxy_ptr12<std::allocator<std::_Container_proxy> >::_Container_proxy_ptr12<std::allocator<std::_Container_proxy> >, COMDAT
; File C:\Program Files\Microsoft Visual Studio\2022\Community\VC\Tools\MSVC\14.33.31629\include\xmemory
; Line 1325
$LN3:
	mov	QWORD PTR [rsp+24], r8
	mov	QWORD PTR [rsp+16], rdx
	mov	QWORD PTR [rsp+8], rcx
	push	rbp
	push	rdi
	sub	rsp, 264				; 00000108H
	lea	rbp, QWORD PTR [rsp+32]
	lea	rcx, OFFSET FLAT:__2B9651A0_xmemory
	call	__CheckForDebuggerJustMyCode
	mov	rcx, QWORD PTR this$[rbp]
	call	??0_Basic_container_proxy_ptr12@std@@IEAA@XZ ; std::_Basic_container_proxy_ptr12::_Basic_container_proxy_ptr12
	mov	rax, QWORD PTR this$[rbp]
	mov	rcx, QWORD PTR _Al_$[rbp]
	mov	QWORD PTR [rax+8], rcx
; Line 1327
	mov	edx, 1
	mov	rcx, QWORD PTR _Al_$[rbp]
	call	?allocate@?$allocator@U_Container_proxy@std@@@std@@QEAAPEAU_Container_proxy@2@_K@Z ; std::allocator<std::_Container_proxy>::allocate
	mov	rcx, rax
	call	??$_Unfancy@U_Container_proxy@std@@@std@@YAPEAU_Container_proxy@0@PEAU10@@Z ; std::_Unfancy<std::_Container_proxy>
	mov	rcx, QWORD PTR this$[rbp]
	mov	QWORD PTR [rcx], rax
; Line 1328
	mov	rcx, QWORD PTR _Mycont$[rbp]
	call	??$addressof@U_Container_base12@std@@@std@@YAPEAU_Container_base12@0@AEAU10@@Z ; std::addressof<std::_Container_base12>
	mov	QWORD PTR $T1[rbp], rax
	lea	rdx, QWORD PTR $T1[rbp]
	mov	rax, QWORD PTR this$[rbp]
	mov	rcx, QWORD PTR [rax]
	call	??$_Construct_in_place@U_Container_proxy@std@@PEAU_Container_base12@2@@std@@YAXAEAU_Container_proxy@0@$$QEAPEAU_Container_base12@0@@Z ; std::_Construct_in_place<std::_Container_proxy,std::_Container_base12 *>
; Line 1329
	mov	rax, QWORD PTR _Mycont$[rbp]
	mov	rcx, QWORD PTR this$[rbp]
	mov	rcx, QWORD PTR [rcx]
	mov	QWORD PTR [rax], rcx
; Line 1330
	mov	rax, QWORD PTR this$[rbp]
	lea	rsp, QWORD PTR [rbp+232]
	pop	rdi
	pop	rbp
	ret	0
??0?$_Container_proxy_ptr12@V?$allocator@U_Container_proxy@std@@@std@@@std@@QEAA@AEAV?$allocator@U_Container_proxy@std@@@1@AEAU_Container_base12@1@@Z ENDP ; std::_Container_proxy_ptr12<std::allocator<std::_Container_proxy> >::_Container_proxy_ptr12<std::allocator<std::_Container_proxy> >
_TEXT	ENDS
; Function compile flags: /Odtp /RTCsu /ZI
;	COMDAT ??$min@_K@std@@YAAEB_KAEB_K0@Z
_TEXT	SEGMENT
$T1 = 200
tv65 = 216
_Left$ = 256
_Right$ = 264
??$min@_K@std@@YAAEB_KAEB_K0@Z PROC			; std::min<unsigned __int64>, COMDAT
; File C:\Program Files\Microsoft Visual Studio\2022\Community\VC\Tools\MSVC\14.33.31629\include\utility
; Line 64
$LN5:
	mov	QWORD PTR [rsp+16], rdx
	mov	QWORD PTR [rsp+8], rcx
	push	rbp
	push	rdi
	sub	rsp, 264				; 00000108H
	lea	rbp, QWORD PTR [rsp+32]
	lea	rcx, OFFSET FLAT:__41033263_utility
	call	__CheckForDebuggerJustMyCode
; Line 66
	mov	rax, QWORD PTR _Right$[rbp]
	mov	rcx, QWORD PTR _Left$[rbp]
	mov	rcx, QWORD PTR [rcx]
	cmp	QWORD PTR [rax], rcx
	jae	SHORT $LN3@min
	mov	rax, QWORD PTR _Right$[rbp]
	mov	QWORD PTR tv65[rbp], rax
	jmp	SHORT $LN4@min
$LN3@min:
	mov	rax, QWORD PTR _Left$[rbp]
	mov	QWORD PTR tv65[rbp], rax
$LN4@min:
	mov	rax, QWORD PTR tv65[rbp]
	mov	QWORD PTR $T1[rbp], rax
	mov	rax, QWORD PTR $T1[rbp]
; Line 67
	lea	rsp, QWORD PTR [rbp+232]
	pop	rdi
	pop	rbp
	ret	0
??$min@_K@std@@YAAEB_KAEB_K0@Z ENDP			; std::min<unsigned __int64>
_TEXT	ENDS
; Function compile flags: /Odtp /RTCsu /ZI
;	COMDAT ??$_Construct_n@PEBQEBDPEBQEBD@?$vector@PEBDV?$allocator@PEBD@std@@@std@@AEAAX_K$$QEAPEBQEBD1@Z
_TEXT	SEGMENT
_Al$ = 8
_Alproxy$ = 40
$S17$ = 68
_My_data$ = 104
_Proxy$ = 136
_Guard$6 = 184
tv131 = 392
tv129 = 400
tv95 = 408
__$ArrayPad$ = 416
this$ = 464
_Count$ = 472
<_Val_0>$ = 480
<_Val_1>$ = 488
??$_Construct_n@PEBQEBDPEBQEBD@?$vector@PEBDV?$allocator@PEBD@std@@@std@@AEAAX_K$$QEAPEBQEBD1@Z PROC ; std::vector<char const *,std::allocator<char const *> >::_Construct_n<char const * const *,char const * const *>, COMDAT
; File C:\Program Files\Microsoft Visual Studio\2022\Community\VC\Tools\MSVC\14.33.31629\include\vector
; Line 1918
$LN6:
	mov	QWORD PTR [rsp+32], r9
	mov	QWORD PTR [rsp+24], r8
	mov	QWORD PTR [rsp+16], rdx
	mov	QWORD PTR [rsp+8], rcx
	push	rbp
	push	rdi
	sub	rsp, 472				; 000001d8H
	lea	rbp, QWORD PTR [rsp+32]
	lea	rdi, QWORD PTR [rsp+32]
	mov	ecx, 62					; 0000003eH
	mov	eax, -858993460				; ccccccccH
	rep stosd
	mov	rcx, QWORD PTR [rsp+504]
	mov	rax, QWORD PTR __security_cookie
	xor	rax, rbp
	mov	QWORD PTR __$ArrayPad$[rbp], rax
	lea	rcx, OFFSET FLAT:__1EEDDF51_vector
	call	__CheckForDebuggerJustMyCode
; Line 1923
	mov	rcx, QWORD PTR this$[rbp]
	call	?_Getal@?$vector@PEBDV?$allocator@PEBD@std@@@std@@AEAAAEAV?$allocator@PEBD@2@XZ ; std::vector<char const *,std::allocator<char const *> >::_Getal
	mov	QWORD PTR _Al$[rbp], rax
; Line 1924
	mov	rdx, QWORD PTR _Al$[rbp]
	lea	rcx, QWORD PTR $S17$[rbp]
	call	??$?0PEBD@?$allocator@U_Container_proxy@std@@@std@@QEAA@AEBV?$allocator@PEBD@1@@Z ; std::allocator<std::_Container_proxy>::allocator<std::_Container_proxy><char const *>
	lea	rax, QWORD PTR $S17$[rbp]
	mov	QWORD PTR _Alproxy$[rbp], rax
; Line 1925
	mov	rax, QWORD PTR this$[rbp]
	mov	QWORD PTR _My_data$[rbp], rax
; Line 1926
	mov	r8, QWORD PTR _My_data$[rbp]
	mov	rdx, QWORD PTR _Alproxy$[rbp]
	lea	rcx, QWORD PTR _Proxy$[rbp]
	call	??0?$_Container_proxy_ptr12@V?$allocator@U_Container_proxy@std@@@std@@@std@@QEAA@AEAV?$allocator@U_Container_proxy@std@@@1@AEAU_Container_base12@1@@Z ; std::_Container_proxy_ptr12<std::allocator<std::_Container_proxy> >::_Container_proxy_ptr12<std::allocator<std::_Container_proxy> >
	npad	1
; Line 1927
	cmp	QWORD PTR _Count$[rbp], 0
	je	$LN2@Construct_
; Line 1928
	mov	rdx, QWORD PTR _Count$[rbp]
	mov	rcx, QWORD PTR this$[rbp]
	call	?_Buy_nonzero@?$vector@PEBDV?$allocator@PEBD@std@@@std@@AEAAX_K@Z ; std::vector<char const *,std::allocator<char const *> >::_Buy_nonzero
; Line 1929
	mov	rax, QWORD PTR this$[rbp]
	mov	QWORD PTR _Guard$6[rbp], rax
; Line 1936
	mov	rax, QWORD PTR _My_data$[rbp]
	mov	rax, QWORD PTR [rax+8]
	mov	QWORD PTR tv131[rbp], rax
	mov	rcx, QWORD PTR <_Val_1>$[rbp]
	call	??$forward@PEBQEBD@std@@YA$$QEAPEBQEBDAEAPEBQEBD@Z ; std::forward<char const * const *>
	mov	rax, QWORD PTR [rax]
	mov	QWORD PTR tv129[rbp], rax
	mov	rcx, QWORD PTR <_Val_0>$[rbp]
	call	??$forward@PEBQEBD@std@@YA$$QEAPEBQEBDAEAPEBQEBD@Z ; std::forward<char const * const *>
	mov	rax, QWORD PTR [rax]
	mov	QWORD PTR tv95[rbp], rax
	mov	r9, QWORD PTR _Al$[rbp]
	mov	r8, QWORD PTR tv131[rbp]
	mov	rdx, QWORD PTR tv129[rbp]
	mov	rcx, QWORD PTR tv95[rbp]
	call	??$_Uninitialized_copy@PEBQEBDV?$allocator@PEBD@std@@@std@@YAPEAPEBDQEBQEBD0PEAPEBDAEAV?$allocator@PEBD@0@@Z ; std::_Uninitialized_copy<char const * const *,std::allocator<char const *> >
	mov	rcx, QWORD PTR _My_data$[rbp]
	mov	QWORD PTR [rcx+16], rax
; Line 1941
	mov	QWORD PTR _Guard$6[rbp], 0
; Line 1942
	lea	rcx, QWORD PTR _Guard$6[rbp]
	call	??1?$_Tidy_guard@V?$vector@PEBDV?$allocator@PEBD@std@@@std@@@std@@QEAA@XZ ; std::_Tidy_guard<std::vector<char const *,std::allocator<char const *> > >::~_Tidy_guard<std::vector<char const *,std::allocator<char const *> > >
$LN2@Construct_:
; Line 1944
	lea	rcx, QWORD PTR _Proxy$[rbp]
	call	?_Release@_Basic_container_proxy_ptr12@std@@QEAAXXZ ; std::_Basic_container_proxy_ptr12::_Release
	npad	1
; Line 1945
	lea	rcx, QWORD PTR _Proxy$[rbp]
	call	??1?$_Container_proxy_ptr12@V?$allocator@U_Container_proxy@std@@@std@@@std@@QEAA@XZ ; std::_Container_proxy_ptr12<std::allocator<std::_Container_proxy> >::~_Container_proxy_ptr12<std::allocator<std::_Container_proxy> >
	lea	rcx, QWORD PTR [rbp-32]
	lea	rdx, OFFSET FLAT:??$_Construct_n@PEBQEBDPEBQEBD@?$vector@PEBDV?$allocator@PEBD@std@@@std@@AEAAX_K$$QEAPEBQEBD1@Z$rtcFrameData
	call	_RTC_CheckStackVars
	mov	rcx, QWORD PTR __$ArrayPad$[rbp]
	xor	rcx, rbp
	call	__security_check_cookie
	lea	rsp, QWORD PTR [rbp+440]
	pop	rdi
	pop	rbp
	ret	0
??$_Construct_n@PEBQEBDPEBQEBD@?$vector@PEBDV?$allocator@PEBD@std@@@std@@AEAAX_K$$QEAPEBQEBD1@Z ENDP ; std::vector<char const *,std::allocator<char const *> >::_Construct_n<char const * const *,char const * const *>
_TEXT	ENDS
; Function compile flags: /Odtp /RTCsu /ZI
;	COMDAT text$x
text$x	SEGMENT
_Al$ = 8
_Alproxy$ = 40
$S17$ = 68
_My_data$ = 104
_Proxy$ = 136
_Guard$6 = 184
tv131 = 392
tv129 = 400
tv95 = 408
__$ArrayPad$ = 416
this$ = 464
_Count$ = 472
<_Val_0>$ = 480
<_Val_1>$ = 488
?dtor$0@?0???$_Construct_n@PEBQEBDPEBQEBD@?$vector@PEBDV?$allocator@PEBD@std@@@std@@AEAAX_K$$QEAPEBQEBD1@Z@4HA PROC ; `std::vector<char const *,std::allocator<char const *> >::_Construct_n<char const * const *,char const * const *>'::`1'::dtor$0
	mov	QWORD PTR [rsp+8], rcx
	mov	QWORD PTR [rsp+16], rdx
	push	rbp
	push	rdi
	sub	rsp, 40					; 00000028H
	lea	rbp, QWORD PTR [rdx+32]
	lea	rcx, QWORD PTR _Proxy$[rbp]
	call	??1?$_Container_proxy_ptr12@V?$allocator@U_Container_proxy@std@@@std@@@std@@QEAA@XZ ; std::_Container_proxy_ptr12<std::allocator<std::_Container_proxy> >::~_Container_proxy_ptr12<std::allocator<std::_Container_proxy> >
	add	rsp, 40					; 00000028H
	pop	rdi
	pop	rbp
	ret	0
?dtor$0@?0???$_Construct_n@PEBQEBDPEBQEBD@?$vector@PEBDV?$allocator@PEBD@std@@@std@@AEAAX_K$$QEAPEBQEBD1@Z@4HA ENDP ; `std::vector<char const *,std::allocator<char const *> >::_Construct_n<char const * const *,char const * const *>'::`1'::dtor$0
text$x	ENDS
; Function compile flags: /Odtp /RTCsu /ZI
;	COMDAT text$x
text$x	SEGMENT
_Al$ = 8
_Alproxy$ = 40
$S17$ = 68
_My_data$ = 104
_Proxy$ = 136
_Guard$6 = 184
tv131 = 392
tv129 = 400
tv95 = 408
__$ArrayPad$ = 416
this$ = 464
_Count$ = 472
<_Val_0>$ = 480
<_Val_1>$ = 488
?dtor$1@?0???$_Construct_n@PEBQEBDPEBQEBD@?$vector@PEBDV?$allocator@PEBD@std@@@std@@AEAAX_K$$QEAPEBQEBD1@Z@4HA PROC ; `std::vector<char const *,std::allocator<char const *> >::_Construct_n<char const * const *,char const * const *>'::`1'::dtor$1
	mov	QWORD PTR [rsp+8], rcx
	mov	QWORD PTR [rsp+16], rdx
	push	rbp
	push	rdi
	sub	rsp, 40					; 00000028H
	lea	rbp, QWORD PTR [rdx+32]
	lea	rcx, QWORD PTR _Guard$6[rbp]
	call	??1?$_Tidy_guard@V?$vector@PEBDV?$allocator@PEBD@std@@@std@@@std@@QEAA@XZ ; std::_Tidy_guard<std::vector<char const *,std::allocator<char const *> > >::~_Tidy_guard<std::vector<char const *,std::allocator<char const *> > >
	add	rsp, 40					; 00000028H
	pop	rdi
	pop	rbp
	ret	0
?dtor$1@?0???$_Construct_n@PEBQEBDPEBQEBD@?$vector@PEBDV?$allocator@PEBD@std@@@std@@AEAAX_K$$QEAPEBQEBD1@Z@4HA ENDP ; `std::vector<char const *,std::allocator<char const *> >::_Construct_n<char const * const *,char const * const *>'::`1'::dtor$1
text$x	ENDS
; Function compile flags: /Odtp /RTCsu /ZI
;	COMDAT ??$_Convert_size@_K@std@@YA_K_K@Z
_TEXT	SEGMENT
_Len$ = 224
??$_Convert_size@_K@std@@YA_K_K@Z PROC			; std::_Convert_size<unsigned __int64>, COMDAT
; File C:\Program Files\Microsoft Visual Studio\2022\Community\VC\Tools\MSVC\14.33.31629\include\xmemory
; Line 965
$LN3:
	mov	QWORD PTR [rsp+8], rcx
	push	rbp
	push	rdi
	sub	rsp, 232				; 000000e8H
	lea	rbp, QWORD PTR [rsp+32]
	lea	rcx, OFFSET FLAT:__2B9651A0_xmemory
	call	__CheckForDebuggerJustMyCode
; Line 973
	mov	rax, QWORD PTR _Len$[rbp]
; Line 974
	lea	rsp, QWORD PTR [rbp+200]
	pop	rdi
	pop	rbp
	ret	0
??$_Convert_size@_K@std@@YA_K_K@Z ENDP			; std::_Convert_size<unsigned __int64>
_TEXT	ENDS
; Function compile flags: /Odtp /RTCsu /ZI
;	COMDAT ??$?0AEBV?$allocator@PEBD@std@@$$V@?$_Compressed_pair@V?$allocator@PEBD@std@@V?$_Vector_val@U?$_Simple_types@PEBD@std@@@2@$00@std@@QEAA@U_One_then_variadic_args_t@1@AEBV?$allocator@PEBD@1@@Z
_TEXT	SEGMENT
this$ = 224
__formal$ = 232
_Val1$ = 240
??$?0AEBV?$allocator@PEBD@std@@$$V@?$_Compressed_pair@V?$allocator@PEBD@std@@V?$_Vector_val@U?$_Simple_types@PEBD@std@@@2@$00@std@@QEAA@U_One_then_variadic_args_t@1@AEBV?$allocator@PEBD@1@@Z PROC ; std::_Compressed_pair<std::allocator<char const *>,std::_Vector_val<std::_Simple_types<char const *> >,1>::_Compressed_pair<std::allocator<char const *>,std::_Vector_val<std::_Simple_types<char const *> >,1><std::allocator<char const *> const &>, COMDAT
; File C:\Program Files\Microsoft Visual Studio\2022\Community\VC\Tools\MSVC\14.33.31629\include\xmemory
; Line 1380
$LN3:
	mov	QWORD PTR [rsp+24], r8
	mov	BYTE PTR [rsp+16], dl
	mov	QWORD PTR [rsp+8], rcx
	push	rbp
	push	rdi
	sub	rsp, 232				; 000000e8H
	lea	rbp, QWORD PTR [rsp+32]
	lea	rcx, OFFSET FLAT:__2B9651A0_xmemory
	call	__CheckForDebuggerJustMyCode
	mov	rcx, QWORD PTR _Val1$[rbp]
	call	??$forward@AEBV?$allocator@PEBD@std@@@std@@YAAEBV?$allocator@PEBD@0@AEBV10@@Z ; std::forward<std::allocator<char const *> const &>
	mov	rax, QWORD PTR this$[rbp]
	mov	rcx, rax
	call	??0?$_Vector_val@U?$_Simple_types@PEBD@std@@@std@@QEAA@XZ ; std::_Vector_val<std::_Simple_types<char const *> >::_Vector_val<std::_Simple_types<char const *> >
	mov	rax, QWORD PTR this$[rbp]
	lea	rsp, QWORD PTR [rbp+200]
	pop	rdi
	pop	rbp
	ret	0
??$?0AEBV?$allocator@PEBD@std@@$$V@?$_Compressed_pair@V?$allocator@PEBD@std@@V?$_Vector_val@U?$_Simple_types@PEBD@std@@@2@$00@std@@QEAA@U_One_then_variadic_args_t@1@AEBV?$allocator@PEBD@1@@Z ENDP ; std::_Compressed_pair<std::allocator<char const *>,std::_Vector_val<std::_Simple_types<char const *> >,1>::_Compressed_pair<std::allocator<char const *>,std::_Vector_val<std::_Simple_types<char const *> >,1><std::allocator<char const *> const &>
_TEXT	ENDS
; Function compile flags: /Odtp /RTCsu /ZI
;	COMDAT ??$?0PEBD@?$allocator@U_Container_proxy@std@@@std@@QEAA@AEBV?$allocator@PEBD@1@@Z
_TEXT	SEGMENT
this$ = 224
__formal$ = 232
??$?0PEBD@?$allocator@U_Container_proxy@std@@@std@@QEAA@AEBV?$allocator@PEBD@1@@Z PROC ; std::allocator<std::_Container_proxy>::allocator<std::_Container_proxy><char const *>, COMDAT
; File C:\Program Files\Microsoft Visual Studio\2022\Community\VC\Tools\MSVC\14.33.31629\include\xmemory
; Line 825
$LN3:
	mov	QWORD PTR [rsp+16], rdx
	mov	QWORD PTR [rsp+8], rcx
	push	rbp
	push	rdi
	sub	rsp, 232				; 000000e8H
	lea	rbp, QWORD PTR [rsp+32]
	lea	rcx, OFFSET FLAT:__2B9651A0_xmemory
	call	__CheckForDebuggerJustMyCode
	mov	rax, QWORD PTR this$[rbp]
	lea	rsp, QWORD PTR [rbp+200]
	pop	rdi
	pop	rbp
	ret	0
??$?0PEBD@?$allocator@U_Container_proxy@std@@@std@@QEAA@AEBV?$allocator@PEBD@1@@Z ENDP ; std::allocator<std::_Container_proxy>::allocator<std::_Container_proxy><char const *>
_TEXT	ENDS
; Function compile flags: /Odtp /RTCsu /ZI
;	COMDAT ??$_Delete_plain_internal@V?$allocator@U_Container_proxy@std@@@std@@@std@@YAXAEAV?$allocator@U_Container_proxy@std@@@0@QEAU_Container_proxy@0@@Z
_TEXT	SEGMENT
_Al$ = 224
_Ptr$ = 232
??$_Delete_plain_internal@V?$allocator@U_Container_proxy@std@@@std@@@std@@YAXAEAV?$allocator@U_Container_proxy@std@@@0@QEAU_Container_proxy@0@@Z PROC ; std::_Delete_plain_internal<std::allocator<std::_Container_proxy> >, COMDAT
; File C:\Program Files\Microsoft Visual Studio\2022\Community\VC\Tools\MSVC\14.33.31629\include\xmemory
; Line 989
$LN3:
	mov	QWORD PTR [rsp+16], rdx
	mov	QWORD PTR [rsp+8], rcx
	push	rbp
	push	rdi
	sub	rsp, 232				; 000000e8H
	lea	rbp, QWORD PTR [rsp+32]
	lea	rcx, OFFSET FLAT:__2B9651A0_xmemory
	call	__CheckForDebuggerJustMyCode
; Line 993
	mov	rdx, QWORD PTR _Ptr$[rbp]
	mov	rcx, QWORD PTR _Al$[rbp]
	call	??$_Deallocate_plain@V?$allocator@U_Container_proxy@std@@@std@@@std@@YAXAEAV?$allocator@U_Container_proxy@std@@@0@QEAU_Container_proxy@0@@Z ; std::_Deallocate_plain<std::allocator<std::_Container_proxy> >
; Line 994
	lea	rsp, QWORD PTR [rbp+200]
	pop	rdi
	pop	rbp
	ret	0
??$_Delete_plain_internal@V?$allocator@U_Container_proxy@std@@@std@@@std@@YAXAEAV?$allocator@U_Container_proxy@std@@@0@QEAU_Container_proxy@0@@Z ENDP ; std::_Delete_plain_internal<std::allocator<std::_Container_proxy> >
_TEXT	ENDS
; Function compile flags: /Odtp /RTCsu /ZI
;	COMDAT ??$exchange@PEAU_Container_proxy@std@@$$T@std@@YAPEAU_Container_proxy@0@AEAPEAU10@$$QEA$$T@Z
_TEXT	SEGMENT
_Old_val$ = 8
_Val$ = 256
_New_val$ = 264
??$exchange@PEAU_Container_proxy@std@@$$T@std@@YAPEAU_Container_proxy@0@AEAPEAU10@$$QEA$$T@Z PROC ; std::exchange<std::_Container_proxy *,std::nullptr_t>, COMDAT
; File C:\Program Files\Microsoft Visual Studio\2022\Community\VC\Tools\MSVC\14.33.31629\include\utility
; Line 723
$LN3:
	mov	QWORD PTR [rsp+16], rdx
	mov	QWORD PTR [rsp+8], rcx
	push	rbp
	push	rdi
	sub	rsp, 264				; 00000108H
	lea	rbp, QWORD PTR [rsp+32]
	lea	rcx, OFFSET FLAT:__41033263_utility
	call	__CheckForDebuggerJustMyCode
; Line 725
	mov	rax, QWORD PTR _Val$[rbp]
	mov	rax, QWORD PTR [rax]
	mov	QWORD PTR _Old_val$[rbp], rax
; Line 726
	mov	rax, QWORD PTR _Val$[rbp]
	mov	rcx, QWORD PTR _New_val$[rbp]
	mov	rcx, QWORD PTR [rcx]
	mov	QWORD PTR [rax], rcx
; Line 727
	mov	rax, QWORD PTR _Old_val$[rbp]
; Line 728
	lea	rsp, QWORD PTR [rbp+232]
	pop	rdi
	pop	rbp
	ret	0
??$exchange@PEAU_Container_proxy@std@@$$T@std@@YAPEAU_Container_proxy@0@AEAPEAU10@$$QEA$$T@Z ENDP ; std::exchange<std::_Container_proxy *,std::nullptr_t>
_TEXT	ENDS
; Function compile flags: /Odtp /RTCsu /ZI
;	COMDAT ?allocate@?$allocator@U_Container_proxy@std@@@std@@QEAAPEAU_Container_proxy@2@_K@Z
_TEXT	SEGMENT
this$ = 224
_Count$ = 232
?allocate@?$allocator@U_Container_proxy@std@@@std@@QEAAPEAU_Container_proxy@2@_K@Z PROC ; std::allocator<std::_Container_proxy>::allocate, COMDAT
; File C:\Program Files\Microsoft Visual Studio\2022\Community\VC\Tools\MSVC\14.33.31629\include\xmemory
; Line 835
$LN3:
	mov	QWORD PTR [rsp+16], rdx
	mov	QWORD PTR [rsp+8], rcx
	push	rbp
	push	rdi
	sub	rsp, 232				; 000000e8H
	lea	rbp, QWORD PTR [rsp+32]
	lea	rcx, OFFSET FLAT:__2B9651A0_xmemory
	call	__CheckForDebuggerJustMyCode
; Line 837
	mov	rcx, QWORD PTR _Count$[rbp]
	call	??$_Get_size_of_n@$0BA@@std@@YA_K_K@Z	; std::_Get_size_of_n<16>
	mov	rcx, rax
	call	??$_Allocate@$0BA@U_Default_allocate_traits@std@@$0A@@std@@YAPEAX_K@Z ; std::_Allocate<16,std::_Default_allocate_traits,0>
; Line 838
	lea	rsp, QWORD PTR [rbp+200]
	pop	rdi
	pop	rbp
	ret	0
?allocate@?$allocator@U_Container_proxy@std@@@std@@QEAAPEAU_Container_proxy@2@_K@Z ENDP ; std::allocator<std::_Container_proxy>::allocate
_TEXT	ENDS
; Function compile flags: /Odtp /RTCsu /ZI
;	COMDAT ??$_Getvals@_W@?$time_get@_WV?$istreambuf_iterator@_WU?$char_traits@_W@std@@@std@@@std@@IEAAX_WAEBV_Locinfo@1@@Z
_TEXT	SEGMENT
$T1 = 200
tv93 = 264
tv85 = 264
this$ = 304
__formal$ = 312
_Lobj$ = 320
??$_Getvals@_W@?$time_get@_WV?$istreambuf_iterator@_WU?$char_traits@_W@std@@@std@@@std@@IEAAX_WAEBV_Locinfo@1@@Z PROC ; std::time_get<wchar_t,std::istreambuf_iterator<wchar_t,std::char_traits<wchar_t> > >::_Getvals<wchar_t>, COMDAT
; File C:\Program Files\Microsoft Visual Studio\2022\Community\VC\Tools\MSVC\14.33.31629\include\xloctime
; Line 237
$LN5:
	mov	QWORD PTR [rsp+24], r8
	mov	WORD PTR [rsp+16], dx
	mov	QWORD PTR [rsp+8], rcx
	push	rbp
	push	rsi
	push	rdi
	sub	rsp, 304				; 00000130H
	lea	rbp, QWORD PTR [rsp+32]
	lea	rcx, OFFSET FLAT:__EA3C7D87_xloctime
	call	__CheckForDebuggerJustMyCode
; Line 238
	lea	rdx, QWORD PTR $T1[rbp]
	mov	rcx, QWORD PTR _Lobj$[rbp]
	call	QWORD PTR __imp_?_Getcvt@_Locinfo@std@@QEBA?AU_Cvtvec@@XZ
	mov	rcx, QWORD PTR this$[rbp]
	lea	rdi, QWORD PTR [rcx+44]
	mov	rsi, rax
	mov	ecx, 44					; 0000002cH
	rep movsb
; Line 240
	xor	eax, eax
	cmp	eax, 1
	je	SHORT $LN2@Getvals
; Line 241
	mov	rcx, QWORD PTR _Lobj$[rbp]
	call	QWORD PTR __imp_?_W_Getdays@_Locinfo@std@@QEBAPEBGXZ
	mov	rcx, rax
	call	?_Maklocwcs@std@@YAPEA_WPEB_W@Z		; std::_Maklocwcs
	mov	rcx, QWORD PTR this$[rbp]
	mov	QWORD PTR [rcx+16], rax
; Line 242
	mov	rcx, QWORD PTR _Lobj$[rbp]
	call	QWORD PTR __imp_?_W_Getmonths@_Locinfo@std@@QEBAPEBGXZ
	mov	rcx, rax
	call	?_Maklocwcs@std@@YAPEA_WPEB_W@Z		; std::_Maklocwcs
	mov	rcx, QWORD PTR this$[rbp]
	mov	QWORD PTR [rcx+24], rax
; Line 244
	lea	rcx, OFFSET FLAT:??_C@_1BK@MHIKGOKE@?$AA?3?$AAA?$AAM?$AA?3?$AAa?$AAm?$AA?3?$AAP?$AAM?$AA?3?$AAp?$AAm@
	call	?_Maklocwcs@std@@YAPEA_WPEB_W@Z		; std::_Maklocwcs
	mov	rcx, QWORD PTR this$[rbp]
	mov	QWORD PTR [rcx+32], rax
; Line 245
	jmp	$LN3@Getvals
$LN2@Getvals:
; Line 246
	mov	rax, QWORD PTR this$[rbp]
	add	rax, 44					; 0000002cH
	mov	QWORD PTR tv85[rbp], rax
	mov	rcx, QWORD PTR _Lobj$[rbp]
	call	QWORD PTR __imp_?_Getdays@_Locinfo@std@@QEBAPEBDXZ
	mov	rcx, QWORD PTR tv85[rbp]
	mov	r8, rcx
	xor	edx, edx
	mov	rcx, rax
	call	??$_Maklocstr@_W@std@@YAPEA_WPEBDPEA_WAEBU_Cvtvec@@@Z ; std::_Maklocstr<wchar_t>
	mov	rcx, QWORD PTR this$[rbp]
	mov	QWORD PTR [rcx+16], rax
; Line 247
	mov	rax, QWORD PTR this$[rbp]
	add	rax, 44					; 0000002cH
	mov	QWORD PTR tv93[rbp], rax
	mov	rcx, QWORD PTR _Lobj$[rbp]
	call	QWORD PTR __imp_?_Getmonths@_Locinfo@std@@QEBAPEBDXZ
	mov	rcx, QWORD PTR tv93[rbp]
	mov	r8, rcx
	xor	edx, edx
	mov	rcx, rax
	call	??$_Maklocstr@_W@std@@YAPEA_WPEBDPEA_WAEBU_Cvtvec@@@Z ; std::_Maklocstr<wchar_t>
	mov	rcx, QWORD PTR this$[rbp]
	mov	QWORD PTR [rcx+24], rax
; Line 248
	mov	rax, QWORD PTR this$[rbp]
	add	rax, 44					; 0000002cH
	mov	r8, rax
	xor	edx, edx
	lea	rcx, OFFSET FLAT:??_C@_0N@LPFKKEBD@?3AM?3am?3PM?3pm@
	call	??$_Maklocstr@_W@std@@YAPEA_WPEBDPEA_WAEBU_Cvtvec@@@Z ; std::_Maklocstr<wchar_t>
	mov	rcx, QWORD PTR this$[rbp]
	mov	QWORD PTR [rcx+32], rax
$LN3@Getvals:
; Line 250
	lea	rsp, QWORD PTR [rbp+272]
	pop	rdi
	pop	rsi
	pop	rbp
	ret	0
??$_Getvals@_W@?$time_get@_WV?$istreambuf_iterator@_WU?$char_traits@_W@std@@@std@@@std@@IEAAX_WAEBV_Locinfo@1@@Z ENDP ; std::time_get<wchar_t,std::istreambuf_iterator<wchar_t,std::char_traits<wchar_t> > >::_Getvals<wchar_t>
_TEXT	ENDS
; Function compile flags: /Odtp /RTCsu /ZI
;	COMDAT ??$_Getvals@_W@?$time_get@DV?$istreambuf_iterator@DU?$char_traits@D@std@@@std@@@std@@IEAAX_WAEBV_Locinfo@1@@Z
_TEXT	SEGMENT
$T1 = 200
tv93 = 264
tv85 = 264
this$ = 304
__formal$ = 312
_Lobj$ = 320
??$_Getvals@_W@?$time_get@DV?$istreambuf_iterator@DU?$char_traits@D@std@@@std@@@std@@IEAAX_WAEBV_Locinfo@1@@Z PROC ; std::time_get<char,std::istreambuf_iterator<char,std::char_traits<char> > >::_Getvals<wchar_t>, COMDAT
; File C:\Program Files\Microsoft Visual Studio\2022\Community\VC\Tools\MSVC\14.33.31629\include\xloctime
; Line 237
$LN5:
	mov	QWORD PTR [rsp+24], r8
	mov	WORD PTR [rsp+16], dx
	mov	QWORD PTR [rsp+8], rcx
	push	rbp
	push	rsi
	push	rdi
	sub	rsp, 304				; 00000130H
	lea	rbp, QWORD PTR [rsp+32]
	lea	rcx, OFFSET FLAT:__EA3C7D87_xloctime
	call	__CheckForDebuggerJustMyCode
; Line 238
	lea	rdx, QWORD PTR $T1[rbp]
	mov	rcx, QWORD PTR _Lobj$[rbp]
	call	QWORD PTR __imp_?_Getcvt@_Locinfo@std@@QEBA?AU_Cvtvec@@XZ
	mov	rcx, QWORD PTR this$[rbp]
	lea	rdi, QWORD PTR [rcx+44]
	mov	rsi, rax
	mov	ecx, 44					; 0000002cH
	rep movsb
; Line 240
	xor	eax, eax
	cmp	eax, 1
	je	SHORT $LN2@Getvals
; Line 241
	mov	rcx, QWORD PTR _Lobj$[rbp]
	call	QWORD PTR __imp_?_W_Getdays@_Locinfo@std@@QEBAPEBGXZ
	mov	rcx, rax
	call	?_Maklocwcs@std@@YAPEA_WPEB_W@Z		; std::_Maklocwcs
	mov	rcx, QWORD PTR this$[rbp]
	mov	QWORD PTR [rcx+16], rax
; Line 242
	mov	rcx, QWORD PTR _Lobj$[rbp]
	call	QWORD PTR __imp_?_W_Getmonths@_Locinfo@std@@QEBAPEBGXZ
	mov	rcx, rax
	call	?_Maklocwcs@std@@YAPEA_WPEB_W@Z		; std::_Maklocwcs
	mov	rcx, QWORD PTR this$[rbp]
	mov	QWORD PTR [rcx+24], rax
; Line 244
	lea	rcx, OFFSET FLAT:??_C@_1BK@MHIKGOKE@?$AA?3?$AAA?$AAM?$AA?3?$AAa?$AAm?$AA?3?$AAP?$AAM?$AA?3?$AAp?$AAm@
	call	?_Maklocwcs@std@@YAPEA_WPEB_W@Z		; std::_Maklocwcs
	mov	rcx, QWORD PTR this$[rbp]
	mov	QWORD PTR [rcx+32], rax
; Line 245
	jmp	$LN3@Getvals
$LN2@Getvals:
; Line 246
	mov	rax, QWORD PTR this$[rbp]
	add	rax, 44					; 0000002cH
	mov	QWORD PTR tv85[rbp], rax
	mov	rcx, QWORD PTR _Lobj$[rbp]
	call	QWORD PTR __imp_?_Getdays@_Locinfo@std@@QEBAPEBDXZ
	mov	rcx, QWORD PTR tv85[rbp]
	mov	r8, rcx
	xor	edx, edx
	mov	rcx, rax
	call	??$_Maklocstr@D@std@@YAPEADPEBDPEADAEBU_Cvtvec@@@Z ; std::_Maklocstr<char>
	mov	rcx, QWORD PTR this$[rbp]
	mov	QWORD PTR [rcx+16], rax
; Line 247
	mov	rax, QWORD PTR this$[rbp]
	add	rax, 44					; 0000002cH
	mov	QWORD PTR tv93[rbp], rax
	mov	rcx, QWORD PTR _Lobj$[rbp]
	call	QWORD PTR __imp_?_Getmonths@_Locinfo@std@@QEBAPEBDXZ
	mov	rcx, QWORD PTR tv93[rbp]
	mov	r8, rcx
	xor	edx, edx
	mov	rcx, rax
	call	??$_Maklocstr@D@std@@YAPEADPEBDPEADAEBU_Cvtvec@@@Z ; std::_Maklocstr<char>
	mov	rcx, QWORD PTR this$[rbp]
	mov	QWORD PTR [rcx+24], rax
; Line 248
	mov	rax, QWORD PTR this$[rbp]
	add	rax, 44					; 0000002cH
	mov	r8, rax
	xor	edx, edx
	lea	rcx, OFFSET FLAT:??_C@_0N@LPFKKEBD@?3AM?3am?3PM?3pm@
	call	??$_Maklocstr@D@std@@YAPEADPEBDPEADAEBU_Cvtvec@@@Z ; std::_Maklocstr<char>
	mov	rcx, QWORD PTR this$[rbp]
	mov	QWORD PTR [rcx+32], rax
$LN3@Getvals:
; Line 250
	lea	rsp, QWORD PTR [rbp+272]
	pop	rdi
	pop	rsi
	pop	rbp
	ret	0
??$_Getvals@_W@?$time_get@DV?$istreambuf_iterator@DU?$char_traits@D@std@@@std@@@std@@IEAAX_WAEBV_Locinfo@1@@Z ENDP ; std::time_get<char,std::istreambuf_iterator<char,std::char_traits<char> > >::_Getvals<wchar_t>
_TEXT	ENDS
; Function compile flags: /Odtp /RTCsu /ZI
;	COMDAT ??__Fg_ValidationLayers@@YAXXZ
text$yd	SEGMENT
??__Fg_ValidationLayers@@YAXXZ PROC			; `dynamic atexit destructor for 'g_ValidationLayers'', COMDAT
	push	rbp
	push	rdi
	sub	rsp, 232				; 000000e8H
	lea	rbp, QWORD PTR [rsp+32]
	lea	rcx, OFFSET FLAT:?g_ValidationLayers@@3V?$vector@PEBDV?$allocator@PEBD@std@@@std@@B ; g_ValidationLayers
	call	??1?$vector@PEBDV?$allocator@PEBD@std@@@std@@QEAA@XZ ; std::vector<char const *,std::allocator<char const *> >::~vector<char const *,std::allocator<char const *> >
	lea	rsp, QWORD PTR [rbp+200]
	pop	rdi
	pop	rbp
	ret	0
??__Fg_ValidationLayers@@YAXXZ ENDP			; `dynamic atexit destructor for 'g_ValidationLayers''
text$yd	ENDS
; Function compile flags: /Odtp /RTCsu /ZI
;	COMDAT ?size@?$initializer_list@PEBD@std@@QEBA_KXZ
_TEXT	SEGMENT
this$ = 224
?size@?$initializer_list@PEBD@std@@QEBA_KXZ PROC	; std::initializer_list<char const *>::size, COMDAT
; File C:\Program Files\Microsoft Visual Studio\2022\Community\VC\Tools\MSVC\14.33.31629\include\initializer_list
; Line 45
$LN3:
	mov	QWORD PTR [rsp+8], rcx
	push	rbp
	push	rdi
	sub	rsp, 232				; 000000e8H
	lea	rbp, QWORD PTR [rsp+32]
	lea	rcx, OFFSET FLAT:__485B7899_initializer_list
	call	__CheckForDebuggerJustMyCode
; Line 46
	mov	rax, QWORD PTR this$[rbp]
	mov	rcx, QWORD PTR this$[rbp]
	mov	rcx, QWORD PTR [rcx]
	mov	rax, QWORD PTR [rax+8]
	sub	rax, rcx
	sar	rax, 3
; Line 47
	lea	rsp, QWORD PTR [rbp+200]
	pop	rdi
	pop	rbp
	ret	0
?size@?$initializer_list@PEBD@std@@QEBA_KXZ ENDP	; std::initializer_list<char const *>::size
_TEXT	ENDS
; Function compile flags: /Odtp /RTCsu /ZI
;	COMDAT ?end@?$initializer_list@PEBD@std@@QEBAPEBQEBDXZ
_TEXT	SEGMENT
this$ = 224
?end@?$initializer_list@PEBD@std@@QEBAPEBQEBDXZ PROC	; std::initializer_list<char const *>::end, COMDAT
; File C:\Program Files\Microsoft Visual Studio\2022\Community\VC\Tools\MSVC\14.33.31629\include\initializer_list
; Line 41
$LN3:
	mov	QWORD PTR [rsp+8], rcx
	push	rbp
	push	rdi
	sub	rsp, 232				; 000000e8H
	lea	rbp, QWORD PTR [rsp+32]
	lea	rcx, OFFSET FLAT:__485B7899_initializer_list
	call	__CheckForDebuggerJustMyCode
; Line 42
	mov	rax, QWORD PTR this$[rbp]
	mov	rax, QWORD PTR [rax+8]
; Line 43
	lea	rsp, QWORD PTR [rbp+200]
	pop	rdi
	pop	rbp
	ret	0
?end@?$initializer_list@PEBD@std@@QEBAPEBQEBDXZ ENDP	; std::initializer_list<char const *>::end
_TEXT	ENDS
; Function compile flags: /Odtp /RTCsu /ZI
;	COMDAT ?begin@?$initializer_list@PEBD@std@@QEBAPEBQEBDXZ
_TEXT	SEGMENT
this$ = 224
?begin@?$initializer_list@PEBD@std@@QEBAPEBQEBDXZ PROC	; std::initializer_list<char const *>::begin, COMDAT
; File C:\Program Files\Microsoft Visual Studio\2022\Community\VC\Tools\MSVC\14.33.31629\include\initializer_list
; Line 37
$LN3:
	mov	QWORD PTR [rsp+8], rcx
	push	rbp
	push	rdi
	sub	rsp, 232				; 000000e8H
	lea	rbp, QWORD PTR [rsp+32]
	lea	rcx, OFFSET FLAT:__485B7899_initializer_list
	call	__CheckForDebuggerJustMyCode
; Line 38
	mov	rax, QWORD PTR this$[rbp]
	mov	rax, QWORD PTR [rax]
; Line 39
	lea	rsp, QWORD PTR [rbp+200]
	pop	rdi
	pop	rbp
	ret	0
?begin@?$initializer_list@PEBD@std@@QEBAPEBQEBDXZ ENDP	; std::initializer_list<char const *>::begin
_TEXT	ENDS
; Function compile flags: /Odtp /RTCsu /ZI
;	COMDAT ??0?$initializer_list@PEBD@std@@QEAA@PEBQEBD0@Z
_TEXT	SEGMENT
this$ = 224
_First_arg$ = 232
_Last_arg$ = 240
??0?$initializer_list@PEBD@std@@QEAA@PEBQEBD0@Z PROC	; std::initializer_list<char const *>::initializer_list<char const *>, COMDAT
; File C:\Program Files\Microsoft Visual Studio\2022\Community\VC\Tools\MSVC\14.33.31629\include\initializer_list
; Line 35
$LN3:
	mov	QWORD PTR [rsp+24], r8
	mov	QWORD PTR [rsp+16], rdx
	mov	QWORD PTR [rsp+8], rcx
	push	rbp
	push	rdi
	sub	rsp, 232				; 000000e8H
	lea	rbp, QWORD PTR [rsp+32]
	lea	rcx, OFFSET FLAT:__485B7899_initializer_list
	call	__CheckForDebuggerJustMyCode
	mov	rax, QWORD PTR this$[rbp]
	mov	rcx, QWORD PTR _First_arg$[rbp]
	mov	QWORD PTR [rax], rcx
	mov	rax, QWORD PTR this$[rbp]
	mov	rcx, QWORD PTR _Last_arg$[rbp]
	mov	QWORD PTR [rax+8], rcx
	mov	rax, QWORD PTR this$[rbp]
	lea	rsp, QWORD PTR [rbp+200]
	pop	rdi
	pop	rbp
	ret	0
??0?$initializer_list@PEBD@std@@QEAA@PEBQEBD0@Z ENDP	; std::initializer_list<char const *>::initializer_list<char const *>
_TEXT	ENDS
; Function compile flags: /Odtp /RTCsu /ZI
;	COMDAT ??__Eg_ValidationLayers@@YAXXZ
text$di	SEGMENT
$T1 = 196
$T2 = 232
$T3 = 280
$T4 = 336
$T5 = 376
tv79 = 392
??__Eg_ValidationLayers@@YAXXZ PROC			; `dynamic initializer for 'g_ValidationLayers'', COMDAT
; File C:\dev\Raisin\Raisin\src\Raisin\Render\Vulkan\VulkanAPI.h
; Line 22
	push	rbp
	push	rsi
	push	rdi
	sub	rsp, 432				; 000001b0H
	lea	rbp, QWORD PTR [rsp+32]
	lea	rcx, OFFSET FLAT:__2F5FA0DE_VulkanAPI@h
	call	__CheckForDebuggerJustMyCode
	mov	edx, 32					; 00000020H
	lea	rcx, OFFSET FLAT:?g_ValidationLayers@@3V?$vector@PEBDV?$allocator@PEBD@std@@@std@@B ; g_ValidationLayers
	call	?__autoclassinit2@?$vector@PEBDV?$allocator@PEBD@std@@@std@@QEAAX_K@Z
	lea	rcx, QWORD PTR $T1[rbp]
	call	??0?$allocator@PEBD@std@@QEAA@XZ	; std::allocator<char const *>::allocator<char const *>
	mov	QWORD PTR tv79[rbp], rax
	lea	rax, OFFSET FLAT:??_C@_0BM@LGHMGEMH@VK_LAYER_KHRONOS_validation@
	mov	QWORD PTR $T5[rbp], rax
	lea	rax, QWORD PTR $T5[rbp+8]
	mov	r8, rax
	lea	rdx, QWORD PTR $T5[rbp]
	lea	rcx, QWORD PTR $T2[rbp]
	call	??0?$initializer_list@PEBD@std@@QEAA@PEBQEBD0@Z ; std::initializer_list<char const *>::initializer_list<char const *>
	lea	rcx, QWORD PTR $T3[rbp]
	mov	rdi, rcx
	mov	rsi, rax
	mov	ecx, 16
	rep movsb
	lea	rax, QWORD PTR $T4[rbp]
	lea	rcx, QWORD PTR $T3[rbp]
	mov	rdi, rax
	mov	rsi, rcx
	mov	ecx, 16
	rep movsb
	mov	r8, QWORD PTR tv79[rbp]
	lea	rdx, QWORD PTR $T4[rbp]
	lea	rcx, OFFSET FLAT:?g_ValidationLayers@@3V?$vector@PEBDV?$allocator@PEBD@std@@@std@@B ; g_ValidationLayers
	call	??0?$vector@PEBDV?$allocator@PEBD@std@@@std@@QEAA@V?$initializer_list@PEBD@1@AEBV?$allocator@PEBD@1@@Z ; std::vector<char const *,std::allocator<char const *> >::vector<char const *,std::allocator<char const *> >
	lea	rcx, OFFSET FLAT:??__Fg_ValidationLayers@@YAXXZ ; `dynamic atexit destructor for 'g_ValidationLayers''
	call	atexit
	lea	rsp, QWORD PTR [rbp+400]
	pop	rdi
	pop	rsi
	pop	rbp
	ret	0
??__Eg_ValidationLayers@@YAXXZ ENDP			; `dynamic initializer for 'g_ValidationLayers''
text$di	ENDS
; Function compile flags: /Odtp /RTCsu /ZI
;	COMDAT ?__autoclassinit2@?$vector@PEBDV?$allocator@PEBD@std@@@std@@QEAAX_K@Z
_TEXT	SEGMENT
this$ = 224
classSize$ = 232
?__autoclassinit2@?$vector@PEBDV?$allocator@PEBD@std@@@std@@QEAAX_K@Z PROC ; std::vector<char const *,std::allocator<char const *> >::__autoclassinit2, COMDAT
$LN3:
	mov	QWORD PTR [rsp+16], rdx
	mov	QWORD PTR [rsp+8], rcx
	push	rbp
	push	rdi
	sub	rsp, 200				; 000000c8H
	mov	rbp, rsp
	mov	rdi, QWORD PTR this$[rbp]
	xor	eax, eax
	mov	rcx, QWORD PTR classSize$[rbp]
	rep stosb
	lea	rsp, QWORD PTR [rbp+200]
	pop	rdi
	pop	rbp
	ret	0
?__autoclassinit2@?$vector@PEBDV?$allocator@PEBD@std@@@std@@QEAAX_K@Z ENDP ; std::vector<char const *,std::allocator<char const *> >::__autoclassinit2
_TEXT	ENDS
; Function compile flags: /Odtp /RTCsu /ZI
;	COMDAT ?_Get_first@?$_Compressed_pair@V?$allocator@PEBD@std@@V?$_Vector_val@U?$_Simple_types@PEBD@std@@@2@$00@std@@QEBAAEBV?$allocator@PEBD@2@XZ
_TEXT	SEGMENT
this$ = 224
?_Get_first@?$_Compressed_pair@V?$allocator@PEBD@std@@V?$_Vector_val@U?$_Simple_types@PEBD@std@@@2@$00@std@@QEBAAEBV?$allocator@PEBD@2@XZ PROC ; std::_Compressed_pair<std::allocator<char const *>,std::_Vector_val<std::_Simple_types<char const *> >,1>::_Get_first, COMDAT
; File C:\Program Files\Microsoft Visual Studio\2022\Community\VC\Tools\MSVC\14.33.31629\include\xmemory
; Line 1386
$LN3:
	mov	QWORD PTR [rsp+8], rcx
	push	rbp
	push	rdi
	sub	rsp, 232				; 000000e8H
	lea	rbp, QWORD PTR [rsp+32]
	lea	rcx, OFFSET FLAT:__2B9651A0_xmemory
	call	__CheckForDebuggerJustMyCode
; Line 1387
	mov	rax, QWORD PTR this$[rbp]
; Line 1388
	lea	rsp, QWORD PTR [rbp+200]
	pop	rdi
	pop	rbp
	ret	0
?_Get_first@?$_Compressed_pair@V?$allocator@PEBD@std@@V?$_Vector_val@U?$_Simple_types@PEBD@std@@@2@$00@std@@QEBAAEBV?$allocator@PEBD@2@XZ ENDP ; std::_Compressed_pair<std::allocator<char const *>,std::_Vector_val<std::_Simple_types<char const *> >,1>::_Get_first
_TEXT	ENDS
; Function compile flags: /Odtp /RTCsu /ZI
;	COMDAT ?_Get_first@?$_Compressed_pair@V?$allocator@PEBD@std@@V?$_Vector_val@U?$_Simple_types@PEBD@std@@@2@$00@std@@QEAAAEAV?$allocator@PEBD@2@XZ
_TEXT	SEGMENT
this$ = 224
?_Get_first@?$_Compressed_pair@V?$allocator@PEBD@std@@V?$_Vector_val@U?$_Simple_types@PEBD@std@@@2@$00@std@@QEAAAEAV?$allocator@PEBD@2@XZ PROC ; std::_Compressed_pair<std::allocator<char const *>,std::_Vector_val<std::_Simple_types<char const *> >,1>::_Get_first, COMDAT
; File C:\Program Files\Microsoft Visual Studio\2022\Community\VC\Tools\MSVC\14.33.31629\include\xmemory
; Line 1382
$LN3:
	mov	QWORD PTR [rsp+8], rcx
	push	rbp
	push	rdi
	sub	rsp, 232				; 000000e8H
	lea	rbp, QWORD PTR [rsp+32]
	lea	rcx, OFFSET FLAT:__2B9651A0_xmemory
	call	__CheckForDebuggerJustMyCode
; Line 1383
	mov	rax, QWORD PTR this$[rbp]
; Line 1384
	lea	rsp, QWORD PTR [rbp+200]
	pop	rdi
	pop	rbp
	ret	0
?_Get_first@?$_Compressed_pair@V?$allocator@PEBD@std@@V?$_Vector_val@U?$_Simple_types@PEBD@std@@@2@$00@std@@QEAAAEAV?$allocator@PEBD@2@XZ ENDP ; std::_Compressed_pair<std::allocator<char const *>,std::_Vector_val<std::_Simple_types<char const *> >,1>::_Get_first
_TEXT	ENDS
; Function compile flags: /Odtp /RTCsu /ZI
;	COMDAT ??0?$_Vector_val@U?$_Simple_types@PEBD@std@@@std@@QEAA@XZ
_TEXT	SEGMENT
this$ = 224
??0?$_Vector_val@U?$_Simple_types@PEBD@std@@@std@@QEAA@XZ PROC ; std::_Vector_val<std::_Simple_types<char const *> >::_Vector_val<std::_Simple_types<char const *> >, COMDAT
; File C:\Program Files\Microsoft Visual Studio\2022\Community\VC\Tools\MSVC\14.33.31629\include\vector
; Line 392
$LN3:
	mov	QWORD PTR [rsp+8], rcx
	push	rbp
	push	rdi
	sub	rsp, 232				; 000000e8H
	lea	rbp, QWORD PTR [rsp+32]
	lea	rcx, OFFSET FLAT:__1EEDDF51_vector
	call	__CheckForDebuggerJustMyCode
	mov	rcx, QWORD PTR this$[rbp]
	call	??0_Container_base12@std@@QEAA@XZ	; std::_Container_base12::_Container_base12
	mov	rax, QWORD PTR this$[rbp]
	mov	QWORD PTR [rax+8], 0
	mov	rax, QWORD PTR this$[rbp]
	mov	QWORD PTR [rax+16], 0
	mov	rax, QWORD PTR this$[rbp]
	mov	QWORD PTR [rax+24], 0
	mov	rax, QWORD PTR this$[rbp]
	lea	rsp, QWORD PTR [rbp+200]
	pop	rdi
	pop	rbp
	ret	0
??0?$_Vector_val@U?$_Simple_types@PEBD@std@@@std@@QEAA@XZ ENDP ; std::_Vector_val<std::_Simple_types<char const *> >::_Vector_val<std::_Simple_types<char const *> >
_TEXT	ENDS
; Function compile flags: /Odtp /RTCsu /ZI
;	COMDAT ?_Getal@?$vector@PEBDV?$allocator@PEBD@std@@@std@@AEBAAEBV?$allocator@PEBD@2@XZ
_TEXT	SEGMENT
this$ = 224
?_Getal@?$vector@PEBDV?$allocator@PEBD@std@@@std@@AEBAAEBV?$allocator@PEBD@2@XZ PROC ; std::vector<char const *,std::allocator<char const *> >::_Getal, COMDAT
; File C:\Program Files\Microsoft Visual Studio\2022\Community\VC\Tools\MSVC\14.33.31629\include\vector
; Line 2047
$LN3:
	mov	QWORD PTR [rsp+8], rcx
	push	rbp
	push	rdi
	sub	rsp, 232				; 000000e8H
	lea	rbp, QWORD PTR [rsp+32]
	lea	rcx, OFFSET FLAT:__1EEDDF51_vector
	call	__CheckForDebuggerJustMyCode
; Line 2048
	mov	rax, QWORD PTR this$[rbp]
	mov	rcx, rax
	call	?_Get_first@?$_Compressed_pair@V?$allocator@PEBD@std@@V?$_Vector_val@U?$_Simple_types@PEBD@std@@@2@$00@std@@QEBAAEBV?$allocator@PEBD@2@XZ ; std::_Compressed_pair<std::allocator<char const *>,std::_Vector_val<std::_Simple_types<char const *> >,1>::_Get_first
; Line 2049
	lea	rsp, QWORD PTR [rbp+200]
	pop	rdi
	pop	rbp
	ret	0
?_Getal@?$vector@PEBDV?$allocator@PEBD@std@@@std@@AEBAAEBV?$allocator@PEBD@2@XZ ENDP ; std::vector<char const *,std::allocator<char const *> >::_Getal
_TEXT	ENDS
; Function compile flags: /Odtp /RTCsu /ZI
;	COMDAT ?_Getal@?$vector@PEBDV?$allocator@PEBD@std@@@std@@AEAAAEAV?$allocator@PEBD@2@XZ
_TEXT	SEGMENT
this$ = 224
?_Getal@?$vector@PEBDV?$allocator@PEBD@std@@@std@@AEAAAEAV?$allocator@PEBD@2@XZ PROC ; std::vector<char const *,std::allocator<char const *> >::_Getal, COMDAT
; File C:\Program Files\Microsoft Visual Studio\2022\Community\VC\Tools\MSVC\14.33.31629\include\vector
; Line 2043
$LN3:
	mov	QWORD PTR [rsp+8], rcx
	push	rbp
	push	rdi
	sub	rsp, 232				; 000000e8H
	lea	rbp, QWORD PTR [rsp+32]
	lea	rcx, OFFSET FLAT:__1EEDDF51_vector
	call	__CheckForDebuggerJustMyCode
; Line 2044
	mov	rax, QWORD PTR this$[rbp]
	mov	rcx, rax
	call	?_Get_first@?$_Compressed_pair@V?$allocator@PEBD@std@@V?$_Vector_val@U?$_Simple_types@PEBD@std@@@2@$00@std@@QEAAAEAV?$allocator@PEBD@2@XZ ; std::_Compressed_pair<std::allocator<char const *>,std::_Vector_val<std::_Simple_types<char const *> >,1>::_Get_first
; Line 2045
	lea	rsp, QWORD PTR [rbp+200]
	pop	rdi
	pop	rbp
	ret	0
?_Getal@?$vector@PEBDV?$allocator@PEBD@std@@@std@@AEAAAEAV?$allocator@PEBD@2@XZ ENDP ; std::vector<char const *,std::allocator<char const *> >::_Getal
_TEXT	ENDS
; Function compile flags: /Odtp /RTCsu /ZI
;	COMDAT ?_Xlength@?$vector@PEBDV?$allocator@PEBD@std@@@std@@CAXXZ
_TEXT	SEGMENT
?_Xlength@?$vector@PEBDV?$allocator@PEBD@std@@@std@@CAXXZ PROC ; std::vector<char const *,std::allocator<char const *> >::_Xlength, COMDAT
; File C:\Program Files\Microsoft Visual Studio\2022\Community\VC\Tools\MSVC\14.33.31629\include\vector
; Line 1999
$LN3:
	push	rbp
	push	rdi
	sub	rsp, 232				; 000000e8H
	lea	rbp, QWORD PTR [rsp+32]
	lea	rcx, OFFSET FLAT:__1EEDDF51_vector
	call	__CheckForDebuggerJustMyCode
; Line 2000
	lea	rcx, OFFSET FLAT:??_C@_0BA@FOIKENOD@vector?5too?5long@
	call	?_Xlength_error@std@@YAXPEBD@Z		; std::_Xlength_error
$LN2@Xlength:
; Line 2001
	lea	rsp, QWORD PTR [rbp+200]
	pop	rdi
	pop	rbp
	ret	0
?_Xlength@?$vector@PEBDV?$allocator@PEBD@std@@@std@@CAXXZ ENDP ; std::vector<char const *,std::allocator<char const *> >::_Xlength
_TEXT	ENDS
; Function compile flags: /Odtp /RTCsu /ZI
;	COMDAT ?_Tidy@?$vector@PEBDV?$allocator@PEBD@std@@@std@@AEAAXXZ
_TEXT	SEGMENT
_Al$ = 8
_My_data$ = 40
_Myfirst$ = 72
_Mylast$ = 104
_Myend$ = 136
this$ = 384
?_Tidy@?$vector@PEBDV?$allocator@PEBD@std@@@std@@AEAAXXZ PROC ; std::vector<char const *,std::allocator<char const *> >::_Tidy, COMDAT
; File C:\Program Files\Microsoft Visual Studio\2022\Community\VC\Tools\MSVC\14.33.31629\include\vector
; Line 1897
$LN4:
	mov	QWORD PTR [rsp+8], rcx
	push	rbp
	push	rdi
	sub	rsp, 392				; 00000188H
	lea	rbp, QWORD PTR [rsp+32]
	lea	rcx, OFFSET FLAT:__1EEDDF51_vector
	call	__CheckForDebuggerJustMyCode
; Line 1898
	mov	rcx, QWORD PTR this$[rbp]
	call	?_Getal@?$vector@PEBDV?$allocator@PEBD@std@@@std@@AEAAAEAV?$allocator@PEBD@2@XZ ; std::vector<char const *,std::allocator<char const *> >::_Getal
	mov	QWORD PTR _Al$[rbp], rax
; Line 1899
	mov	rax, QWORD PTR this$[rbp]
	mov	QWORD PTR _My_data$[rbp], rax
; Line 1900
	mov	rax, QWORD PTR _My_data$[rbp]
	add	rax, 8
	mov	QWORD PTR _Myfirst$[rbp], rax
; Line 1901
	mov	rax, QWORD PTR _My_data$[rbp]
	add	rax, 16
	mov	QWORD PTR _Mylast$[rbp], rax
; Line 1902
	mov	rax, QWORD PTR _My_data$[rbp]
	add	rax, 24
	mov	QWORD PTR _Myend$[rbp], rax
; Line 1904
	mov	rcx, QWORD PTR _My_data$[rbp]
	call	?_Orphan_all@_Container_base12@std@@QEAAXXZ ; std::_Container_base12::_Orphan_all
; Line 1906
	mov	rax, QWORD PTR _Myfirst$[rbp]
	cmp	QWORD PTR [rax], 0
	je	SHORT $LN2@Tidy
; Line 1907
	mov	r8, QWORD PTR _Al$[rbp]
	mov	rax, QWORD PTR _Mylast$[rbp]
	mov	rdx, QWORD PTR [rax]
	mov	rax, QWORD PTR _Myfirst$[rbp]
	mov	rcx, QWORD PTR [rax]
	call	??$_Destroy_range@V?$allocator@PEBD@std@@@std@@YAXPEAPEBDQEAPEBDAEAV?$allocator@PEBD@0@@Z ; std::_Destroy_range<std::allocator<char const *> >
; Line 1909
	mov	rax, QWORD PTR _Myend$[rbp]
	mov	rcx, QWORD PTR _Myfirst$[rbp]
	mov	rcx, QWORD PTR [rcx]
	mov	rax, QWORD PTR [rax]
	sub	rax, rcx
	sar	rax, 3
	mov	r8, rax
	mov	rax, QWORD PTR _Myfirst$[rbp]
	mov	rdx, QWORD PTR [rax]
	mov	rcx, QWORD PTR _Al$[rbp]
	call	?deallocate@?$allocator@PEBD@std@@QEAAXQEAPEBD_K@Z ; std::allocator<char const *>::deallocate
; Line 1911
	mov	rax, QWORD PTR _Myfirst$[rbp]
	mov	QWORD PTR [rax], 0
; Line 1912
	mov	rax, QWORD PTR _Mylast$[rbp]
	mov	QWORD PTR [rax], 0
; Line 1913
	mov	rax, QWORD PTR _Myend$[rbp]
	mov	QWORD PTR [rax], 0
$LN2@Tidy:
; Line 1915
	lea	rsp, QWORD PTR [rbp+360]
	pop	rdi
	pop	rbp
	ret	0
?_Tidy@?$vector@PEBDV?$allocator@PEBD@std@@@std@@AEAAXXZ ENDP ; std::vector<char const *,std::allocator<char const *> >::_Tidy
_TEXT	ENDS
; Function compile flags: /Odtp /RTCsu /ZI
;	COMDAT ?_Buy_nonzero@?$vector@PEBDV?$allocator@PEBD@std@@@std@@AEAAX_K@Z
_TEXT	SEGMENT
this$ = 224
_Newcapacity$ = 232
?_Buy_nonzero@?$vector@PEBDV?$allocator@PEBD@std@@@std@@AEAAX_K@Z PROC ; std::vector<char const *,std::allocator<char const *> >::_Buy_nonzero, COMDAT
; File C:\Program Files\Microsoft Visual Studio\2022\Community\VC\Tools\MSVC\14.33.31629\include\vector
; Line 1857
$LN4:
	mov	QWORD PTR [rsp+16], rdx
	mov	QWORD PTR [rsp+8], rcx
	push	rbp
	push	rdi
	sub	rsp, 232				; 000000e8H
	lea	rbp, QWORD PTR [rsp+32]
	lea	rcx, OFFSET FLAT:__1EEDDF51_vector
	call	__CheckForDebuggerJustMyCode
; Line 1868
	mov	rcx, QWORD PTR this$[rbp]
	call	?max_size@?$vector@PEBDV?$allocator@PEBD@std@@@std@@QEBA_KXZ ; std::vector<char const *,std::allocator<char const *> >::max_size
	cmp	QWORD PTR _Newcapacity$[rbp], rax
	jbe	SHORT $LN2@Buy_nonzer
; Line 1869
	call	?_Xlength@?$vector@PEBDV?$allocator@PEBD@std@@@std@@CAXXZ ; std::vector<char const *,std::allocator<char const *> >::_Xlength
$LN2@Buy_nonzer:
; Line 1872
	mov	rdx, QWORD PTR _Newcapacity$[rbp]
	mov	rcx, QWORD PTR this$[rbp]
	call	?_Buy_raw@?$vector@PEBDV?$allocator@PEBD@std@@@std@@AEAAX_K@Z ; std::vector<char const *,std::allocator<char const *> >::_Buy_raw
$LN3@Buy_nonzer:
; Line 1873
	lea	rsp, QWORD PTR [rbp+200]
	pop	rdi
	pop	rbp
	ret	0
?_Buy_nonzero@?$vector@PEBDV?$allocator@PEBD@std@@@std@@AEAAX_K@Z ENDP ; std::vector<char const *,std::allocator<char const *> >::_Buy_nonzero
_TEXT	ENDS
; Function compile flags: /Odtp /RTCsu /ZI
;	COMDAT ?_Buy_raw@?$vector@PEBDV?$allocator@PEBD@std@@@std@@AEAAX_K@Z
_TEXT	SEGMENT
_My_data$ = 8
_Myfirst$ = 40
_Mylast$ = 72
_Myend$ = 104
_Newvec$ = 136
tv77 = 344
this$ = 384
_Newcapacity$ = 392
?_Buy_raw@?$vector@PEBDV?$allocator@PEBD@std@@@std@@AEAAX_K@Z PROC ; std::vector<char const *,std::allocator<char const *> >::_Buy_raw, COMDAT
; File C:\Program Files\Microsoft Visual Studio\2022\Community\VC\Tools\MSVC\14.33.31629\include\vector
; Line 1841
$LN3:
	mov	QWORD PTR [rsp+16], rdx
	mov	QWORD PTR [rsp+8], rcx
	push	rbp
	push	rdi
	sub	rsp, 392				; 00000188H
	lea	rbp, QWORD PTR [rsp+32]
	lea	rcx, OFFSET FLAT:__1EEDDF51_vector
	call	__CheckForDebuggerJustMyCode
; Line 1843
	mov	rax, QWORD PTR this$[rbp]
	mov	QWORD PTR _My_data$[rbp], rax
; Line 1844
	mov	rax, QWORD PTR _My_data$[rbp]
	add	rax, 8
	mov	QWORD PTR _Myfirst$[rbp], rax
; Line 1845
	mov	rax, QWORD PTR _My_data$[rbp]
	add	rax, 16
	mov	QWORD PTR _Mylast$[rbp], rax
; Line 1846
	mov	rax, QWORD PTR _My_data$[rbp]
	add	rax, 24
	mov	QWORD PTR _Myend$[rbp], rax
; Line 1851
	mov	rcx, QWORD PTR this$[rbp]
	call	?_Getal@?$vector@PEBDV?$allocator@PEBD@std@@@std@@AEAAAEAV?$allocator@PEBD@2@XZ ; std::vector<char const *,std::allocator<char const *> >::_Getal
	mov	QWORD PTR tv77[rbp], rax
	mov	rdx, QWORD PTR _Newcapacity$[rbp]
	mov	rcx, QWORD PTR tv77[rbp]
	call	?allocate@?$allocator@PEBD@std@@QEAAPEAPEBD_K@Z ; std::allocator<char const *>::allocate
	mov	QWORD PTR _Newvec$[rbp], rax
; Line 1852
	mov	rax, QWORD PTR _Myfirst$[rbp]
	mov	rcx, QWORD PTR _Newvec$[rbp]
	mov	QWORD PTR [rax], rcx
; Line 1853
	mov	rax, QWORD PTR _Mylast$[rbp]
	mov	rcx, QWORD PTR _Newvec$[rbp]
	mov	QWORD PTR [rax], rcx
; Line 1854
	mov	rax, QWORD PTR _Newvec$[rbp]
	mov	rcx, QWORD PTR _Newcapacity$[rbp]
	lea	rax, QWORD PTR [rax+rcx*8]
	mov	rcx, QWORD PTR _Myend$[rbp]
	mov	QWORD PTR [rcx], rax
; Line 1855
	lea	rsp, QWORD PTR [rbp+360]
	pop	rdi
	pop	rbp
	ret	0
?_Buy_raw@?$vector@PEBDV?$allocator@PEBD@std@@@std@@AEAAX_K@Z ENDP ; std::vector<char const *,std::allocator<char const *> >::_Buy_raw
_TEXT	ENDS
; Function compile flags: /Odtp /RTCsu /ZI
;	COMDAT ?max_size@?$vector@PEBDV?$allocator@PEBD@std@@@std@@QEBA_KXZ
_TEXT	SEGMENT
$T1 = 200
$T2 = 232
this$ = 288
?max_size@?$vector@PEBDV?$allocator@PEBD@std@@@std@@QEBA_KXZ PROC ; std::vector<char const *,std::allocator<char const *> >::max_size, COMDAT
; File C:\Program Files\Microsoft Visual Studio\2022\Community\VC\Tools\MSVC\14.33.31629\include\vector
; Line 1734
$LN3:
	mov	QWORD PTR [rsp+8], rcx
	push	rbp
	push	rdi
	sub	rsp, 296				; 00000128H
	lea	rbp, QWORD PTR [rsp+32]
	lea	rcx, OFFSET FLAT:__1EEDDF51_vector
	call	__CheckForDebuggerJustMyCode
; Line 1735
	mov	rcx, QWORD PTR this$[rbp]
	call	?_Getal@?$vector@PEBDV?$allocator@PEBD@std@@@std@@AEBAAEBV?$allocator@PEBD@2@XZ ; std::vector<char const *,std::allocator<char const *> >::_Getal
	mov	rcx, rax
	call	?max_size@?$_Default_allocator_traits@V?$allocator@PEBD@std@@@std@@SA_KAEBV?$allocator@PEBD@2@@Z ; std::_Default_allocator_traits<std::allocator<char const *> >::max_size
	mov	QWORD PTR $T1[rbp], rax
	call	?max@?$numeric_limits@_J@std@@SA_JXZ	; std::numeric_limits<__int64>::max
	mov	QWORD PTR $T2[rbp], rax
	lea	rdx, QWORD PTR $T1[rbp]
	lea	rcx, QWORD PTR $T2[rbp]
	call	??$min@_K@std@@YAAEB_KAEB_K0@Z		; std::min<unsigned __int64>
	mov	rax, QWORD PTR [rax]
; Line 1737
	lea	rsp, QWORD PTR [rbp+264]
	pop	rdi
	pop	rbp
	ret	0
?max_size@?$vector@PEBDV?$allocator@PEBD@std@@@std@@QEBA_KXZ ENDP ; std::vector<char const *,std::allocator<char const *> >::max_size
_TEXT	ENDS
; Function compile flags: /Odtp /RTCsu /ZI
;	COMDAT ??1?$vector@PEBDV?$allocator@PEBD@std@@@std@@QEAA@XZ
_TEXT	SEGMENT
_Alproxy$ = 8
$S10$ = 36
$T4 = 260
__$ArrayPad$ = 280
this$ = 320
??1?$vector@PEBDV?$allocator@PEBD@std@@@std@@QEAA@XZ PROC ; std::vector<char const *,std::allocator<char const *> >::~vector<char const *,std::allocator<char const *> >, COMDAT
; File C:\Program Files\Microsoft Visual Studio\2022\Community\VC\Tools\MSVC\14.33.31629\include\vector
; Line 806
$LN3:
	mov	QWORD PTR [rsp+8], rcx
	push	rbp
	push	rdi
	sub	rsp, 328				; 00000148H
	lea	rbp, QWORD PTR [rsp+32]
	lea	rdi, QWORD PTR [rsp+32]
	mov	ecx, 26
	mov	eax, -858993460				; ccccccccH
	rep stosd
	mov	rcx, QWORD PTR [rsp+360]
	mov	rax, QWORD PTR __security_cookie
	xor	rax, rbp
	mov	QWORD PTR __$ArrayPad$[rbp], rax
	lea	rcx, OFFSET FLAT:__1EEDDF51_vector
	call	__CheckForDebuggerJustMyCode
; Line 807
	mov	rcx, QWORD PTR this$[rbp]
	call	?_Tidy@?$vector@PEBDV?$allocator@PEBD@std@@@std@@AEAAXXZ ; std::vector<char const *,std::allocator<char const *> >::_Tidy
; Line 809
	mov	rcx, QWORD PTR this$[rbp]
	call	?_Getal@?$vector@PEBDV?$allocator@PEBD@std@@@std@@AEAAAEAV?$allocator@PEBD@2@XZ ; std::vector<char const *,std::allocator<char const *> >::_Getal
	mov	rdx, rax
	lea	rcx, QWORD PTR $S10$[rbp]
	call	??$?0PEBD@?$allocator@U_Container_proxy@std@@@std@@QEAA@AEBV?$allocator@PEBD@1@@Z ; std::allocator<std::_Container_proxy>::allocator<std::_Container_proxy><char const *>
	lea	rax, QWORD PTR $S10$[rbp]
	mov	QWORD PTR _Alproxy$[rbp], rax
; Line 810
	mov	QWORD PTR $T4[rbp], 0
	mov	rax, QWORD PTR this$[rbp]
	lea	rdx, QWORD PTR $T4[rbp]
	mov	rcx, rax
	call	??$exchange@PEAU_Container_proxy@std@@$$T@std@@YAPEAU_Container_proxy@0@AEAPEAU10@$$QEA$$T@Z ; std::exchange<std::_Container_proxy *,std::nullptr_t>
	mov	rdx, rax
	mov	rcx, QWORD PTR _Alproxy$[rbp]
	call	??$_Delete_plain_internal@V?$allocator@U_Container_proxy@std@@@std@@@std@@YAXAEAV?$allocator@U_Container_proxy@std@@@0@QEAU_Container_proxy@0@@Z ; std::_Delete_plain_internal<std::allocator<std::_Container_proxy> >
; Line 812
	lea	rcx, QWORD PTR [rbp-32]
	lea	rdx, OFFSET FLAT:??1?$vector@PEBDV?$allocator@PEBD@std@@@std@@QEAA@XZ$rtcFrameData
	call	_RTC_CheckStackVars
	mov	rcx, QWORD PTR __$ArrayPad$[rbp]
	xor	rcx, rbp
	call	__security_check_cookie
	lea	rsp, QWORD PTR [rbp+296]
	pop	rdi
	pop	rbp
	ret	0
??1?$vector@PEBDV?$allocator@PEBD@std@@@std@@QEAA@XZ ENDP ; std::vector<char const *,std::allocator<char const *> >::~vector<char const *,std::allocator<char const *> >
_TEXT	ENDS
; Function compile flags: /Odtp /RTCsu /ZI
;	COMDAT ??0?$vector@PEBDV?$allocator@PEBD@std@@@std@@QEAA@V?$initializer_list@PEBD@1@AEBV?$allocator@PEBD@1@@Z
_TEXT	SEGMENT
$T1 = 196
$T2 = 232
$T3 = 264
tv70 = 280
this$ = 320
_Ilist$ = 328
_Al$ = 336
??0?$vector@PEBDV?$allocator@PEBD@std@@@std@@QEAA@V?$initializer_list@PEBD@1@AEBV?$allocator@PEBD@1@@Z PROC ; std::vector<char const *,std::allocator<char const *> >::vector<char const *,std::allocator<char const *> >, COMDAT
; File C:\Program Files\Microsoft Visual Studio\2022\Community\VC\Tools\MSVC\14.33.31629\include\vector
; Line 718
$LN3:
	mov	QWORD PTR [rsp+24], r8
	mov	QWORD PTR [rsp+16], rdx
	mov	QWORD PTR [rsp+8], rcx
	push	rbp
	push	rdi
	sub	rsp, 328				; 00000148H
	lea	rbp, QWORD PTR [rsp+32]
	lea	rcx, OFFSET FLAT:__1EEDDF51_vector
	call	__CheckForDebuggerJustMyCode
	mov	rax, QWORD PTR this$[rbp]
	mov	QWORD PTR tv70[rbp], rax
	mov	r8, QWORD PTR _Al$[rbp]
	movzx	edx, BYTE PTR $T1[rbp]
	mov	rcx, QWORD PTR tv70[rbp]
	call	??$?0AEBV?$allocator@PEBD@std@@$$V@?$_Compressed_pair@V?$allocator@PEBD@std@@V?$_Vector_val@U?$_Simple_types@PEBD@std@@@2@$00@std@@QEAA@U_One_then_variadic_args_t@1@AEBV?$allocator@PEBD@1@@Z ; std::_Compressed_pair<std::allocator<char const *>,std::_Vector_val<std::_Simple_types<char const *> >,1>::_Compressed_pair<std::allocator<char const *>,std::_Vector_val<std::_Simple_types<char const *> >,1><std::allocator<char const *> const &>
; Line 719
	mov	rcx, QWORD PTR _Ilist$[rbp]
	call	?end@?$initializer_list@PEBD@std@@QEBAPEBQEBDXZ ; std::initializer_list<char const *>::end
	mov	QWORD PTR $T2[rbp], rax
	mov	rcx, QWORD PTR _Ilist$[rbp]
	call	?begin@?$initializer_list@PEBD@std@@QEBAPEBQEBDXZ ; std::initializer_list<char const *>::begin
	mov	QWORD PTR $T3[rbp], rax
	mov	rcx, QWORD PTR _Ilist$[rbp]
	call	?size@?$initializer_list@PEBD@std@@QEBA_KXZ ; std::initializer_list<char const *>::size
	mov	rcx, rax
	call	??$_Convert_size@_K@std@@YA_K_K@Z	; std::_Convert_size<unsigned __int64>
	lea	r9, QWORD PTR $T2[rbp]
	lea	r8, QWORD PTR $T3[rbp]
	mov	rdx, rax
	mov	rcx, QWORD PTR this$[rbp]
	call	??$_Construct_n@PEBQEBDPEBQEBD@?$vector@PEBDV?$allocator@PEBD@std@@@std@@AEAAX_K$$QEAPEBQEBD1@Z ; std::vector<char const *,std::allocator<char const *> >::_Construct_n<char const * const *,char const * const *>
; Line 720
	mov	rax, QWORD PTR this$[rbp]
	lea	rsp, QWORD PTR [rbp+296]
	pop	rdi
	pop	rbp
	ret	0
??0?$vector@PEBDV?$allocator@PEBD@std@@@std@@QEAA@V?$initializer_list@PEBD@1@AEBV?$allocator@PEBD@1@@Z ENDP ; std::vector<char const *,std::allocator<char const *> >::vector<char const *,std::allocator<char const *> >
_TEXT	ENDS
; Function compile flags: /Odtp /RTCsu /ZI
;	COMDAT ?max_size@?$_Default_allocator_traits@V?$allocator@PEBD@std@@@std@@SA_KAEBV?$allocator@PEBD@2@@Z
_TEXT	SEGMENT
__formal$ = 224
?max_size@?$_Default_allocator_traits@V?$allocator@PEBD@std@@@std@@SA_KAEBV?$allocator@PEBD@2@@Z PROC ; std::_Default_allocator_traits<std::allocator<char const *> >::max_size, COMDAT
; File C:\Program Files\Microsoft Visual Studio\2022\Community\VC\Tools\MSVC\14.33.31629\include\xmemory
; Line 695
$LN3:
	mov	QWORD PTR [rsp+8], rcx
	push	rbp
	push	rdi
	sub	rsp, 232				; 000000e8H
	lea	rbp, QWORD PTR [rsp+32]
	lea	rcx, OFFSET FLAT:__2B9651A0_xmemory
	call	__CheckForDebuggerJustMyCode
; Line 696
	mov	rax, 2305843009213693951		; 1fffffffffffffffH
; Line 697
	lea	rsp, QWORD PTR [rbp+200]
	pop	rdi
	pop	rbp
	ret	0
?max_size@?$_Default_allocator_traits@V?$allocator@PEBD@std@@@std@@SA_KAEBV?$allocator@PEBD@2@@Z ENDP ; std::_Default_allocator_traits<std::allocator<char const *> >::max_size
_TEXT	ENDS
; Function compile flags: /Odtp /RTCsu /ZI
;	COMDAT ?allocate@?$allocator@PEBD@std@@QEAAPEAPEBD_K@Z
_TEXT	SEGMENT
this$ = 224
_Count$ = 232
?allocate@?$allocator@PEBD@std@@QEAAPEAPEBD_K@Z PROC	; std::allocator<char const *>::allocate, COMDAT
; File C:\Program Files\Microsoft Visual Studio\2022\Community\VC\Tools\MSVC\14.33.31629\include\xmemory
; Line 835
$LN3:
	mov	QWORD PTR [rsp+16], rdx
	mov	QWORD PTR [rsp+8], rcx
	push	rbp
	push	rdi
	sub	rsp, 232				; 000000e8H
	lea	rbp, QWORD PTR [rsp+32]
	lea	rcx, OFFSET FLAT:__2B9651A0_xmemory
	call	__CheckForDebuggerJustMyCode
; Line 837
	mov	rcx, QWORD PTR _Count$[rbp]
	call	??$_Get_size_of_n@$07@std@@YA_K_K@Z	; std::_Get_size_of_n<8>
	mov	rcx, rax
	call	??$_Allocate@$0BA@U_Default_allocate_traits@std@@$0A@@std@@YAPEAX_K@Z ; std::_Allocate<16,std::_Default_allocate_traits,0>
; Line 838
	lea	rsp, QWORD PTR [rbp+200]
	pop	rdi
	pop	rbp
	ret	0
?allocate@?$allocator@PEBD@std@@QEAAPEAPEBD_K@Z ENDP	; std::allocator<char const *>::allocate
_TEXT	ENDS
; Function compile flags: /Odtp /RTCsu /ZI
;	COMDAT ?deallocate@?$allocator@PEBD@std@@QEAAXQEAPEBD_K@Z
_TEXT	SEGMENT
this$ = 224
_Ptr$ = 232
_Count$ = 240
?deallocate@?$allocator@PEBD@std@@QEAAXQEAPEBD_K@Z PROC	; std::allocator<char const *>::deallocate, COMDAT
; File C:\Program Files\Microsoft Visual Studio\2022\Community\VC\Tools\MSVC\14.33.31629\include\xmemory
; Line 829
$LN13:
	mov	QWORD PTR [rsp+24], r8
	mov	QWORD PTR [rsp+16], rdx
	mov	QWORD PTR [rsp+8], rcx
	push	rbp
	push	rdi
	sub	rsp, 248				; 000000f8H
	lea	rbp, QWORD PTR [rsp+48]
	lea	rcx, OFFSET FLAT:__2B9651A0_xmemory
	call	__CheckForDebuggerJustMyCode
$LN4@deallocate:
; Line 830
	cmp	QWORD PTR _Ptr$[rbp], 0
	jne	SHORT $LN10@deallocate
	cmp	QWORD PTR _Count$[rbp], 0
	jne	SHORT $LN8@deallocate
$LN10@deallocate:
	jmp	SHORT $LN9@deallocate
$LN8@deallocate:
$LN7@deallocate:
	lea	rax, OFFSET FLAT:??_C@_0DG@KGHKKGBC@null?5pointer?5cannot?5point?5to?5a?5@
	mov	QWORD PTR [rsp+40], rax
	lea	rax, OFFSET FLAT:??_C@_02DKCKIIND@?$CFs@
	mov	QWORD PTR [rsp+32], rax
	xor	r9d, r9d
	mov	r8d, 830				; 0000033eH
	lea	rdx, OFFSET FLAT:??_C@_0GC@GFIHGGPN@C?3?2Program?5Files?2Microsoft?5Visu@
	mov	ecx, 2
	call	QWORD PTR __imp__CrtDbgReport
	cmp	eax, 1
	jne	SHORT $LN12@deallocate
	int	3
	xor	eax, eax
$LN12@deallocate:
	mov	QWORD PTR [rsp+32], 0
	mov	r9d, 830				; 0000033eH
	lea	r8, OFFSET FLAT:??_C@_1ME@KDCJLOP@?$AAC?$AA?3?$AA?2?$AAP?$AAr?$AAo?$AAg?$AAr?$AAa?$AAm?$AA?5?$AAF?$AAi?$AAl?$AAe@
	lea	rdx, OFFSET FLAT:??_C@_11LOCGONAA@@
	lea	rcx, OFFSET FLAT:??_C@_1HA@FACCKGGH@?$AA?$CC?$AAn?$AAu?$AAl?$AAl?$AA?5?$AAp?$AAo?$AAi?$AAn?$AAt?$AAe?$AAr?$AA?5?$AAc@
	call	QWORD PTR __imp__invalid_parameter
	xor	eax, eax
	test	eax, eax
	jne	SHORT $LN7@deallocate
$LN9@deallocate:
	xor	eax, eax
	test	eax, eax
	jne	$LN4@deallocate
; Line 832
	mov	rax, QWORD PTR _Count$[rbp]
	shl	rax, 3
	mov	rdx, rax
	mov	rcx, QWORD PTR _Ptr$[rbp]
	call	??$_Deallocate@$0BA@$0A@@std@@YAXPEAX_K@Z ; std::_Deallocate<16,0>
; Line 833
	lea	rsp, QWORD PTR [rbp+200]
	pop	rdi
	pop	rbp
	ret	0
?deallocate@?$allocator@PEBD@std@@QEAAXQEAPEBD_K@Z ENDP	; std::allocator<char const *>::deallocate
_TEXT	ENDS
; Function compile flags: /Odtp /RTCsu /ZI
;	COMDAT ??0?$allocator@PEBD@std@@QEAA@XZ
_TEXT	SEGMENT
this$ = 224
??0?$allocator@PEBD@std@@QEAA@XZ PROC			; std::allocator<char const *>::allocator<char const *>, COMDAT
; File C:\Program Files\Microsoft Visual Studio\2022\Community\VC\Tools\MSVC\14.33.31629\include\xmemory
; Line 821
$LN3:
	mov	QWORD PTR [rsp+8], rcx
	push	rbp
	push	rdi
	sub	rsp, 232				; 000000e8H
	lea	rbp, QWORD PTR [rsp+32]
	lea	rcx, OFFSET FLAT:__2B9651A0_xmemory
	call	__CheckForDebuggerJustMyCode
	mov	rax, QWORD PTR this$[rbp]
	lea	rsp, QWORD PTR [rbp+200]
	pop	rdi
	pop	rbp
	ret	0
??0?$allocator@PEBD@std@@QEAA@XZ ENDP			; std::allocator<char const *>::allocator<char const *>
_TEXT	ENDS
; Function compile flags: /Odtp /RTCsu /ZI
;	COMDAT ?_Maklocwcs@std@@YAPEA_WPEB_W@Z
_TEXT	SEGMENT
_Count$ = 8
_Ptrdest$ = 40
tv84 = 248
tv85 = 256
_Ptr$ = 304
?_Maklocwcs@std@@YAPEA_WPEB_W@Z PROC			; std::_Maklocwcs, COMDAT
; File C:\Program Files\Microsoft Visual Studio\2022\Community\VC\Tools\MSVC\14.33.31629\include\xlocnum
; Line 82
$LN5:
	mov	QWORD PTR [rsp+8], rcx
	push	rbp
	push	rdi
	sub	rsp, 328				; 00000148H
	lea	rbp, QWORD PTR [rsp+48]
	lea	rcx, OFFSET FLAT:__1EFCC51A_xlocnum
	call	__CheckForDebuggerJustMyCode
; Line 83
	mov	rax, QWORD PTR _Ptr$[rbp]
	mov	QWORD PTR tv84[rbp], rax
	mov	QWORD PTR tv85[rbp], -1
$LL4@Maklocwcs:
	inc	QWORD PTR tv85[rbp]
	mov	rax, QWORD PTR tv84[rbp]
	mov	rcx, QWORD PTR tv85[rbp]
	cmp	WORD PTR [rax+rcx*2], 0
	jne	SHORT $LL4@Maklocwcs
	mov	rax, QWORD PTR tv85[rbp]
	inc	rax
	mov	QWORD PTR _Count$[rbp], rax
; Line 85
	mov	eax, DWORD PTR ?__LINE__Var@?0??_Maklocwcs@std@@YAPEA_WPEB_W@Z@4JA
	add	eax, 3
	mov	DWORD PTR [rsp+32], eax
	lea	r9, OFFSET FLAT:??_C@_0GC@EOAGFGPL@C?3?2Program?5Files?2Microsoft?5Visu@
	mov	r8d, 2
	mov	edx, 2
	mov	rcx, QWORD PTR _Count$[rbp]
	call	QWORD PTR __imp__calloc_dbg
	mov	QWORD PTR _Ptrdest$[rbp], rax
; Line 87
	cmp	QWORD PTR _Ptrdest$[rbp], 0
	jne	SHORT $LN2@Maklocwcs
; Line 88
	call	?_Xbad_alloc@std@@YAXXZ			; std::_Xbad_alloc
$LN2@Maklocwcs:
; Line 91
	mov	r8, QWORD PTR _Count$[rbp]
	mov	rdx, QWORD PTR _Ptr$[rbp]
	mov	rcx, QWORD PTR _Ptrdest$[rbp]
	call	wmemcpy
; Line 92
	mov	rax, QWORD PTR _Ptrdest$[rbp]
$LN3@Maklocwcs:
; Line 93
	lea	rsp, QWORD PTR [rbp+280]
	pop	rdi
	pop	rbp
	ret	0
?_Maklocwcs@std@@YAPEA_WPEB_W@Z ENDP			; std::_Maklocwcs
_TEXT	ENDS
; Function compile flags: /Odtp /RTCsu /ZI
;	COMDAT ??$_Maklocstr@_W@std@@YAPEA_WPEBDPEA_WAEBU_Cvtvec@@@Z
_TEXT	SEGMENT
_Count$ = 8
_Count1$ = 40
_Wchars$ = 72
_Ptr1$ = 104
_Bytes$ = 132
_Wc$ = 164
_Mbst1$ = 200
_Ptrdest$ = 232
_Ptrnext$ = 264
_Mbst2$ = 296
tv154 = 504
tv155 = 512
__$ArrayPad$ = 520
_Ptr$ = 560
__formal$ = 568
_Cvt$ = 576
??$_Maklocstr@_W@std@@YAPEA_WPEBDPEA_WAEBU_Cvtvec@@@Z PROC ; std::_Maklocstr<wchar_t>, COMDAT
; File C:\Program Files\Microsoft Visual Studio\2022\Community\VC\Tools\MSVC\14.33.31629\include\xlocale
; Line 531
$LN13:
	mov	QWORD PTR [rsp+24], r8
	mov	QWORD PTR [rsp+16], rdx
	mov	QWORD PTR [rsp+8], rcx
	push	rbp
	push	rdi
	sub	rsp, 584				; 00000248H
	lea	rbp, QWORD PTR [rsp+48]
	lea	rdi, QWORD PTR [rsp+48]
	mov	ecx, 86					; 00000056H
	mov	eax, -858993460				; ccccccccH
	rep stosd
	mov	rcx, QWORD PTR [rsp+616]
	mov	rax, QWORD PTR __security_cookie
	xor	rax, rbp
	mov	QWORD PTR __$ArrayPad$[rbp], rax
	lea	rcx, OFFSET FLAT:__807BA30D_xlocale
	call	__CheckForDebuggerJustMyCode
; Line 539
	lea	rax, QWORD PTR _Mbst1$[rbp]
	mov	rdi, rax
	xor	eax, eax
	mov	ecx, 8
	rep stosb
; Line 541
	mov	rax, QWORD PTR _Ptr$[rbp]
	mov	QWORD PTR tv154[rbp], rax
	mov	QWORD PTR tv155[rbp], -1
$LL12@Maklocstr:
	inc	QWORD PTR tv155[rbp]
	mov	rax, QWORD PTR tv154[rbp]
	mov	rcx, QWORD PTR tv155[rbp]
	cmp	BYTE PTR [rax+rcx], 0
	jne	SHORT $LL12@Maklocstr
	mov	rax, QWORD PTR tv155[rbp]
	inc	rax
	mov	QWORD PTR _Count1$[rbp], rax
; Line 542
	mov	rax, QWORD PTR _Count1$[rbp]
	mov	QWORD PTR _Count$[rbp], rax
	mov	QWORD PTR _Wchars$[rbp], 0
	mov	rax, QWORD PTR _Ptr$[rbp]
	mov	QWORD PTR _Ptr1$[rbp], rax
	jmp	SHORT $LN4@Maklocstr
$LN2@Maklocstr:
	movsxd	rax, DWORD PTR _Bytes$[rbp]
	mov	rcx, QWORD PTR _Count$[rbp]
	sub	rcx, rax
	mov	rax, rcx
	mov	QWORD PTR _Count$[rbp], rax
	movsxd	rax, DWORD PTR _Bytes$[rbp]
	mov	rcx, QWORD PTR _Ptr1$[rbp]
	add	rcx, rax
	mov	rax, rcx
	mov	QWORD PTR _Ptr1$[rbp], rax
	mov	rax, QWORD PTR _Wchars$[rbp]
	inc	rax
	mov	QWORD PTR _Wchars$[rbp], rax
$LN4@Maklocstr:
	cmp	QWORD PTR _Count$[rbp], 0
	jbe	SHORT $LN3@Maklocstr
; Line 543
	mov	rax, QWORD PTR _Cvt$[rbp]
	mov	QWORD PTR [rsp+32], rax
	lea	r9, QWORD PTR _Mbst1$[rbp]
	mov	r8, QWORD PTR _Count$[rbp]
	mov	rdx, QWORD PTR _Ptr1$[rbp]
	lea	rcx, QWORD PTR _Wc$[rbp]
	call	_Mbrtowc
	mov	DWORD PTR _Bytes$[rbp], eax
	cmp	DWORD PTR _Bytes$[rbp], 0
	jg	SHORT $LN8@Maklocstr
; Line 544
	jmp	SHORT $LN3@Maklocstr
$LN8@Maklocstr:
; Line 546
	jmp	SHORT $LN2@Maklocstr
$LN3@Maklocstr:
; Line 548
	mov	rax, QWORD PTR _Wchars$[rbp]
	inc	rax
	mov	QWORD PTR _Wchars$[rbp], rax
; Line 550
	mov	DWORD PTR [rsp+32], 550			; 00000226H
	lea	r9, OFFSET FLAT:??_C@_0GC@MNELFEFK@C?3?2Program?5Files?2Microsoft?5Visu@
	mov	r8d, 2
	mov	edx, 2
	mov	rcx, QWORD PTR _Wchars$[rbp]
	call	QWORD PTR __imp__calloc_dbg
	mov	QWORD PTR _Ptrdest$[rbp], rax
; Line 552
	cmp	QWORD PTR _Ptrdest$[rbp], 0
	jne	SHORT $LN9@Maklocstr
; Line 553
	call	?_Xbad_alloc@std@@YAXXZ			; std::_Xbad_alloc
$LN9@Maklocstr:
; Line 556
	mov	rax, QWORD PTR _Ptrdest$[rbp]
	mov	QWORD PTR _Ptrnext$[rbp], rax
; Line 557
	lea	rax, QWORD PTR _Mbst2$[rbp]
	mov	rdi, rax
	xor	eax, eax
	mov	ecx, 8
	rep stosb
; Line 559
	jmp	SHORT $LN7@Maklocstr
$LN5@Maklocstr:
	movsxd	rax, DWORD PTR _Bytes$[rbp]
	mov	rcx, QWORD PTR _Count$[rbp]
	sub	rcx, rax
	mov	rax, rcx
	mov	QWORD PTR _Count$[rbp], rax
	movsxd	rax, DWORD PTR _Bytes$[rbp]
	mov	rcx, QWORD PTR _Ptr$[rbp]
	add	rcx, rax
	mov	rax, rcx
	mov	QWORD PTR _Ptr$[rbp], rax
	mov	rax, QWORD PTR _Wchars$[rbp]
	dec	rax
	mov	QWORD PTR _Wchars$[rbp], rax
	mov	rax, QWORD PTR _Ptrnext$[rbp]
	add	rax, 2
	mov	QWORD PTR _Ptrnext$[rbp], rax
$LN7@Maklocstr:
	cmp	QWORD PTR _Wchars$[rbp], 0
	jbe	SHORT $LN6@Maklocstr
; Line 560
	mov	rax, QWORD PTR _Cvt$[rbp]
	mov	QWORD PTR [rsp+32], rax
	lea	r9, QWORD PTR _Mbst2$[rbp]
	mov	r8, QWORD PTR _Count1$[rbp]
	mov	rdx, QWORD PTR _Ptr$[rbp]
	mov	rcx, QWORD PTR _Ptrnext$[rbp]
	call	_Mbrtowc
	mov	DWORD PTR _Bytes$[rbp], eax
	cmp	DWORD PTR _Bytes$[rbp], 0
	jg	SHORT $LN10@Maklocstr
; Line 561
	jmp	SHORT $LN6@Maklocstr
$LN10@Maklocstr:
; Line 563
	jmp	$LN5@Maklocstr
$LN6@Maklocstr:
; Line 565
	xor	eax, eax
	mov	rcx, QWORD PTR _Ptrnext$[rbp]
	mov	WORD PTR [rcx], ax
; Line 567
	mov	rax, QWORD PTR _Ptrdest$[rbp]
$LN11@Maklocstr:
; Line 568
	mov	rdi, rax
	lea	rcx, QWORD PTR [rbp-48]
	lea	rdx, OFFSET FLAT:??$_Maklocstr@_W@std@@YAPEA_WPEBDPEA_WAEBU_Cvtvec@@@Z$rtcFrameData
	call	_RTC_CheckStackVars
	mov	rax, rdi
	mov	rcx, QWORD PTR __$ArrayPad$[rbp]
	xor	rcx, rbp
	call	__security_check_cookie
	lea	rsp, QWORD PTR [rbp+536]
	pop	rdi
	pop	rbp
	ret	0
??$_Maklocstr@_W@std@@YAPEA_WPEBDPEA_WAEBU_Cvtvec@@@Z ENDP ; std::_Maklocstr<wchar_t>
_TEXT	ENDS
; Function compile flags: /Odtp /RTCsu /ZI
;	COMDAT ??0_Basic_container_proxy_ptr12@std@@IEAA@XZ
_TEXT	SEGMENT
this$ = 224
??0_Basic_container_proxy_ptr12@std@@IEAA@XZ PROC	; std::_Basic_container_proxy_ptr12::_Basic_container_proxy_ptr12, COMDAT
; File C:\Program Files\Microsoft Visual Studio\2022\Community\VC\Tools\MSVC\14.33.31629\include\xmemory
; Line 1309
$LN3:
	mov	QWORD PTR [rsp+8], rcx
	push	rbp
	push	rdi
	sub	rsp, 232				; 000000e8H
	lea	rbp, QWORD PTR [rsp+32]
	lea	rcx, OFFSET FLAT:__2B9651A0_xmemory
	call	__CheckForDebuggerJustMyCode
; Line 1302
	mov	rax, QWORD PTR this$[rbp]
	mov	QWORD PTR [rax], 0
; Line 1309
	mov	rax, QWORD PTR this$[rbp]
	lea	rsp, QWORD PTR [rbp+200]
	pop	rdi
	pop	rbp
	ret	0
??0_Basic_container_proxy_ptr12@std@@IEAA@XZ ENDP	; std::_Basic_container_proxy_ptr12::_Basic_container_proxy_ptr12
_TEXT	ENDS
; Function compile flags: /Odtp /RTCsu /ZI
;	COMDAT ?_Release@_Basic_container_proxy_ptr12@std@@QEAAXXZ
_TEXT	SEGMENT
this$ = 224
?_Release@_Basic_container_proxy_ptr12@std@@QEAAXXZ PROC ; std::_Basic_container_proxy_ptr12::_Release, COMDAT
; File C:\Program Files\Microsoft Visual Studio\2022\Community\VC\Tools\MSVC\14.33.31629\include\xmemory
; Line 1304
$LN3:
	mov	QWORD PTR [rsp+8], rcx
	push	rbp
	push	rdi
	sub	rsp, 232				; 000000e8H
	lea	rbp, QWORD PTR [rsp+32]
	lea	rcx, OFFSET FLAT:__2B9651A0_xmemory
	call	__CheckForDebuggerJustMyCode
; Line 1305
	mov	rax, QWORD PTR this$[rbp]
	mov	QWORD PTR [rax], 0
; Line 1306
	lea	rsp, QWORD PTR [rbp+200]
	pop	rdi
	pop	rbp
	ret	0
?_Release@_Basic_container_proxy_ptr12@std@@QEAAXXZ ENDP ; std::_Basic_container_proxy_ptr12::_Release
_TEXT	ENDS
; Function compile flags: /Odtp /RTCsu /ZI
;	COMDAT ?_Orphan_all_locked_v3@_Container_base12@std@@AEAAXXZ
_TEXT	SEGMENT
_Lock$ = 4
__$ArrayPad$ = 216
this$ = 256
?_Orphan_all_locked_v3@_Container_base12@std@@AEAAXXZ PROC ; std::_Container_base12::_Orphan_all_locked_v3, COMDAT
; File C:\Program Files\Microsoft Visual Studio\2022\Community\VC\Tools\MSVC\14.33.31629\include\xmemory
; Line 1083
$LN3:
	mov	QWORD PTR [rsp+8], rcx
	push	rbp
	push	rdi
	sub	rsp, 264				; 00000108H
	lea	rbp, QWORD PTR [rsp+32]
	lea	rdi, QWORD PTR [rsp+32]
	mov	ecx, 10
	mov	eax, -858993460				; ccccccccH
	rep stosd
	mov	rcx, QWORD PTR [rsp+296]
	mov	rax, QWORD PTR __security_cookie
	xor	rax, rbp
	mov	QWORD PTR __$ArrayPad$[rbp], rax
	lea	rcx, OFFSET FLAT:__2B9651A0_xmemory
	call	__CheckForDebuggerJustMyCode
; Line 1084
	mov	edx, 3
	lea	rcx, QWORD PTR _Lock$[rbp]
	call	QWORD PTR __imp_??0_Lockit@std@@QEAA@H@Z
; Line 1085
	mov	rcx, QWORD PTR this$[rbp]
	call	?_Orphan_all_unlocked_v3@_Container_base12@std@@AEAAXXZ ; std::_Container_base12::_Orphan_all_unlocked_v3
; Line 1086
	lea	rcx, QWORD PTR _Lock$[rbp]
	call	QWORD PTR __imp_??1_Lockit@std@@QEAA@XZ
	lea	rcx, QWORD PTR [rbp-32]
	lea	rdx, OFFSET FLAT:?_Orphan_all_locked_v3@_Container_base12@std@@AEAAXXZ$rtcFrameData
	call	_RTC_CheckStackVars
	mov	rcx, QWORD PTR __$ArrayPad$[rbp]
	xor	rcx, rbp
	call	__security_check_cookie
	lea	rsp, QWORD PTR [rbp+232]
	pop	rdi
	pop	rbp
	ret	0
?_Orphan_all_locked_v3@_Container_base12@std@@AEAAXXZ ENDP ; std::_Container_base12::_Orphan_all_locked_v3
_TEXT	ENDS
; Function compile flags: /Odtp /RTCsu /ZI
;	COMDAT ?_Orphan_all_unlocked_v3@_Container_base12@std@@AEAAXXZ
_TEXT	SEGMENT
_Pnext$1 = 8
this$ = 256
?_Orphan_all_unlocked_v3@_Container_base12@std@@AEAAXXZ PROC ; std::_Container_base12::_Orphan_all_unlocked_v3, COMDAT
; File C:\Program Files\Microsoft Visual Studio\2022\Community\VC\Tools\MSVC\14.33.31629\include\xmemory
; Line 1224
$LN7:
	mov	QWORD PTR [rsp+8], rcx
	push	rbp
	push	rdi
	sub	rsp, 264				; 00000108H
	lea	rbp, QWORD PTR [rsp+32]
	lea	rcx, OFFSET FLAT:__2B9651A0_xmemory
	call	__CheckForDebuggerJustMyCode
; Line 1225
	mov	rax, QWORD PTR this$[rbp]
	cmp	QWORD PTR [rax], 0
	jne	SHORT $LN5@Orphan_all
; Line 1226
	jmp	SHORT $LN1@Orphan_all
$LN5@Orphan_all:
; Line 1230
	mov	rax, QWORD PTR this$[rbp]
	mov	rax, QWORD PTR [rax]
	add	rax, 8
	mov	QWORD PTR _Pnext$1[rbp], rax
	jmp	SHORT $LN4@Orphan_all
$LN2@Orphan_all:
	mov	rax, QWORD PTR _Pnext$1[rbp]
	mov	rax, QWORD PTR [rax]
	mov	rcx, QWORD PTR _Pnext$1[rbp]
	mov	rax, QWORD PTR [rax+8]
	mov	QWORD PTR [rcx], rax
$LN4@Orphan_all:
	mov	rax, QWORD PTR _Pnext$1[rbp]
	cmp	QWORD PTR [rax], 0
	je	SHORT $LN3@Orphan_all
; Line 1231
	mov	rax, QWORD PTR _Pnext$1[rbp]
	mov	rax, QWORD PTR [rax]
	mov	QWORD PTR [rax], 0
; Line 1232
	jmp	SHORT $LN2@Orphan_all
$LN3@Orphan_all:
; Line 1233
	mov	rax, QWORD PTR this$[rbp]
	mov	rax, QWORD PTR [rax]
	mov	QWORD PTR [rax+8], 0
$LN1@Orphan_all:
; Line 1234
	lea	rsp, QWORD PTR [rbp+232]
	pop	rdi
	pop	rbp
	ret	0
?_Orphan_all_unlocked_v3@_Container_base12@std@@AEAAXXZ ENDP ; std::_Container_base12::_Orphan_all_unlocked_v3
_TEXT	ENDS
; Function compile flags: /Odtp /RTCsu /ZI
;	COMDAT ?_Orphan_all@_Container_base12@std@@QEAAXXZ
_TEXT	SEGMENT
this$ = 224
?_Orphan_all@_Container_base12@std@@QEAAXXZ PROC	; std::_Container_base12::_Orphan_all, COMDAT
; File C:\Program Files\Microsoft Visual Studio\2022\Community\VC\Tools\MSVC\14.33.31629\include\xmemory
; Line 1236
$LN3:
	mov	QWORD PTR [rsp+8], rcx
	push	rbp
	push	rdi
	sub	rsp, 232				; 000000e8H
	lea	rbp, QWORD PTR [rsp+32]
	lea	rcx, OFFSET FLAT:__2B9651A0_xmemory
	call	__CheckForDebuggerJustMyCode
; Line 1244
	mov	rcx, QWORD PTR this$[rbp]
	call	?_Orphan_all_locked_v3@_Container_base12@std@@AEAAXXZ ; std::_Container_base12::_Orphan_all_locked_v3
; Line 1247
	lea	rsp, QWORD PTR [rbp+200]
	pop	rdi
	pop	rbp
	ret	0
?_Orphan_all@_Container_base12@std@@QEAAXXZ ENDP	; std::_Container_base12::_Orphan_all
_TEXT	ENDS
; Function compile flags: /Odtp /RTCsu /ZI
;	COMDAT ??0_Container_base12@std@@QEAA@XZ
_TEXT	SEGMENT
this$ = 224
??0_Container_base12@std@@QEAA@XZ PROC			; std::_Container_base12::_Container_base12, COMDAT
; File C:\Program Files\Microsoft Visual Studio\2022\Community\VC\Tools\MSVC\14.33.31629\include\xmemory
; Line 1052
$LN3:
	mov	QWORD PTR [rsp+8], rcx
	push	rbp
	push	rdi
	sub	rsp, 232				; 000000e8H
	lea	rbp, QWORD PTR [rsp+32]
	lea	rcx, OFFSET FLAT:__2B9651A0_xmemory
	call	__CheckForDebuggerJustMyCode
; Line 1077
	mov	rax, QWORD PTR this$[rbp]
	mov	QWORD PTR [rax], 0
; Line 1052
	mov	rax, QWORD PTR this$[rbp]
	lea	rsp, QWORD PTR [rbp+200]
	pop	rdi
	pop	rbp
	ret	0
??0_Container_base12@std@@QEAA@XZ ENDP			; std::_Container_base12::_Container_base12
_TEXT	ENDS
; Function compile flags: /Odtp /RTCsu /ZI
;	COMDAT ??0_Container_proxy@std@@QEAA@PEAU_Container_base12@1@@Z
_TEXT	SEGMENT
this$ = 224
_Mycont_$ = 232
??0_Container_proxy@std@@QEAA@PEAU_Container_base12@1@@Z PROC ; std::_Container_proxy::_Container_proxy, COMDAT
; File C:\Program Files\Microsoft Visual Studio\2022\Community\VC\Tools\MSVC\14.33.31629\include\xmemory
; Line 1044
$LN3:
	mov	QWORD PTR [rsp+16], rdx
	mov	QWORD PTR [rsp+8], rcx
	push	rbp
	push	rdi
	sub	rsp, 232				; 000000e8H
	lea	rbp, QWORD PTR [rsp+32]
	lea	rcx, OFFSET FLAT:__2B9651A0_xmemory
	call	__CheckForDebuggerJustMyCode
	mov	rax, QWORD PTR this$[rbp]
	mov	rcx, QWORD PTR _Mycont_$[rbp]
	mov	QWORD PTR [rax], rcx
; Line 1047
	mov	rax, QWORD PTR this$[rbp]
	mov	QWORD PTR [rax+8], 0
; Line 1044
	mov	rax, QWORD PTR this$[rbp]
	lea	rsp, QWORD PTR [rbp+200]
	pop	rdi
	pop	rbp
	ret	0
??0_Container_proxy@std@@QEAA@PEAU_Container_base12@1@@Z ENDP ; std::_Container_proxy::_Container_proxy
_TEXT	ENDS
; Function compile flags: /Odtp /RTCsu /ZI
;	COMDAT ?_Adjust_manually_vector_aligned@std@@YAXAEAPEAXAEA_K@Z
_TEXT	SEGMENT
_Ptr_user$ = 8
_Ptr_container$ = 40
_Min_back_shift$ = 72
_Back_shift$ = 104
_Ptr$ = 352
_Bytes$ = 360
?_Adjust_manually_vector_aligned@std@@YAXAEAPEAXAEA_K@Z PROC ; std::_Adjust_manually_vector_aligned, COMDAT
; File C:\Program Files\Microsoft Visual Studio\2022\Community\VC\Tools\MSVC\14.33.31629\include\xmemory
; Line 147
$LN21:
	mov	QWORD PTR [rsp+16], rdx
	mov	QWORD PTR [rsp+8], rcx
	push	rbp
	push	rdi
	sub	rsp, 376				; 00000178H
	lea	rbp, QWORD PTR [rsp+48]
	lea	rcx, OFFSET FLAT:__2B9651A0_xmemory
	call	__CheckForDebuggerJustMyCode
; Line 149
	mov	rax, QWORD PTR _Bytes$[rbp]
	mov	rax, QWORD PTR [rax]
	add	rax, 47					; 0000002fH
	mov	rcx, QWORD PTR _Bytes$[rbp]
	mov	QWORD PTR [rcx], rax
; Line 151
	mov	rax, QWORD PTR _Ptr$[rbp]
	mov	rax, QWORD PTR [rax]
	mov	QWORD PTR _Ptr_user$[rbp], rax
; Line 152
	mov	eax, 8
	imul	rax, rax, -1
	mov	rcx, QWORD PTR _Ptr_user$[rbp]
	mov	rax, QWORD PTR [rcx+rax]
	mov	QWORD PTR _Ptr_container$[rbp], rax
$LN4@Adjust_man:
; Line 156
	mov	eax, 8
	imul	rax, rax, -2
	mov	rcx, QWORD PTR _Ptr_user$[rbp]
	mov	rdx, -361700864190383366		; fafafafafafafafaH
	cmp	QWORD PTR [rcx+rax], rdx
	jne	SHORT $LN14@Adjust_man
	jmp	SHORT $LN15@Adjust_man
$LN14@Adjust_man:
$LN7@Adjust_man:
	mov	eax, DWORD PTR ?__LINE__Var@?0??_Adjust_manually_vector_aligned@std@@YAXAEAPEAXAEA_K@Z@4JA
	add	eax, 9
	lea	rcx, OFFSET FLAT:??_C@_0BB@FCMFBGOM@invalid?5argument@
	mov	QWORD PTR [rsp+40], rcx
	lea	rcx, OFFSET FLAT:??_C@_02DKCKIIND@?$CFs@
	mov	QWORD PTR [rsp+32], rcx
	xor	r9d, r9d
	mov	r8d, eax
	lea	rdx, OFFSET FLAT:??_C@_0GC@GFIHGGPN@C?3?2Program?5Files?2Microsoft?5Visu@
	mov	ecx, 2
	call	QWORD PTR __imp__CrtDbgReport
	cmp	eax, 1
	jne	SHORT $LN19@Adjust_man
	int	3
	xor	eax, eax
$LN19@Adjust_man:
	mov	eax, DWORD PTR ?__LINE__Var@?0??_Adjust_manually_vector_aligned@std@@YAXAEAPEAXAEA_K@Z@4JA
	add	eax, 9
	mov	QWORD PTR [rsp+32], 0
	mov	r9d, eax
	lea	r8, OFFSET FLAT:??_C@_1ME@KDCJLOP@?$AAC?$AA?3?$AA?2?$AAP?$AAr?$AAo?$AAg?$AAr?$AAa?$AAm?$AA?5?$AAF?$AAi?$AAl?$AAe@
	lea	rdx, OFFSET FLAT:??_C@_11LOCGONAA@@
	lea	rcx, OFFSET FLAT:??_C@_1CG@JNLFBNGN@?$AA?$CC?$AAi?$AAn?$AAv?$AAa?$AAl?$AAi?$AAd?$AA?5?$AAa?$AAr?$AAg?$AAu?$AAm?$AAe@
	call	QWORD PTR __imp__invalid_parameter
	xor	eax, eax
	test	eax, eax
	jne	SHORT $LN7@Adjust_man
$LN15@Adjust_man:
	xor	eax, eax
	test	eax, eax
	jne	$LN4@Adjust_man
; Line 161
	mov	QWORD PTR _Min_back_shift$[rbp], 16
; Line 165
	mov	rax, QWORD PTR _Ptr$[rbp]
	mov	rcx, QWORD PTR _Ptr_container$[rbp]
	mov	rax, QWORD PTR [rax]
	sub	rax, rcx
	mov	QWORD PTR _Back_shift$[rbp], rax
$LN10@Adjust_man:
; Line 166
	cmp	QWORD PTR _Back_shift$[rbp], 16
	jb	SHORT $LN16@Adjust_man
	cmp	QWORD PTR _Back_shift$[rbp], 47		; 0000002fH
	ja	SHORT $LN16@Adjust_man
	jmp	SHORT $LN17@Adjust_man
$LN16@Adjust_man:
$LN13@Adjust_man:
	mov	eax, DWORD PTR ?__LINE__Var@?0??_Adjust_manually_vector_aligned@std@@YAXAEAPEAXAEA_K@Z@4JA
	add	eax, 19
	lea	rcx, OFFSET FLAT:??_C@_0BB@FCMFBGOM@invalid?5argument@
	mov	QWORD PTR [rsp+40], rcx
	lea	rcx, OFFSET FLAT:??_C@_02DKCKIIND@?$CFs@
	mov	QWORD PTR [rsp+32], rcx
	xor	r9d, r9d
	mov	r8d, eax
	lea	rdx, OFFSET FLAT:??_C@_0GC@GFIHGGPN@C?3?2Program?5Files?2Microsoft?5Visu@
	mov	ecx, 2
	call	QWORD PTR __imp__CrtDbgReport
	cmp	eax, 1
	jne	SHORT $LN20@Adjust_man
	int	3
	xor	eax, eax
$LN20@Adjust_man:
	mov	eax, DWORD PTR ?__LINE__Var@?0??_Adjust_manually_vector_aligned@std@@YAXAEAPEAXAEA_K@Z@4JA
	add	eax, 19
	mov	QWORD PTR [rsp+32], 0
	mov	r9d, eax
	lea	r8, OFFSET FLAT:??_C@_1ME@KDCJLOP@?$AAC?$AA?3?$AA?2?$AAP?$AAr?$AAo?$AAg?$AAr?$AAa?$AAm?$AA?5?$AAF?$AAi?$AAl?$AAe@
	lea	rdx, OFFSET FLAT:??_C@_11LOCGONAA@@
	lea	rcx, OFFSET FLAT:??_C@_1CG@JNLFBNGN@?$AA?$CC?$AAi?$AAn?$AAv?$AAa?$AAl?$AAi?$AAd?$AA?5?$AAa?$AAr?$AAg?$AAu?$AAm?$AAe@
	call	QWORD PTR __imp__invalid_parameter
	xor	eax, eax
	test	eax, eax
	jne	SHORT $LN13@Adjust_man
$LN17@Adjust_man:
	xor	eax, eax
	test	eax, eax
	jne	$LN10@Adjust_man
; Line 167
	mov	rax, QWORD PTR _Ptr$[rbp]
	mov	rcx, QWORD PTR _Ptr_container$[rbp]
	mov	QWORD PTR [rax], rcx
; Line 168
	lea	rsp, QWORD PTR [rbp+328]
	pop	rdi
	pop	rbp
	ret	0
?_Adjust_manually_vector_aligned@std@@YAXAEAPEAXAEA_K@Z ENDP ; std::_Adjust_manually_vector_aligned
_TEXT	ENDS
; Function compile flags: /Odtp /RTCsu /ZI
;	COMDAT ?_Allocate@_Default_allocate_traits@std@@SAPEAX_K@Z
_TEXT	SEGMENT
_Bytes$ = 224
?_Allocate@_Default_allocate_traits@std@@SAPEAX_K@Z PROC ; std::_Default_allocate_traits::_Allocate, COMDAT
; File C:\Program Files\Microsoft Visual Studio\2022\Community\VC\Tools\MSVC\14.33.31629\include\xmemory
; Line 78
$LN3:
	mov	QWORD PTR [rsp+8], rcx
	push	rbp
	push	rdi
	sub	rsp, 232				; 000000e8H
	lea	rbp, QWORD PTR [rsp+32]
	lea	rcx, OFFSET FLAT:__2B9651A0_xmemory
	call	__CheckForDebuggerJustMyCode
; Line 79
	mov	rcx, QWORD PTR _Bytes$[rbp]
	call	??2@YAPEAX_K@Z				; operator new
; Line 80
	lea	rsp, QWORD PTR [rbp+200]
	pop	rdi
	pop	rbp
	ret	0
?_Allocate@_Default_allocate_traits@std@@SAPEAX_K@Z ENDP ; std::_Default_allocate_traits::_Allocate
_TEXT	ENDS
; Function compile flags: /Odtp /RTCsu /ZI
;	COMDAT ?_Throw_bad_array_new_length@std@@YAXXZ
_TEXT	SEGMENT
$T1 = 200
?_Throw_bad_array_new_length@std@@YAXXZ PROC		; std::_Throw_bad_array_new_length, COMDAT
; File C:\Program Files\Microsoft Visual Studio\2022\Community\VC\Tools\MSVC\14.33.31629\include\exception
; Line 323
$LN3:
	push	rbp
	push	rdi
	sub	rsp, 280				; 00000118H
	lea	rbp, QWORD PTR [rsp+32]
	lea	rcx, OFFSET FLAT:__C7AE1CEB_exception
	call	__CheckForDebuggerJustMyCode
; Line 324
	lea	rcx, QWORD PTR $T1[rbp]
	call	??0bad_array_new_length@std@@QEAA@XZ	; std::bad_array_new_length::bad_array_new_length
	lea	rdx, OFFSET FLAT:_TI3?AVbad_array_new_length@std@@
	lea	rcx, QWORD PTR $T1[rbp]
	call	_CxxThrowException
$LN2@Throw_bad_:
; Line 325
	lea	rsp, QWORD PTR [rbp+248]
	pop	rdi
	pop	rbp
	ret	0
?_Throw_bad_array_new_length@std@@YAXXZ ENDP		; std::_Throw_bad_array_new_length
_TEXT	ENDS
; Function compile flags: /Odtp /RTCsu /ZI
;	COMDAT ??_Gbad_array_new_length@std@@UEAAPEAXI@Z
_TEXT	SEGMENT
this$ = 224
__flags$ = 232
??_Gbad_array_new_length@std@@UEAAPEAXI@Z PROC		; std::bad_array_new_length::`scalar deleting destructor', COMDAT
$LN4:
	mov	DWORD PTR [rsp+16], edx
	mov	QWORD PTR [rsp+8], rcx
	push	rbp
	push	rdi
	sub	rsp, 232				; 000000e8H
	lea	rbp, QWORD PTR [rsp+32]
	mov	rcx, QWORD PTR this$[rbp]
	call	??1bad_array_new_length@std@@UEAA@XZ
	mov	eax, DWORD PTR __flags$[rbp]
	and	eax, 1
	test	eax, eax
	je	SHORT $LN2@scalar
	mov	edx, 24
	mov	rcx, QWORD PTR this$[rbp]
	call	??3@YAXPEAX_K@Z				; operator delete
$LN2@scalar:
	mov	rax, QWORD PTR this$[rbp]
	lea	rsp, QWORD PTR [rbp+200]
	pop	rdi
	pop	rbp
	ret	0
??_Gbad_array_new_length@std@@UEAAPEAXI@Z ENDP		; std::bad_array_new_length::`scalar deleting destructor'
_TEXT	ENDS
; Function compile flags: /Odtp /RTCsu /ZI
;	COMDAT ??0bad_array_new_length@std@@QEAA@AEBV01@@Z
_TEXT	SEGMENT
this$ = 224
__that$ = 232
??0bad_array_new_length@std@@QEAA@AEBV01@@Z PROC	; std::bad_array_new_length::bad_array_new_length, COMDAT
$LN3:
	mov	QWORD PTR [rsp+16], rdx
	mov	QWORD PTR [rsp+8], rcx
	push	rbp
	push	rdi
	sub	rsp, 232				; 000000e8H
	lea	rbp, QWORD PTR [rsp+32]
	mov	rdx, QWORD PTR __that$[rbp]
	mov	rcx, QWORD PTR this$[rbp]
	call	??0bad_alloc@std@@QEAA@AEBV01@@Z
	mov	rax, QWORD PTR this$[rbp]
	lea	rcx, OFFSET FLAT:??_7bad_array_new_length@std@@6B@
	mov	QWORD PTR [rax], rcx
	mov	rax, QWORD PTR this$[rbp]
	lea	rsp, QWORD PTR [rbp+200]
	pop	rdi
	pop	rbp
	ret	0
??0bad_array_new_length@std@@QEAA@AEBV01@@Z ENDP	; std::bad_array_new_length::bad_array_new_length
_TEXT	ENDS
; Function compile flags: /Odtp /RTCsu /ZI
;	COMDAT ??1bad_array_new_length@std@@UEAA@XZ
_TEXT	SEGMENT
this$ = 224
??1bad_array_new_length@std@@UEAA@XZ PROC		; std::bad_array_new_length::~bad_array_new_length, COMDAT
$LN3:
	mov	QWORD PTR [rsp+8], rcx
	push	rbp
	push	rdi
	sub	rsp, 232				; 000000e8H
	lea	rbp, QWORD PTR [rsp+32]
	mov	rcx, QWORD PTR this$[rbp]
	call	??1bad_alloc@std@@UEAA@XZ
	lea	rsp, QWORD PTR [rbp+200]
	pop	rdi
	pop	rbp
	ret	0
??1bad_array_new_length@std@@UEAA@XZ ENDP		; std::bad_array_new_length::~bad_array_new_length
_TEXT	ENDS
; Function compile flags: /Odtp /RTCsu /ZI
;	COMDAT ??0bad_array_new_length@std@@QEAA@XZ
_TEXT	SEGMENT
this$ = 224
??0bad_array_new_length@std@@QEAA@XZ PROC		; std::bad_array_new_length::bad_array_new_length, COMDAT
; File C:\Program Files\Microsoft Visual Studio\2022\Community\VC\Tools\MSVC\14.33.31629\include\vcruntime_exception.h
; Line 141
$LN3:
	mov	QWORD PTR [rsp+8], rcx
	push	rbp
	push	rdi
	sub	rsp, 232				; 000000e8H
	lea	rbp, QWORD PTR [rsp+32]
	lea	rcx, OFFSET FLAT:__58CFBAD8_vcruntime_exception@h
	call	__CheckForDebuggerJustMyCode
; Line 140
	lea	rdx, OFFSET FLAT:??_C@_0BF@KINCDENJ@bad?5array?5new?5length@
	mov	rcx, QWORD PTR this$[rbp]
	call	??0bad_alloc@std@@AEAA@QEBD@Z		; std::bad_alloc::bad_alloc
; Line 141
	mov	rax, QWORD PTR this$[rbp]
	lea	rcx, OFFSET FLAT:??_7bad_array_new_length@std@@6B@
	mov	QWORD PTR [rax], rcx
; Line 142
	mov	rax, QWORD PTR this$[rbp]
	lea	rsp, QWORD PTR [rbp+200]
	pop	rdi
	pop	rbp
	ret	0
??0bad_array_new_length@std@@QEAA@XZ ENDP		; std::bad_array_new_length::bad_array_new_length
_TEXT	ENDS
; Function compile flags: /Odtp /RTCsu /ZI
;	COMDAT ??_Gbad_alloc@std@@UEAAPEAXI@Z
_TEXT	SEGMENT
this$ = 224
__flags$ = 232
??_Gbad_alloc@std@@UEAAPEAXI@Z PROC			; std::bad_alloc::`scalar deleting destructor', COMDAT
$LN4:
	mov	DWORD PTR [rsp+16], edx
	mov	QWORD PTR [rsp+8], rcx
	push	rbp
	push	rdi
	sub	rsp, 232				; 000000e8H
	lea	rbp, QWORD PTR [rsp+32]
	mov	rcx, QWORD PTR this$[rbp]
	call	??1bad_alloc@std@@UEAA@XZ
	mov	eax, DWORD PTR __flags$[rbp]
	and	eax, 1
	test	eax, eax
	je	SHORT $LN2@scalar
	mov	edx, 24
	mov	rcx, QWORD PTR this$[rbp]
	call	??3@YAXPEAX_K@Z				; operator delete
$LN2@scalar:
	mov	rax, QWORD PTR this$[rbp]
	lea	rsp, QWORD PTR [rbp+200]
	pop	rdi
	pop	rbp
	ret	0
??_Gbad_alloc@std@@UEAAPEAXI@Z ENDP			; std::bad_alloc::`scalar deleting destructor'
_TEXT	ENDS
; Function compile flags: /Odtp /RTCsu /ZI
;	COMDAT ??0bad_alloc@std@@QEAA@AEBV01@@Z
_TEXT	SEGMENT
this$ = 224
__that$ = 232
??0bad_alloc@std@@QEAA@AEBV01@@Z PROC			; std::bad_alloc::bad_alloc, COMDAT
$LN3:
	mov	QWORD PTR [rsp+16], rdx
	mov	QWORD PTR [rsp+8], rcx
	push	rbp
	push	rdi
	sub	rsp, 232				; 000000e8H
	lea	rbp, QWORD PTR [rsp+32]
	mov	rdx, QWORD PTR __that$[rbp]
	mov	rcx, QWORD PTR this$[rbp]
	call	??0exception@std@@QEAA@AEBV01@@Z	; std::exception::exception
	mov	rax, QWORD PTR this$[rbp]
	lea	rcx, OFFSET FLAT:??_7bad_alloc@std@@6B@
	mov	QWORD PTR [rax], rcx
	mov	rax, QWORD PTR this$[rbp]
	lea	rsp, QWORD PTR [rbp+200]
	pop	rdi
	pop	rbp
	ret	0
??0bad_alloc@std@@QEAA@AEBV01@@Z ENDP			; std::bad_alloc::bad_alloc
_TEXT	ENDS
; Function compile flags: /Odtp /RTCsu /ZI
;	COMDAT ??1bad_alloc@std@@UEAA@XZ
_TEXT	SEGMENT
this$ = 224
??1bad_alloc@std@@UEAA@XZ PROC				; std::bad_alloc::~bad_alloc, COMDAT
$LN3:
	mov	QWORD PTR [rsp+8], rcx
	push	rbp
	push	rdi
	sub	rsp, 232				; 000000e8H
	lea	rbp, QWORD PTR [rsp+32]
	mov	rcx, QWORD PTR this$[rbp]
	call	??1exception@std@@UEAA@XZ		; std::exception::~exception
	lea	rsp, QWORD PTR [rbp+200]
	pop	rdi
	pop	rbp
	ret	0
??1bad_alloc@std@@UEAA@XZ ENDP				; std::bad_alloc::~bad_alloc
_TEXT	ENDS
; Function compile flags: /Odtp /RTCsu /ZI
;	COMDAT ??0bad_alloc@std@@AEAA@QEBD@Z
_TEXT	SEGMENT
this$ = 224
_Message$ = 232
??0bad_alloc@std@@AEAA@QEBD@Z PROC			; std::bad_alloc::bad_alloc, COMDAT
; File C:\Program Files\Microsoft Visual Studio\2022\Community\VC\Tools\MSVC\14.33.31629\include\vcruntime_exception.h
; Line 130
$LN3:
	mov	QWORD PTR [rsp+16], rdx
	mov	QWORD PTR [rsp+8], rcx
	push	rbp
	push	rdi
	sub	rsp, 232				; 000000e8H
	lea	rbp, QWORD PTR [rsp+32]
	lea	rcx, OFFSET FLAT:__58CFBAD8_vcruntime_exception@h
	call	__CheckForDebuggerJustMyCode
; Line 129
	mov	r8d, 1
	mov	rdx, QWORD PTR _Message$[rbp]
	mov	rcx, QWORD PTR this$[rbp]
	call	??0exception@std@@QEAA@QEBDH@Z		; std::exception::exception
; Line 130
	mov	rax, QWORD PTR this$[rbp]
	lea	rcx, OFFSET FLAT:??_7bad_alloc@std@@6B@
	mov	QWORD PTR [rax], rcx
; Line 131
	mov	rax, QWORD PTR this$[rbp]
	lea	rsp, QWORD PTR [rbp+200]
	pop	rdi
	pop	rbp
	ret	0
??0bad_alloc@std@@AEAA@QEBD@Z ENDP			; std::bad_alloc::bad_alloc
_TEXT	ENDS
; Function compile flags: /Odtp /RTCsu /ZI
;	COMDAT ??_Gexception@std@@UEAAPEAXI@Z
_TEXT	SEGMENT
this$ = 224
__flags$ = 232
??_Gexception@std@@UEAAPEAXI@Z PROC			; std::exception::`scalar deleting destructor', COMDAT
$LN4:
	mov	DWORD PTR [rsp+16], edx
	mov	QWORD PTR [rsp+8], rcx
	push	rbp
	push	rdi
	sub	rsp, 232				; 000000e8H
	lea	rbp, QWORD PTR [rsp+32]
	mov	rcx, QWORD PTR this$[rbp]
	call	??1exception@std@@UEAA@XZ		; std::exception::~exception
	mov	eax, DWORD PTR __flags$[rbp]
	and	eax, 1
	test	eax, eax
	je	SHORT $LN2@scalar
	mov	edx, 24
	mov	rcx, QWORD PTR this$[rbp]
	call	??3@YAXPEAX_K@Z				; operator delete
$LN2@scalar:
	mov	rax, QWORD PTR this$[rbp]
	lea	rsp, QWORD PTR [rbp+200]
	pop	rdi
	pop	rbp
	ret	0
??_Gexception@std@@UEAAPEAXI@Z ENDP			; std::exception::`scalar deleting destructor'
_TEXT	ENDS
; Function compile flags: /Odtp /RTCsu /ZI
;	COMDAT ?what@exception@std@@UEBAPEBDXZ
_TEXT	SEGMENT
tv69 = 192
this$ = 240
?what@exception@std@@UEBAPEBDXZ PROC			; std::exception::what, COMDAT
; File C:\Program Files\Microsoft Visual Studio\2022\Community\VC\Tools\MSVC\14.33.31629\include\vcruntime_exception.h
; Line 94
$LN5:
	mov	QWORD PTR [rsp+8], rcx
	push	rbp
	push	rdi
	sub	rsp, 248				; 000000f8H
	lea	rbp, QWORD PTR [rsp+32]
	lea	rcx, OFFSET FLAT:__58CFBAD8_vcruntime_exception@h
	call	__CheckForDebuggerJustMyCode
; Line 95
	mov	rax, QWORD PTR this$[rbp]
	cmp	QWORD PTR [rax+8], 0
	je	SHORT $LN3@what
	mov	rax, QWORD PTR this$[rbp]
	mov	rax, QWORD PTR [rax+8]
	mov	QWORD PTR tv69[rbp], rax
	jmp	SHORT $LN4@what
$LN3@what:
	lea	rax, OFFSET FLAT:??_C@_0BC@EOODALEL@Unknown?5exception@
	mov	QWORD PTR tv69[rbp], rax
$LN4@what:
	mov	rax, QWORD PTR tv69[rbp]
; Line 96
	lea	rsp, QWORD PTR [rbp+216]
	pop	rdi
	pop	rbp
	ret	0
?what@exception@std@@UEBAPEBDXZ ENDP			; std::exception::what
_TEXT	ENDS
; Function compile flags: /Odtp /RTCsu /ZI
;	COMDAT ??1exception@std@@UEAA@XZ
_TEXT	SEGMENT
this$ = 224
??1exception@std@@UEAA@XZ PROC				; std::exception::~exception, COMDAT
; File C:\Program Files\Microsoft Visual Studio\2022\Community\VC\Tools\MSVC\14.33.31629\include\vcruntime_exception.h
; Line 89
$LN3:
	mov	QWORD PTR [rsp+8], rcx
	push	rbp
	push	rdi
	sub	rsp, 232				; 000000e8H
	lea	rbp, QWORD PTR [rsp+32]
	lea	rcx, OFFSET FLAT:__58CFBAD8_vcruntime_exception@h
	call	__CheckForDebuggerJustMyCode
	mov	rax, QWORD PTR this$[rbp]
	lea	rcx, OFFSET FLAT:??_7exception@std@@6B@
	mov	QWORD PTR [rax], rcx
; Line 90
	mov	rax, QWORD PTR this$[rbp]
	add	rax, 8
	mov	rcx, rax
	call	__std_exception_destroy
; Line 91
	lea	rsp, QWORD PTR [rbp+200]
	pop	rdi
	pop	rbp
	ret	0
??1exception@std@@UEAA@XZ ENDP				; std::exception::~exception
_TEXT	ENDS
; Function compile flags: /Odtp /RTCsu /ZI
;	COMDAT ??0exception@std@@QEAA@AEBV01@@Z
_TEXT	SEGMENT
this$ = 224
_Other$ = 232
??0exception@std@@QEAA@AEBV01@@Z PROC			; std::exception::exception, COMDAT
; File C:\Program Files\Microsoft Visual Studio\2022\Community\VC\Tools\MSVC\14.33.31629\include\vcruntime_exception.h
; Line 72
$LN3:
	mov	QWORD PTR [rsp+16], rdx
	mov	QWORD PTR [rsp+8], rcx
	push	rbp
	push	rdi
	sub	rsp, 232				; 000000e8H
	lea	rbp, QWORD PTR [rsp+32]
	lea	rcx, OFFSET FLAT:__58CFBAD8_vcruntime_exception@h
	call	__CheckForDebuggerJustMyCode
	mov	rax, QWORD PTR this$[rbp]
	lea	rcx, OFFSET FLAT:??_7exception@std@@6B@
	mov	QWORD PTR [rax], rcx
; Line 71
	mov	rax, QWORD PTR this$[rbp]
	add	rax, 8
	mov	rdi, rax
	xor	eax, eax
	mov	ecx, 16
	rep stosb
; Line 73
	mov	rax, QWORD PTR this$[rbp]
	add	rax, 8
	mov	rcx, QWORD PTR _Other$[rbp]
	add	rcx, 8
	mov	rdx, rax
	call	__std_exception_copy
; Line 74
	mov	rax, QWORD PTR this$[rbp]
	lea	rsp, QWORD PTR [rbp+200]
	pop	rdi
	pop	rbp
	ret	0
??0exception@std@@QEAA@AEBV01@@Z ENDP			; std::exception::exception
_TEXT	ENDS
; Function compile flags: /Odtp /RTCsu /ZI
;	COMDAT ??0exception@std@@QEAA@QEBDH@Z
_TEXT	SEGMENT
this$ = 224
_Message$ = 232
__formal$ = 240
??0exception@std@@QEAA@QEBDH@Z PROC			; std::exception::exception, COMDAT
; File C:\Program Files\Microsoft Visual Studio\2022\Community\VC\Tools\MSVC\14.33.31629\include\vcruntime_exception.h
; Line 66
$LN3:
	mov	DWORD PTR [rsp+24], r8d
	mov	QWORD PTR [rsp+16], rdx
	mov	QWORD PTR [rsp+8], rcx
	push	rbp
	push	rdi
	sub	rsp, 232				; 000000e8H
	lea	rbp, QWORD PTR [rsp+32]
	lea	rcx, OFFSET FLAT:__58CFBAD8_vcruntime_exception@h
	call	__CheckForDebuggerJustMyCode
	mov	rax, QWORD PTR this$[rbp]
	lea	rcx, OFFSET FLAT:??_7exception@std@@6B@
	mov	QWORD PTR [rax], rcx
; Line 65
	mov	rax, QWORD PTR this$[rbp]
	add	rax, 8
	mov	rdi, rax
	xor	eax, eax
	mov	ecx, 16
	rep stosb
; Line 67
	mov	rax, QWORD PTR this$[rbp]
	mov	rcx, QWORD PTR _Message$[rbp]
	mov	QWORD PTR [rax+8], rcx
; Line 68
	mov	rax, QWORD PTR this$[rbp]
	lea	rsp, QWORD PTR [rbp+200]
	pop	rdi
	pop	rbp
	ret	0
??0exception@std@@QEAA@QEBDH@Z ENDP			; std::exception::exception
_TEXT	ENDS
; Function compile flags: /Odtp /RTCsu /ZI
;	COMDAT ??2@YAPEAX_KPEAX@Z
_TEXT	SEGMENT
_Size$ = 224
_Where$ = 232
??2@YAPEAX_KPEAX@Z PROC					; operator new, COMDAT
; File C:\Program Files\Microsoft Visual Studio\2022\Community\VC\Tools\MSVC\14.33.31629\include\vcruntime_new.h
; Line 168
$LN3:
	mov	QWORD PTR [rsp+16], rdx
	mov	QWORD PTR [rsp+8], rcx
	push	rbp
	push	rdi
	sub	rsp, 232				; 000000e8H
	lea	rbp, QWORD PTR [rsp+32]
	lea	rcx, OFFSET FLAT:__8B8B49C3_vcruntime_new@h
	call	__CheckForDebuggerJustMyCode
; Line 170
	mov	rax, QWORD PTR _Where$[rbp]
; Line 171
	lea	rsp, QWORD PTR [rbp+200]
	pop	rdi
	pop	rbp
	ret	0
??2@YAPEAX_KPEAX@Z ENDP					; operator new
_TEXT	ENDS
; Function compile flags: /Odtp /RTCsu /ZI
;	COMDAT ?max@?$numeric_limits@_J@std@@SA_JXZ
_TEXT	SEGMENT
?max@?$numeric_limits@_J@std@@SA_JXZ PROC		; std::numeric_limits<__int64>::max, COMDAT
; File C:\Program Files\Microsoft Visual Studio\2022\Community\VC\Tools\MSVC\14.33.31629\include\limits
; Line 641
$LN3:
	push	rbp
	push	rdi
	sub	rsp, 232				; 000000e8H
	lea	rbp, QWORD PTR [rsp+32]
	lea	rcx, OFFSET FLAT:__5340AFB1_limits
	call	__CheckForDebuggerJustMyCode
; Line 642
	mov	rax, 9223372036854775807		; 7fffffffffffffffH
; Line 643
	lea	rsp, QWORD PTR [rbp+200]
	pop	rdi
	pop	rbp
	ret	0
?max@?$numeric_limits@_J@std@@SA_JXZ ENDP		; std::numeric_limits<__int64>::max
_TEXT	ENDS
; Function compile flags: /Odtp /RTCsu /ZI
;	COMDAT wmemcpy
_TEXT	SEGMENT
_S1$ = 224
_S2$ = 232
_N$ = 240
wmemcpy	PROC						; COMDAT
; File C:\Program Files (x86)\Windows Kits\10\Include\10.0.22621.0\ucrt\wchar.h
; Line 234
$LN3:
	mov	QWORD PTR [rsp+24], r8
	mov	QWORD PTR [rsp+16], rdx
	mov	QWORD PTR [rsp+8], rcx
	push	rbp
	push	rsi
	push	rdi
	sub	rsp, 224				; 000000e0H
	lea	rbp, QWORD PTR [rsp+32]
	lea	rcx, OFFSET FLAT:__3FCAD62E_wchar@h
	call	__CheckForDebuggerJustMyCode
; Line 236
	mov	rax, QWORD PTR _N$[rbp]
	shl	rax, 1
	mov	rdi, QWORD PTR _S1$[rbp]
	mov	rsi, QWORD PTR _S2$[rbp]
	mov	rcx, rax
	rep movsb
	mov	rax, QWORD PTR _S1$[rbp]
; Line 237
	lea	rsp, QWORD PTR [rbp+192]
	pop	rdi
	pop	rsi
	pop	rbp
	ret	0
wmemcpy	ENDP
_TEXT	ENDS
; Function compile flags: /Odtp /RTCsu /ZI
;	COMDAT ??_ECApplication@RaisinEng@@UEAAPEAXI@Z
_TEXT	SEGMENT
this$ = 224
__flags$ = 232
??_ECApplication@RaisinEng@@UEAAPEAXI@Z PROC		; RaisinEng::CApplication::`vector deleting destructor', COMDAT
$LN6:
	mov	DWORD PTR [rsp+16], edx
	mov	QWORD PTR [rsp+8], rcx
	push	rbp
	push	rdi
	sub	rsp, 232				; 000000e8H
	lea	rbp, QWORD PTR [rsp+32]
	mov	eax, DWORD PTR __flags$[rbp]
	and	eax, 2
	test	eax, eax
	je	SHORT $LN2@vector
	lea	r9, OFFSET FLAT:??1CApplication@RaisinEng@@UEAA@XZ ; RaisinEng::CApplication::~CApplication
	mov	rax, QWORD PTR this$[rbp]
	mov	r8, QWORD PTR [rax-8]
	mov	edx, 8
	mov	rcx, QWORD PTR this$[rbp]
	call	??_M@YAXPEAX_K1P6AX0@Z@Z
	mov	eax, DWORD PTR __flags$[rbp]
	and	eax, 1
	test	eax, eax
	je	SHORT $LN3@vector
	mov	rax, QWORD PTR this$[rbp]
	mov	rax, QWORD PTR [rax-8]
	lea	rax, QWORD PTR [rax*8+8]
	mov	rcx, QWORD PTR this$[rbp]
	sub	rcx, 8
	mov	rdx, rax
	call	??_V@YAXPEAX_K@Z			; operator delete[]
$LN3@vector:
	mov	rax, QWORD PTR this$[rbp]
	sub	rax, 8
	jmp	SHORT $LN1@vector
$LN2@vector:
	mov	rcx, QWORD PTR this$[rbp]
	call	??1CApplication@RaisinEng@@UEAA@XZ	; RaisinEng::CApplication::~CApplication
	mov	eax, DWORD PTR __flags$[rbp]
	and	eax, 1
	test	eax, eax
	je	SHORT $LN4@vector
	mov	edx, 8
	mov	rcx, QWORD PTR this$[rbp]
	call	??3@YAXPEAX_K@Z				; operator delete
$LN4@vector:
	mov	rax, QWORD PTR this$[rbp]
$LN1@vector:
	lea	rsp, QWORD PTR [rbp+200]
	pop	rdi
	pop	rbp
	ret	0
??_ECApplication@RaisinEng@@UEAAPEAXI@Z ENDP		; RaisinEng::CApplication::`vector deleting destructor'
_TEXT	ENDS
; Function compile flags: /Odtp /RTCsu /ZI
;	COMDAT ??_GCApplication@RaisinEng@@UEAAPEAXI@Z
_TEXT	SEGMENT
this$ = 224
__flags$ = 232
??_GCApplication@RaisinEng@@UEAAPEAXI@Z PROC		; RaisinEng::CApplication::`scalar deleting destructor', COMDAT
$LN4:
	mov	DWORD PTR [rsp+16], edx
	mov	QWORD PTR [rsp+8], rcx
	push	rbp
	push	rdi
	sub	rsp, 232				; 000000e8H
	lea	rbp, QWORD PTR [rsp+32]
	mov	rcx, QWORD PTR this$[rbp]
	call	??1CApplication@RaisinEng@@UEAA@XZ	; RaisinEng::CApplication::~CApplication
	mov	eax, DWORD PTR __flags$[rbp]
	and	eax, 1
	test	eax, eax
	je	SHORT $LN2@scalar
	mov	edx, 8
	mov	rcx, QWORD PTR this$[rbp]
	call	??3@YAXPEAX_K@Z				; operator delete
$LN2@scalar:
	mov	rax, QWORD PTR this$[rbp]
	lea	rsp, QWORD PTR [rbp+200]
	pop	rdi
	pop	rbp
	ret	0
??_GCApplication@RaisinEng@@UEAAPEAXI@Z ENDP		; RaisinEng::CApplication::`scalar deleting destructor'
_TEXT	ENDS
; Function compile flags: /Odtp /RTCsu /ZI
;	COMDAT ??4CApplication@RaisinEng@@QEAAAEAV01@AEBV01@@Z
_TEXT	SEGMENT
this$ = 224
__that$ = 232
??4CApplication@RaisinEng@@QEAAAEAV01@AEBV01@@Z PROC	; RaisinEng::CApplication::operator=, COMDAT
$LN3:
	mov	QWORD PTR [rsp+16], rdx
	mov	QWORD PTR [rsp+8], rcx
	push	rbp
	push	rdi
	sub	rsp, 200				; 000000c8H
	mov	rbp, rsp
	mov	rax, QWORD PTR this$[rbp]
	lea	rsp, QWORD PTR [rbp+200]
	pop	rdi
	pop	rbp
	ret	0
??4CApplication@RaisinEng@@QEAAAEAV01@AEBV01@@Z ENDP	; RaisinEng::CApplication::operator=
_TEXT	ENDS
; Function compile flags: /Odtp /RTCsu /ZI
;	COMDAT ??0CApplication@RaisinEng@@QEAA@AEBV01@@Z
_TEXT	SEGMENT
this$ = 224
__that$ = 232
??0CApplication@RaisinEng@@QEAA@AEBV01@@Z PROC		; RaisinEng::CApplication::CApplication, COMDAT
$LN3:
	mov	QWORD PTR [rsp+16], rdx
	mov	QWORD PTR [rsp+8], rcx
	push	rbp
	push	rdi
	sub	rsp, 200				; 000000c8H
	mov	rbp, rsp
	mov	rax, QWORD PTR this$[rbp]
	lea	rcx, OFFSET FLAT:??_7CApplication@RaisinEng@@6B@
	mov	QWORD PTR [rax], rcx
	mov	rax, QWORD PTR this$[rbp]
	lea	rsp, QWORD PTR [rbp+200]
	pop	rdi
	pop	rbp
	ret	0
??0CApplication@RaisinEng@@QEAA@AEBV01@@Z ENDP		; RaisinEng::CApplication::CApplication
_TEXT	ENDS
; Function compile flags: /Odtp /RTCsu /ZI
;	COMDAT ?Run@CApplication@RaisinEng@@UEAAXXZ
_TEXT	SEGMENT
v$ = 8
w$ = 40
t$ = 72
$T6 = 296
$T7 = 328
__$ArrayPad$ = 344
this$ = 384
?Run@CApplication@RaisinEng@@UEAAXXZ PROC		; RaisinEng::CApplication::Run, COMDAT
; File C:\dev\Raisin\Raisin\src\Raisin\Application.cpp
; Line 7
$LN3:
	mov	QWORD PTR [rsp+8], rcx
	push	rbp
	push	rdi
	sub	rsp, 392				; 00000188H
	lea	rbp, QWORD PTR [rsp+32]
	lea	rdi, QWORD PTR [rsp+32]
	mov	ecx, 42					; 0000002aH
	mov	eax, -858993460				; ccccccccH
	rep stosd
	mov	rcx, QWORD PTR [rsp+424]
	mov	rax, QWORD PTR __security_cookie
	xor	rax, rbp
	mov	QWORD PTR __$ArrayPad$[rbp], rax
	lea	rcx, OFFSET FLAT:__D038210C_Application@cpp
	call	__CheckForDebuggerJustMyCode
; Line 8
	movss	xmm2, DWORD PTR __real@40800000
	movss	xmm1, DWORD PTR __real@40400000
	lea	rcx, QWORD PTR v$[rbp]
	call	??0Vector2D@@QEAA@MM@Z			; Vector2D::Vector2D
; Line 9
	movss	xmm2, DWORD PTR __real@40800000
	movss	xmm1, DWORD PTR __real@40400000
	lea	rcx, QWORD PTR w$[rbp]
	call	??0Vector2D@@QEAA@MM@Z			; Vector2D::Vector2D
; Line 10
	lea	rax, QWORD PTR $T6[rbp]
	mov	QWORD PTR $T7[rbp], rax
	lea	rdx, QWORD PTR w$[rbp]
	mov	rcx, QWORD PTR $T7[rbp]
	call	??0Vector2D@@QEAA@AEBU0@@Z		; Vector2D::Vector2D
	mov	r8, rax
	lea	rdx, QWORD PTR t$[rbp]
	lea	rcx, QWORD PTR v$[rbp]
	call	??GVector2D@@QEAA?AU0@U0@@Z		; Vector2D::operator-
; Line 11
	lea	rcx, OFFSET FLAT:??_C@_0P@LGAKDABA@Raisin?5Loaded?6@
	call	printf
; Line 12
	lea	r8, OFFSET FLAT:??_C@_0N@DKNOFGJI@RaisinEngine@
	mov	edx, 600				; 00000258H
	mov	ecx, 800				; 00000320H
	call	?_Init@RaisinEng@@YAXHHPEBD@Z		; RaisinEng::_Init
; Line 13
	call	?_Loop@RaisinEng@@YAXXZ			; RaisinEng::_Loop
; Line 14
	call	?_Destroy@RaisinEng@@YAXXZ		; RaisinEng::_Destroy
; Line 15
	lea	rcx, QWORD PTR [rbp-32]
	lea	rdx, OFFSET FLAT:?Run@CApplication@RaisinEng@@UEAAXXZ$rtcFrameData
	call	_RTC_CheckStackVars
	mov	rcx, QWORD PTR __$ArrayPad$[rbp]
	xor	rcx, rbp
	call	__security_check_cookie
	lea	rsp, QWORD PTR [rbp+360]
	pop	rdi
	pop	rbp
	ret	0
?Run@CApplication@RaisinEng@@UEAAXXZ ENDP		; RaisinEng::CApplication::Run
_TEXT	ENDS
; Function compile flags: /Odtp /RTCsu /ZI
