; Listing generated by Microsoft (R) Optimizing Compiler Version 19.33.31630.0 

include listing.inc

INCLUDELIB MSVCRTD
INCLUDELIB OLDNAMES

msvcjmc	SEGMENT
__A52B8F80_imconfig@h DB 01H
__529D0EAA_concurrencysal@h DB 01H
__7EC34687_sal@h DB 01H
__35A2D2DF_vadefs@h DB 01H
__5F022EB5_vcruntime@h DB 01H
__1B0272D9_corecrt@h DB 01H
__B9985323_float@h DB 01H
__79700276_stdarg@h DB 01H
__13F5961F_stddef@h DB 01H
__61CC25A1_errno@h DB 01H
__74AC4223_vcruntime_string@h DB 01H
__E4C945B4_corecrt_memcpy_s@h DB 01H
__8EAFF484_corecrt_memory@h DB 01H
__6490AEC5_corecrt_wstring@h DB 01H
__E8295E1E_string@h DB 01H
__19139D6C_assert@h DB 01H
__21D911DF_imgui@h DB 01H
__44420885_corecrt_stdio_config@h DB 01H
__AB601D8D_corecrt_wstdio@h DB 01H
__C1EC35D3_stdio@h DB 01H
__45DED006_corecrt_malloc@h DB 01H
__FD6DBD68_corecrt_search@h DB 01H
__E2E33A61_corecrt_wstdlib@h DB 01H
__F3D99286_limits@h DB 01H
__6E5ACABA_stdlib@h DB 01H
__BB16330F_corecrt_math@h DB 01H
__3BF2A406_math@h DB 01H
__F75BE1FA_mmintrin@h DB 01H
__FA77ED4C_malloc@h DB 01H
__DFD742E1_xmmintrin@h DB 01H
__BAB5CB2D_emmintrin@h DB 01H
__6514A3A4_pmmintrin@h DB 01H
__D5CDD026_tmmintrin@h DB 01H
__FCF6C5A5_smmintrin@h DB 01H
__99944C69_nmmintrin@h DB 01H
__4C2FB627_wmmintrin@h DB 01H
__87BBFB20_zmmintrin@h DB 01H
__B0AF59EA_immintrin@h DB 01H
__40756020_imstb_textedit@h DB 01H
__D68E48C9_imgui_internal@h DB 01H
__4736261C_imgui_canvas@h DB 01H
__BBDF6BA8_xkeycheck@h DB 01H
__7F8F4960_yvals_core@h DB 01H
__4DAFBCB9_stdint@h DB 01H
__CB505695_cstdint DB 01H
__C9757830_xtr1common DB 01H
__D3C56D45_cstddef DB 01H
__760EB7E8_cstdlib DB 01H
__485B7899_initializer_list DB 01H
__B61CA571_xstddef DB 01H
__F576AD63_type_traits DB 01H
__471578BD_imgui_canvas@cpp DB 01H
msvcjmc	ENDS
PUBLIC	??0ImVec2@@QEAA@MM@Z				; ImVec2::ImVec2
PUBLIC	?empty@?$ImVector@UImDrawCmd@@@@QEBA_NXZ	; ImVector<ImDrawCmd>::empty
PUBLIC	?size@?$ImVector@UImDrawCmd@@@@QEBAHXZ		; ImVector<ImDrawCmd>::size
PUBLIC	??A?$ImVector@UImDrawCmd@@@@QEAAAEAUImDrawCmd@@H@Z ; ImVector<ImDrawCmd>::operator[]
PUBLIC	?back@?$ImVector@UImDrawCmd@@@@QEAAAEAUImDrawCmd@@XZ ; ImVector<ImDrawCmd>::back
PUBLIC	?back@?$ImVector@UImVec4@@@@QEAAAEAUImVec4@@XZ	; ImVector<ImVec4>::back
PUBLIC	??0ImRect@@QEAA@XZ				; ImRect::ImRect
PUBLIC	??0ImRect@@QEAA@AEBUImVec2@@0@Z			; ImRect::ImRect
PUBLIC	?GetSize@ImRect@@QEBA?AUImVec2@@XZ		; ImRect::GetSize
PUBLIC	?GetCurrentWindow@ImGui@@YAPEAUImGuiWindow@@XZ	; ImGui::GetCurrentWindow
PUBLIC	??0CanvasView@ImGuiEx@@QEAA@AEBUImVec2@@M@Z	; ImGuiEx::CanvasView::CanvasView
PUBLIC	?Begin@Canvas@ImGuiEx@@QEAA_NPEBDAEBUImVec2@@@Z	; ImGuiEx::Canvas::Begin
PUBLIC	?Begin@Canvas@ImGuiEx@@QEAA_NIAEBUImVec2@@@Z	; ImGuiEx::Canvas::Begin
PUBLIC	?End@Canvas@ImGuiEx@@QEAAXXZ			; ImGuiEx::Canvas::End
PUBLIC	?SetView@Canvas@ImGuiEx@@QEAAXAEBUImVec2@@M@Z	; ImGuiEx::Canvas::SetView
PUBLIC	?SetView@Canvas@ImGuiEx@@QEAAXAEBUCanvasView@2@@Z ; ImGuiEx::Canvas::SetView
PUBLIC	?CenterView@Canvas@ImGuiEx@@QEAAXAEBUImVec2@@@Z	; ImGuiEx::Canvas::CenterView
PUBLIC	?CalcCenterView@Canvas@ImGuiEx@@QEBA?AUCanvasView@2@AEBUImVec2@@@Z ; ImGuiEx::Canvas::CalcCenterView
PUBLIC	?CenterView@Canvas@ImGuiEx@@QEAAXAEBUImRect@@@Z	; ImGuiEx::Canvas::CenterView
PUBLIC	?CalcCenterView@Canvas@ImGuiEx@@QEBA?AUCanvasView@2@AEBUImRect@@@Z ; ImGuiEx::Canvas::CalcCenterView
PUBLIC	?Suspend@Canvas@ImGuiEx@@QEAAXXZ		; ImGuiEx::Canvas::Suspend
PUBLIC	?Resume@Canvas@ImGuiEx@@QEAAXXZ			; ImGuiEx::Canvas::Resume
PUBLIC	?FromLocal@Canvas@ImGuiEx@@QEBA?AUImVec2@@AEBU3@@Z ; ImGuiEx::Canvas::FromLocal
PUBLIC	?FromLocal@Canvas@ImGuiEx@@QEBA?AUImVec2@@AEBU3@AEBUCanvasView@2@@Z ; ImGuiEx::Canvas::FromLocal
PUBLIC	?FromLocalV@Canvas@ImGuiEx@@QEBA?AUImVec2@@AEBU3@@Z ; ImGuiEx::Canvas::FromLocalV
PUBLIC	?FromLocalV@Canvas@ImGuiEx@@QEBA?AUImVec2@@AEBU3@AEBUCanvasView@2@@Z ; ImGuiEx::Canvas::FromLocalV
PUBLIC	?ToLocal@Canvas@ImGuiEx@@QEBA?AUImVec2@@AEBU3@@Z ; ImGuiEx::Canvas::ToLocal
PUBLIC	?ToLocal@Canvas@ImGuiEx@@QEBA?AUImVec2@@AEBU3@AEBUCanvasView@2@@Z ; ImGuiEx::Canvas::ToLocal
PUBLIC	?ToLocalV@Canvas@ImGuiEx@@QEBA?AUImVec2@@AEBU3@@Z ; ImGuiEx::Canvas::ToLocalV
PUBLIC	?ToLocalV@Canvas@ImGuiEx@@QEBA?AUImVec2@@AEBU3@AEBUCanvasView@2@@Z ; ImGuiEx::Canvas::ToLocalV
PUBLIC	?CalcViewRect@Canvas@ImGuiEx@@QEBA?AUImRect@@AEBUCanvasView@2@@Z ; ImGuiEx::Canvas::CalcViewRect
PUBLIC	?View@Canvas@ImGuiEx@@QEBAAEBUCanvasView@2@XZ	; ImGuiEx::Canvas::View
PUBLIC	?UpdateViewTransformPosition@Canvas@ImGuiEx@@AEAAXXZ ; ImGuiEx::Canvas::UpdateViewTransformPosition
PUBLIC	?SaveInputState@Canvas@ImGuiEx@@AEAAXXZ		; ImGuiEx::Canvas::SaveInputState
PUBLIC	?RestoreInputState@Canvas@ImGuiEx@@AEAAXXZ	; ImGuiEx::Canvas::RestoreInputState
PUBLIC	?SaveViewportState@Canvas@ImGuiEx@@AEAAXXZ	; ImGuiEx::Canvas::SaveViewportState
PUBLIC	?RestoreViewportState@Canvas@ImGuiEx@@AEAAXXZ	; ImGuiEx::Canvas::RestoreViewportState
PUBLIC	?EnterLocalSpace@Canvas@ImGuiEx@@AEAAXXZ	; ImGuiEx::Canvas::EnterLocalSpace
PUBLIC	?LeaveLocalSpace@Canvas@ImGuiEx@@AEAAXXZ	; ImGuiEx::Canvas::LeaveLocalSpace
PUBLIC	??$Get@UImDrawList@@@FringeScaleRef@ImCanvasDetails@@SAAEAMPEAUImDrawList@@@Z ; ImCanvasDetails::FringeScaleRef::Get<ImDrawList>
PUBLIC	??$Get@UImDrawList@@@VtxCurrentOffsetRef@ImCanvasDetails@@SAAEAIPEAUImDrawList@@@Z ; ImCanvasDetails::VtxCurrentOffsetRef::Get<ImDrawList>
PUBLIC	__JustMyCode_Default
PUBLIC	??_C@_1FM@JNPAKPFE@?$AAC?$AA?3?$AA?2?$AAd?$AAe?$AAv?$AA?2?$AAR?$AAa?$AAi?$AAs?$AAi?$AAn?$AA?2?$AAR@ ; `string'
PUBLIC	?__LINE__Var@?0??Begin@Canvas@ImGuiEx@@QEAA_NIAEBUImVec2@@@Z@4JA ; `ImGuiEx::Canvas::Begin'::`1'::__LINE__Var
PUBLIC	??_C@_1GO@LLNCIHL@?$AAC?$AA?3?$AA?2?$AAd?$AAe?$AAv?$AA?2?$AAR?$AAa?$AAi?$AAs?$AAi?$AAn?$AA?2?$AAR@ ; `string'
PUBLIC	??_C@_1CM@KGBGBNHL@?$AAm?$AA_?$AAI?$AAn?$AAB?$AAe?$AAg?$AAi?$AAn?$AAE?$AAn?$AAd?$AA?5?$AA?$DN?$AA?$DN@ ; `string'
PUBLIC	?__LINE__Var@?0??End@Canvas@ImGuiEx@@QEAAXXZ@4JA ; `ImGuiEx::Canvas::End'::`1'::__LINE__Var
PUBLIC	??_C@_1CK@NIBOFJIB@?$AAm?$AA_?$AAI?$AAn?$AAB?$AAe?$AAg?$AAi?$AAn?$AAE?$AAn?$AAd?$AA?5?$AA?$DN?$AA?$DN@ ; `string'
PUBLIC	??_C@_1GI@BEKHJEEK@?$AAm?$AA_?$AAD?$AAr?$AAa?$AAw?$AAL?$AAi?$AAs?$AAt?$AA?9?$AA?$DO?$AA_?$AAS?$AAp@ ; `string'
PUBLIC	??_C@_1CM@BPCLDFBM@?$AAm?$AA_?$AAS?$AAu?$AAs?$AAp?$AAe?$AAn?$AAd?$AAC?$AAo?$AAu?$AAn?$AAt?$AAe@ ; `string'
PUBLIC	?__LINE__Var@?0??Suspend@Canvas@ImGuiEx@@QEAAXXZ@4JA ; `ImGuiEx::Canvas::Suspend'::`1'::__LINE__Var
PUBLIC	?__LINE__Var@?0??Resume@Canvas@ImGuiEx@@QEAAXXZ@4JA ; `ImGuiEx::Canvas::Resume'::`1'::__LINE__Var
PUBLIC	??_C@_1CK@NMAIOGBL@?$AAm?$AA_?$AAS?$AAu?$AAs?$AAp?$AAe?$AAn?$AAd?$AAC?$AAo?$AAu?$AAn?$AAt?$AAe@ ; `string'
PUBLIC	?__LINE__Var@?0??LeaveLocalSpace@Canvas@ImGuiEx@@AEAAXXZ@4JA ; `ImGuiEx::Canvas::LeaveLocalSpace'::`1'::__LINE__Var
PUBLIC	??_C@_1CG@GPMNJCJ@?$AAi?$AA?5?$AA?$DO?$AA?$DN?$AA?5?$AA0?$AA?5?$AA?$CG?$AA?$CG?$AA?5?$AAi?$AA?5?$AA?$DM?$AA?5?$AAS@ ; `string'
PUBLIC	??_C@_1BC@KCECIPDP@?$AAS?$AAi?$AAz?$AAe?$AA?5?$AA?$DO?$AA?5?$AA0@ ; `string'
PUBLIC	__real@00000000
PUBLIC	__real@3f000000
PUBLIC	__real@3f800000
PUBLIC	__xmm@80000000800000008000000080000000
EXTRN	__imp__wassert:PROC
EXTRN	?GetIO@ImGui@@YAAEAUImGuiIO@@XZ:PROC		; ImGui::GetIO
EXTRN	?GetWindowDrawList@ImGui@@YAPEAUImDrawList@@XZ:PROC ; ImGui::GetWindowDrawList
EXTRN	?GetContentRegionAvail@ImGui@@YA?AUImVec2@@XZ:PROC ; ImGui::GetContentRegionAvail
EXTRN	?Dummy@ImGui@@YAXAEBUImVec2@@@Z:PROC		; ImGui::Dummy
EXTRN	?GetCursorScreenPos@ImGui@@YA?AUImVec2@@XZ:PROC	; ImGui::GetCursorScreenPos
EXTRN	?SetCursorScreenPos@ImGui@@YAXAEBUImVec2@@@Z:PROC ; ImGui::SetCursorScreenPos
EXTRN	?GetID@ImGui@@YAIPEBD@Z:PROC			; ImGui::GetID
EXTRN	?PushClipRect@ImGui@@YAXAEBUImVec2@@0_N@Z:PROC	; ImGui::PushClipRect
EXTRN	?PopClipRect@ImGui@@YAXXZ:PROC			; ImGui::PopClipRect
EXTRN	?SetItemAllowOverlap@ImGui@@YAXXZ:PROC		; ImGui::SetItemAllowOverlap
EXTRN	?AddDrawCmd@ImDrawList@@QEAAXXZ:PROC		; ImDrawList::AddDrawCmd
EXTRN	?IsClippedEx@ImGui@@YA_NAEBUImRect@@I_N@Z:PROC	; ImGui::IsClippedEx
EXTRN	_RTC_CheckStackVars:PROC
EXTRN	_RTC_InitBase:PROC
EXTRN	_RTC_Shutdown:PROC
EXTRN	__CheckForDebuggerJustMyCode:PROC
EXTRN	__GSHandlerCheck:PROC
EXTRN	__security_check_cookie:PROC
EXTRN	?GImGui@@3PEAUImGuiContext@@EA:QWORD		; GImGui
EXTRN	__security_cookie:QWORD
EXTRN	_fltused:DWORD
;	COMDAT pdata
pdata	SEGMENT
$pdata$??0ImVec2@@QEAA@MM@Z DD imagerel $LN3
	DD	imagerel $LN3+76
	DD	imagerel $unwind$??0ImVec2@@QEAA@MM@Z
pdata	ENDS
;	COMDAT pdata
pdata	SEGMENT
$pdata$?empty@?$ImVector@UImDrawCmd@@@@QEBA_NXZ DD imagerel $LN5
	DD	imagerel $LN5+82
	DD	imagerel $unwind$?empty@?$ImVector@UImDrawCmd@@@@QEBA_NXZ
pdata	ENDS
;	COMDAT pdata
pdata	SEGMENT
$pdata$?size@?$ImVector@UImDrawCmd@@@@QEBAHXZ DD imagerel $LN3
	DD	imagerel $LN3+50
	DD	imagerel $unwind$?size@?$ImVector@UImDrawCmd@@@@QEBAHXZ
pdata	ENDS
;	COMDAT pdata
pdata	SEGMENT
$pdata$??A?$ImVector@UImDrawCmd@@@@QEAAAEAUImDrawCmd@@H@Z DD imagerel $LN5
	DD	imagerel $LN5+121
	DD	imagerel $unwind$??A?$ImVector@UImDrawCmd@@@@QEAAAEAUImDrawCmd@@H@Z
pdata	ENDS
;	COMDAT pdata
pdata	SEGMENT
$pdata$?back@?$ImVector@UImDrawCmd@@@@QEAAAEAUImDrawCmd@@XZ DD imagerel $LN4
	DD	imagerel $LN4+109
	DD	imagerel $unwind$?back@?$ImVector@UImDrawCmd@@@@QEAAAEAUImDrawCmd@@XZ
pdata	ENDS
;	COMDAT pdata
pdata	SEGMENT
$pdata$?back@?$ImVector@UImVec4@@@@QEAAAEAUImVec4@@XZ DD imagerel $LN4
	DD	imagerel $LN4+109
	DD	imagerel $unwind$?back@?$ImVector@UImVec4@@@@QEAAAEAUImVec4@@XZ
pdata	ENDS
;	COMDAT pdata
pdata	SEGMENT
$pdata$??D@YA?AUImVec2@@AEBU0@M@Z DD imagerel ??D@YA?AUImVec2@@AEBU0@M@Z
	DD	imagerel ??D@YA?AUImVec2@@AEBU0@M@Z+87
	DD	imagerel $unwind$??D@YA?AUImVec2@@AEBU0@M@Z
pdata	ENDS
;	COMDAT pdata
pdata	SEGMENT
$pdata$??H@YA?AUImVec2@@AEBU0@0@Z DD imagerel ??H@YA?AUImVec2@@AEBU0@0@Z
	DD	imagerel ??H@YA?AUImVec2@@AEBU0@0@Z+93
	DD	imagerel $unwind$??H@YA?AUImVec2@@AEBU0@0@Z
pdata	ENDS
;	COMDAT pdata
pdata	SEGMENT
$pdata$??G@YA?AUImVec2@@AEBU0@0@Z DD imagerel ??G@YA?AUImVec2@@AEBU0@0@Z
	DD	imagerel ??G@YA?AUImVec2@@AEBU0@0@Z+93
	DD	imagerel $unwind$??G@YA?AUImVec2@@AEBU0@0@Z
pdata	ENDS
;	COMDAT pdata
pdata	SEGMENT
$pdata$??0ImRect@@QEAA@XZ DD imagerel $LN3
	DD	imagerel $LN3+87
	DD	imagerel $unwind$??0ImRect@@QEAA@XZ
pdata	ENDS
;	COMDAT pdata
pdata	SEGMENT
$pdata$??0ImRect@@QEAA@AEBUImVec2@@0@Z DD imagerel $LN3
	DD	imagerel $LN3+76
	DD	imagerel $unwind$??0ImRect@@QEAA@AEBUImVec2@@0@Z
pdata	ENDS
;	COMDAT pdata
pdata	SEGMENT
$pdata$?GetSize@ImRect@@QEBA?AUImVec2@@XZ DD imagerel $LN3
	DD	imagerel $LN3+89
	DD	imagerel $unwind$?GetSize@ImRect@@QEBA?AUImVec2@@XZ
pdata	ENDS
;	COMDAT pdata
pdata	SEGMENT
$pdata$?GetCurrentWindow@ImGui@@YAPEAUImGuiWindow@@XZ DD imagerel $LN3
	DD	imagerel $LN3+77
	DD	imagerel $unwind$?GetCurrentWindow@ImGui@@YAPEAUImGuiWindow@@XZ
pdata	ENDS
;	COMDAT pdata
pdata	SEGMENT
$pdata$??0CanvasView@ImGuiEx@@QEAA@AEBUImVec2@@M@Z DD imagerel $LN6
	DD	imagerel $LN6+175
	DD	imagerel $unwind$??0CanvasView@ImGuiEx@@QEAA@AEBUImVec2@@M@Z
pdata	ENDS
;	COMDAT pdata
pdata	SEGMENT
$pdata$?Begin@Canvas@ImGuiEx@@QEAA_NPEBDAEBUImVec2@@@Z DD imagerel $LN3
	DD	imagerel $LN3+84
	DD	imagerel $unwind$?Begin@Canvas@ImGuiEx@@QEAA_NPEBDAEBUImVec2@@@Z
pdata	ENDS
;	COMDAT pdata
pdata	SEGMENT
$pdata$?Begin@Canvas@ImGuiEx@@QEAA_NIAEBUImVec2@@@Z DD imagerel $LN5
	DD	imagerel $LN5+550
	DD	imagerel $unwind$?Begin@Canvas@ImGuiEx@@QEAA_NIAEBUImVec2@@@Z
pdata	ENDS
;	COMDAT pdata
pdata	SEGMENT
$pdata$?End@Canvas@ImGuiEx@@QEAAXXZ DD imagerel $LN6
	DD	imagerel $LN6+305
	DD	imagerel $unwind$?End@Canvas@ImGuiEx@@QEAAXXZ
pdata	ENDS
;	COMDAT pdata
pdata	SEGMENT
$pdata$?SetView@Canvas@ImGuiEx@@QEAAXAEBUImVec2@@M@Z DD imagerel $LN3
	DD	imagerel $LN3+94
	DD	imagerel $unwind$?SetView@Canvas@ImGuiEx@@QEAAXAEBUImVec2@@M@Z
pdata	ENDS
;	COMDAT pdata
pdata	SEGMENT
$pdata$?SetView@Canvas@ImGuiEx@@QEAAXAEBUCanvasView@2@@Z DD imagerel $LN10
	DD	imagerel $LN10+259
	DD	imagerel $unwind$?SetView@Canvas@ImGuiEx@@QEAAXAEBUCanvasView@2@@Z
pdata	ENDS
;	COMDAT pdata
pdata	SEGMENT
$pdata$?CenterView@Canvas@ImGuiEx@@QEAAXAEBUImVec2@@@Z DD imagerel $LN3
	DD	imagerel $LN3+158
	DD	imagerel $unwind$?CenterView@Canvas@ImGuiEx@@QEAAXAEBUImVec2@@@Z
pdata	ENDS
;	COMDAT pdata
pdata	SEGMENT
$pdata$?CalcCenterView@Canvas@ImGuiEx@@QEBA?AUCanvasView@2@AEBUImVec2@@@Z DD imagerel $LN3
	DD	imagerel $LN3+343
	DD	imagerel $unwind$?CalcCenterView@Canvas@ImGuiEx@@QEBA?AUCanvasView@2@AEBUImVec2@@@Z
pdata	ENDS
;	COMDAT pdata
pdata	SEGMENT
$pdata$?CenterView@Canvas@ImGuiEx@@QEAAXAEBUImRect@@@Z DD imagerel $LN3
	DD	imagerel $LN3+158
	DD	imagerel $unwind$?CenterView@Canvas@ImGuiEx@@QEAAXAEBUImRect@@@Z
pdata	ENDS
;	COMDAT pdata
pdata	SEGMENT
$pdata$?CalcCenterView@Canvas@ImGuiEx@@QEBA?AUCanvasView@2@AEBUImRect@@@Z DD imagerel $LN13
	DD	imagerel $LN13+747
	DD	imagerel $unwind$?CalcCenterView@Canvas@ImGuiEx@@QEBA?AUCanvasView@2@AEBUImRect@@@Z
pdata	ENDS
;	COMDAT pdata
pdata	SEGMENT
$pdata$?Suspend@Canvas@ImGuiEx@@QEAAXXZ DD imagerel $LN5
	DD	imagerel $LN5+151
	DD	imagerel $unwind$?Suspend@Canvas@ImGuiEx@@QEAAXXZ
pdata	ENDS
;	COMDAT pdata
pdata	SEGMENT
$pdata$?Resume@Canvas@ImGuiEx@@QEAAXXZ DD imagerel $LN6
	DD	imagerel $LN6+206
	DD	imagerel $unwind$?Resume@Canvas@ImGuiEx@@QEAAXXZ
pdata	ENDS
;	COMDAT pdata
pdata	SEGMENT
$pdata$?FromLocal@Canvas@ImGuiEx@@QEBA?AUImVec2@@AEBU3@@Z DD imagerel $LN3
	DD	imagerel $LN3+132
	DD	imagerel $unwind$?FromLocal@Canvas@ImGuiEx@@QEBA?AUImVec2@@AEBU3@@Z
pdata	ENDS
;	COMDAT pdata
pdata	SEGMENT
$pdata$?FromLocal@Canvas@ImGuiEx@@QEBA?AUImVec2@@AEBU3@AEBUCanvasView@2@@Z DD imagerel $LN3
	DD	imagerel $LN3+176
	DD	imagerel $unwind$?FromLocal@Canvas@ImGuiEx@@QEBA?AUImVec2@@AEBU3@AEBUCanvasView@2@@Z
pdata	ENDS
;	COMDAT pdata
pdata	SEGMENT
$pdata$?FromLocalV@Canvas@ImGuiEx@@QEBA?AUImVec2@@AEBU3@@Z DD imagerel $LN3
	DD	imagerel $LN3+89
	DD	imagerel $unwind$?FromLocalV@Canvas@ImGuiEx@@QEBA?AUImVec2@@AEBU3@@Z
pdata	ENDS
;	COMDAT pdata
pdata	SEGMENT
$pdata$?FromLocalV@Canvas@ImGuiEx@@QEBA?AUImVec2@@AEBU3@AEBUCanvasView@2@@Z DD imagerel $LN3
	DD	imagerel $LN3+94
	DD	imagerel $unwind$?FromLocalV@Canvas@ImGuiEx@@QEBA?AUImVec2@@AEBU3@AEBUCanvasView@2@@Z
pdata	ENDS
;	COMDAT pdata
pdata	SEGMENT
$pdata$?ToLocal@Canvas@ImGuiEx@@QEBA?AUImVec2@@AEBU3@@Z DD imagerel $LN3
	DD	imagerel $LN3+145
	DD	imagerel $unwind$?ToLocal@Canvas@ImGuiEx@@QEBA?AUImVec2@@AEBU3@@Z
pdata	ENDS
;	COMDAT pdata
pdata	SEGMENT
$pdata$?ToLocal@Canvas@ImGuiEx@@QEBA?AUImVec2@@AEBU3@AEBUCanvasView@2@@Z DD imagerel $LN3
	DD	imagerel $LN3+189
	DD	imagerel $unwind$?ToLocal@Canvas@ImGuiEx@@QEBA?AUImVec2@@AEBU3@AEBUCanvasView@2@@Z
pdata	ENDS
;	COMDAT pdata
pdata	SEGMENT
$pdata$?ToLocalV@Canvas@ImGuiEx@@QEBA?AUImVec2@@AEBU3@@Z DD imagerel $LN3
	DD	imagerel $LN3+89
	DD	imagerel $unwind$?ToLocalV@Canvas@ImGuiEx@@QEBA?AUImVec2@@AEBU3@@Z
pdata	ENDS
;	COMDAT pdata
pdata	SEGMENT
$pdata$?ToLocalV@Canvas@ImGuiEx@@QEBA?AUImVec2@@AEBU3@AEBUCanvasView@2@@Z DD imagerel $LN3
	DD	imagerel $LN3+94
	DD	imagerel $unwind$?ToLocalV@Canvas@ImGuiEx@@QEBA?AUImVec2@@AEBU3@AEBUCanvasView@2@@Z
pdata	ENDS
;	COMDAT pdata
pdata	SEGMENT
$pdata$?CalcViewRect@Canvas@ImGuiEx@@QEBA?AUImRect@@AEBUCanvasView@2@@Z DD imagerel $LN3
	DD	imagerel $LN3+379
	DD	imagerel $unwind$?CalcViewRect@Canvas@ImGuiEx@@QEBA?AUImRect@@AEBUCanvasView@2@@Z
pdata	ENDS
;	COMDAT pdata
pdata	SEGMENT
$pdata$?View@Canvas@ImGuiEx@@QEBAAEBUCanvasView@2@XZ DD imagerel $LN3
	DD	imagerel $LN3+52
	DD	imagerel $unwind$?View@Canvas@ImGuiEx@@QEBAAEBUCanvasView@2@XZ
pdata	ENDS
;	COMDAT pdata
pdata	SEGMENT
$pdata$?UpdateViewTransformPosition@Canvas@ImGuiEx@@AEAAXXZ DD imagerel $LN3
	DD	imagerel $LN3+95
	DD	imagerel $unwind$?UpdateViewTransformPosition@Canvas@ImGuiEx@@AEAAXXZ
pdata	ENDS
;	COMDAT pdata
pdata	SEGMENT
$pdata$?SaveInputState@Canvas@ImGuiEx@@AEAAXXZ DD imagerel $LN6
	DD	imagerel $LN6+151
	DD	imagerel $unwind$?SaveInputState@Canvas@ImGuiEx@@AEAAXXZ
pdata	ENDS
;	COMDAT pdata
pdata	SEGMENT
$pdata$?RestoreInputState@Canvas@ImGuiEx@@AEAAXXZ DD imagerel $LN6
	DD	imagerel $LN6+151
	DD	imagerel $unwind$?RestoreInputState@Canvas@ImGuiEx@@AEAAXXZ
pdata	ENDS
;	COMDAT pdata
pdata	SEGMENT
$pdata$?SaveViewportState@Canvas@ImGuiEx@@AEAAXXZ DD imagerel $LN3
	DD	imagerel $LN3+41
	DD	imagerel $unwind$?SaveViewportState@Canvas@ImGuiEx@@AEAAXXZ
pdata	ENDS
;	COMDAT pdata
pdata	SEGMENT
$pdata$?RestoreViewportState@Canvas@ImGuiEx@@AEAAXXZ DD imagerel $LN3
	DD	imagerel $LN3+41
	DD	imagerel $unwind$?RestoreViewportState@Canvas@ImGuiEx@@AEAAXXZ
pdata	ENDS
;	COMDAT pdata
pdata	SEGMENT
$pdata$?EnterLocalSpace@Canvas@ImGuiEx@@AEAAXXZ DD imagerel $LN9
	DD	imagerel $LN9+1111
	DD	imagerel $unwind$?EnterLocalSpace@Canvas@ImGuiEx@@AEAAXXZ
pdata	ENDS
;	COMDAT pdata
pdata	SEGMENT
$pdata$?LeaveLocalSpace@Canvas@ImGuiEx@@AEAAXXZ DD imagerel $LN17
	DD	imagerel $LN17+1029
	DD	imagerel $unwind$?LeaveLocalSpace@Canvas@ImGuiEx@@AEAAXXZ
pdata	ENDS
;	COMDAT pdata
pdata	SEGMENT
$pdata$?ImFringeScaleRef@@YAAEAMPEAUImDrawList@@@Z DD imagerel ?ImFringeScaleRef@@YAAEAMPEAUImDrawList@@@Z
	DD	imagerel ?ImFringeScaleRef@@YAAEAMPEAUImDrawList@@@Z+53
	DD	imagerel $unwind$?ImFringeScaleRef@@YAAEAMPEAUImDrawList@@@Z
pdata	ENDS
;	COMDAT pdata
pdata	SEGMENT
$pdata$??$Get@UImDrawList@@@FringeScaleRef@ImCanvasDetails@@SAAEAMPEAUImDrawList@@@Z DD imagerel $LN3
	DD	imagerel $LN3+54
	DD	imagerel $unwind$??$Get@UImDrawList@@@FringeScaleRef@ImCanvasDetails@@SAAEAMPEAUImDrawList@@@Z
pdata	ENDS
;	COMDAT pdata
pdata	SEGMENT
$pdata$?ImVtxOffsetRef@@YAAEAIPEAUImDrawList@@@Z DD imagerel ?ImVtxOffsetRef@@YAAEAIPEAUImDrawList@@@Z
	DD	imagerel ?ImVtxOffsetRef@@YAAEAIPEAUImDrawList@@@Z+53
	DD	imagerel $unwind$?ImVtxOffsetRef@@YAAEAIPEAUImDrawList@@@Z
pdata	ENDS
;	COMDAT pdata
pdata	SEGMENT
$pdata$??$Get@UImDrawList@@@VtxCurrentOffsetRef@ImCanvasDetails@@SAAEAIPEAUImDrawList@@@Z DD imagerel $LN3
	DD	imagerel $LN3+54
	DD	imagerel $unwind$??$Get@UImDrawList@@@VtxCurrentOffsetRef@ImCanvasDetails@@SAAEAIPEAUImDrawList@@@Z
pdata	ENDS
;	COMDAT pdata
pdata	SEGMENT
$pdata$?ImSelectPositive@@YA?AUImVec2@@AEBU1@0@Z DD imagerel ?ImSelectPositive@@YA?AUImVec2@@AEBU1@0@Z
	DD	imagerel ?ImSelectPositive@@YA?AUImVec2@@AEBU1@0@Z+209
	DD	imagerel $unwind$?ImSelectPositive@@YA?AUImVec2@@AEBU1@0@Z
pdata	ENDS
;	COMDAT pdata
pdata	SEGMENT
$pdata$??$ImMax@H@@YAHHH@Z DD imagerel ??$ImMax@H@@YAHHH@Z
	DD	imagerel ??$ImMax@H@@YAHHH@Z+90
	DD	imagerel $unwind$??$ImMax@H@@YAHHH@Z
pdata	ENDS
;	COMDAT __xmm@80000000800000008000000080000000
CONST	SEGMENT
__xmm@80000000800000008000000080000000 DB 00H, 00H, 00H, 080H, 00H, 00H, 00H
	DB	080H, 00H, 00H, 00H, 080H, 00H, 00H, 00H, 080H
CONST	ENDS
;	COMDAT __real@3f800000
CONST	SEGMENT
__real@3f800000 DD 03f800000r			; 1
CONST	ENDS
;	COMDAT __real@3f000000
CONST	SEGMENT
__real@3f000000 DD 03f000000r			; 0.5
CONST	ENDS
;	COMDAT __real@00000000
CONST	SEGMENT
__real@00000000 DD 000000000r			; 0
CONST	ENDS
;	COMDAT rtc$TMZ
rtc$TMZ	SEGMENT
_RTC_Shutdown.rtc$TMZ DQ FLAT:_RTC_Shutdown
rtc$TMZ	ENDS
;	COMDAT rtc$IMZ
rtc$IMZ	SEGMENT
_RTC_InitBase.rtc$IMZ DQ FLAT:_RTC_InitBase
rtc$IMZ	ENDS
;	COMDAT ??_C@_1BC@KCECIPDP@?$AAS?$AAi?$AAz?$AAe?$AA?5?$AA?$DO?$AA?5?$AA0@
CONST	SEGMENT
??_C@_1BC@KCECIPDP@?$AAS?$AAi?$AAz?$AAe?$AA?5?$AA?$DO?$AA?5?$AA0@ DB 'S', 00H
	DB	'i', 00H, 'z', 00H, 'e', 00H, ' ', 00H, '>', 00H, ' ', 00H, '0'
	DB	00H, 00H, 00H				; `string'
CONST	ENDS
;	COMDAT ??_C@_1CG@GPMNJCJ@?$AAi?$AA?5?$AA?$DO?$AA?$DN?$AA?5?$AA0?$AA?5?$AA?$CG?$AA?$CG?$AA?5?$AAi?$AA?5?$AA?$DM?$AA?5?$AAS@
CONST	SEGMENT
??_C@_1CG@GPMNJCJ@?$AAi?$AA?5?$AA?$DO?$AA?$DN?$AA?5?$AA0?$AA?5?$AA?$CG?$AA?$CG?$AA?5?$AAi?$AA?5?$AA?$DM?$AA?5?$AAS@ DB 'i'
	DB	00H, ' ', 00H, '>', 00H, '=', 00H, ' ', 00H, '0', 00H, ' ', 00H
	DB	'&', 00H, '&', 00H, ' ', 00H, 'i', 00H, ' ', 00H, '<', 00H, ' '
	DB	00H, 'S', 00H, 'i', 00H, 'z', 00H, 'e', 00H, 00H, 00H ; `string'
CONST	ENDS
;	COMDAT ?__LINE__Var@?0??LeaveLocalSpace@Canvas@ImGuiEx@@AEAAXXZ@4JA
_DATA	SEGMENT
?__LINE__Var@?0??LeaveLocalSpace@Canvas@ImGuiEx@@AEAAXXZ@4JA DD 01e2H ; `ImGuiEx::Canvas::LeaveLocalSpace'::`1'::__LINE__Var
_DATA	ENDS
;	COMDAT ??_C@_1CK@NMAIOGBL@?$AAm?$AA_?$AAS?$AAu?$AAs?$AAp?$AAe?$AAn?$AAd?$AAC?$AAo?$AAu?$AAn?$AAt?$AAe@
CONST	SEGMENT
??_C@_1CK@NMAIOGBL@?$AAm?$AA_?$AAS?$AAu?$AAs?$AAp?$AAe?$AAn?$AAd?$AAC?$AAo?$AAu?$AAn?$AAt?$AAe@ DB 'm'
	DB	00H, '_', 00H, 'S', 00H, 'u', 00H, 's', 00H, 'p', 00H, 'e', 00H
	DB	'n', 00H, 'd', 00H, 'C', 00H, 'o', 00H, 'u', 00H, 'n', 00H, 't'
	DB	00H, 'e', 00H, 'r', 00H, ' ', 00H, '>', 00H, ' ', 00H, '0', 00H
	DB	00H, 00H					; `string'
CONST	ENDS
;	COMDAT ?__LINE__Var@?0??Resume@Canvas@ImGuiEx@@QEAAXXZ@4JA
_DATA	SEGMENT
?__LINE__Var@?0??Resume@Canvas@ImGuiEx@@QEAAXXZ@4JA DD 0111H ; `ImGuiEx::Canvas::Resume'::`1'::__LINE__Var
_DATA	ENDS
;	COMDAT ?__LINE__Var@?0??Suspend@Canvas@ImGuiEx@@QEAAXXZ@4JA
_DATA	SEGMENT
?__LINE__Var@?0??Suspend@Canvas@ImGuiEx@@QEAAXXZ@4JA DD 0104H ; `ImGuiEx::Canvas::Suspend'::`1'::__LINE__Var
_DATA	ENDS
;	COMDAT ??_C@_1CM@BPCLDFBM@?$AAm?$AA_?$AAS?$AAu?$AAs?$AAp?$AAe?$AAn?$AAd?$AAC?$AAo?$AAu?$AAn?$AAt?$AAe@
CONST	SEGMENT
??_C@_1CM@BPCLDFBM@?$AAm?$AA_?$AAS?$AAu?$AAs?$AAp?$AAe?$AAn?$AAd?$AAC?$AAo?$AAu?$AAn?$AAt?$AAe@ DB 'm'
	DB	00H, '_', 00H, 'S', 00H, 'u', 00H, 's', 00H, 'p', 00H, 'e', 00H
	DB	'n', 00H, 'd', 00H, 'C', 00H, 'o', 00H, 'u', 00H, 'n', 00H, 't'
	DB	00H, 'e', 00H, 'r', 00H, ' ', 00H, '=', 00H, '=', 00H, ' ', 00H
	DB	'0', 00H, 00H, 00H				; `string'
CONST	ENDS
;	COMDAT ??_C@_1GI@BEKHJEEK@?$AAm?$AA_?$AAD?$AAr?$AAa?$AAw?$AAL?$AAi?$AAs?$AAt?$AA?9?$AA?$DO?$AA_?$AAS?$AAp@
CONST	SEGMENT
??_C@_1GI@BEKHJEEK@?$AAm?$AA_?$AAD?$AAr?$AAa?$AAw?$AAL?$AAi?$AAs?$AAt?$AA?9?$AA?$DO?$AA_?$AAS?$AAp@ DB 'm'
	DB	00H, '_', 00H, 'D', 00H, 'r', 00H, 'a', 00H, 'w', 00H, 'L', 00H
	DB	'i', 00H, 's', 00H, 't', 00H, '-', 00H, '>', 00H, '_', 00H, 'S'
	DB	00H, 'p', 00H, 'l', 00H, 'i', 00H, 't', 00H, 't', 00H, 'e', 00H
	DB	'r', 00H, '.', 00H, '_', 00H, 'C', 00H, 'u', 00H, 'r', 00H, 'r'
	DB	00H, 'e', 00H, 'n', 00H, 't', 00H, ' ', 00H, '=', 00H, '=', 00H
	DB	' ', 00H, 'm', 00H, '_', 00H, 'E', 00H, 'x', 00H, 'p', 00H, 'e'
	DB	00H, 'c', 00H, 't', 00H, 'e', 00H, 'd', 00H, 'C', 00H, 'h', 00H
	DB	'a', 00H, 'n', 00H, 'n', 00H, 'e', 00H, 'l', 00H, 00H, 00H ; `string'
CONST	ENDS
;	COMDAT ??_C@_1CK@NIBOFJIB@?$AAm?$AA_?$AAI?$AAn?$AAB?$AAe?$AAg?$AAi?$AAn?$AAE?$AAn?$AAd?$AA?5?$AA?$DN?$AA?$DN@
CONST	SEGMENT
??_C@_1CK@NIBOFJIB@?$AAm?$AA_?$AAI?$AAn?$AAB?$AAe?$AAg?$AAi?$AAn?$AAE?$AAn?$AAd?$AA?5?$AA?$DN?$AA?$DN@ DB 'm'
	DB	00H, '_', 00H, 'I', 00H, 'n', 00H, 'B', 00H, 'e', 00H, 'g', 00H
	DB	'i', 00H, 'n', 00H, 'E', 00H, 'n', 00H, 'd', 00H, ' ', 00H, '='
	DB	00H, '=', 00H, ' ', 00H, 't', 00H, 'r', 00H, 'u', 00H, 'e', 00H
	DB	00H, 00H					; `string'
CONST	ENDS
;	COMDAT ?__LINE__Var@?0??End@Canvas@ImGuiEx@@QEAAXXZ@4JA
_DATA	SEGMENT
?__LINE__Var@?0??End@Canvas@ImGuiEx@@QEAAXXZ@4JA DD 092H ; `ImGuiEx::Canvas::End'::`1'::__LINE__Var
_DATA	ENDS
;	COMDAT ??_C@_1CM@KGBGBNHL@?$AAm?$AA_?$AAI?$AAn?$AAB?$AAe?$AAg?$AAi?$AAn?$AAE?$AAn?$AAd?$AA?5?$AA?$DN?$AA?$DN@
CONST	SEGMENT
??_C@_1CM@KGBGBNHL@?$AAm?$AA_?$AAI?$AAn?$AAB?$AAe?$AAg?$AAi?$AAn?$AAE?$AAn?$AAd?$AA?5?$AA?$DN?$AA?$DN@ DB 'm'
	DB	00H, '_', 00H, 'I', 00H, 'n', 00H, 'B', 00H, 'e', 00H, 'g', 00H
	DB	'i', 00H, 'n', 00H, 'E', 00H, 'n', 00H, 'd', 00H, ' ', 00H, '='
	DB	00H, '=', 00H, ' ', 00H, 'f', 00H, 'a', 00H, 'l', 00H, 's', 00H
	DB	'e', 00H, 00H, 00H				; `string'
CONST	ENDS
;	COMDAT ??_C@_1GO@LLNCIHL@?$AAC?$AA?3?$AA?2?$AAd?$AAe?$AAv?$AA?2?$AAR?$AAa?$AAi?$AAs?$AAi?$AAn?$AA?2?$AAR@
CONST	SEGMENT
??_C@_1GO@LLNCIHL@?$AAC?$AA?3?$AA?2?$AAd?$AAe?$AAv?$AA?2?$AAR?$AAa?$AAi?$AAs?$AAi?$AAn?$AA?2?$AAR@ DB 'C'
	DB	00H, ':', 00H, '\', 00H, 'd', 00H, 'e', 00H, 'v', 00H, '\', 00H
	DB	'R', 00H, 'a', 00H, 'i', 00H, 's', 00H, 'i', 00H, 'n', 00H, '\'
	DB	00H, 'R', 00H, 'a', 00H, 'i', 00H, 's', 00H, 'i', 00H, 'n', 00H
	DB	'\', 00H, 's', 00H, 'r', 00H, 'c', 00H, '\', 00H, 'R', 00H, 'a'
	DB	00H, 'i', 00H, 's', 00H, 'i', 00H, 'n', 00H, '\', 00H, 'i', 00H
	DB	'm', 00H, 'g', 00H, 'u', 00H, 'i', 00H, '\', 00H, 'i', 00H, 'm'
	DB	00H, 'g', 00H, 'u', 00H, 'i', 00H, '_', 00H, 'c', 00H, 'a', 00H
	DB	'n', 00H, 'v', 00H, 'a', 00H, 's', 00H, '.', 00H, 'c', 00H, 'p'
	DB	00H, 'p', 00H, 00H, 00H			; `string'
CONST	ENDS
;	COMDAT ?__LINE__Var@?0??Begin@Canvas@ImGuiEx@@QEAA_NIAEBUImVec2@@@Z@4JA
_DATA	SEGMENT
?__LINE__Var@?0??Begin@Canvas@ImGuiEx@@QEAA_NIAEBUImVec2@@@Z@4JA DD 05eH ; `ImGuiEx::Canvas::Begin'::`1'::__LINE__Var
_DATA	ENDS
;	COMDAT ??_C@_1FM@JNPAKPFE@?$AAC?$AA?3?$AA?2?$AAd?$AAe?$AAv?$AA?2?$AAR?$AAa?$AAi?$AAs?$AAi?$AAn?$AA?2?$AAR@
CONST	SEGMENT
??_C@_1FM@JNPAKPFE@?$AAC?$AA?3?$AA?2?$AAd?$AAe?$AAv?$AA?2?$AAR?$AAa?$AAi?$AAs?$AAi?$AAn?$AA?2?$AAR@ DB 'C'
	DB	00H, ':', 00H, '\', 00H, 'd', 00H, 'e', 00H, 'v', 00H, '\', 00H
	DB	'R', 00H, 'a', 00H, 'i', 00H, 's', 00H, 'i', 00H, 'n', 00H, '\'
	DB	00H, 'R', 00H, 'a', 00H, 'i', 00H, 's', 00H, 'i', 00H, 'n', 00H
	DB	'\', 00H, 's', 00H, 'r', 00H, 'c', 00H, '\', 00H, 'R', 00H, 'a'
	DB	00H, 'i', 00H, 's', 00H, 'i', 00H, 'n', 00H, '\', 00H, 'i', 00H
	DB	'm', 00H, 'g', 00H, 'u', 00H, 'i', 00H, '\', 00H, 'i', 00H, 'm'
	DB	00H, 'g', 00H, 'u', 00H, 'i', 00H, '.', 00H, 'h', 00H, 00H, 00H ; `string'
CONST	ENDS
;	COMDAT xdata
xdata	SEGMENT
$unwind$??$ImMax@H@@YAHHH@Z DD 025051601H
	DD	01112316H
	DD	0700a001fH
	DD	05009H
xdata	ENDS
;	COMDAT xdata
xdata	SEGMENT
$unwind$?ImSelectPositive@@YA?AUImVec2@@AEBU1@0@Z DD 025051d01H
	DD	0118231dH
	DD	07011001fH
	DD	05010H
xdata	ENDS
;	COMDAT xdata
xdata	SEGMENT
$unwind$??$Get@UImDrawList@@@VtxCurrentOffsetRef@ImCanvasDetails@@SAAEAIPEAUImDrawList@@@Z DD 025051301H
	DD	010e2313H
	DD	07007001dH
	DD	05006H
xdata	ENDS
;	COMDAT xdata
xdata	SEGMENT
$unwind$?ImVtxOffsetRef@@YAAEAIPEAUImDrawList@@@Z DD 025051301H
	DD	010e2313H
	DD	07007001dH
	DD	05006H
xdata	ENDS
;	COMDAT xdata
xdata	SEGMENT
$unwind$??$Get@UImDrawList@@@FringeScaleRef@ImCanvasDetails@@SAAEAMPEAUImDrawList@@@Z DD 025051301H
	DD	010e2313H
	DD	07007001dH
	DD	05006H
xdata	ENDS
;	COMDAT xdata
xdata	SEGMENT
$unwind$?ImFringeScaleRef@@YAAEAMPEAUImDrawList@@@Z DD 025051301H
	DD	010e2313H
	DD	07007001dH
	DD	05006H
xdata	ENDS
;	COMDAT xdata
xdata	SEGMENT
$unwind$?LeaveLocalSpace@Canvas@ImGuiEx@@AEAAXXZ DD 025051301H
	DD	010e2313H
	DD	070070039H
	DD	05006H
xdata	ENDS
;	COMDAT voltbl
voltbl	SEGMENT
_volmd	DW	037H
	DW	043dH
voltbl	ENDS
;	COMDAT xdata
xdata	SEGMENT
$unwind$?EnterLocalSpace@Canvas@ImGuiEx@@AEAAXXZ DD 025063e19H
	DD	010f2314H
	DD	07008005aH
	DD	050066007H
	DD	imagerel __GSHandlerCheck
	DD	02c8H
xdata	ENDS
;	COMDAT CONST
CONST	SEGMENT
?EnterLocalSpace@Canvas@ImGuiEx@@AEAAXXZ$rtcName$0 DB 063H ; ImGuiEx::Canvas::EnterLocalSpace
	DB	06cH
	DB	069H
	DB	070H
	DB	070H
	DB	065H
	DB	064H
	DB	05fH
	DB	063H
	DB	06cH
	DB	069H
	DB	070H
	DB	05fH
	DB	072H
	DB	065H
	DB	063H
	DB	074H
	DB	00H
	ORG $+14
?EnterLocalSpace@Canvas@ImGuiEx@@AEAAXXZ$rtcVarDesc DD 028H ; ImGuiEx::Canvas::EnterLocalSpace
	DD	010H
	DQ	FLAT:?EnterLocalSpace@Canvas@ImGuiEx@@AEAAXXZ$rtcName$0
	ORG $+48
?EnterLocalSpace@Canvas@ImGuiEx@@AEAAXXZ$rtcFrameData DD 01H ; ImGuiEx::Canvas::EnterLocalSpace
	DD	00H
	DQ	FLAT:?EnterLocalSpace@Canvas@ImGuiEx@@AEAAXXZ$rtcVarDesc
CONST	ENDS
;	COMDAT xdata
xdata	SEGMENT
$unwind$?RestoreViewportState@Canvas@ImGuiEx@@AEAAXXZ DD 025051301H
	DD	010e2313H
	DD	07007001dH
	DD	05006H
xdata	ENDS
;	COMDAT xdata
xdata	SEGMENT
$unwind$?SaveViewportState@Canvas@ImGuiEx@@AEAAXXZ DD 025051301H
	DD	010e2313H
	DD	07007001dH
	DD	05006H
xdata	ENDS
;	COMDAT xdata
xdata	SEGMENT
$unwind$?RestoreInputState@Canvas@ImGuiEx@@AEAAXXZ DD 025051301H
	DD	010e2313H
	DD	070070025H
	DD	05006H
xdata	ENDS
;	COMDAT xdata
xdata	SEGMENT
$unwind$?SaveInputState@Canvas@ImGuiEx@@AEAAXXZ DD 025051301H
	DD	010e2313H
	DD	070070025H
	DD	05006H
xdata	ENDS
;	COMDAT xdata
xdata	SEGMENT
$unwind$?UpdateViewTransformPosition@Canvas@ImGuiEx@@AEAAXXZ DD 025051301H
	DD	010e2313H
	DD	070070021H
	DD	05006H
xdata	ENDS
;	COMDAT xdata
xdata	SEGMENT
$unwind$?View@Canvas@ImGuiEx@@QEBAAEBUCanvasView@2@XZ DD 025051301H
	DD	010e2313H
	DD	07007001dH
	DD	05006H
xdata	ENDS
;	COMDAT voltbl
voltbl	SEGMENT
_volmd	DW	041H
	DW	0161H
voltbl	ENDS
;	COMDAT xdata
xdata	SEGMENT
$unwind$?CalcViewRect@Canvas@ImGuiEx@@QEBA?AUImRect@@AEBUCanvasView@2@@Z DD 025064819H
	DD	0119231eH
	DD	070120034H
	DD	050106011H
	DD	imagerel __GSHandlerCheck
	DD	0190H
xdata	ENDS
;	COMDAT CONST
CONST	SEGMENT
?CalcViewRect@Canvas@ImGuiEx@@QEBA?AUImRect@@AEBUCanvasView@2@@Z$rtcName$0 DB 072H ; ImGuiEx::Canvas::CalcViewRect
	DB	065H
	DB	073H
	DB	075H
	DB	06cH
	DB	074H
	DB	00H
	ORG $+9
?CalcViewRect@Canvas@ImGuiEx@@QEBA?AUImRect@@AEBUCanvasView@2@@Z$rtcVarDesc DD 028H ; ImGuiEx::Canvas::CalcViewRect
	DD	010H
	DQ	FLAT:?CalcViewRect@Canvas@ImGuiEx@@QEBA?AUImRect@@AEBUCanvasView@2@@Z$rtcName$0
	ORG $+48
?CalcViewRect@Canvas@ImGuiEx@@QEBA?AUImRect@@AEBUCanvasView@2@@Z$rtcFrameData DD 01H ; ImGuiEx::Canvas::CalcViewRect
	DD	00H
	DQ	FLAT:?CalcViewRect@Canvas@ImGuiEx@@QEBA?AUImRect@@AEBUCanvasView@2@@Z$rtcVarDesc
CONST	ENDS
;	COMDAT xdata
xdata	SEGMENT
$unwind$?ToLocalV@Canvas@ImGuiEx@@QEBA?AUImVec2@@AEBU3@AEBUCanvasView@2@@Z DD 025052201H
	DD	011d2322H
	DD	07016001dH
	DD	05015H
xdata	ENDS
;	COMDAT xdata
xdata	SEGMENT
$unwind$?ToLocalV@Canvas@ImGuiEx@@QEBA?AUImVec2@@AEBU3@@Z DD 025051d01H
	DD	0118231dH
	DD	07011001dH
	DD	05010H
xdata	ENDS
;	COMDAT xdata
xdata	SEGMENT
$unwind$?ToLocal@Canvas@ImGuiEx@@QEBA?AUImVec2@@AEBU3@AEBUCanvasView@2@@Z DD 025052201H
	DD	011d2322H
	DD	070160027H
	DD	05015H
xdata	ENDS
;	COMDAT xdata
xdata	SEGMENT
$unwind$?ToLocal@Canvas@ImGuiEx@@QEBA?AUImVec2@@AEBU3@@Z DD 025051d01H
	DD	0118231dH
	DD	070110021H
	DD	05010H
xdata	ENDS
;	COMDAT xdata
xdata	SEGMENT
$unwind$?FromLocalV@Canvas@ImGuiEx@@QEBA?AUImVec2@@AEBU3@AEBUCanvasView@2@@Z DD 025052201H
	DD	011d2322H
	DD	07016001dH
	DD	05015H
xdata	ENDS
;	COMDAT xdata
xdata	SEGMENT
$unwind$?FromLocalV@Canvas@ImGuiEx@@QEBA?AUImVec2@@AEBU3@@Z DD 025051d01H
	DD	0118231dH
	DD	07011001dH
	DD	05010H
xdata	ENDS
;	COMDAT xdata
xdata	SEGMENT
$unwind$?FromLocal@Canvas@ImGuiEx@@QEBA?AUImVec2@@AEBU3@AEBUCanvasView@2@@Z DD 025052201H
	DD	011d2322H
	DD	070160027H
	DD	05015H
xdata	ENDS
;	COMDAT xdata
xdata	SEGMENT
$unwind$?FromLocal@Canvas@ImGuiEx@@QEBA?AUImVec2@@AEBU3@@Z DD 025051d01H
	DD	0118231dH
	DD	070110021H
	DD	05010H
xdata	ENDS
;	COMDAT xdata
xdata	SEGMENT
$unwind$?Resume@Canvas@ImGuiEx@@QEAAXXZ DD 025051301H
	DD	010e2313H
	DD	07007001fH
	DD	05006H
xdata	ENDS
;	COMDAT xdata
xdata	SEGMENT
$unwind$?Suspend@Canvas@ImGuiEx@@QEAAXXZ DD 025051301H
	DD	010e2313H
	DD	07007001dH
	DD	05006H
xdata	ENDS
;	COMDAT voltbl
voltbl	SEGMENT
_volmd	DW	041H
	DW	02d1H
voltbl	ENDS
;	COMDAT xdata
xdata	SEGMENT
$unwind$?CalcCenterView@Canvas@ImGuiEx@@QEBA?AUCanvasView@2@AEBUImRect@@@Z DD 025064819H
	DD	0119231eH
	DD	070120038H
	DD	050106011H
	DD	imagerel __GSHandlerCheck
	DD	01b8H
xdata	ENDS
;	COMDAT CONST
CONST	SEGMENT
?CalcCenterView@Canvas@ImGuiEx@@QEBA?AUCanvasView@2@AEBUImRect@@@Z$rtcName$0 DB 063H ; ImGuiEx::Canvas::CalcCenterView
	DB	061H
	DB	06eH
	DB	076H
	DB	061H
	DB	073H
	DB	052H
	DB	065H
	DB	063H
	DB	074H
	DB	053H
	DB	069H
	DB	07aH
	DB	065H
	DB	00H
	ORG $+1
?CalcCenterView@Canvas@ImGuiEx@@QEBA?AUCanvasView@2@AEBUImRect@@@Z$rtcName$1 DB 06eH ; ImGuiEx::Canvas::CalcCenterView
	DB	065H
	DB	077H
	DB	04fH
	DB	072H
	DB	069H
	DB	067H
	DB	069H
	DB	06eH
	DB	00H
	ORG $+6
?CalcCenterView@Canvas@ImGuiEx@@QEBA?AUCanvasView@2@AEBUImRect@@@Z$rtcVarDesc DD 088H ; ImGuiEx::Canvas::CalcCenterView
	DD	08H
	DQ	FLAT:?CalcCenterView@Canvas@ImGuiEx@@QEBA?AUCanvasView@2@AEBUImRect@@@Z$rtcName$1
	DD	028H
	DD	08H
	DQ	FLAT:?CalcCenterView@Canvas@ImGuiEx@@QEBA?AUCanvasView@2@AEBUImRect@@@Z$rtcName$0
	ORG $+96
?CalcCenterView@Canvas@ImGuiEx@@QEBA?AUCanvasView@2@AEBUImRect@@@Z$rtcFrameData DD 02H ; ImGuiEx::Canvas::CalcCenterView
	DD	00H
	DQ	FLAT:?CalcCenterView@Canvas@ImGuiEx@@QEBA?AUCanvasView@2@AEBUImRect@@@Z$rtcVarDesc
CONST	ENDS
;	COMDAT voltbl
voltbl	SEGMENT
_volmd	DB	03bH
	DB	085H
voltbl	ENDS
;	COMDAT xdata
xdata	SEGMENT
$unwind$?CenterView@Canvas@ImGuiEx@@QEAAXAEBUImRect@@@Z DD 025054219H
	DD	01132318H
	DD	0700c0023H
	DD	0500bH
	DD	imagerel __GSHandlerCheck
	DD	0108H
xdata	ENDS
;	COMDAT CONST
CONST	SEGMENT
?CenterView@Canvas@ImGuiEx@@QEAAXAEBUImRect@@@Z$rtcName$0 DB 076H ; ImGuiEx::Canvas::CenterView
	DB	069H
	DB	065H
	DB	077H
	DB	00H
	ORG $+11
?CenterView@Canvas@ImGuiEx@@QEAAXAEBUImRect@@@Z$rtcVarDesc DD 028H ; ImGuiEx::Canvas::CenterView
	DD	010H
	DQ	FLAT:?CenterView@Canvas@ImGuiEx@@QEAAXAEBUImRect@@@Z$rtcName$0
	ORG $+48
?CenterView@Canvas@ImGuiEx@@QEAAXAEBUImRect@@@Z$rtcFrameData DD 01H ; ImGuiEx::Canvas::CenterView
	DD	00H
	DQ	FLAT:?CenterView@Canvas@ImGuiEx@@QEAAXAEBUImRect@@@Z$rtcVarDesc
CONST	ENDS
;	COMDAT voltbl
voltbl	SEGMENT
_volmd	DW	040H
	DW	013eH
voltbl	ENDS
;	COMDAT xdata
xdata	SEGMENT
$unwind$?CalcCenterView@Canvas@ImGuiEx@@QEBA?AUCanvasView@2@AEBUImVec2@@@Z DD 025054719H
	DD	0118231dH
	DD	070110037H
	DD	05010H
	DD	imagerel __GSHandlerCheck
	DD	01a8H
xdata	ENDS
;	COMDAT CONST
CONST	SEGMENT
?CalcCenterView@Canvas@ImGuiEx@@QEBA?AUCanvasView@2@AEBUImVec2@@@Z$rtcName$0 DB 06cH ; ImGuiEx::Canvas::CalcCenterView
	DB	06fH
	DB	063H
	DB	061H
	DB	06cH
	DB	043H
	DB	065H
	DB	06eH
	DB	074H
	DB	065H
	DB	072H
	DB	00H
	ORG $+4
?CalcCenterView@Canvas@ImGuiEx@@QEBA?AUCanvasView@2@AEBUImVec2@@@Z$rtcName$1 DB 06cH ; ImGuiEx::Canvas::CalcCenterView
	DB	06fH
	DB	063H
	DB	061H
	DB	06cH
	DB	04fH
	DB	066H
	DB	066H
	DB	073H
	DB	065H
	DB	074H
	DB	00H
?CalcCenterView@Canvas@ImGuiEx@@QEBA?AUCanvasView@2@AEBUImVec2@@@Z$rtcName$2 DB 06fH ; ImGuiEx::Canvas::CalcCenterView
	DB	066H
	DB	066H
	DB	073H
	DB	065H
	DB	074H
	DB	00H
	ORG $+5
?CalcCenterView@Canvas@ImGuiEx@@QEBA?AUCanvasView@2@AEBUImVec2@@@Z$rtcFrameData DD 03H ; ImGuiEx::Canvas::CalcCenterView
	DD	00H
	DQ	FLAT:?CalcCenterView@Canvas@ImGuiEx@@QEBA?AUCanvasView@2@AEBUImVec2@@@Z$rtcVarDesc
	ORG $+8
?CalcCenterView@Canvas@ImGuiEx@@QEBA?AUCanvasView@2@AEBUImVec2@@@Z$rtcVarDesc DD 068H ; ImGuiEx::Canvas::CalcCenterView
	DD	08H
	DQ	FLAT:?CalcCenterView@Canvas@ImGuiEx@@QEBA?AUCanvasView@2@AEBUImVec2@@@Z$rtcName$2
	DD	048H
	DD	08H
	DQ	FLAT:?CalcCenterView@Canvas@ImGuiEx@@QEBA?AUCanvasView@2@AEBUImVec2@@@Z$rtcName$1
	DD	028H
	DD	08H
	DQ	FLAT:?CalcCenterView@Canvas@ImGuiEx@@QEBA?AUCanvasView@2@AEBUImVec2@@@Z$rtcName$0
CONST	ENDS
;	COMDAT voltbl
voltbl	SEGMENT
_volmd	DB	03bH
	DB	085H
voltbl	ENDS
;	COMDAT xdata
xdata	SEGMENT
$unwind$?CenterView@Canvas@ImGuiEx@@QEAAXAEBUImVec2@@@Z DD 025054219H
	DD	01132318H
	DD	0700c0023H
	DD	0500bH
	DD	imagerel __GSHandlerCheck
	DD	0108H
xdata	ENDS
;	COMDAT CONST
CONST	SEGMENT
?CenterView@Canvas@ImGuiEx@@QEAAXAEBUImVec2@@@Z$rtcName$0 DB 076H ; ImGuiEx::Canvas::CenterView
	DB	069H
	DB	065H
	DB	077H
	DB	00H
	ORG $+11
?CenterView@Canvas@ImGuiEx@@QEAAXAEBUImVec2@@@Z$rtcVarDesc DD 028H ; ImGuiEx::Canvas::CenterView
	DD	010H
	DQ	FLAT:?CenterView@Canvas@ImGuiEx@@QEAAXAEBUImVec2@@@Z$rtcName$0
	ORG $+48
?CenterView@Canvas@ImGuiEx@@QEAAXAEBUImVec2@@@Z$rtcFrameData DD 01H ; ImGuiEx::Canvas::CenterView
	DD	00H
	DQ	FLAT:?CenterView@Canvas@ImGuiEx@@QEAAXAEBUImVec2@@@Z$rtcVarDesc
CONST	ENDS
;	COMDAT xdata
xdata	SEGMENT
$unwind$?SetView@Canvas@ImGuiEx@@QEAAXAEBUCanvasView@2@@Z DD 025051801H
	DD	01132318H
	DD	0700c001dH
	DD	0500bH
xdata	ENDS
;	COMDAT xdata
xdata	SEGMENT
$unwind$?SetView@Canvas@ImGuiEx@@QEAAXAEBUImVec2@@M@Z DD 025051e01H
	DD	0119231eH
	DD	070120023H
	DD	05011H
xdata	ENDS
;	COMDAT xdata
xdata	SEGMENT
$unwind$?End@Canvas@ImGuiEx@@QEAAXXZ DD 025051301H
	DD	010e2313H
	DD	070070021H
	DD	05006H
xdata	ENDS
;	COMDAT xdata
xdata	SEGMENT
$unwind$?Begin@Canvas@ImGuiEx@@QEAA_NIAEBUImVec2@@@Z DD 025061d01H
	DD	0118231dH
	DD	07011003eH
	DD	0500f6010H
xdata	ENDS
;	COMDAT xdata
xdata	SEGMENT
$unwind$?Begin@Canvas@ImGuiEx@@QEAA_NPEBDAEBUImVec2@@@Z DD 025051d01H
	DD	0118231dH
	DD	07011001dH
	DD	05010H
xdata	ENDS
;	COMDAT xdata
xdata	SEGMENT
$unwind$??0CanvasView@ImGuiEx@@QEAA@AEBUImVec2@@M@Z DD 025051e01H
	DD	0119231eH
	DD	07012001fH
	DD	05011H
xdata	ENDS
;	COMDAT xdata
xdata	SEGMENT
$unwind$?GetCurrentWindow@ImGui@@YAPEAUImGuiWindow@@XZ DD 025050f01H
	DD	010a230fH
	DD	070030021H
	DD	05002H
xdata	ENDS
;	COMDAT xdata
xdata	SEGMENT
$unwind$?GetSize@ImRect@@QEBA?AUImVec2@@XZ DD 025031401H
	DD	0b20f2314H
	DD	0500bH
xdata	ENDS
;	COMDAT xdata
xdata	SEGMENT
$unwind$??0ImRect@@QEAA@AEBUImVec2@@0@Z DD 025031901H
	DD	0b2142319H
	DD	05010H
xdata	ENDS
;	COMDAT xdata
xdata	SEGMENT
$unwind$??0ImRect@@QEAA@XZ DD 025030f01H
	DD	0d20a230fH
	DD	05006H
xdata	ENDS
;	COMDAT xdata
xdata	SEGMENT
$unwind$??G@YA?AUImVec2@@AEBU0@0@Z DD 025031901H
	DD	0b2142319H
	DD	05010H
xdata	ENDS
;	COMDAT xdata
xdata	SEGMENT
$unwind$??H@YA?AUImVec2@@AEBU0@0@Z DD 025031901H
	DD	0b2142319H
	DD	05010H
xdata	ENDS
;	COMDAT xdata
xdata	SEGMENT
$unwind$??D@YA?AUImVec2@@AEBU0@M@Z DD 025031a01H
	DD	0b215231aH
	DD	05011H
xdata	ENDS
;	COMDAT xdata
xdata	SEGMENT
$unwind$?back@?$ImVector@UImVec4@@@@QEAAAEAUImVec4@@XZ DD 025051301H
	DD	010e2313H
	DD	07007001dH
	DD	05006H
xdata	ENDS
;	COMDAT xdata
xdata	SEGMENT
$unwind$?back@?$ImVector@UImDrawCmd@@@@QEAAAEAUImDrawCmd@@XZ DD 025051301H
	DD	010e2313H
	DD	07007001dH
	DD	05006H
xdata	ENDS
;	COMDAT xdata
xdata	SEGMENT
$unwind$??A?$ImVector@UImDrawCmd@@@@QEAAAEAUImDrawCmd@@H@Z DD 025051701H
	DD	01122317H
	DD	0700b001dH
	DD	0500aH
xdata	ENDS
;	COMDAT xdata
xdata	SEGMENT
$unwind$?size@?$ImVector@UImDrawCmd@@@@QEBAHXZ DD 025051301H
	DD	010e2313H
	DD	07007001dH
	DD	05006H
xdata	ENDS
;	COMDAT xdata
xdata	SEGMENT
$unwind$?empty@?$ImVector@UImDrawCmd@@@@QEBA_NXZ DD 025051301H
	DD	010e2313H
	DD	07007001fH
	DD	05006H
xdata	ENDS
;	COMDAT xdata
xdata	SEGMENT
$unwind$??0ImVec2@@QEAA@MM@Z DD 025031b01H
	DD	0b216231bH
	DD	05012H
xdata	ENDS
; Function compile flags: /Odt
;	COMDAT __JustMyCode_Default
_TEXT	SEGMENT
__JustMyCode_Default PROC				; COMDAT
	ret	0
__JustMyCode_Default ENDP
_TEXT	ENDS
; Function compile flags: /Odtp /RTCsu /ZI
;	COMDAT ??$ImMax@H@@YAHHH@Z
_TEXT	SEGMENT
tv65 = 192
lhs$ = 240
rhs$ = 248
??$ImMax@H@@YAHHH@Z PROC				; ImMax<int>, COMDAT
; File C:\dev\Raisin\Raisin\src\Raisin\imgui\imgui_internal.h
; Line 413
	mov	DWORD PTR [rsp+16], edx
	mov	DWORD PTR [rsp+8], ecx
	push	rbp
	push	rdi
	sub	rsp, 248				; 000000f8H
	lea	rbp, QWORD PTR [rsp+32]
	lea	rcx, OFFSET FLAT:__D68E48C9_imgui_internal@h
	call	__CheckForDebuggerJustMyCode
	mov	eax, DWORD PTR rhs$[rbp]
	cmp	DWORD PTR lhs$[rbp], eax
	jl	SHORT $LN3@ImMax
	mov	eax, DWORD PTR lhs$[rbp]
	mov	DWORD PTR tv65[rbp], eax
	jmp	SHORT $LN4@ImMax
$LN3@ImMax:
	mov	eax, DWORD PTR rhs$[rbp]
	mov	DWORD PTR tv65[rbp], eax
$LN4@ImMax:
	mov	eax, DWORD PTR tv65[rbp]
	lea	rsp, QWORD PTR [rbp+216]
	pop	rdi
	pop	rbp
	ret	0
??$ImMax@H@@YAHHH@Z ENDP				; ImMax<int>
_TEXT	ENDS
; Function compile flags: /Odtp /RTCsu /ZI
;	COMDAT ?ImSelectPositive@@YA?AUImVec2@@AEBU1@0@Z
_TEXT	SEGMENT
tv70 = 192
tv76 = 196
__$ReturnUdt$ = 240
lhs$ = 248
rhs$ = 256
?ImSelectPositive@@YA?AUImVec2@@AEBU1@0@Z PROC		; ImSelectPositive, COMDAT
; File C:\dev\Raisin\Raisin\src\Raisin\imgui\imgui_canvas.cpp
; Line 86
	mov	QWORD PTR [rsp+24], r8
	mov	QWORD PTR [rsp+16], rdx
	mov	QWORD PTR [rsp+8], rcx
	push	rbp
	push	rdi
	sub	rsp, 248				; 000000f8H
	lea	rbp, QWORD PTR [rsp+32]
	lea	rcx, OFFSET FLAT:__471578BD_imgui_canvas@cpp
	call	__CheckForDebuggerJustMyCode
	mov	rax, QWORD PTR lhs$[rbp]
	movss	xmm0, DWORD PTR [rax+4]
	comiss	xmm0, DWORD PTR __real@00000000
	jbe	SHORT $LN3@ImSelectPo
	mov	rax, QWORD PTR lhs$[rbp]
	movss	xmm0, DWORD PTR [rax+4]
	movss	DWORD PTR tv70[rbp], xmm0
	jmp	SHORT $LN4@ImSelectPo
$LN3@ImSelectPo:
	mov	rax, QWORD PTR rhs$[rbp]
	movss	xmm0, DWORD PTR [rax+4]
	movss	DWORD PTR tv70[rbp], xmm0
$LN4@ImSelectPo:
	mov	rax, QWORD PTR lhs$[rbp]
	movss	xmm0, DWORD PTR [rax]
	comiss	xmm0, DWORD PTR __real@00000000
	jbe	SHORT $LN5@ImSelectPo
	mov	rax, QWORD PTR lhs$[rbp]
	movss	xmm0, DWORD PTR [rax]
	movss	DWORD PTR tv76[rbp], xmm0
	jmp	SHORT $LN6@ImSelectPo
$LN5@ImSelectPo:
	mov	rax, QWORD PTR rhs$[rbp]
	movss	xmm0, DWORD PTR [rax]
	movss	DWORD PTR tv76[rbp], xmm0
$LN6@ImSelectPo:
	movss	xmm2, DWORD PTR tv70[rbp]
	movss	xmm1, DWORD PTR tv76[rbp]
	mov	rcx, QWORD PTR __$ReturnUdt$[rbp]
	call	??0ImVec2@@QEAA@MM@Z			; ImVec2::ImVec2
	mov	rax, QWORD PTR __$ReturnUdt$[rbp]
	lea	rsp, QWORD PTR [rbp+216]
	pop	rdi
	pop	rbp
	ret	0
?ImSelectPositive@@YA?AUImVec2@@AEBU1@0@Z ENDP		; ImSelectPositive
_TEXT	ENDS
; Function compile flags: /Odtp /RTCsu /ZI
;	COMDAT ??$Get@UImDrawList@@@VtxCurrentOffsetRef@ImCanvasDetails@@SAAEAIPEAUImDrawList@@@Z
_TEXT	SEGMENT
drawList$ = 224
??$Get@UImDrawList@@@VtxCurrentOffsetRef@ImCanvasDetails@@SAAEAIPEAUImDrawList@@@Z PROC ; ImCanvasDetails::VtxCurrentOffsetRef::Get<ImDrawList>, COMDAT
; File C:\dev\Raisin\Raisin\src\Raisin\imgui\imgui_canvas.cpp
; Line 64
$LN3:
	mov	QWORD PTR [rsp+8], rcx
	push	rbp
	push	rdi
	sub	rsp, 232				; 000000e8H
	lea	rbp, QWORD PTR [rsp+32]
	lea	rcx, OFFSET FLAT:__471578BD_imgui_canvas@cpp
	call	__CheckForDebuggerJustMyCode
; Line 65
	mov	rax, QWORD PTR drawList$[rbp]
	add	rax, 160				; 000000a0H
; Line 66
	lea	rsp, QWORD PTR [rbp+200]
	pop	rdi
	pop	rbp
	ret	0
??$Get@UImDrawList@@@VtxCurrentOffsetRef@ImCanvasDetails@@SAAEAIPEAUImDrawList@@@Z ENDP ; ImCanvasDetails::VtxCurrentOffsetRef::Get<ImDrawList>
_TEXT	ENDS
; Function compile flags: /Odtp /RTCsu /ZI
;	COMDAT ?ImVtxOffsetRef@@YAAEAIPEAUImDrawList@@@Z
_TEXT	SEGMENT
drawList$ = 224
?ImVtxOffsetRef@@YAAEAIPEAUImDrawList@@@Z PROC		; ImVtxOffsetRef, COMDAT
; File C:\dev\Raisin\Raisin\src\Raisin\imgui\imgui_canvas.cpp
; Line 81
	mov	QWORD PTR [rsp+8], rcx
	push	rbp
	push	rdi
	sub	rsp, 232				; 000000e8H
	lea	rbp, QWORD PTR [rsp+32]
	lea	rcx, OFFSET FLAT:__471578BD_imgui_canvas@cpp
	call	__CheckForDebuggerJustMyCode
; Line 83
	mov	rcx, QWORD PTR drawList$[rbp]
	call	??$Get@UImDrawList@@@VtxCurrentOffsetRef@ImCanvasDetails@@SAAEAIPEAUImDrawList@@@Z ; ImCanvasDetails::VtxCurrentOffsetRef::Get<ImDrawList>
; Line 84
	lea	rsp, QWORD PTR [rbp+200]
	pop	rdi
	pop	rbp
	ret	0
?ImVtxOffsetRef@@YAAEAIPEAUImDrawList@@@Z ENDP		; ImVtxOffsetRef
_TEXT	ENDS
; Function compile flags: /Odtp /RTCsu /ZI
;	COMDAT ??$Get@UImDrawList@@@FringeScaleRef@ImCanvasDetails@@SAAEAMPEAUImDrawList@@@Z
_TEXT	SEGMENT
drawList$ = 224
??$Get@UImDrawList@@@FringeScaleRef@ImCanvasDetails@@SAAEAMPEAUImDrawList@@@Z PROC ; ImCanvasDetails::FringeScaleRef::Get<ImDrawList>, COMDAT
; File C:\dev\Raisin\Raisin\src\Raisin\imgui\imgui_canvas.cpp
; Line 37
$LN3:
	mov	QWORD PTR [rsp+8], rcx
	push	rbp
	push	rdi
	sub	rsp, 232				; 000000e8H
	lea	rbp, QWORD PTR [rsp+32]
	lea	rcx, OFFSET FLAT:__471578BD_imgui_canvas@cpp
	call	__CheckForDebuggerJustMyCode
; Line 38
	mov	rax, QWORD PTR drawList$[rbp]
	add	rax, 192				; 000000c0H
; Line 39
	lea	rsp, QWORD PTR [rbp+200]
	pop	rdi
	pop	rbp
	ret	0
??$Get@UImDrawList@@@FringeScaleRef@ImCanvasDetails@@SAAEAMPEAUImDrawList@@@Z ENDP ; ImCanvasDetails::FringeScaleRef::Get<ImDrawList>
_TEXT	ENDS
; Function compile flags: /Odtp /RTCsu /ZI
;	COMDAT ?ImFringeScaleRef@@YAAEAMPEAUImDrawList@@@Z
_TEXT	SEGMENT
drawList$ = 224
?ImFringeScaleRef@@YAAEAMPEAUImDrawList@@@Z PROC	; ImFringeScaleRef, COMDAT
; File C:\dev\Raisin\Raisin\src\Raisin\imgui\imgui_canvas.cpp
; Line 75
	mov	QWORD PTR [rsp+8], rcx
	push	rbp
	push	rdi
	sub	rsp, 232				; 000000e8H
	lea	rbp, QWORD PTR [rsp+32]
	lea	rcx, OFFSET FLAT:__471578BD_imgui_canvas@cpp
	call	__CheckForDebuggerJustMyCode
; Line 77
	mov	rcx, QWORD PTR drawList$[rbp]
	call	??$Get@UImDrawList@@@FringeScaleRef@ImCanvasDetails@@SAAEAMPEAUImDrawList@@@Z ; ImCanvasDetails::FringeScaleRef::Get<ImDrawList>
; Line 78
	lea	rsp, QWORD PTR [rbp+200]
	pop	rdi
	pop	rbp
	ret	0
?ImFringeScaleRef@@YAAEAMPEAUImDrawList@@@Z ENDP	; ImFringeScaleRef
_TEXT	ENDS
; Function compile flags: /Odtp /RTCsu /ZI
;	COMDAT ?LeaveLocalSpace@Canvas@ImGuiEx@@AEAAXXZ
_TEXT	SEGMENT
vertex$ = 8
vertexEnd$ = 40
i$1 = 68
command$2 = 104
i$3 = 132
command$4 = 168
fringeScale$ = 200
tv235 = 408
tv165 = 408
tv88 = 408
this$ = 448
?LeaveLocalSpace@Canvas@ImGuiEx@@AEAAXXZ PROC		; ImGuiEx::Canvas::LeaveLocalSpace, COMDAT
; File C:\dev\Raisin\Raisin\src\Raisin\imgui\imgui_canvas.cpp
; Line 482
$LN17:
	mov	QWORD PTR [rsp+8], rcx
	push	rbp
	push	rdi
	sub	rsp, 456				; 000001c8H
	lea	rbp, QWORD PTR [rsp+32]
	lea	rcx, OFFSET FLAT:__471578BD_imgui_canvas@cpp
	call	__CheckForDebuggerJustMyCode
; Line 483
	mov	rax, QWORD PTR this$[rbp]
	mov	rax, QWORD PTR [rax+40]
	mov	rcx, QWORD PTR this$[rbp]
	mov	ecx, DWORD PTR [rcx+48]
	cmp	DWORD PTR [rax+168], ecx
	je	SHORT $LN15@LeaveLocal
	mov	eax, DWORD PTR ?__LINE__Var@?0??LeaveLocalSpace@Canvas@ImGuiEx@@AEAAXXZ@4JA
	inc	eax
	mov	r8d, eax
	lea	rdx, OFFSET FLAT:??_C@_1GO@LLNCIHL@?$AAC?$AA?3?$AA?2?$AAd?$AAe?$AAv?$AA?2?$AAR?$AAa?$AAi?$AAs?$AAi?$AAn?$AA?2?$AAR@
	lea	rcx, OFFSET FLAT:??_C@_1GI@BEKHJEEK@?$AAm?$AA_?$AAD?$AAr?$AAa?$AAw?$AAL?$AAi?$AAs?$AAt?$AA?9?$AA?$DO?$AA_?$AAS?$AAp@
	call	QWORD PTR __imp__wassert
	xor	eax, eax
$LN15@LeaveLocal:
; Line 499
	mov	rax, QWORD PTR this$[rbp]
	mov	rax, QWORD PTR [rax+40]
	mov	rcx, QWORD PTR this$[rbp]
	movsxd	rcx, DWORD PTR [rcx+56]
	imul	rcx, rcx, 20
	add	rcx, QWORD PTR [rax+40]
	mov	rax, rcx
	mov	QWORD PTR vertex$[rbp], rax
; Line 500
	mov	rax, QWORD PTR this$[rbp]
	mov	rax, QWORD PTR [rax+40]
	mov	rcx, QWORD PTR this$[rbp]
	mov	rcx, QWORD PTR [rcx+40]
	mov	ecx, DWORD PTR [rcx+52]
	imul	rcx, rcx, 20
	mov	rax, QWORD PTR [rax+40]
	add	rax, rcx
	mov	QWORD PTR tv88[rbp], rax
	mov	rcx, QWORD PTR this$[rbp]
	mov	rcx, QWORD PTR [rcx+40]
	call	?ImVtxOffsetRef@@YAAEAIPEAUImDrawList@@@Z ; ImVtxOffsetRef
	mov	eax, DWORD PTR [rax]
	imul	rax, rax, 20
	mov	rcx, QWORD PTR tv88[rbp]
	add	rcx, rax
	mov	rax, rcx
	mov	QWORD PTR vertexEnd$[rbp], rax
; Line 503
	mov	rax, QWORD PTR this$[rbp]
	movss	xmm0, DWORD PTR [rax+68]
	ucomiss	xmm0, DWORD PTR __real@3f800000
	jp	SHORT $LN16@LeaveLocal
	je	$LN12@LeaveLocal
$LN16@LeaveLocal:
$LN2@LeaveLocal:
; Line 505
	mov	rax, QWORD PTR vertexEnd$[rbp]
	cmp	QWORD PTR vertex$[rbp], rax
	jae	SHORT $LN3@LeaveLocal
; Line 507
	mov	rax, QWORD PTR vertex$[rbp]
	mov	rcx, QWORD PTR this$[rbp]
	movss	xmm0, DWORD PTR [rax]
	mulss	xmm0, DWORD PTR [rcx+68]
	mov	rax, QWORD PTR this$[rbp]
	addss	xmm0, DWORD PTR [rax+92]
	mov	rax, QWORD PTR vertex$[rbp]
	movss	DWORD PTR [rax], xmm0
; Line 508
	mov	rax, QWORD PTR vertex$[rbp]
	mov	rcx, QWORD PTR this$[rbp]
	movss	xmm0, DWORD PTR [rax+4]
	mulss	xmm0, DWORD PTR [rcx+68]
	mov	rax, QWORD PTR this$[rbp]
	addss	xmm0, DWORD PTR [rax+96]
	mov	rax, QWORD PTR vertex$[rbp]
	movss	DWORD PTR [rax+4], xmm0
; Line 509
	mov	rax, QWORD PTR vertex$[rbp]
	add	rax, 20
	mov	QWORD PTR vertex$[rbp], rax
; Line 510
	jmp	SHORT $LN2@LeaveLocal
$LN3@LeaveLocal:
; Line 513
	mov	rax, QWORD PTR this$[rbp]
	mov	eax, DWORD PTR [rax+52]
	mov	DWORD PTR i$1[rbp], eax
	jmp	SHORT $LN6@LeaveLocal
$LN4@LeaveLocal:
	mov	eax, DWORD PTR i$1[rbp]
	inc	eax
	mov	DWORD PTR i$1[rbp], eax
$LN6@LeaveLocal:
	mov	rax, QWORD PTR this$[rbp]
	mov	rax, QWORD PTR [rax+40]
	mov	rcx, rax
	call	?size@?$ImVector@UImDrawCmd@@@@QEBAHXZ	; ImVector<ImDrawCmd>::size
	cmp	DWORD PTR i$1[rbp], eax
	jge	$LN5@LeaveLocal
; Line 515
	mov	rax, QWORD PTR this$[rbp]
	mov	rax, QWORD PTR [rax+40]
	mov	QWORD PTR tv165[rbp], rax
	mov	edx, DWORD PTR i$1[rbp]
	mov	rcx, QWORD PTR tv165[rbp]
	call	??A?$ImVector@UImDrawCmd@@@@QEAAAEAUImDrawCmd@@H@Z ; ImVector<ImDrawCmd>::operator[]
	mov	QWORD PTR command$2[rbp], rax
; Line 516
	mov	rax, QWORD PTR command$2[rbp]
	mov	rcx, QWORD PTR this$[rbp]
	movss	xmm0, DWORD PTR [rax]
	mulss	xmm0, DWORD PTR [rcx+68]
	mov	rax, QWORD PTR this$[rbp]
	addss	xmm0, DWORD PTR [rax+92]
	mov	rax, QWORD PTR command$2[rbp]
	movss	DWORD PTR [rax], xmm0
; Line 517
	mov	rax, QWORD PTR command$2[rbp]
	mov	rcx, QWORD PTR this$[rbp]
	movss	xmm0, DWORD PTR [rax+4]
	mulss	xmm0, DWORD PTR [rcx+68]
	mov	rax, QWORD PTR this$[rbp]
	addss	xmm0, DWORD PTR [rax+96]
	mov	rax, QWORD PTR command$2[rbp]
	movss	DWORD PTR [rax+4], xmm0
; Line 518
	mov	rax, QWORD PTR command$2[rbp]
	mov	rcx, QWORD PTR this$[rbp]
	movss	xmm0, DWORD PTR [rax+8]
	mulss	xmm0, DWORD PTR [rcx+68]
	mov	rax, QWORD PTR this$[rbp]
	addss	xmm0, DWORD PTR [rax+92]
	mov	rax, QWORD PTR command$2[rbp]
	movss	DWORD PTR [rax+8], xmm0
; Line 519
	mov	rax, QWORD PTR command$2[rbp]
	mov	rcx, QWORD PTR this$[rbp]
	movss	xmm0, DWORD PTR [rax+12]
	mulss	xmm0, DWORD PTR [rcx+68]
	mov	rax, QWORD PTR this$[rbp]
	addss	xmm0, DWORD PTR [rax+96]
	mov	rax, QWORD PTR command$2[rbp]
	movss	DWORD PTR [rax+12], xmm0
; Line 520
	jmp	$LN4@LeaveLocal
$LN5@LeaveLocal:
; Line 521
	jmp	$LN13@LeaveLocal
$LN12@LeaveLocal:
$LN7@LeaveLocal:
; Line 524
	mov	rax, QWORD PTR vertexEnd$[rbp]
	cmp	QWORD PTR vertex$[rbp], rax
	jae	SHORT $LN8@LeaveLocal
; Line 526
	mov	rax, QWORD PTR vertex$[rbp]
	mov	rcx, QWORD PTR this$[rbp]
	movss	xmm0, DWORD PTR [rax]
	addss	xmm0, DWORD PTR [rcx+92]
	mov	rax, QWORD PTR vertex$[rbp]
	movss	DWORD PTR [rax], xmm0
; Line 527
	mov	rax, QWORD PTR vertex$[rbp]
	mov	rcx, QWORD PTR this$[rbp]
	movss	xmm0, DWORD PTR [rax+4]
	addss	xmm0, DWORD PTR [rcx+96]
	mov	rax, QWORD PTR vertex$[rbp]
	movss	DWORD PTR [rax+4], xmm0
; Line 528
	mov	rax, QWORD PTR vertex$[rbp]
	add	rax, 20
	mov	QWORD PTR vertex$[rbp], rax
; Line 529
	jmp	SHORT $LN7@LeaveLocal
$LN8@LeaveLocal:
; Line 532
	mov	rax, QWORD PTR this$[rbp]
	mov	eax, DWORD PTR [rax+52]
	mov	DWORD PTR i$3[rbp], eax
	jmp	SHORT $LN11@LeaveLocal
$LN9@LeaveLocal:
	mov	eax, DWORD PTR i$3[rbp]
	inc	eax
	mov	DWORD PTR i$3[rbp], eax
$LN11@LeaveLocal:
	mov	rax, QWORD PTR this$[rbp]
	mov	rax, QWORD PTR [rax+40]
	mov	rcx, rax
	call	?size@?$ImVector@UImDrawCmd@@@@QEBAHXZ	; ImVector<ImDrawCmd>::size
	cmp	DWORD PTR i$3[rbp], eax
	jge	$LN10@LeaveLocal
; Line 534
	mov	rax, QWORD PTR this$[rbp]
	mov	rax, QWORD PTR [rax+40]
	mov	QWORD PTR tv235[rbp], rax
	mov	edx, DWORD PTR i$3[rbp]
	mov	rcx, QWORD PTR tv235[rbp]
	call	??A?$ImVector@UImDrawCmd@@@@QEAAAEAUImDrawCmd@@H@Z ; ImVector<ImDrawCmd>::operator[]
	mov	QWORD PTR command$4[rbp], rax
; Line 535
	mov	rax, QWORD PTR command$4[rbp]
	mov	rcx, QWORD PTR this$[rbp]
	movss	xmm0, DWORD PTR [rax]
	addss	xmm0, DWORD PTR [rcx+92]
	mov	rax, QWORD PTR command$4[rbp]
	movss	DWORD PTR [rax], xmm0
; Line 536
	mov	rax, QWORD PTR command$4[rbp]
	mov	rcx, QWORD PTR this$[rbp]
	movss	xmm0, DWORD PTR [rax+4]
	addss	xmm0, DWORD PTR [rcx+96]
	mov	rax, QWORD PTR command$4[rbp]
	movss	DWORD PTR [rax+4], xmm0
; Line 537
	mov	rax, QWORD PTR command$4[rbp]
	mov	rcx, QWORD PTR this$[rbp]
	movss	xmm0, DWORD PTR [rax+8]
	addss	xmm0, DWORD PTR [rcx+92]
	mov	rax, QWORD PTR command$4[rbp]
	movss	DWORD PTR [rax+8], xmm0
; Line 538
	mov	rax, QWORD PTR command$4[rbp]
	mov	rcx, QWORD PTR this$[rbp]
	movss	xmm0, DWORD PTR [rax+12]
	addss	xmm0, DWORD PTR [rcx+96]
	mov	rax, QWORD PTR command$4[rbp]
	movss	DWORD PTR [rax+12], xmm0
; Line 539
	jmp	$LN9@LeaveLocal
$LN10@LeaveLocal:
$LN13@LeaveLocal:
; Line 542
	mov	rax, QWORD PTR this$[rbp]
	mov	rcx, QWORD PTR [rax+40]
	call	?ImFringeScaleRef@@YAAEAMPEAUImDrawList@@@Z ; ImFringeScaleRef
	mov	QWORD PTR fringeScale$[rbp], rax
; Line 543
	mov	rax, QWORD PTR fringeScale$[rbp]
	mov	rcx, QWORD PTR this$[rbp]
	movss	xmm0, DWORD PTR [rcx+104]
	movss	DWORD PTR [rax], xmm0
; Line 546
	call	?PopClipRect@ImGui@@YAXXZ		; ImGui::PopClipRect
; Line 548
	mov	rcx, QWORD PTR this$[rbp]
	call	?RestoreInputState@Canvas@ImGuiEx@@AEAAXXZ ; ImGuiEx::Canvas::RestoreInputState
; Line 549
	mov	rcx, QWORD PTR this$[rbp]
	call	?RestoreViewportState@Canvas@ImGuiEx@@AEAAXXZ ; ImGuiEx::Canvas::RestoreViewportState
; Line 550
	lea	rsp, QWORD PTR [rbp+424]
	pop	rdi
	pop	rbp
	ret	0
?LeaveLocalSpace@Canvas@ImGuiEx@@AEAAXXZ ENDP		; ImGuiEx::Canvas::LeaveLocalSpace
_TEXT	ENDS
; Function compile flags: /Odtp /RTCsu /ZI
;	COMDAT ?EnterLocalSpace@Canvas@ImGuiEx@@AEAAXXZ
_TEXT	SEGMENT
clipped_clip_rect$ = 8
io$ = 56
i$4 = 84
fringeScale$ = 120
$T5 = 340
$T6 = 372
$T7 = 404
$T8 = 436
$T9 = 468
$T10 = 500
$T11 = 532
$T12 = 564
$T13 = 596
$T14 = 628
tv244 = 660
tv218 = 660
tv200 = 660
tv263 = 664
tv242 = 664
tv216 = 664
tv198 = 664
tv182 = 664
tv180 = 672
__$ArrayPad$ = 680
this$ = 720
?EnterLocalSpace@Canvas@ImGuiEx@@AEAAXXZ PROC		; ImGuiEx::Canvas::EnterLocalSpace, COMDAT
; File C:\dev\Raisin\Raisin\src\Raisin\imgui\imgui_canvas.cpp
; Line 395
$LN9:
	mov	QWORD PTR [rsp+8], rcx
	push	rbp
	push	rsi
	push	rdi
	sub	rsp, 720				; 000002d0H
	lea	rbp, QWORD PTR [rsp+32]
	lea	rdi, QWORD PTR [rsp+32]
	mov	ecx, 124				; 0000007cH
	mov	eax, -858993460				; ccccccccH
	rep stosd
	mov	rcx, QWORD PTR [rsp+760]
	mov	rax, QWORD PTR __security_cookie
	xor	rax, rbp
	mov	QWORD PTR __$ArrayPad$[rbp], rax
	lea	rcx, OFFSET FLAT:__471578BD_imgui_canvas@cpp
	call	__CheckForDebuggerJustMyCode
; Line 406
	mov	rax, QWORD PTR this$[rbp]
	add	rax, 12
	mov	rcx, QWORD PTR this$[rbp]
	add	rcx, 4
	mov	r8, rax
	mov	rdx, rcx
	lea	rcx, QWORD PTR $T5[rbp]
	call	??H@YA?AUImVec2@@AEBU0@0@Z		; operator+
	mov	rcx, QWORD PTR this$[rbp]
	add	rcx, 4
	mov	r8b, 1
	mov	rdx, rax
	call	?PushClipRect@ImGui@@YAXAEBUImVec2@@0_N@Z ; ImGui::PushClipRect
; Line 407
	mov	rax, QWORD PTR this$[rbp]
	mov	rax, QWORD PTR [rax+40]
	add	rax, 88					; 00000058H
	mov	rcx, rax
	call	?back@?$ImVector@UImVec4@@@@QEAAAEAUImVec4@@XZ ; ImVector<ImVec4>::back
	lea	rcx, QWORD PTR clipped_clip_rect$[rbp]
	mov	rdi, rcx
	mov	rsi, rax
	mov	ecx, 16
	rep movsb
; Line 408
	call	?PopClipRect@ImGui@@YAXXZ		; ImGui::PopClipRect
; Line 423
	mov	rax, QWORD PTR this$[rbp]
	mov	rax, QWORD PTR [rax+40]
	mov	rcx, rax
	call	?empty@?$ImVector@UImDrawCmd@@@@QEBA_NXZ ; ImVector<ImDrawCmd>::empty
	movzx	eax, al
	test	eax, eax
	jne	SHORT $LN7@EnterLocal
	mov	rax, QWORD PTR this$[rbp]
	mov	rax, QWORD PTR [rax+40]
	mov	rcx, rax
	call	?back@?$ImVector@UImDrawCmd@@@@QEAAAEAUImDrawCmd@@XZ ; ImVector<ImDrawCmd>::back
	cmp	DWORD PTR [rax+32], 0
	ja	SHORT $LN6@EnterLocal
$LN7@EnterLocal:
	mov	rax, QWORD PTR this$[rbp]
	mov	rax, QWORD PTR [rax+40]
	cmp	DWORD PTR [rax+172], 1
	jle	SHORT $LN5@EnterLocal
$LN6@EnterLocal:
; Line 424
	mov	rax, QWORD PTR this$[rbp]
	mov	rcx, QWORD PTR [rax+40]
	call	?AddDrawCmd@ImDrawList@@QEAAXXZ		; ImDrawList::AddDrawCmd
$LN5@EnterLocal:
; Line 432
	mov	rax, QWORD PTR this$[rbp]
	mov	rax, QWORD PTR [rax+40]
	mov	eax, DWORD PTR [rax]
	dec	eax
	xor	edx, edx
	mov	ecx, eax
	call	??$ImMax@H@@YAHHH@Z			; ImMax<int>
	mov	rcx, QWORD PTR this$[rbp]
	mov	DWORD PTR [rcx+52], eax
; Line 433
	mov	rax, QWORD PTR this$[rbp]
	mov	rax, QWORD PTR [rax+40]
	mov	QWORD PTR tv263[rbp], rax
	mov	rcx, QWORD PTR this$[rbp]
	mov	rcx, QWORD PTR [rcx+40]
	call	?ImVtxOffsetRef@@YAAEAIPEAUImDrawList@@@Z ; ImVtxOffsetRef
	mov	rcx, QWORD PTR tv263[rbp]
	mov	ecx, DWORD PTR [rcx+52]
	add	ecx, DWORD PTR [rax]
	mov	eax, ecx
	mov	rcx, QWORD PTR this$[rbp]
	mov	DWORD PTR [rcx+56], eax
; Line 461
	mov	rax, QWORD PTR this$[rbp]
	movss	xmm0, DWORD PTR clipped_clip_rect$[rbp]
	subss	xmm0, DWORD PTR [rax+92]
	mov	rax, QWORD PTR this$[rbp]
	mulss	xmm0, DWORD PTR [rax+72]
	movss	DWORD PTR clipped_clip_rect$[rbp], xmm0
; Line 462
	mov	rax, QWORD PTR this$[rbp]
	movss	xmm0, DWORD PTR clipped_clip_rect$[rbp+4]
	subss	xmm0, DWORD PTR [rax+96]
	mov	rax, QWORD PTR this$[rbp]
	mulss	xmm0, DWORD PTR [rax+72]
	movss	DWORD PTR clipped_clip_rect$[rbp+4], xmm0
; Line 463
	mov	rax, QWORD PTR this$[rbp]
	movss	xmm0, DWORD PTR clipped_clip_rect$[rbp+8]
	subss	xmm0, DWORD PTR [rax+92]
	mov	rax, QWORD PTR this$[rbp]
	mulss	xmm0, DWORD PTR [rax+72]
	movss	DWORD PTR clipped_clip_rect$[rbp+8], xmm0
; Line 464
	mov	rax, QWORD PTR this$[rbp]
	movss	xmm0, DWORD PTR clipped_clip_rect$[rbp+12]
	subss	xmm0, DWORD PTR [rax+96]
	mov	rax, QWORD PTR this$[rbp]
	mulss	xmm0, DWORD PTR [rax+72]
	movss	DWORD PTR clipped_clip_rect$[rbp+12], xmm0
; Line 465
	movss	xmm2, DWORD PTR clipped_clip_rect$[rbp+12]
	movss	xmm1, DWORD PTR clipped_clip_rect$[rbp+8]
	lea	rcx, QWORD PTR $T6[rbp]
	call	??0ImVec2@@QEAA@MM@Z			; ImVec2::ImVec2
	mov	QWORD PTR tv182[rbp], rax
	movss	xmm2, DWORD PTR clipped_clip_rect$[rbp+4]
	movss	xmm1, DWORD PTR clipped_clip_rect$[rbp]
	lea	rcx, QWORD PTR $T7[rbp]
	call	??0ImVec2@@QEAA@MM@Z			; ImVec2::ImVec2
	mov	QWORD PTR tv180[rbp], rax
	xor	r8d, r8d
	mov	rdx, QWORD PTR tv182[rbp]
	mov	rcx, QWORD PTR tv180[rbp]
	call	?PushClipRect@ImGui@@YAXAEBUImVec2@@0_N@Z ; ImGui::PushClipRect
; Line 468
	call	?GetIO@ImGui@@YAAEAUImGuiIO@@XZ		; ImGui::GetIO
	mov	QWORD PTR io$[rbp], rax
; Line 469
	mov	rax, QWORD PTR this$[rbp]
	movss	xmm0, DWORD PTR [rax+72]
	movss	DWORD PTR tv200[rbp], xmm0
	mov	rax, QWORD PTR this$[rbp]
	add	rax, 92					; 0000005cH
	mov	rcx, QWORD PTR this$[rbp]
	add	rcx, 108				; 0000006cH
	mov	r8, rax
	mov	rdx, rcx
	lea	rcx, QWORD PTR $T8[rbp]
	call	??G@YA?AUImVec2@@AEBU0@0@Z		; operator-
	mov	QWORD PTR tv198[rbp], rax
	movss	xmm2, DWORD PTR tv200[rbp]
	mov	rdx, QWORD PTR tv198[rbp]
	lea	rcx, QWORD PTR $T9[rbp]
	call	??D@YA?AUImVec2@@AEBU0@M@Z		; operator*
	mov	rax, QWORD PTR [rax]
	mov	rcx, QWORD PTR io$[rbp]
	mov	QWORD PTR [rcx+288], rax
; Line 470
	mov	rax, QWORD PTR this$[rbp]
	movss	xmm0, DWORD PTR [rax+72]
	movss	DWORD PTR tv218[rbp], xmm0
	mov	rax, QWORD PTR this$[rbp]
	add	rax, 92					; 0000005cH
	mov	rcx, QWORD PTR this$[rbp]
	add	rcx, 116				; 00000074H
	mov	r8, rax
	mov	rdx, rcx
	lea	rcx, QWORD PTR $T10[rbp]
	call	??G@YA?AUImVec2@@AEBU0@0@Z		; operator-
	mov	QWORD PTR tv216[rbp], rax
	movss	xmm2, DWORD PTR tv218[rbp]
	mov	rdx, QWORD PTR tv216[rbp]
	lea	rcx, QWORD PTR $T11[rbp]
	call	??D@YA?AUImVec2@@AEBU0@M@Z		; operator*
	mov	rax, QWORD PTR [rax]
	mov	rcx, QWORD PTR io$[rbp]
	mov	QWORD PTR [rcx+956], rax
; Line 471
	mov	DWORD PTR i$4[rbp], 0
	jmp	SHORT $LN4@EnterLocal
$LN2@EnterLocal:
	mov	eax, DWORD PTR i$4[rbp]
	inc	eax
	mov	DWORD PTR i$4[rbp], eax
$LN4@EnterLocal:
	cmp	DWORD PTR i$4[rbp], 5
	jge	SHORT $LN3@EnterLocal
; Line 472
	mov	rax, QWORD PTR this$[rbp]
	movss	xmm0, DWORD PTR [rax+72]
	movss	DWORD PTR tv244[rbp], xmm0
	mov	rax, QWORD PTR this$[rbp]
	add	rax, 92					; 0000005cH
	movsxd	rcx, DWORD PTR i$4[rbp]
	mov	rdx, QWORD PTR this$[rbp]
	lea	rcx, QWORD PTR [rdx+rcx*8+124]
	mov	r8, rax
	mov	rdx, rcx
	lea	rcx, QWORD PTR $T12[rbp]
	call	??G@YA?AUImVec2@@AEBU0@0@Z		; operator-
	mov	QWORD PTR tv242[rbp], rax
	movss	xmm2, DWORD PTR tv244[rbp]
	mov	rdx, QWORD PTR tv242[rbp]
	lea	rcx, QWORD PTR $T13[rbp]
	call	??D@YA?AUImVec2@@AEBU0@M@Z		; operator*
	mov	rax, QWORD PTR [rax]
	movsxd	rcx, DWORD PTR i$4[rbp]
	mov	rdx, QWORD PTR io$[rbp]
	mov	QWORD PTR [rdx+rcx*8+964], rax
	jmp	$LN2@EnterLocal
$LN3@EnterLocal:
; Line 474
	mov	rax, QWORD PTR this$[rbp]
	add	rax, 60					; 0000003cH
	mov	r8, rax
	lea	rdx, QWORD PTR $T14[rbp]
	mov	rcx, QWORD PTR this$[rbp]
	call	?CalcViewRect@Canvas@ImGuiEx@@QEBA?AUImRect@@AEBUCanvasView@2@@Z ; ImGuiEx::Canvas::CalcViewRect
	mov	rcx, QWORD PTR this$[rbp]
	lea	rdi, QWORD PTR [rcx+76]
	mov	rsi, rax
	mov	ecx, 16
	rep movsb
; Line 476
	mov	rax, QWORD PTR this$[rbp]
	mov	rcx, QWORD PTR [rax+40]
	call	?ImFringeScaleRef@@YAAEAMPEAUImDrawList@@@Z ; ImFringeScaleRef
	mov	QWORD PTR fringeScale$[rbp], rax
; Line 477
	mov	rax, QWORD PTR this$[rbp]
	mov	rcx, QWORD PTR fringeScale$[rbp]
	movss	xmm0, DWORD PTR [rcx]
	movss	DWORD PTR [rax+104], xmm0
; Line 478
	mov	rax, QWORD PTR fringeScale$[rbp]
	mov	rcx, QWORD PTR this$[rbp]
	movss	xmm0, DWORD PTR [rax]
	mulss	xmm0, DWORD PTR [rcx+72]
	mov	rax, QWORD PTR fringeScale$[rbp]
	movss	DWORD PTR [rax], xmm0
; Line 479
	lea	rcx, QWORD PTR [rbp-32]
	lea	rdx, OFFSET FLAT:?EnterLocalSpace@Canvas@ImGuiEx@@AEAAXXZ$rtcFrameData
	call	_RTC_CheckStackVars
	mov	rcx, QWORD PTR __$ArrayPad$[rbp]
	xor	rcx, rbp
	call	__security_check_cookie
	lea	rsp, QWORD PTR [rbp+688]
	pop	rdi
	pop	rsi
	pop	rbp
	ret	0
?EnterLocalSpace@Canvas@ImGuiEx@@AEAAXXZ ENDP		; ImGuiEx::Canvas::EnterLocalSpace
_TEXT	ENDS
; Function compile flags: /Odtp /RTCsu /ZI
;	COMDAT ?RestoreViewportState@Canvas@ImGuiEx@@AEAAXXZ
_TEXT	SEGMENT
this$ = 224
?RestoreViewportState@Canvas@ImGuiEx@@AEAAXXZ PROC	; ImGuiEx::Canvas::RestoreViewportState, COMDAT
; File C:\dev\Raisin\Raisin\src\Raisin\imgui\imgui_canvas.cpp
; Line 376
$LN3:
	mov	QWORD PTR [rsp+8], rcx
	push	rbp
	push	rdi
	sub	rsp, 232				; 000000e8H
	lea	rbp, QWORD PTR [rsp+32]
	lea	rcx, OFFSET FLAT:__471578BD_imgui_canvas@cpp
	call	__CheckForDebuggerJustMyCode
; Line 392
	lea	rsp, QWORD PTR [rbp+200]
	pop	rdi
	pop	rbp
	ret	0
?RestoreViewportState@Canvas@ImGuiEx@@AEAAXXZ ENDP	; ImGuiEx::Canvas::RestoreViewportState
_TEXT	ENDS
; Function compile flags: /Odtp /RTCsu /ZI
;	COMDAT ?SaveViewportState@Canvas@ImGuiEx@@AEAAXXZ
_TEXT	SEGMENT
this$ = 224
?SaveViewportState@Canvas@ImGuiEx@@AEAAXXZ PROC		; ImGuiEx::Canvas::SaveViewportState, COMDAT
; File C:\dev\Raisin\Raisin\src\Raisin\imgui\imgui_canvas.cpp
; Line 357
$LN3:
	mov	QWORD PTR [rsp+8], rcx
	push	rbp
	push	rdi
	sub	rsp, 232				; 000000e8H
	lea	rbp, QWORD PTR [rsp+32]
	lea	rcx, OFFSET FLAT:__471578BD_imgui_canvas@cpp
	call	__CheckForDebuggerJustMyCode
; Line 373
	lea	rsp, QWORD PTR [rbp+200]
	pop	rdi
	pop	rbp
	ret	0
?SaveViewportState@Canvas@ImGuiEx@@AEAAXXZ ENDP		; ImGuiEx::Canvas::SaveViewportState
_TEXT	ENDS
; Function compile flags: /Odtp /RTCsu /ZI
;	COMDAT ?RestoreInputState@Canvas@ImGuiEx@@AEAAXXZ
_TEXT	SEGMENT
io$ = 8
i$1 = 36
this$ = 288
?RestoreInputState@Canvas@ImGuiEx@@AEAAXXZ PROC		; ImGuiEx::Canvas::RestoreInputState, COMDAT
; File C:\dev\Raisin\Raisin\src\Raisin\imgui\imgui_canvas.cpp
; Line 348
$LN6:
	mov	QWORD PTR [rsp+8], rcx
	push	rbp
	push	rdi
	sub	rsp, 296				; 00000128H
	lea	rbp, QWORD PTR [rsp+32]
	lea	rcx, OFFSET FLAT:__471578BD_imgui_canvas@cpp
	call	__CheckForDebuggerJustMyCode
; Line 349
	call	?GetIO@ImGui@@YAAEAUImGuiIO@@XZ		; ImGui::GetIO
	mov	QWORD PTR io$[rbp], rax
; Line 350
	mov	rax, QWORD PTR this$[rbp]
	mov	rax, QWORD PTR [rax+108]
	mov	rcx, QWORD PTR io$[rbp]
	mov	QWORD PTR [rcx+288], rax
; Line 351
	mov	rax, QWORD PTR this$[rbp]
	mov	rax, QWORD PTR [rax+116]
	mov	rcx, QWORD PTR io$[rbp]
	mov	QWORD PTR [rcx+956], rax
; Line 352
	mov	DWORD PTR i$1[rbp], 0
	jmp	SHORT $LN4@RestoreInp
$LN2@RestoreInp:
	mov	eax, DWORD PTR i$1[rbp]
	inc	eax
	mov	DWORD PTR i$1[rbp], eax
$LN4@RestoreInp:
	cmp	DWORD PTR i$1[rbp], 5
	jge	SHORT $LN3@RestoreInp
; Line 353
	movsxd	rax, DWORD PTR i$1[rbp]
	mov	rcx, QWORD PTR this$[rbp]
	mov	rax, QWORD PTR [rcx+rax*8+124]
	movsxd	rcx, DWORD PTR i$1[rbp]
	mov	rdx, QWORD PTR io$[rbp]
	mov	QWORD PTR [rdx+rcx*8+964], rax
	jmp	SHORT $LN2@RestoreInp
$LN3@RestoreInp:
; Line 354
	lea	rsp, QWORD PTR [rbp+264]
	pop	rdi
	pop	rbp
	ret	0
?RestoreInputState@Canvas@ImGuiEx@@AEAAXXZ ENDP		; ImGuiEx::Canvas::RestoreInputState
_TEXT	ENDS
; Function compile flags: /Odtp /RTCsu /ZI
;	COMDAT ?SaveInputState@Canvas@ImGuiEx@@AEAAXXZ
_TEXT	SEGMENT
io$ = 8
i$1 = 36
this$ = 288
?SaveInputState@Canvas@ImGuiEx@@AEAAXXZ PROC		; ImGuiEx::Canvas::SaveInputState, COMDAT
; File C:\dev\Raisin\Raisin\src\Raisin\imgui\imgui_canvas.cpp
; Line 339
$LN6:
	mov	QWORD PTR [rsp+8], rcx
	push	rbp
	push	rdi
	sub	rsp, 296				; 00000128H
	lea	rbp, QWORD PTR [rsp+32]
	lea	rcx, OFFSET FLAT:__471578BD_imgui_canvas@cpp
	call	__CheckForDebuggerJustMyCode
; Line 340
	call	?GetIO@ImGui@@YAAEAUImGuiIO@@XZ		; ImGui::GetIO
	mov	QWORD PTR io$[rbp], rax
; Line 341
	mov	rax, QWORD PTR io$[rbp]
	mov	rax, QWORD PTR [rax+288]
	mov	rcx, QWORD PTR this$[rbp]
	mov	QWORD PTR [rcx+108], rax
; Line 342
	mov	rax, QWORD PTR io$[rbp]
	mov	rax, QWORD PTR [rax+956]
	mov	rcx, QWORD PTR this$[rbp]
	mov	QWORD PTR [rcx+116], rax
; Line 343
	mov	DWORD PTR i$1[rbp], 0
	jmp	SHORT $LN4@SaveInputS
$LN2@SaveInputS:
	mov	eax, DWORD PTR i$1[rbp]
	inc	eax
	mov	DWORD PTR i$1[rbp], eax
$LN4@SaveInputS:
	cmp	DWORD PTR i$1[rbp], 5
	jge	SHORT $LN3@SaveInputS
; Line 344
	movsxd	rax, DWORD PTR i$1[rbp]
	mov	rcx, QWORD PTR io$[rbp]
	mov	rax, QWORD PTR [rcx+rax*8+964]
	movsxd	rcx, DWORD PTR i$1[rbp]
	mov	rdx, QWORD PTR this$[rbp]
	mov	QWORD PTR [rdx+rcx*8+124], rax
	jmp	SHORT $LN2@SaveInputS
$LN3@SaveInputS:
; Line 345
	lea	rsp, QWORD PTR [rbp+264]
	pop	rdi
	pop	rbp
	ret	0
?SaveInputState@Canvas@ImGuiEx@@AEAAXXZ ENDP		; ImGuiEx::Canvas::SaveInputState
_TEXT	ENDS
; Function compile flags: /Odtp /RTCsu /ZI
;	COMDAT ?UpdateViewTransformPosition@Canvas@ImGuiEx@@AEAAXXZ
_TEXT	SEGMENT
$T1 = 196
this$ = 256
?UpdateViewTransformPosition@Canvas@ImGuiEx@@AEAAXXZ PROC ; ImGuiEx::Canvas::UpdateViewTransformPosition, COMDAT
; File C:\dev\Raisin\Raisin\src\Raisin\imgui\imgui_canvas.cpp
; Line 334
$LN3:
	mov	QWORD PTR [rsp+8], rcx
	push	rbp
	push	rdi
	sub	rsp, 264				; 00000108H
	lea	rbp, QWORD PTR [rsp+32]
	lea	rcx, OFFSET FLAT:__471578BD_imgui_canvas@cpp
	call	__CheckForDebuggerJustMyCode
; Line 335
	mov	rax, QWORD PTR this$[rbp]
	add	rax, 4
	mov	rcx, QWORD PTR this$[rbp]
	add	rcx, 60					; 0000003cH
	mov	r8, rax
	mov	rdx, rcx
	lea	rcx, QWORD PTR $T1[rbp]
	call	??H@YA?AUImVec2@@AEBU0@0@Z		; operator+
	mov	rax, QWORD PTR [rax]
	mov	rcx, QWORD PTR this$[rbp]
	mov	QWORD PTR [rcx+92], rax
; Line 336
	lea	rsp, QWORD PTR [rbp+232]
	pop	rdi
	pop	rbp
	ret	0
?UpdateViewTransformPosition@Canvas@ImGuiEx@@AEAAXXZ ENDP ; ImGuiEx::Canvas::UpdateViewTransformPosition
_TEXT	ENDS
; Function compile flags: /Odtp /RTCsu /ZI
;	COMDAT ?View@Canvas@ImGuiEx@@QEBAAEBUCanvasView@2@XZ
_TEXT	SEGMENT
this$ = 224
?View@Canvas@ImGuiEx@@QEBAAEBUCanvasView@2@XZ PROC	; ImGuiEx::Canvas::View, COMDAT
; File C:\dev\Raisin\Raisin\src\Raisin\imgui\imgui_canvas.h
; Line 181
$LN3:
	mov	QWORD PTR [rsp+8], rcx
	push	rbp
	push	rdi
	sub	rsp, 232				; 000000e8H
	lea	rbp, QWORD PTR [rsp+32]
	lea	rcx, OFFSET FLAT:__4736261C_imgui_canvas@h
	call	__CheckForDebuggerJustMyCode
	mov	rax, QWORD PTR this$[rbp]
	add	rax, 60					; 0000003cH
	lea	rsp, QWORD PTR [rbp+200]
	pop	rdi
	pop	rbp
	ret	0
?View@Canvas@ImGuiEx@@QEBAAEBUCanvasView@2@XZ ENDP	; ImGuiEx::Canvas::View
_TEXT	ENDS
; Function compile flags: /Odtp /RTCsu /ZI
;	COMDAT ?CalcViewRect@Canvas@ImGuiEx@@QEBA?AUImRect@@AEBUCanvasView@2@@Z
_TEXT	SEGMENT
result$ = 8
$T4 = 244
$T5 = 276
$T6 = 308
$T7 = 340
tv131 = 356
tv83 = 356
tv129 = 360
tv81 = 360
__$ArrayPad$ = 368
this$ = 416
__$ReturnUdt$ = 424
view$ = 432
?CalcViewRect@Canvas@ImGuiEx@@QEBA?AUImRect@@AEBUCanvasView@2@@Z PROC ; ImGuiEx::Canvas::CalcViewRect, COMDAT
; File C:\dev\Raisin\Raisin\src\Raisin\imgui\imgui_canvas.cpp
; Line 326
$LN3:
	mov	QWORD PTR [rsp+24], r8
	mov	QWORD PTR [rsp+16], rdx
	mov	QWORD PTR [rsp+8], rcx
	push	rbp
	push	rsi
	push	rdi
	sub	rsp, 416				; 000001a0H
	lea	rbp, QWORD PTR [rsp+32]
	lea	rdi, QWORD PTR [rsp+32]
	mov	ecx, 48					; 00000030H
	mov	eax, -858993460				; ccccccccH
	rep stosd
	mov	rcx, QWORD PTR [rsp+456]
	mov	rax, QWORD PTR __security_cookie
	xor	rax, rbp
	mov	QWORD PTR __$ArrayPad$[rbp], rax
	lea	rcx, OFFSET FLAT:__471578BD_imgui_canvas@cpp
	call	__CheckForDebuggerJustMyCode
; Line 327
	lea	rcx, QWORD PTR result$[rbp]
	call	??0ImRect@@QEAA@XZ			; ImRect::ImRect
; Line 328
	mov	rax, QWORD PTR view$[rbp]
	movss	xmm0, DWORD PTR [rax+12]
	movss	DWORD PTR tv83[rbp], xmm0
	mov	rax, QWORD PTR view$[rbp]
	movss	xmm0, DWORD PTR [rax+4]
	xorps	xmm0, DWORD PTR __xmm@80000000800000008000000080000000
	mov	rax, QWORD PTR view$[rbp]
	movss	xmm1, DWORD PTR [rax]
	xorps	xmm1, DWORD PTR __xmm@80000000800000008000000080000000
	movaps	xmm2, xmm0
	lea	rcx, QWORD PTR $T4[rbp]
	call	??0ImVec2@@QEAA@MM@Z			; ImVec2::ImVec2
	mov	QWORD PTR tv81[rbp], rax
	movss	xmm2, DWORD PTR tv83[rbp]
	mov	rdx, QWORD PTR tv81[rbp]
	lea	rcx, QWORD PTR $T5[rbp]
	call	??D@YA?AUImVec2@@AEBU0@M@Z		; operator*
	mov	rax, QWORD PTR [rax]
	mov	QWORD PTR result$[rbp], rax
; Line 329
	mov	rax, QWORD PTR view$[rbp]
	movss	xmm0, DWORD PTR [rax+12]
	movss	DWORD PTR tv131[rbp], xmm0
	mov	rax, QWORD PTR view$[rbp]
	mov	rcx, QWORD PTR this$[rbp]
	add	rcx, 12
	mov	r8, rax
	mov	rdx, rcx
	lea	rcx, QWORD PTR $T6[rbp]
	call	??G@YA?AUImVec2@@AEBU0@0@Z		; operator-
	mov	QWORD PTR tv129[rbp], rax
	movss	xmm2, DWORD PTR tv131[rbp]
	mov	rdx, QWORD PTR tv129[rbp]
	lea	rcx, QWORD PTR $T7[rbp]
	call	??D@YA?AUImVec2@@AEBU0@M@Z		; operator*
	mov	rax, QWORD PTR [rax]
	mov	QWORD PTR result$[rbp+8], rax
; Line 330
	lea	rax, QWORD PTR result$[rbp]
	mov	rdi, QWORD PTR __$ReturnUdt$[rbp]
	mov	rsi, rax
	mov	ecx, 16
	rep movsb
	mov	rax, QWORD PTR __$ReturnUdt$[rbp]
; Line 331
	mov	rdi, rax
	lea	rcx, QWORD PTR [rbp-32]
	lea	rdx, OFFSET FLAT:?CalcViewRect@Canvas@ImGuiEx@@QEBA?AUImRect@@AEBUCanvasView@2@@Z$rtcFrameData
	call	_RTC_CheckStackVars
	mov	rax, rdi
	mov	rcx, QWORD PTR __$ArrayPad$[rbp]
	xor	rcx, rbp
	call	__security_check_cookie
	lea	rsp, QWORD PTR [rbp+384]
	pop	rdi
	pop	rsi
	pop	rbp
	ret	0
?CalcViewRect@Canvas@ImGuiEx@@QEBA?AUImRect@@AEBUCanvasView@2@@Z ENDP ; ImGuiEx::Canvas::CalcViewRect
_TEXT	ENDS
; Function compile flags: /Odtp /RTCsu /ZI
;	COMDAT ?ToLocalV@Canvas@ImGuiEx@@QEBA?AUImVec2@@AEBU3@AEBUCanvasView@2@@Z
_TEXT	SEGMENT
this$ = 224
__$ReturnUdt$ = 232
vector$ = 240
view$ = 248
?ToLocalV@Canvas@ImGuiEx@@QEBA?AUImVec2@@AEBU3@AEBUCanvasView@2@@Z PROC ; ImGuiEx::Canvas::ToLocalV, COMDAT
; File C:\dev\Raisin\Raisin\src\Raisin\imgui\imgui_canvas.cpp
; Line 321
$LN3:
	mov	QWORD PTR [rsp+32], r9
	mov	QWORD PTR [rsp+24], r8
	mov	QWORD PTR [rsp+16], rdx
	mov	QWORD PTR [rsp+8], rcx
	push	rbp
	push	rdi
	sub	rsp, 232				; 000000e8H
	lea	rbp, QWORD PTR [rsp+32]
	lea	rcx, OFFSET FLAT:__471578BD_imgui_canvas@cpp
	call	__CheckForDebuggerJustMyCode
; Line 322
	mov	rax, QWORD PTR view$[rbp]
	movss	xmm2, DWORD PTR [rax+12]
	mov	rdx, QWORD PTR vector$[rbp]
	mov	rcx, QWORD PTR __$ReturnUdt$[rbp]
	call	??D@YA?AUImVec2@@AEBU0@M@Z		; operator*
	mov	rax, QWORD PTR __$ReturnUdt$[rbp]
; Line 323
	lea	rsp, QWORD PTR [rbp+200]
	pop	rdi
	pop	rbp
	ret	0
?ToLocalV@Canvas@ImGuiEx@@QEBA?AUImVec2@@AEBU3@AEBUCanvasView@2@@Z ENDP ; ImGuiEx::Canvas::ToLocalV
_TEXT	ENDS
; Function compile flags: /Odtp /RTCsu /ZI
;	COMDAT ?ToLocalV@Canvas@ImGuiEx@@QEBA?AUImVec2@@AEBU3@@Z
_TEXT	SEGMENT
this$ = 224
__$ReturnUdt$ = 232
vector$ = 240
?ToLocalV@Canvas@ImGuiEx@@QEBA?AUImVec2@@AEBU3@@Z PROC	; ImGuiEx::Canvas::ToLocalV, COMDAT
; File C:\dev\Raisin\Raisin\src\Raisin\imgui\imgui_canvas.cpp
; Line 316
$LN3:
	mov	QWORD PTR [rsp+24], r8
	mov	QWORD PTR [rsp+16], rdx
	mov	QWORD PTR [rsp+8], rcx
	push	rbp
	push	rdi
	sub	rsp, 232				; 000000e8H
	lea	rbp, QWORD PTR [rsp+32]
	lea	rcx, OFFSET FLAT:__471578BD_imgui_canvas@cpp
	call	__CheckForDebuggerJustMyCode
; Line 317
	mov	rax, QWORD PTR this$[rbp]
	movss	xmm2, DWORD PTR [rax+72]
	mov	rdx, QWORD PTR vector$[rbp]
	mov	rcx, QWORD PTR __$ReturnUdt$[rbp]
	call	??D@YA?AUImVec2@@AEBU0@M@Z		; operator*
	mov	rax, QWORD PTR __$ReturnUdt$[rbp]
; Line 318
	lea	rsp, QWORD PTR [rbp+200]
	pop	rdi
	pop	rbp
	ret	0
?ToLocalV@Canvas@ImGuiEx@@QEBA?AUImVec2@@AEBU3@@Z ENDP	; ImGuiEx::Canvas::ToLocalV
_TEXT	ENDS
; Function compile flags: /Odtp /RTCsu /ZI
;	COMDAT ?ToLocal@Canvas@ImGuiEx@@QEBA?AUImVec2@@AEBU3@AEBUCanvasView@2@@Z
_TEXT	SEGMENT
$T1 = 196
$T2 = 228
tv82 = 244
tv68 = 248
tv80 = 256
this$ = 304
__$ReturnUdt$ = 312
point$ = 320
view$ = 328
?ToLocal@Canvas@ImGuiEx@@QEBA?AUImVec2@@AEBU3@AEBUCanvasView@2@@Z PROC ; ImGuiEx::Canvas::ToLocal, COMDAT
; File C:\dev\Raisin\Raisin\src\Raisin\imgui\imgui_canvas.cpp
; Line 311
$LN3:
	mov	QWORD PTR [rsp+32], r9
	mov	QWORD PTR [rsp+24], r8
	mov	QWORD PTR [rsp+16], rdx
	mov	QWORD PTR [rsp+8], rcx
	push	rbp
	push	rdi
	sub	rsp, 312				; 00000138H
	lea	rbp, QWORD PTR [rsp+32]
	lea	rcx, OFFSET FLAT:__471578BD_imgui_canvas@cpp
	call	__CheckForDebuggerJustMyCode
; Line 312
	mov	rax, QWORD PTR view$[rbp]
	movss	xmm0, DWORD PTR [rax+12]
	movss	DWORD PTR tv82[rbp], xmm0
	mov	rax, QWORD PTR this$[rbp]
	add	rax, 4
	mov	QWORD PTR tv68[rbp], rax
	mov	rcx, QWORD PTR view$[rbp]
	mov	r8, rcx
	mov	rdx, QWORD PTR point$[rbp]
	lea	rcx, QWORD PTR $T1[rbp]
	call	??G@YA?AUImVec2@@AEBU0@0@Z		; operator-
	mov	rcx, QWORD PTR tv68[rbp]
	mov	r8, rcx
	mov	rdx, rax
	lea	rcx, QWORD PTR $T2[rbp]
	call	??G@YA?AUImVec2@@AEBU0@0@Z		; operator-
	mov	QWORD PTR tv80[rbp], rax
	movss	xmm2, DWORD PTR tv82[rbp]
	mov	rdx, QWORD PTR tv80[rbp]
	mov	rcx, QWORD PTR __$ReturnUdt$[rbp]
	call	??D@YA?AUImVec2@@AEBU0@M@Z		; operator*
	mov	rax, QWORD PTR __$ReturnUdt$[rbp]
; Line 313
	lea	rsp, QWORD PTR [rbp+280]
	pop	rdi
	pop	rbp
	ret	0
?ToLocal@Canvas@ImGuiEx@@QEBA?AUImVec2@@AEBU3@AEBUCanvasView@2@@Z ENDP ; ImGuiEx::Canvas::ToLocal
_TEXT	ENDS
; Function compile flags: /Odtp /RTCsu /ZI
;	COMDAT ?ToLocal@Canvas@ImGuiEx@@QEBA?AUImVec2@@AEBU3@@Z
_TEXT	SEGMENT
$T1 = 196
tv78 = 212
tv76 = 216
this$ = 256
__$ReturnUdt$ = 264
point$ = 272
?ToLocal@Canvas@ImGuiEx@@QEBA?AUImVec2@@AEBU3@@Z PROC	; ImGuiEx::Canvas::ToLocal, COMDAT
; File C:\dev\Raisin\Raisin\src\Raisin\imgui\imgui_canvas.cpp
; Line 306
$LN3:
	mov	QWORD PTR [rsp+24], r8
	mov	QWORD PTR [rsp+16], rdx
	mov	QWORD PTR [rsp+8], rcx
	push	rbp
	push	rdi
	sub	rsp, 264				; 00000108H
	lea	rbp, QWORD PTR [rsp+32]
	lea	rcx, OFFSET FLAT:__471578BD_imgui_canvas@cpp
	call	__CheckForDebuggerJustMyCode
; Line 307
	mov	rax, QWORD PTR this$[rbp]
	movss	xmm0, DWORD PTR [rax+72]
	movss	DWORD PTR tv78[rbp], xmm0
	mov	rax, QWORD PTR this$[rbp]
	add	rax, 92					; 0000005cH
	mov	r8, rax
	mov	rdx, QWORD PTR point$[rbp]
	lea	rcx, QWORD PTR $T1[rbp]
	call	??G@YA?AUImVec2@@AEBU0@0@Z		; operator-
	mov	QWORD PTR tv76[rbp], rax
	movss	xmm2, DWORD PTR tv78[rbp]
	mov	rdx, QWORD PTR tv76[rbp]
	mov	rcx, QWORD PTR __$ReturnUdt$[rbp]
	call	??D@YA?AUImVec2@@AEBU0@M@Z		; operator*
	mov	rax, QWORD PTR __$ReturnUdt$[rbp]
; Line 308
	lea	rsp, QWORD PTR [rbp+232]
	pop	rdi
	pop	rbp
	ret	0
?ToLocal@Canvas@ImGuiEx@@QEBA?AUImVec2@@AEBU3@@Z ENDP	; ImGuiEx::Canvas::ToLocal
_TEXT	ENDS
; Function compile flags: /Odtp /RTCsu /ZI
;	COMDAT ?FromLocalV@Canvas@ImGuiEx@@QEBA?AUImVec2@@AEBU3@AEBUCanvasView@2@@Z
_TEXT	SEGMENT
this$ = 224
__$ReturnUdt$ = 232
vector$ = 240
view$ = 248
?FromLocalV@Canvas@ImGuiEx@@QEBA?AUImVec2@@AEBU3@AEBUCanvasView@2@@Z PROC ; ImGuiEx::Canvas::FromLocalV, COMDAT
; File C:\dev\Raisin\Raisin\src\Raisin\imgui\imgui_canvas.cpp
; Line 301
$LN3:
	mov	QWORD PTR [rsp+32], r9
	mov	QWORD PTR [rsp+24], r8
	mov	QWORD PTR [rsp+16], rdx
	mov	QWORD PTR [rsp+8], rcx
	push	rbp
	push	rdi
	sub	rsp, 232				; 000000e8H
	lea	rbp, QWORD PTR [rsp+32]
	lea	rcx, OFFSET FLAT:__471578BD_imgui_canvas@cpp
	call	__CheckForDebuggerJustMyCode
; Line 302
	mov	rax, QWORD PTR view$[rbp]
	movss	xmm2, DWORD PTR [rax+8]
	mov	rdx, QWORD PTR vector$[rbp]
	mov	rcx, QWORD PTR __$ReturnUdt$[rbp]
	call	??D@YA?AUImVec2@@AEBU0@M@Z		; operator*
	mov	rax, QWORD PTR __$ReturnUdt$[rbp]
; Line 303
	lea	rsp, QWORD PTR [rbp+200]
	pop	rdi
	pop	rbp
	ret	0
?FromLocalV@Canvas@ImGuiEx@@QEBA?AUImVec2@@AEBU3@AEBUCanvasView@2@@Z ENDP ; ImGuiEx::Canvas::FromLocalV
_TEXT	ENDS
; Function compile flags: /Odtp /RTCsu /ZI
;	COMDAT ?FromLocalV@Canvas@ImGuiEx@@QEBA?AUImVec2@@AEBU3@@Z
_TEXT	SEGMENT
this$ = 224
__$ReturnUdt$ = 232
vector$ = 240
?FromLocalV@Canvas@ImGuiEx@@QEBA?AUImVec2@@AEBU3@@Z PROC ; ImGuiEx::Canvas::FromLocalV, COMDAT
; File C:\dev\Raisin\Raisin\src\Raisin\imgui\imgui_canvas.cpp
; Line 296
$LN3:
	mov	QWORD PTR [rsp+24], r8
	mov	QWORD PTR [rsp+16], rdx
	mov	QWORD PTR [rsp+8], rcx
	push	rbp
	push	rdi
	sub	rsp, 232				; 000000e8H
	lea	rbp, QWORD PTR [rsp+32]
	lea	rcx, OFFSET FLAT:__471578BD_imgui_canvas@cpp
	call	__CheckForDebuggerJustMyCode
; Line 297
	mov	rax, QWORD PTR this$[rbp]
	movss	xmm2, DWORD PTR [rax+68]
	mov	rdx, QWORD PTR vector$[rbp]
	mov	rcx, QWORD PTR __$ReturnUdt$[rbp]
	call	??D@YA?AUImVec2@@AEBU0@M@Z		; operator*
	mov	rax, QWORD PTR __$ReturnUdt$[rbp]
; Line 298
	lea	rsp, QWORD PTR [rbp+200]
	pop	rdi
	pop	rbp
	ret	0
?FromLocalV@Canvas@ImGuiEx@@QEBA?AUImVec2@@AEBU3@@Z ENDP ; ImGuiEx::Canvas::FromLocalV
_TEXT	ENDS
; Function compile flags: /Odtp /RTCsu /ZI
;	COMDAT ?FromLocal@Canvas@ImGuiEx@@QEBA?AUImVec2@@AEBU3@AEBUCanvasView@2@@Z
_TEXT	SEGMENT
$T1 = 196
$T2 = 228
tv65 = 248
tv68 = 256
this$ = 304
__$ReturnUdt$ = 312
point$ = 320
view$ = 328
?FromLocal@Canvas@ImGuiEx@@QEBA?AUImVec2@@AEBU3@AEBUCanvasView@2@@Z PROC ; ImGuiEx::Canvas::FromLocal, COMDAT
; File C:\dev\Raisin\Raisin\src\Raisin\imgui\imgui_canvas.cpp
; Line 291
$LN3:
	mov	QWORD PTR [rsp+32], r9
	mov	QWORD PTR [rsp+24], r8
	mov	QWORD PTR [rsp+16], rdx
	mov	QWORD PTR [rsp+8], rcx
	push	rbp
	push	rdi
	sub	rsp, 312				; 00000138H
	lea	rbp, QWORD PTR [rsp+32]
	lea	rcx, OFFSET FLAT:__471578BD_imgui_canvas@cpp
	call	__CheckForDebuggerJustMyCode
; Line 292
	mov	rax, QWORD PTR this$[rbp]
	add	rax, 4
	mov	QWORD PTR tv65[rbp], rax
	mov	rcx, QWORD PTR view$[rbp]
	mov	QWORD PTR tv68[rbp], rcx
	mov	rdx, QWORD PTR view$[rbp]
	movss	xmm2, DWORD PTR [rdx+8]
	mov	rdx, QWORD PTR point$[rbp]
	lea	rcx, QWORD PTR $T1[rbp]
	call	??D@YA?AUImVec2@@AEBU0@M@Z		; operator*
	mov	rcx, QWORD PTR tv68[rbp]
	mov	r8, rcx
	mov	rdx, rax
	lea	rcx, QWORD PTR $T2[rbp]
	call	??H@YA?AUImVec2@@AEBU0@0@Z		; operator+
	mov	rcx, QWORD PTR tv65[rbp]
	mov	r8, rcx
	mov	rdx, rax
	mov	rcx, QWORD PTR __$ReturnUdt$[rbp]
	call	??H@YA?AUImVec2@@AEBU0@0@Z		; operator+
	mov	rax, QWORD PTR __$ReturnUdt$[rbp]
; Line 293
	lea	rsp, QWORD PTR [rbp+280]
	pop	rdi
	pop	rbp
	ret	0
?FromLocal@Canvas@ImGuiEx@@QEBA?AUImVec2@@AEBU3@AEBUCanvasView@2@@Z ENDP ; ImGuiEx::Canvas::FromLocal
_TEXT	ENDS
; Function compile flags: /Odtp /RTCsu /ZI
;	COMDAT ?FromLocal@Canvas@ImGuiEx@@QEBA?AUImVec2@@AEBU3@@Z
_TEXT	SEGMENT
$T1 = 196
tv65 = 216
this$ = 256
__$ReturnUdt$ = 264
point$ = 272
?FromLocal@Canvas@ImGuiEx@@QEBA?AUImVec2@@AEBU3@@Z PROC	; ImGuiEx::Canvas::FromLocal, COMDAT
; File C:\dev\Raisin\Raisin\src\Raisin\imgui\imgui_canvas.cpp
; Line 286
$LN3:
	mov	QWORD PTR [rsp+24], r8
	mov	QWORD PTR [rsp+16], rdx
	mov	QWORD PTR [rsp+8], rcx
	push	rbp
	push	rdi
	sub	rsp, 264				; 00000108H
	lea	rbp, QWORD PTR [rsp+32]
	lea	rcx, OFFSET FLAT:__471578BD_imgui_canvas@cpp
	call	__CheckForDebuggerJustMyCode
; Line 287
	mov	rax, QWORD PTR this$[rbp]
	add	rax, 92					; 0000005cH
	mov	QWORD PTR tv65[rbp], rax
	mov	rcx, QWORD PTR this$[rbp]
	movss	xmm2, DWORD PTR [rcx+68]
	mov	rdx, QWORD PTR point$[rbp]
	lea	rcx, QWORD PTR $T1[rbp]
	call	??D@YA?AUImVec2@@AEBU0@M@Z		; operator*
	mov	rcx, QWORD PTR tv65[rbp]
	mov	r8, rcx
	mov	rdx, rax
	mov	rcx, QWORD PTR __$ReturnUdt$[rbp]
	call	??H@YA?AUImVec2@@AEBU0@0@Z		; operator+
	mov	rax, QWORD PTR __$ReturnUdt$[rbp]
; Line 288
	lea	rsp, QWORD PTR [rbp+232]
	pop	rdi
	pop	rbp
	ret	0
?FromLocal@Canvas@ImGuiEx@@QEBA?AUImVec2@@AEBU3@@Z ENDP	; ImGuiEx::Canvas::FromLocal
_TEXT	ENDS
; Function compile flags: /Odtp /RTCsu /ZI
;	COMDAT ?Resume@Canvas@ImGuiEx@@QEAAXXZ
_TEXT	SEGMENT
tv83 = 192
this$ = 240
?Resume@Canvas@ImGuiEx@@QEAAXXZ PROC			; ImGuiEx::Canvas::Resume, COMDAT
; File C:\dev\Raisin\Raisin\src\Raisin\imgui\imgui_canvas.cpp
; Line 273
$LN6:
	mov	QWORD PTR [rsp+8], rcx
	push	rbp
	push	rdi
	sub	rsp, 248				; 000000f8H
	lea	rbp, QWORD PTR [rsp+32]
	lea	rcx, OFFSET FLAT:__471578BD_imgui_canvas@cpp
	call	__CheckForDebuggerJustMyCode
; Line 277
	mov	rax, QWORD PTR this$[rbp]
	mov	rax, QWORD PTR [rax+40]
	mov	rcx, QWORD PTR this$[rbp]
	mov	ecx, DWORD PTR [rcx+48]
	cmp	DWORD PTR [rax+168], ecx
	je	SHORT $LN4@Resume
	mov	eax, DWORD PTR ?__LINE__Var@?0??Resume@Canvas@ImGuiEx@@QEAAXXZ@4JA
	add	eax, 4
	mov	r8d, eax
	lea	rdx, OFFSET FLAT:??_C@_1GO@LLNCIHL@?$AAC?$AA?3?$AA?2?$AAd?$AAe?$AAv?$AA?2?$AAR?$AAa?$AAi?$AAs?$AAi?$AAn?$AA?2?$AAR@
	lea	rcx, OFFSET FLAT:??_C@_1GI@BEKHJEEK@?$AAm?$AA_?$AAD?$AAr?$AAa?$AAw?$AAL?$AAi?$AAs?$AAt?$AA?9?$AA?$DO?$AA_?$AAS?$AAp@
	call	QWORD PTR __imp__wassert
	xor	eax, eax
$LN4@Resume:
; Line 280
	mov	rax, QWORD PTR this$[rbp]
	cmp	DWORD PTR [rax+100], 0
	jg	SHORT $LN5@Resume
	mov	eax, DWORD PTR ?__LINE__Var@?0??Resume@Canvas@ImGuiEx@@QEAAXXZ@4JA
	add	eax, 7
	mov	r8d, eax
	lea	rdx, OFFSET FLAT:??_C@_1GO@LLNCIHL@?$AAC?$AA?3?$AA?2?$AAd?$AAe?$AAv?$AA?2?$AAR?$AAa?$AAi?$AAs?$AAi?$AAn?$AA?2?$AAR@
	lea	rcx, OFFSET FLAT:??_C@_1CK@NMAIOGBL@?$AAm?$AA_?$AAS?$AAu?$AAs?$AAp?$AAe?$AAn?$AAd?$AAC?$AAo?$AAu?$AAn?$AAt?$AAe@
	call	QWORD PTR __imp__wassert
	xor	eax, eax
$LN5@Resume:
; Line 281
	mov	rax, QWORD PTR this$[rbp]
	mov	eax, DWORD PTR [rax+100]
	dec	eax
	mov	DWORD PTR tv83[rbp], eax
	mov	rax, QWORD PTR this$[rbp]
	mov	ecx, DWORD PTR tv83[rbp]
	mov	DWORD PTR [rax+100], ecx
	cmp	DWORD PTR tv83[rbp], 0
	jne	SHORT $LN2@Resume
; Line 282
	mov	rcx, QWORD PTR this$[rbp]
	call	?EnterLocalSpace@Canvas@ImGuiEx@@AEAAXXZ ; ImGuiEx::Canvas::EnterLocalSpace
$LN2@Resume:
; Line 283
	lea	rsp, QWORD PTR [rbp+216]
	pop	rdi
	pop	rbp
	ret	0
?Resume@Canvas@ImGuiEx@@QEAAXXZ ENDP			; ImGuiEx::Canvas::Resume
_TEXT	ENDS
; Function compile flags: /Odtp /RTCsu /ZI
;	COMDAT ?Suspend@Canvas@ImGuiEx@@QEAAXXZ
_TEXT	SEGMENT
this$ = 224
?Suspend@Canvas@ImGuiEx@@QEAAXXZ PROC			; ImGuiEx::Canvas::Suspend, COMDAT
; File C:\dev\Raisin\Raisin\src\Raisin\imgui\imgui_canvas.cpp
; Line 260
$LN5:
	mov	QWORD PTR [rsp+8], rcx
	push	rbp
	push	rdi
	sub	rsp, 232				; 000000e8H
	lea	rbp, QWORD PTR [rsp+32]
	lea	rcx, OFFSET FLAT:__471578BD_imgui_canvas@cpp
	call	__CheckForDebuggerJustMyCode
; Line 264
	mov	rax, QWORD PTR this$[rbp]
	mov	rax, QWORD PTR [rax+40]
	mov	rcx, QWORD PTR this$[rbp]
	mov	ecx, DWORD PTR [rcx+48]
	cmp	DWORD PTR [rax+168], ecx
	je	SHORT $LN4@Suspend
	mov	eax, DWORD PTR ?__LINE__Var@?0??Suspend@Canvas@ImGuiEx@@QEAAXXZ@4JA
	add	eax, 4
	mov	r8d, eax
	lea	rdx, OFFSET FLAT:??_C@_1GO@LLNCIHL@?$AAC?$AA?3?$AA?2?$AAd?$AAe?$AAv?$AA?2?$AAR?$AAa?$AAi?$AAs?$AAi?$AAn?$AA?2?$AAR@
	lea	rcx, OFFSET FLAT:??_C@_1GI@BEKHJEEK@?$AAm?$AA_?$AAD?$AAr?$AAa?$AAw?$AAL?$AAi?$AAs?$AAt?$AA?9?$AA?$DO?$AA_?$AAS?$AAp@
	call	QWORD PTR __imp__wassert
	xor	eax, eax
$LN4@Suspend:
; Line 266
	mov	rax, QWORD PTR this$[rbp]
	cmp	DWORD PTR [rax+100], 0
	jne	SHORT $LN2@Suspend
; Line 267
	mov	rcx, QWORD PTR this$[rbp]
	call	?LeaveLocalSpace@Canvas@ImGuiEx@@AEAAXXZ ; ImGuiEx::Canvas::LeaveLocalSpace
$LN2@Suspend:
; Line 269
	mov	rax, QWORD PTR this$[rbp]
	mov	eax, DWORD PTR [rax+100]
	inc	eax
	mov	rcx, QWORD PTR this$[rbp]
	mov	DWORD PTR [rcx+100], eax
; Line 270
	lea	rsp, QWORD PTR [rbp+200]
	pop	rdi
	pop	rbp
	ret	0
?Suspend@Canvas@ImGuiEx@@QEAAXXZ ENDP			; ImGuiEx::Canvas::Suspend
_TEXT	ENDS
; Function compile flags: /Odtp /RTCsu /ZI
;	COMDAT ?CalcCenterView@Canvas@ImGuiEx@@QEBA?AUCanvasView@2@AEBUImRect@@@Z
_TEXT	SEGMENT
canvasRectSize$ = 8
widgetAspectRatio$ = 36
canvasRectAspectRatio$ = 68
newOrigin$ = 104
newScale$ = 132
$T5 = 356
$T6 = 388
tv82 = 404
tv79 = 404
__$ArrayPad$ = 408
this$ = 448
__$ReturnUdt$ = 456
canvasRect$ = 464
?CalcCenterView@Canvas@ImGuiEx@@QEBA?AUCanvasView@2@AEBUImRect@@@Z PROC ; ImGuiEx::Canvas::CalcCenterView, COMDAT
; File C:\dev\Raisin\Raisin\src\Raisin\imgui\imgui_canvas.cpp
; Line 227
$LN13:
	mov	QWORD PTR [rsp+24], r8
	mov	QWORD PTR [rsp+16], rdx
	mov	QWORD PTR [rsp+8], rcx
	push	rbp
	push	rsi
	push	rdi
	sub	rsp, 448				; 000001c0H
	lea	rbp, QWORD PTR [rsp+32]
	lea	rdi, QWORD PTR [rsp+32]
	mov	ecx, 56					; 00000038H
	mov	eax, -858993460				; ccccccccH
	rep stosd
	mov	rcx, QWORD PTR [rsp+488]
	mov	rax, QWORD PTR __security_cookie
	xor	rax, rbp
	mov	QWORD PTR __$ArrayPad$[rbp], rax
	lea	rcx, OFFSET FLAT:__471578BD_imgui_canvas@cpp
	call	__CheckForDebuggerJustMyCode
; Line 228
	lea	rdx, QWORD PTR canvasRectSize$[rbp]
	mov	rcx, QWORD PTR canvasRect$[rbp]
	call	?GetSize@ImRect@@QEBA?AUImVec2@@XZ	; ImRect::GetSize
; Line 230
	xorps	xmm0, xmm0
	comiss	xmm0, DWORD PTR canvasRectSize$[rbp]
	jae	SHORT $LN3@CalcCenter
	xorps	xmm0, xmm0
	comiss	xmm0, DWORD PTR canvasRectSize$[rbp+4]
	jb	SHORT $LN2@CalcCenter
$LN3@CalcCenter:
; Line 231
	mov	rcx, QWORD PTR this$[rbp]
	call	?View@Canvas@ImGuiEx@@QEBAAEBUCanvasView@2@XZ ; ImGuiEx::Canvas::View
	mov	rdi, QWORD PTR __$ReturnUdt$[rbp]
	mov	rsi, rax
	mov	ecx, 16
	rep movsb
	mov	rax, QWORD PTR __$ReturnUdt$[rbp]
	jmp	$LN1@CalcCenter
$LN2@CalcCenter:
; Line 233
	mov	rax, QWORD PTR this$[rbp]
	movss	xmm0, DWORD PTR [rax+16]
	comiss	xmm0, DWORD PTR __real@00000000
	jbe	SHORT $LN9@CalcCenter
	mov	rax, QWORD PTR this$[rbp]
	mov	rcx, QWORD PTR this$[rbp]
	movss	xmm0, DWORD PTR [rax+12]
	divss	xmm0, DWORD PTR [rcx+16]
	movss	DWORD PTR tv79[rbp], xmm0
	jmp	SHORT $LN10@CalcCenter
$LN9@CalcCenter:
	xorps	xmm0, xmm0
	movss	DWORD PTR tv79[rbp], xmm0
$LN10@CalcCenter:
	movss	xmm0, DWORD PTR tv79[rbp]
	movss	DWORD PTR widgetAspectRatio$[rbp], xmm0
; Line 234
	movss	xmm0, DWORD PTR canvasRectSize$[rbp+4]
	comiss	xmm0, DWORD PTR __real@00000000
	jbe	SHORT $LN11@CalcCenter
	movss	xmm0, DWORD PTR canvasRectSize$[rbp]
	divss	xmm0, DWORD PTR canvasRectSize$[rbp+4]
	movss	DWORD PTR tv82[rbp], xmm0
	jmp	SHORT $LN12@CalcCenter
$LN11@CalcCenter:
	xorps	xmm0, xmm0
	movss	DWORD PTR tv82[rbp], xmm0
$LN12@CalcCenter:
	movss	xmm0, DWORD PTR tv82[rbp]
	movss	DWORD PTR canvasRectAspectRatio$[rbp], xmm0
; Line 236
	xorps	xmm0, xmm0
	comiss	xmm0, DWORD PTR widgetAspectRatio$[rbp]
	jae	SHORT $LN5@CalcCenter
	xorps	xmm0, xmm0
	comiss	xmm0, DWORD PTR canvasRectAspectRatio$[rbp]
	jb	SHORT $LN4@CalcCenter
$LN5@CalcCenter:
; Line 237
	mov	rcx, QWORD PTR this$[rbp]
	call	?View@Canvas@ImGuiEx@@QEBAAEBUCanvasView@2@XZ ; ImGuiEx::Canvas::View
	mov	rdi, QWORD PTR __$ReturnUdt$[rbp]
	mov	rsi, rax
	mov	ecx, 16
	rep movsb
	mov	rax, QWORD PTR __$ReturnUdt$[rbp]
	jmp	$LN1@CalcCenter
$LN4@CalcCenter:
; Line 239
	mov	rax, QWORD PTR this$[rbp]
	mov	rax, QWORD PTR [rax+60]
	mov	QWORD PTR newOrigin$[rbp], rax
; Line 240
	mov	rax, QWORD PTR this$[rbp]
	movss	xmm0, DWORD PTR [rax+68]
	movss	DWORD PTR newScale$[rbp], xmm0
; Line 241
	movss	xmm0, DWORD PTR canvasRectAspectRatio$[rbp]
	comiss	xmm0, DWORD PTR widgetAspectRatio$[rbp]
	jbe	$LN6@CalcCenter
; Line 244
	mov	rax, QWORD PTR this$[rbp]
	movss	xmm0, DWORD PTR [rax+12]
	divss	xmm0, DWORD PTR canvasRectSize$[rbp]
	movss	DWORD PTR newScale$[rbp], xmm0
; Line 245
	movss	xmm0, DWORD PTR newScale$[rbp]
	xorps	xmm0, DWORD PTR __xmm@80000000800000008000000080000000
	mov	rax, QWORD PTR canvasRect$[rbp]
	movaps	xmm2, xmm0
	mov	rdx, rax
	lea	rcx, QWORD PTR $T5[rbp]
	call	??D@YA?AUImVec2@@AEBU0@M@Z		; operator*
	mov	rax, QWORD PTR [rax]
	mov	QWORD PTR newOrigin$[rbp], rax
; Line 246
	movss	xmm0, DWORD PTR canvasRectSize$[rbp+4]
	mulss	xmm0, DWORD PTR newScale$[rbp]
	mov	rax, QWORD PTR this$[rbp]
	movss	xmm1, DWORD PTR [rax+16]
	subss	xmm1, xmm0
	movaps	xmm0, xmm1
	mulss	xmm0, DWORD PTR __real@3f000000
	movss	xmm1, DWORD PTR newOrigin$[rbp+4]
	addss	xmm1, xmm0
	movaps	xmm0, xmm1
	movss	DWORD PTR newOrigin$[rbp+4], xmm0
; Line 247
	jmp	$LN7@CalcCenter
$LN6@CalcCenter:
; Line 251
	mov	rax, QWORD PTR this$[rbp]
	movss	xmm0, DWORD PTR [rax+16]
	divss	xmm0, DWORD PTR canvasRectSize$[rbp+4]
	movss	DWORD PTR newScale$[rbp], xmm0
; Line 252
	movss	xmm0, DWORD PTR newScale$[rbp]
	xorps	xmm0, DWORD PTR __xmm@80000000800000008000000080000000
	mov	rax, QWORD PTR canvasRect$[rbp]
	movaps	xmm2, xmm0
	mov	rdx, rax
	lea	rcx, QWORD PTR $T6[rbp]
	call	??D@YA?AUImVec2@@AEBU0@M@Z		; operator*
	mov	rax, QWORD PTR [rax]
	mov	QWORD PTR newOrigin$[rbp], rax
; Line 253
	movss	xmm0, DWORD PTR canvasRectSize$[rbp]
	mulss	xmm0, DWORD PTR newScale$[rbp]
	mov	rax, QWORD PTR this$[rbp]
	movss	xmm1, DWORD PTR [rax+12]
	subss	xmm1, xmm0
	movaps	xmm0, xmm1
	mulss	xmm0, DWORD PTR __real@3f000000
	movss	xmm1, DWORD PTR newOrigin$[rbp]
	addss	xmm1, xmm0
	movaps	xmm0, xmm1
	movss	DWORD PTR newOrigin$[rbp], xmm0
$LN7@CalcCenter:
; Line 256
	movss	xmm2, DWORD PTR newScale$[rbp]
	lea	rdx, QWORD PTR newOrigin$[rbp]
	mov	rcx, QWORD PTR __$ReturnUdt$[rbp]
	call	??0CanvasView@ImGuiEx@@QEAA@AEBUImVec2@@M@Z ; ImGuiEx::CanvasView::CanvasView
	mov	rax, QWORD PTR __$ReturnUdt$[rbp]
$LN1@CalcCenter:
; Line 257
	mov	rdi, rax
	lea	rcx, QWORD PTR [rbp-32]
	lea	rdx, OFFSET FLAT:?CalcCenterView@Canvas@ImGuiEx@@QEBA?AUCanvasView@2@AEBUImRect@@@Z$rtcFrameData
	call	_RTC_CheckStackVars
	mov	rax, rdi
	mov	rcx, QWORD PTR __$ArrayPad$[rbp]
	xor	rcx, rbp
	call	__security_check_cookie
	lea	rsp, QWORD PTR [rbp+416]
	pop	rdi
	pop	rsi
	pop	rbp
	ret	0
?CalcCenterView@Canvas@ImGuiEx@@QEBA?AUCanvasView@2@AEBUImRect@@@Z ENDP ; ImGuiEx::Canvas::CalcCenterView
_TEXT	ENDS
; Function compile flags: /Odtp /RTCsu /ZI
;	COMDAT ?CenterView@Canvas@ImGuiEx@@QEAAXAEBUImRect@@@Z
_TEXT	SEGMENT
view$ = 8
__$ArrayPad$ = 232
this$ = 272
canvasRect$ = 280
?CenterView@Canvas@ImGuiEx@@QEAAXAEBUImRect@@@Z PROC	; ImGuiEx::Canvas::CenterView, COMDAT
; File C:\dev\Raisin\Raisin\src\Raisin\imgui\imgui_canvas.cpp
; Line 220
$LN3:
	mov	QWORD PTR [rsp+16], rdx
	mov	QWORD PTR [rsp+8], rcx
	push	rbp
	push	rdi
	sub	rsp, 280				; 00000118H
	lea	rbp, QWORD PTR [rsp+32]
	lea	rdi, QWORD PTR [rsp+32]
	mov	ecx, 14
	mov	eax, -858993460				; ccccccccH
	rep stosd
	mov	rcx, QWORD PTR [rsp+312]
	mov	rax, QWORD PTR __security_cookie
	xor	rax, rbp
	mov	QWORD PTR __$ArrayPad$[rbp], rax
	lea	rcx, OFFSET FLAT:__471578BD_imgui_canvas@cpp
	call	__CheckForDebuggerJustMyCode
; Line 221
	mov	r8, QWORD PTR canvasRect$[rbp]
	lea	rdx, QWORD PTR view$[rbp]
	mov	rcx, QWORD PTR this$[rbp]
	call	?CalcCenterView@Canvas@ImGuiEx@@QEBA?AUCanvasView@2@AEBUImRect@@@Z ; ImGuiEx::Canvas::CalcCenterView
; Line 223
	lea	rdx, QWORD PTR view$[rbp]
	mov	rcx, QWORD PTR this$[rbp]
	call	?SetView@Canvas@ImGuiEx@@QEAAXAEBUCanvasView@2@@Z ; ImGuiEx::Canvas::SetView
; Line 224
	lea	rcx, QWORD PTR [rbp-32]
	lea	rdx, OFFSET FLAT:?CenterView@Canvas@ImGuiEx@@QEAAXAEBUImRect@@@Z$rtcFrameData
	call	_RTC_CheckStackVars
	mov	rcx, QWORD PTR __$ArrayPad$[rbp]
	xor	rcx, rbp
	call	__security_check_cookie
	lea	rsp, QWORD PTR [rbp+248]
	pop	rdi
	pop	rbp
	ret	0
?CenterView@Canvas@ImGuiEx@@QEAAXAEBUImRect@@@Z ENDP	; ImGuiEx::Canvas::CenterView
_TEXT	ENDS
; Function compile flags: /Odtp /RTCsu /ZI
;	COMDAT ?CalcCenterView@Canvas@ImGuiEx@@QEBA?AUCanvasView@2@AEBUImVec2@@@Z
_TEXT	SEGMENT
localCenter$ = 8
localOffset$ = 40
offset$ = 72
$T6 = 292
$T7 = 324
$T8 = 356
tv128 = 376
tv130 = 384
__$ArrayPad$ = 392
this$ = 432
__$ReturnUdt$ = 440
canvasPoint$ = 448
?CalcCenterView@Canvas@ImGuiEx@@QEBA?AUCanvasView@2@AEBUImVec2@@@Z PROC ; ImGuiEx::Canvas::CalcCenterView, COMDAT
; File C:\dev\Raisin\Raisin\src\Raisin\imgui\imgui_canvas.cpp
; Line 211
$LN3:
	mov	QWORD PTR [rsp+24], r8
	mov	QWORD PTR [rsp+16], rdx
	mov	QWORD PTR [rsp+8], rcx
	push	rbp
	push	rdi
	sub	rsp, 440				; 000001b8H
	lea	rbp, QWORD PTR [rsp+32]
	lea	rdi, QWORD PTR [rsp+32]
	mov	ecx, 54					; 00000036H
	mov	eax, -858993460				; ccccccccH
	rep stosd
	mov	rcx, QWORD PTR [rsp+472]
	mov	rax, QWORD PTR __security_cookie
	xor	rax, rbp
	mov	QWORD PTR __$ArrayPad$[rbp], rax
	lea	rcx, OFFSET FLAT:__471578BD_imgui_canvas@cpp
	call	__CheckForDebuggerJustMyCode
; Line 212
	mov	rax, QWORD PTR this$[rbp]
	add	rax, 12
	movss	xmm2, DWORD PTR __real@3f000000
	mov	rdx, rax
	lea	rcx, QWORD PTR $T6[rbp]
	call	??D@YA?AUImVec2@@AEBU0@M@Z		; operator*
	mov	rcx, QWORD PTR this$[rbp]
	add	rcx, 4
	mov	r8, rax
	mov	rdx, rcx
	lea	rcx, QWORD PTR $T7[rbp]
	call	??H@YA?AUImVec2@@AEBU0@0@Z		; operator+
	mov	r8, rax
	lea	rdx, QWORD PTR localCenter$[rbp]
	mov	rcx, QWORD PTR this$[rbp]
	call	?ToLocal@Canvas@ImGuiEx@@QEBA?AUImVec2@@AEBU3@@Z ; ImGuiEx::Canvas::ToLocal
; Line 213
	lea	r8, QWORD PTR localCenter$[rbp]
	mov	rdx, QWORD PTR canvasPoint$[rbp]
	lea	rcx, QWORD PTR localOffset$[rbp]
	call	??G@YA?AUImVec2@@AEBU0@0@Z		; operator-
; Line 214
	lea	r8, QWORD PTR localOffset$[rbp]
	lea	rdx, QWORD PTR offset$[rbp]
	mov	rcx, QWORD PTR this$[rbp]
	call	?FromLocalV@Canvas@ImGuiEx@@QEBA?AUImVec2@@AEBU3@@Z ; ImGuiEx::Canvas::FromLocalV
; Line 216
	mov	rax, QWORD PTR this$[rbp]
	add	rax, 60					; 0000003cH
	lea	r8, QWORD PTR offset$[rbp]
	mov	rdx, rax
	lea	rcx, QWORD PTR $T8[rbp]
	call	??G@YA?AUImVec2@@AEBU0@0@Z		; operator-
	mov	QWORD PTR tv128[rbp], rax
	mov	rax, QWORD PTR this$[rbp]
	movss	xmm0, DWORD PTR [rax+68]
	movss	DWORD PTR tv130[rbp], xmm0
	movss	xmm2, DWORD PTR tv130[rbp]
	mov	rdx, QWORD PTR tv128[rbp]
	mov	rcx, QWORD PTR __$ReturnUdt$[rbp]
	call	??0CanvasView@ImGuiEx@@QEAA@AEBUImVec2@@M@Z ; ImGuiEx::CanvasView::CanvasView
	mov	rax, QWORD PTR __$ReturnUdt$[rbp]
; Line 217
	mov	rdi, rax
	lea	rcx, QWORD PTR [rbp-32]
	lea	rdx, OFFSET FLAT:?CalcCenterView@Canvas@ImGuiEx@@QEBA?AUCanvasView@2@AEBUImVec2@@@Z$rtcFrameData
	call	_RTC_CheckStackVars
	mov	rax, rdi
	mov	rcx, QWORD PTR __$ArrayPad$[rbp]
	xor	rcx, rbp
	call	__security_check_cookie
	lea	rsp, QWORD PTR [rbp+408]
	pop	rdi
	pop	rbp
	ret	0
?CalcCenterView@Canvas@ImGuiEx@@QEBA?AUCanvasView@2@AEBUImVec2@@@Z ENDP ; ImGuiEx::Canvas::CalcCenterView
_TEXT	ENDS
; Function compile flags: /Odtp /RTCsu /ZI
;	COMDAT ?CenterView@Canvas@ImGuiEx@@QEAAXAEBUImVec2@@@Z
_TEXT	SEGMENT
view$ = 8
__$ArrayPad$ = 232
this$ = 272
canvasPoint$ = 280
?CenterView@Canvas@ImGuiEx@@QEAAXAEBUImVec2@@@Z PROC	; ImGuiEx::Canvas::CenterView, COMDAT
; File C:\dev\Raisin\Raisin\src\Raisin\imgui\imgui_canvas.cpp
; Line 205
$LN3:
	mov	QWORD PTR [rsp+16], rdx
	mov	QWORD PTR [rsp+8], rcx
	push	rbp
	push	rdi
	sub	rsp, 280				; 00000118H
	lea	rbp, QWORD PTR [rsp+32]
	lea	rdi, QWORD PTR [rsp+32]
	mov	ecx, 14
	mov	eax, -858993460				; ccccccccH
	rep stosd
	mov	rcx, QWORD PTR [rsp+312]
	mov	rax, QWORD PTR __security_cookie
	xor	rax, rbp
	mov	QWORD PTR __$ArrayPad$[rbp], rax
	lea	rcx, OFFSET FLAT:__471578BD_imgui_canvas@cpp
	call	__CheckForDebuggerJustMyCode
; Line 206
	mov	r8, QWORD PTR canvasPoint$[rbp]
	lea	rdx, QWORD PTR view$[rbp]
	mov	rcx, QWORD PTR this$[rbp]
	call	?CalcCenterView@Canvas@ImGuiEx@@QEBA?AUCanvasView@2@AEBUImVec2@@@Z ; ImGuiEx::Canvas::CalcCenterView
; Line 207
	lea	rdx, QWORD PTR view$[rbp]
	mov	rcx, QWORD PTR this$[rbp]
	call	?SetView@Canvas@ImGuiEx@@QEAAXAEBUCanvasView@2@@Z ; ImGuiEx::Canvas::SetView
; Line 208
	lea	rcx, QWORD PTR [rbp-32]
	lea	rdx, OFFSET FLAT:?CenterView@Canvas@ImGuiEx@@QEAAXAEBUImVec2@@@Z$rtcFrameData
	call	_RTC_CheckStackVars
	mov	rcx, QWORD PTR __$ArrayPad$[rbp]
	xor	rcx, rbp
	call	__security_check_cookie
	lea	rsp, QWORD PTR [rbp+248]
	pop	rdi
	pop	rbp
	ret	0
?CenterView@Canvas@ImGuiEx@@QEAAXAEBUImVec2@@@Z ENDP	; ImGuiEx::Canvas::CenterView
_TEXT	ENDS
; Function compile flags: /Odtp /RTCsu /ZI
;	COMDAT ?SetView@Canvas@ImGuiEx@@QEAAXAEBUCanvasView@2@@Z
_TEXT	SEGMENT
this$ = 224
view$ = 232
?SetView@Canvas@ImGuiEx@@QEAAXAEBUCanvasView@2@@Z PROC	; ImGuiEx::Canvas::SetView, COMDAT
; File C:\dev\Raisin\Raisin\src\Raisin\imgui\imgui_canvas.cpp
; Line 183
$LN10:
	mov	QWORD PTR [rsp+16], rdx
	mov	QWORD PTR [rsp+8], rcx
	push	rbp
	push	rdi
	sub	rsp, 232				; 000000e8H
	lea	rbp, QWORD PTR [rsp+32]
	lea	rcx, OFFSET FLAT:__471578BD_imgui_canvas@cpp
	call	__CheckForDebuggerJustMyCode
; Line 184
	mov	rax, QWORD PTR this$[rbp]
	movzx	eax, BYTE PTR [rax]
	test	eax, eax
	je	SHORT $LN2@SetView
; Line 185
	mov	rcx, QWORD PTR this$[rbp]
	call	?LeaveLocalSpace@Canvas@ImGuiEx@@AEAAXXZ ; ImGuiEx::Canvas::LeaveLocalSpace
$LN2@SetView:
; Line 187
	mov	rax, QWORD PTR this$[rbp]
	mov	rcx, QWORD PTR view$[rbp]
	movss	xmm0, DWORD PTR [rax+60]
	ucomiss	xmm0, DWORD PTR [rcx]
	jp	SHORT $LN4@SetView
	jne	SHORT $LN4@SetView
	mov	rax, QWORD PTR this$[rbp]
	mov	rcx, QWORD PTR view$[rbp]
	movss	xmm0, DWORD PTR [rax+64]
	ucomiss	xmm0, DWORD PTR [rcx+4]
	jp	SHORT $LN9@SetView
	je	SHORT $LN3@SetView
$LN9@SetView:
$LN4@SetView:
; Line 189
	mov	rax, QWORD PTR view$[rbp]
	mov	rax, QWORD PTR [rax]
	mov	rcx, QWORD PTR this$[rbp]
	mov	QWORD PTR [rcx+60], rax
; Line 191
	mov	rcx, QWORD PTR this$[rbp]
	call	?UpdateViewTransformPosition@Canvas@ImGuiEx@@AEAAXXZ ; ImGuiEx::Canvas::UpdateViewTransformPosition
$LN3@SetView:
; Line 194
	mov	rax, QWORD PTR this$[rbp]
	mov	rcx, QWORD PTR view$[rbp]
	movss	xmm0, DWORD PTR [rax+68]
	ucomiss	xmm0, DWORD PTR [rcx+8]
	jp	SHORT $LN8@SetView
	je	SHORT $LN5@SetView
$LN8@SetView:
; Line 196
	mov	rax, QWORD PTR this$[rbp]
	mov	rcx, QWORD PTR view$[rbp]
	movss	xmm0, DWORD PTR [rcx+8]
	movss	DWORD PTR [rax+68], xmm0
; Line 197
	mov	rax, QWORD PTR this$[rbp]
	mov	rcx, QWORD PTR view$[rbp]
	movss	xmm0, DWORD PTR [rcx+12]
	movss	DWORD PTR [rax+72], xmm0
$LN5@SetView:
; Line 200
	mov	rax, QWORD PTR this$[rbp]
	movzx	eax, BYTE PTR [rax]
	test	eax, eax
	je	SHORT $LN6@SetView
; Line 201
	mov	rcx, QWORD PTR this$[rbp]
	call	?EnterLocalSpace@Canvas@ImGuiEx@@AEAAXXZ ; ImGuiEx::Canvas::EnterLocalSpace
$LN6@SetView:
; Line 202
	lea	rsp, QWORD PTR [rbp+200]
	pop	rdi
	pop	rbp
	ret	0
?SetView@Canvas@ImGuiEx@@QEAAXAEBUCanvasView@2@@Z ENDP	; ImGuiEx::Canvas::SetView
_TEXT	ENDS
; Function compile flags: /Odtp /RTCsu /ZI
;	COMDAT ?SetView@Canvas@ImGuiEx@@QEAAXAEBUImVec2@@M@Z
_TEXT	SEGMENT
$T1 = 196
this$ = 272
origin$ = 280
scale$ = 288
?SetView@Canvas@ImGuiEx@@QEAAXAEBUImVec2@@M@Z PROC	; ImGuiEx::Canvas::SetView, COMDAT
; File C:\dev\Raisin\Raisin\src\Raisin\imgui\imgui_canvas.cpp
; Line 178
$LN3:
	movss	DWORD PTR [rsp+24], xmm2
	mov	QWORD PTR [rsp+16], rdx
	mov	QWORD PTR [rsp+8], rcx
	push	rbp
	push	rdi
	sub	rsp, 280				; 00000118H
	lea	rbp, QWORD PTR [rsp+32]
	lea	rcx, OFFSET FLAT:__471578BD_imgui_canvas@cpp
	call	__CheckForDebuggerJustMyCode
; Line 179
	movss	xmm2, DWORD PTR scale$[rbp]
	mov	rdx, QWORD PTR origin$[rbp]
	lea	rcx, QWORD PTR $T1[rbp]
	call	??0CanvasView@ImGuiEx@@QEAA@AEBUImVec2@@M@Z ; ImGuiEx::CanvasView::CanvasView
	mov	rdx, rax
	mov	rcx, QWORD PTR this$[rbp]
	call	?SetView@Canvas@ImGuiEx@@QEAAXAEBUCanvasView@2@@Z ; ImGuiEx::Canvas::SetView
; Line 180
	lea	rsp, QWORD PTR [rbp+248]
	pop	rdi
	pop	rbp
	ret	0
?SetView@Canvas@ImGuiEx@@QEAAXAEBUImVec2@@M@Z ENDP	; ImGuiEx::Canvas::SetView
_TEXT	ENDS
; Function compile flags: /Odtp /RTCsu /ZI
;	COMDAT ?End@Canvas@ImGuiEx@@QEAAXXZ
_TEXT	SEGMENT
$T1 = 200
this$ = 256
?End@Canvas@ImGuiEx@@QEAAXXZ PROC			; ImGuiEx::Canvas::End, COMDAT
; File C:\dev\Raisin\Raisin\src\Raisin\imgui\imgui_canvas.cpp
; Line 146
$LN6:
	mov	QWORD PTR [rsp+8], rcx
	push	rbp
	push	rdi
	sub	rsp, 264				; 00000108H
	lea	rbp, QWORD PTR [rsp+32]
	lea	rcx, OFFSET FLAT:__471578BD_imgui_canvas@cpp
	call	__CheckForDebuggerJustMyCode
; Line 149
	mov	rax, QWORD PTR this$[rbp]
	movzx	eax, BYTE PTR [rax]
	cmp	eax, 1
	je	SHORT $LN3@End
	mov	eax, DWORD PTR ?__LINE__Var@?0??End@Canvas@ImGuiEx@@QEAAXXZ@4JA
	add	eax, 3
	mov	r8d, eax
	lea	rdx, OFFSET FLAT:??_C@_1GO@LLNCIHL@?$AAC?$AA?3?$AA?2?$AAd?$AAe?$AAv?$AA?2?$AAR?$AAa?$AAi?$AAs?$AAi?$AAn?$AA?2?$AAR@
	lea	rcx, OFFSET FLAT:??_C@_1CK@NIBOFJIB@?$AAm?$AA_?$AAI?$AAn?$AAB?$AAe?$AAg?$AAi?$AAn?$AAE?$AAn?$AAd?$AA?5?$AA?$DN?$AA?$DN@
	call	QWORD PTR __imp__wassert
	xor	eax, eax
$LN3@End:
; Line 154
	mov	rax, QWORD PTR this$[rbp]
	mov	rax, QWORD PTR [rax+40]
	mov	rcx, QWORD PTR this$[rbp]
	mov	ecx, DWORD PTR [rcx+48]
	cmp	DWORD PTR [rax+168], ecx
	je	SHORT $LN4@End
	mov	eax, DWORD PTR ?__LINE__Var@?0??End@Canvas@ImGuiEx@@QEAAXXZ@4JA
	add	eax, 8
	mov	r8d, eax
	lea	rdx, OFFSET FLAT:??_C@_1GO@LLNCIHL@?$AAC?$AA?3?$AA?2?$AAd?$AAe?$AAv?$AA?2?$AAR?$AAa?$AAi?$AAs?$AAi?$AAn?$AA?2?$AAR@
	lea	rcx, OFFSET FLAT:??_C@_1GI@BEKHJEEK@?$AAm?$AA_?$AAD?$AAr?$AAa?$AAw?$AAL?$AAi?$AAs?$AAt?$AA?9?$AA?$DO?$AA_?$AAS?$AAp@
	call	QWORD PTR __imp__wassert
	xor	eax, eax
$LN4@End:
; Line 159
	mov	rax, QWORD PTR this$[rbp]
	cmp	DWORD PTR [rax+100], 0
	je	SHORT $LN5@End
	mov	eax, DWORD PTR ?__LINE__Var@?0??End@Canvas@ImGuiEx@@QEAAXXZ@4JA
	add	eax, 13
	mov	r8d, eax
	lea	rdx, OFFSET FLAT:??_C@_1GO@LLNCIHL@?$AAC?$AA?3?$AA?2?$AAd?$AAe?$AAv?$AA?2?$AAR?$AAa?$AAi?$AAs?$AAi?$AAn?$AA?2?$AAR@
	lea	rcx, OFFSET FLAT:??_C@_1CM@BPCLDFBM@?$AAm?$AA_?$AAS?$AAu?$AAs?$AAp?$AAe?$AAn?$AAd?$AAC?$AAo?$AAu?$AAn?$AAt?$AAe@
	call	QWORD PTR __imp__wassert
	xor	eax, eax
$LN5@End:
; Line 161
	mov	rcx, QWORD PTR this$[rbp]
	call	?LeaveLocalSpace@Canvas@ImGuiEx@@AEAAXXZ ; ImGuiEx::Canvas::LeaveLocalSpace
; Line 163
	mov	rax, QWORD PTR this$[rbp]
	mov	rax, QWORD PTR [rax+164]
	mov	QWORD PTR $T1[rbp], rax
	call	?GetCurrentWindow@ImGui@@YAPEAUImGuiWindow@@XZ ; ImGui::GetCurrentWindow
	mov	rcx, QWORD PTR $T1[rbp]
	mov	QWORD PTR [rax+240], rcx
; Line 165
	call	?SetItemAllowOverlap@ImGui@@YAXXZ	; ImGui::SetItemAllowOverlap
; Line 168
	mov	rax, QWORD PTR this$[rbp]
	add	rax, 4
	mov	rcx, rax
	call	?SetCursorScreenPos@ImGui@@YAXAEBUImVec2@@@Z ; ImGui::SetCursorScreenPos
; Line 169
	mov	rax, QWORD PTR this$[rbp]
	add	rax, 12
	mov	rcx, rax
	call	?Dummy@ImGui@@YAXAEBUImVec2@@@Z		; ImGui::Dummy
; Line 174
	mov	rax, QWORD PTR this$[rbp]
	mov	BYTE PTR [rax], 0
; Line 175
	lea	rsp, QWORD PTR [rbp+232]
	pop	rdi
	pop	rbp
	ret	0
?End@Canvas@ImGuiEx@@QEAAXXZ ENDP			; ImGuiEx::Canvas::End
_TEXT	ENDS
; Function compile flags: /Odtp /RTCsu /ZI
;	COMDAT ?Begin@Canvas@ImGuiEx@@QEAA_NIAEBUImVec2@@@Z
_TEXT	SEGMENT
$T1 = 196
$T2 = 228
$T3 = 260
$T4 = 292
$T5 = 340
$T6 = 372
$T7 = 404
$T8 = 436
tv164 = 456
this$ = 496
id$ = 504
size$ = 512
?Begin@Canvas@ImGuiEx@@QEAA_NIAEBUImVec2@@@Z PROC	; ImGuiEx::Canvas::Begin, COMDAT
; File C:\dev\Raisin\Raisin\src\Raisin\imgui\imgui_canvas.cpp
; Line 94
$LN5:
	mov	QWORD PTR [rsp+24], r8
	mov	DWORD PTR [rsp+16], edx
	mov	QWORD PTR [rsp+8], rcx
	push	rbp
	push	rsi
	push	rdi
	sub	rsp, 496				; 000001f0H
	lea	rbp, QWORD PTR [rsp+32]
	lea	rcx, OFFSET FLAT:__471578BD_imgui_canvas@cpp
	call	__CheckForDebuggerJustMyCode
; Line 95
	mov	rax, QWORD PTR this$[rbp]
	movzx	eax, BYTE PTR [rax]
	test	eax, eax
	je	SHORT $LN4@Begin
	mov	eax, DWORD PTR ?__LINE__Var@?0??Begin@Canvas@ImGuiEx@@QEAA_NIAEBUImVec2@@@Z@4JA
	inc	eax
	mov	r8d, eax
	lea	rdx, OFFSET FLAT:??_C@_1GO@LLNCIHL@?$AAC?$AA?3?$AA?2?$AAd?$AAe?$AAv?$AA?2?$AAR?$AAa?$AAi?$AAs?$AAi?$AAn?$AA?2?$AAR@
	lea	rcx, OFFSET FLAT:??_C@_1CM@KGBGBNHL@?$AAm?$AA_?$AAI?$AAn?$AAB?$AAe?$AAg?$AAi?$AAn?$AAE?$AAn?$AAd?$AA?5?$AA?$DN?$AA?$DN@
	call	QWORD PTR __imp__wassert
	xor	eax, eax
$LN4@Begin:
; Line 97
	lea	rcx, QWORD PTR $T1[rbp]
	call	?GetCursorScreenPos@ImGui@@YA?AUImVec2@@XZ ; ImGui::GetCursorScreenPos
	mov	rax, QWORD PTR [rax]
	mov	rcx, QWORD PTR this$[rbp]
	mov	QWORD PTR [rcx+4], rax
; Line 98
	lea	rcx, QWORD PTR $T2[rbp]
	call	?GetContentRegionAvail@ImGui@@YA?AUImVec2@@XZ ; ImGui::GetContentRegionAvail
	mov	r8, rax
	mov	rdx, QWORD PTR size$[rbp]
	lea	rcx, QWORD PTR $T3[rbp]
	call	?ImSelectPositive@@YA?AUImVec2@@AEBU1@0@Z ; ImSelectPositive
	mov	rax, QWORD PTR [rax]
	mov	rcx, QWORD PTR this$[rbp]
	mov	QWORD PTR [rcx+12], rax
; Line 99
	mov	rax, QWORD PTR this$[rbp]
	add	rax, 12
	mov	rcx, QWORD PTR this$[rbp]
	add	rcx, 4
	mov	r8, rax
	mov	rdx, rcx
	lea	rcx, QWORD PTR $T5[rbp]
	call	??H@YA?AUImVec2@@AEBU0@0@Z		; operator+
	mov	rcx, QWORD PTR this$[rbp]
	add	rcx, 4
	mov	r8, rax
	mov	rdx, rcx
	lea	rcx, QWORD PTR $T4[rbp]
	call	??0ImRect@@QEAA@AEBUImVec2@@0@Z		; ImRect::ImRect
	mov	rcx, QWORD PTR this$[rbp]
	lea	rdi, QWORD PTR [rcx+20]
	mov	rsi, rax
	mov	ecx, 16
	rep movsb
; Line 100
	call	?GetWindowDrawList@ImGui@@YAPEAUImDrawList@@XZ ; ImGui::GetWindowDrawList
	mov	rcx, QWORD PTR this$[rbp]
	mov	QWORD PTR [rcx+40], rax
; Line 102
	mov	rcx, QWORD PTR this$[rbp]
	call	?UpdateViewTransformPosition@Canvas@ImGuiEx@@AEAAXXZ ; ImGuiEx::Canvas::UpdateViewTransformPosition
; Line 108
	mov	rax, QWORD PTR this$[rbp]
	add	rax, 20
	xor	r8d, r8d
	mov	edx, DWORD PTR id$[rbp]
	mov	rcx, rax
	call	?IsClippedEx@ImGui@@YA_NAEBUImRect@@I_N@Z ; ImGui::IsClippedEx
	movzx	eax, al
	test	eax, eax
	je	SHORT $LN2@Begin
; Line 109
	xor	al, al
	jmp	$LN1@Begin
$LN2@Begin:
; Line 114
	mov	rax, QWORD PTR this$[rbp]
	mov	rax, QWORD PTR [rax+40]
	mov	rcx, QWORD PTR this$[rbp]
	mov	eax, DWORD PTR [rax+168]
	mov	DWORD PTR [rcx+48], eax
; Line 120
	xorps	xmm2, xmm2
	xorps	xmm1, xmm1
	lea	rcx, QWORD PTR $T6[rbp]
	call	??0ImVec2@@QEAA@MM@Z			; ImVec2::ImVec2
	mov	rcx, rax
	call	?SetCursorScreenPos@ImGui@@YAXAEBUImVec2@@@Z ; ImGui::SetCursorScreenPos
; Line 126
	mov	rcx, QWORD PTR this$[rbp]
	call	?SaveInputState@Canvas@ImGuiEx@@AEAAXXZ	; ImGuiEx::Canvas::SaveInputState
; Line 127
	mov	rcx, QWORD PTR this$[rbp]
	call	?SaveViewportState@Canvas@ImGuiEx@@AEAAXXZ ; ImGuiEx::Canvas::SaveViewportState
; Line 130
	call	?GetCurrentWindow@ImGui@@YAPEAUImGuiWindow@@XZ ; ImGui::GetCurrentWindow
	mov	rax, QWORD PTR [rax+240]
	mov	rcx, QWORD PTR this$[rbp]
	mov	QWORD PTR [rcx+164], rax
; Line 132
	mov	rcx, QWORD PTR this$[rbp]
	call	?EnterLocalSpace@Canvas@ImGuiEx@@AEAAXXZ ; ImGuiEx::Canvas::EnterLocalSpace
; Line 135
	mov	rax, QWORD PTR this$[rbp]
	add	rax, 76					; 0000004cH
	mov	rcx, rax
	call	?SetCursorScreenPos@ImGui@@YAXAEBUImVec2@@@Z ; ImGui::SetCursorScreenPos
; Line 136
	mov	rax, QWORD PTR this$[rbp]
	add	rax, 76					; 0000004cH
	mov	QWORD PTR tv164[rbp], rax
	lea	rdx, QWORD PTR $T7[rbp]
	mov	rcx, QWORD PTR tv164[rbp]
	call	?GetSize@ImRect@@QEBA?AUImVec2@@XZ	; ImRect::GetSize
	mov	rcx, rax
	call	?Dummy@ImGui@@YAXAEBUImVec2@@@Z		; ImGui::Dummy
; Line 138
	xorps	xmm2, xmm2
	xorps	xmm1, xmm1
	lea	rcx, QWORD PTR $T8[rbp]
	call	??0ImVec2@@QEAA@MM@Z			; ImVec2::ImVec2
	mov	rcx, rax
	call	?SetCursorScreenPos@ImGui@@YAXAEBUImVec2@@@Z ; ImGui::SetCursorScreenPos
; Line 140
	mov	rax, QWORD PTR this$[rbp]
	mov	BYTE PTR [rax], 1
; Line 142
	mov	al, 1
$LN1@Begin:
; Line 143
	lea	rsp, QWORD PTR [rbp+464]
	pop	rdi
	pop	rsi
	pop	rbp
	ret	0
?Begin@Canvas@ImGuiEx@@QEAA_NIAEBUImVec2@@@Z ENDP	; ImGuiEx::Canvas::Begin
_TEXT	ENDS
; Function compile flags: /Odtp /RTCsu /ZI
;	COMDAT ?Begin@Canvas@ImGuiEx@@QEAA_NPEBDAEBUImVec2@@@Z
_TEXT	SEGMENT
this$ = 224
id$ = 232
size$ = 240
?Begin@Canvas@ImGuiEx@@QEAA_NPEBDAEBUImVec2@@@Z PROC	; ImGuiEx::Canvas::Begin, COMDAT
; File C:\dev\Raisin\Raisin\src\Raisin\imgui\imgui_canvas.cpp
; Line 89
$LN3:
	mov	QWORD PTR [rsp+24], r8
	mov	QWORD PTR [rsp+16], rdx
	mov	QWORD PTR [rsp+8], rcx
	push	rbp
	push	rdi
	sub	rsp, 232				; 000000e8H
	lea	rbp, QWORD PTR [rsp+32]
	lea	rcx, OFFSET FLAT:__471578BD_imgui_canvas@cpp
	call	__CheckForDebuggerJustMyCode
; Line 90
	mov	rcx, QWORD PTR id$[rbp]
	call	?GetID@ImGui@@YAIPEBD@Z			; ImGui::GetID
	mov	r8, QWORD PTR size$[rbp]
	mov	edx, eax
	mov	rcx, QWORD PTR this$[rbp]
	call	?Begin@Canvas@ImGuiEx@@QEAA_NIAEBUImVec2@@@Z ; ImGuiEx::Canvas::Begin
; Line 91
	lea	rsp, QWORD PTR [rbp+200]
	pop	rdi
	pop	rbp
	ret	0
?Begin@Canvas@ImGuiEx@@QEAA_NPEBDAEBUImVec2@@@Z ENDP	; ImGuiEx::Canvas::Begin
_TEXT	ENDS
; Function compile flags: /Odtp /RTCsu /ZI
;	COMDAT ??0CanvasView@ImGuiEx@@QEAA@AEBUImVec2@@M@Z
_TEXT	SEGMENT
tv70 = 192
this$ = 240
origin$ = 248
scale$ = 256
??0CanvasView@ImGuiEx@@QEAA@AEBUImVec2@@M@Z PROC	; ImGuiEx::CanvasView::CanvasView, COMDAT
; File C:\dev\Raisin\Raisin\src\Raisin\imgui\imgui_canvas.h
; Line 67
$LN6:
	movss	DWORD PTR [rsp+24], xmm2
	mov	QWORD PTR [rsp+16], rdx
	mov	QWORD PTR [rsp+8], rcx
	push	rbp
	push	rdi
	sub	rsp, 248				; 000000f8H
	lea	rbp, QWORD PTR [rsp+32]
	lea	rcx, OFFSET FLAT:__4736261C_imgui_canvas@h
	call	__CheckForDebuggerJustMyCode
; Line 64
	mov	rax, QWORD PTR origin$[rbp]
	mov	rax, QWORD PTR [rax]
	mov	rcx, QWORD PTR this$[rbp]
	mov	QWORD PTR [rcx], rax
; Line 65
	mov	rax, QWORD PTR this$[rbp]
	movss	xmm0, DWORD PTR scale$[rbp]
	movss	DWORD PTR [rax+8], xmm0
; Line 66
	movss	xmm0, DWORD PTR scale$[rbp]
	ucomiss	xmm0, DWORD PTR __real@00000000
	jp	SHORT $LN5@CanvasView
	je	SHORT $LN3@CanvasView
$LN5@CanvasView:
	movss	xmm0, DWORD PTR __real@3f800000
	divss	xmm0, DWORD PTR scale$[rbp]
	movss	DWORD PTR tv70[rbp], xmm0
	jmp	SHORT $LN4@CanvasView
$LN3@CanvasView:
	xorps	xmm0, xmm0
	movss	DWORD PTR tv70[rbp], xmm0
$LN4@CanvasView:
	mov	rax, QWORD PTR this$[rbp]
	movss	xmm0, DWORD PTR tv70[rbp]
	movss	DWORD PTR [rax+12], xmm0
; Line 68
	mov	rax, QWORD PTR this$[rbp]
	lea	rsp, QWORD PTR [rbp+216]
	pop	rdi
	pop	rbp
	ret	0
??0CanvasView@ImGuiEx@@QEAA@AEBUImVec2@@M@Z ENDP	; ImGuiEx::CanvasView::CanvasView
_TEXT	ENDS
; Function compile flags: /Odtp /RTCsu /ZI
;	COMDAT ?GetCurrentWindow@ImGui@@YAPEAUImGuiWindow@@XZ
_TEXT	SEGMENT
g$ = 8
?GetCurrentWindow@ImGui@@YAPEAUImGuiWindow@@XZ PROC	; ImGui::GetCurrentWindow, COMDAT
; File C:\dev\Raisin\Raisin\src\Raisin\imgui\imgui_internal.h
; Line 2317
$LN3:
	push	rbp
	push	rdi
	sub	rsp, 264				; 00000108H
	lea	rbp, QWORD PTR [rsp+32]
	lea	rcx, OFFSET FLAT:__D68E48C9_imgui_internal@h
	call	__CheckForDebuggerJustMyCode
	mov	rax, QWORD PTR ?GImGui@@3PEAUImGuiContext@@EA ; GImGui
	mov	QWORD PTR g$[rbp], rax
	mov	rax, QWORD PTR g$[rbp]
	mov	rax, QWORD PTR [rax+7184]
	mov	BYTE PTR [rax+144], 1
	mov	rax, QWORD PTR g$[rbp]
	mov	rax, QWORD PTR [rax+7184]
	lea	rsp, QWORD PTR [rbp+232]
	pop	rdi
	pop	rbp
	ret	0
?GetCurrentWindow@ImGui@@YAPEAUImGuiWindow@@XZ ENDP	; ImGui::GetCurrentWindow
_TEXT	ENDS
; Function compile flags: /Odtp /ZI
;	COMDAT ?GetSize@ImRect@@QEBA?AUImVec2@@XZ
_TEXT	SEGMENT
this$ = 80
__$ReturnUdt$ = 88
?GetSize@ImRect@@QEBA?AUImVec2@@XZ PROC			; ImRect::GetSize, COMDAT
; File C:\dev\Raisin\Raisin\src\Raisin\imgui\imgui_internal.h
; Line 484
$LN3:
	mov	QWORD PTR [rsp+16], rdx
	mov	QWORD PTR [rsp+8], rcx
	push	rbp
	sub	rsp, 96					; 00000060H
	lea	rbp, QWORD PTR [rsp+32]
	lea	rcx, OFFSET FLAT:__D68E48C9_imgui_internal@h
	call	__CheckForDebuggerJustMyCode
	mov	rax, QWORD PTR this$[rbp]
	mov	rcx, QWORD PTR this$[rbp]
	movss	xmm0, DWORD PTR [rax+12]
	subss	xmm0, DWORD PTR [rcx+4]
	mov	rax, QWORD PTR this$[rbp]
	mov	rcx, QWORD PTR this$[rbp]
	movss	xmm1, DWORD PTR [rax+8]
	subss	xmm1, DWORD PTR [rcx]
	movaps	xmm2, xmm0
	mov	rcx, QWORD PTR __$ReturnUdt$[rbp]
	call	??0ImVec2@@QEAA@MM@Z			; ImVec2::ImVec2
	mov	rax, QWORD PTR __$ReturnUdt$[rbp]
	lea	rsp, QWORD PTR [rbp+64]
	pop	rbp
	ret	0
?GetSize@ImRect@@QEBA?AUImVec2@@XZ ENDP			; ImRect::GetSize
_TEXT	ENDS
; Function compile flags: /Odtp /ZI
;	COMDAT ??0ImRect@@QEAA@AEBUImVec2@@0@Z
_TEXT	SEGMENT
this$ = 80
min$ = 88
max$ = 96
??0ImRect@@QEAA@AEBUImVec2@@0@Z PROC			; ImRect::ImRect, COMDAT
; File C:\dev\Raisin\Raisin\src\Raisin\imgui\imgui_internal.h
; Line 479
$LN3:
	mov	QWORD PTR [rsp+24], r8
	mov	QWORD PTR [rsp+16], rdx
	mov	QWORD PTR [rsp+8], rcx
	push	rbp
	sub	rsp, 96					; 00000060H
	lea	rbp, QWORD PTR [rsp+32]
	lea	rcx, OFFSET FLAT:__D68E48C9_imgui_internal@h
	call	__CheckForDebuggerJustMyCode
	mov	rax, QWORD PTR min$[rbp]
	mov	rax, QWORD PTR [rax]
	mov	rcx, QWORD PTR this$[rbp]
	mov	QWORD PTR [rcx], rax
	mov	rax, QWORD PTR max$[rbp]
	mov	rax, QWORD PTR [rax]
	mov	rcx, QWORD PTR this$[rbp]
	mov	QWORD PTR [rcx+8], rax
	mov	rax, QWORD PTR this$[rbp]
	lea	rsp, QWORD PTR [rbp+64]
	pop	rbp
	ret	0
??0ImRect@@QEAA@AEBUImVec2@@0@Z ENDP			; ImRect::ImRect
_TEXT	ENDS
; Function compile flags: /Odtp /ZI
;	COMDAT ??0ImRect@@QEAA@XZ
_TEXT	SEGMENT
tv76 = 64
tv70 = 64
this$ = 96
??0ImRect@@QEAA@XZ PROC					; ImRect::ImRect, COMDAT
; File C:\dev\Raisin\Raisin\src\Raisin\imgui\imgui_internal.h
; Line 478
$LN3:
	mov	QWORD PTR [rsp+8], rcx
	push	rbp
	sub	rsp, 112				; 00000070H
	lea	rbp, QWORD PTR [rsp+32]
	lea	rcx, OFFSET FLAT:__D68E48C9_imgui_internal@h
	call	__CheckForDebuggerJustMyCode
	mov	rax, QWORD PTR this$[rbp]
	mov	QWORD PTR tv70[rbp], rax
	xorps	xmm2, xmm2
	xorps	xmm1, xmm1
	mov	rcx, QWORD PTR tv70[rbp]
	call	??0ImVec2@@QEAA@MM@Z			; ImVec2::ImVec2
	mov	rax, QWORD PTR this$[rbp]
	add	rax, 8
	mov	QWORD PTR tv76[rbp], rax
	xorps	xmm2, xmm2
	xorps	xmm1, xmm1
	mov	rcx, QWORD PTR tv76[rbp]
	call	??0ImVec2@@QEAA@MM@Z			; ImVec2::ImVec2
	mov	rax, QWORD PTR this$[rbp]
	lea	rsp, QWORD PTR [rbp+80]
	pop	rbp
	ret	0
??0ImRect@@QEAA@XZ ENDP					; ImRect::ImRect
_TEXT	ENDS
; Function compile flags: /Odtp /ZI
;	COMDAT ??G@YA?AUImVec2@@AEBU0@0@Z
_TEXT	SEGMENT
__$ReturnUdt$ = 80
lhs$ = 88
rhs$ = 96
??G@YA?AUImVec2@@AEBU0@0@Z PROC				; operator-, COMDAT
; File C:\dev\Raisin\Raisin\src\Raisin\imgui\imgui_internal.h
; Line 343
	mov	QWORD PTR [rsp+24], r8
	mov	QWORD PTR [rsp+16], rdx
	mov	QWORD PTR [rsp+8], rcx
	push	rbp
	sub	rsp, 96					; 00000060H
	lea	rbp, QWORD PTR [rsp+32]
	lea	rcx, OFFSET FLAT:__D68E48C9_imgui_internal@h
	call	__CheckForDebuggerJustMyCode
	mov	rax, QWORD PTR lhs$[rbp]
	mov	rcx, QWORD PTR rhs$[rbp]
	movss	xmm0, DWORD PTR [rax+4]
	subss	xmm0, DWORD PTR [rcx+4]
	mov	rax, QWORD PTR lhs$[rbp]
	mov	rcx, QWORD PTR rhs$[rbp]
	movss	xmm1, DWORD PTR [rax]
	subss	xmm1, DWORD PTR [rcx]
	movaps	xmm2, xmm0
	mov	rcx, QWORD PTR __$ReturnUdt$[rbp]
	call	??0ImVec2@@QEAA@MM@Z			; ImVec2::ImVec2
	mov	rax, QWORD PTR __$ReturnUdt$[rbp]
	lea	rsp, QWORD PTR [rbp+64]
	pop	rbp
	ret	0
??G@YA?AUImVec2@@AEBU0@0@Z ENDP				; operator-
_TEXT	ENDS
; Function compile flags: /Odtp /ZI
;	COMDAT ??H@YA?AUImVec2@@AEBU0@0@Z
_TEXT	SEGMENT
__$ReturnUdt$ = 80
lhs$ = 88
rhs$ = 96
??H@YA?AUImVec2@@AEBU0@0@Z PROC				; operator+, COMDAT
; File C:\dev\Raisin\Raisin\src\Raisin\imgui\imgui_internal.h
; Line 342
	mov	QWORD PTR [rsp+24], r8
	mov	QWORD PTR [rsp+16], rdx
	mov	QWORD PTR [rsp+8], rcx
	push	rbp
	sub	rsp, 96					; 00000060H
	lea	rbp, QWORD PTR [rsp+32]
	lea	rcx, OFFSET FLAT:__D68E48C9_imgui_internal@h
	call	__CheckForDebuggerJustMyCode
	mov	rax, QWORD PTR lhs$[rbp]
	mov	rcx, QWORD PTR rhs$[rbp]
	movss	xmm0, DWORD PTR [rax+4]
	addss	xmm0, DWORD PTR [rcx+4]
	mov	rax, QWORD PTR lhs$[rbp]
	mov	rcx, QWORD PTR rhs$[rbp]
	movss	xmm1, DWORD PTR [rax]
	addss	xmm1, DWORD PTR [rcx]
	movaps	xmm2, xmm0
	mov	rcx, QWORD PTR __$ReturnUdt$[rbp]
	call	??0ImVec2@@QEAA@MM@Z			; ImVec2::ImVec2
	mov	rax, QWORD PTR __$ReturnUdt$[rbp]
	lea	rsp, QWORD PTR [rbp+64]
	pop	rbp
	ret	0
??H@YA?AUImVec2@@AEBU0@0@Z ENDP				; operator+
_TEXT	ENDS
; Function compile flags: /Odtp /ZI
;	COMDAT ??D@YA?AUImVec2@@AEBU0@M@Z
_TEXT	SEGMENT
__$ReturnUdt$ = 80
lhs$ = 88
rhs$ = 96
??D@YA?AUImVec2@@AEBU0@M@Z PROC				; operator*, COMDAT
; File C:\dev\Raisin\Raisin\src\Raisin\imgui\imgui_internal.h
; Line 340
	movss	DWORD PTR [rsp+24], xmm2
	mov	QWORD PTR [rsp+16], rdx
	mov	QWORD PTR [rsp+8], rcx
	push	rbp
	sub	rsp, 96					; 00000060H
	lea	rbp, QWORD PTR [rsp+32]
	lea	rcx, OFFSET FLAT:__D68E48C9_imgui_internal@h
	call	__CheckForDebuggerJustMyCode
	mov	rax, QWORD PTR lhs$[rbp]
	movss	xmm0, DWORD PTR [rax+4]
	mulss	xmm0, DWORD PTR rhs$[rbp]
	mov	rax, QWORD PTR lhs$[rbp]
	movss	xmm1, DWORD PTR [rax]
	mulss	xmm1, DWORD PTR rhs$[rbp]
	movaps	xmm2, xmm0
	mov	rcx, QWORD PTR __$ReturnUdt$[rbp]
	call	??0ImVec2@@QEAA@MM@Z			; ImVec2::ImVec2
	mov	rax, QWORD PTR __$ReturnUdt$[rbp]
	lea	rsp, QWORD PTR [rbp+64]
	pop	rbp
	ret	0
??D@YA?AUImVec2@@AEBU0@M@Z ENDP				; operator*
_TEXT	ENDS
; Function compile flags: /Odtp /RTCsu /ZI
;	COMDAT ?back@?$ImVector@UImVec4@@@@QEAAAEAUImVec4@@XZ
_TEXT	SEGMENT
this$ = 224
?back@?$ImVector@UImVec4@@@@QEAAAEAUImVec4@@XZ PROC	; ImVector<ImVec4>::back, COMDAT
; File C:\dev\Raisin\Raisin\src\Raisin\imgui\imgui.h
; Line 1703
$LN4:
	mov	QWORD PTR [rsp+8], rcx
	push	rbp
	push	rdi
	sub	rsp, 232				; 000000e8H
	lea	rbp, QWORD PTR [rsp+32]
	lea	rcx, OFFSET FLAT:__21D911DF_imgui@h
	call	__CheckForDebuggerJustMyCode
	mov	rax, QWORD PTR this$[rbp]
	cmp	DWORD PTR [rax], 0
	jg	SHORT $LN3@back
	mov	r8d, 1703				; 000006a7H
	lea	rdx, OFFSET FLAT:??_C@_1FM@JNPAKPFE@?$AAC?$AA?3?$AA?2?$AAd?$AAe?$AAv?$AA?2?$AAR?$AAa?$AAi?$AAs?$AAi?$AAn?$AA?2?$AAR@
	lea	rcx, OFFSET FLAT:??_C@_1BC@KCECIPDP@?$AAS?$AAi?$AAz?$AAe?$AA?5?$AA?$DO?$AA?5?$AA0@
	call	QWORD PTR __imp__wassert
	xor	eax, eax
$LN3@back:
	mov	rax, QWORD PTR this$[rbp]
	mov	eax, DWORD PTR [rax]
	dec	eax
	cdqe
	imul	rax, rax, 16
	mov	rcx, QWORD PTR this$[rbp]
	add	rax, QWORD PTR [rcx+8]
	lea	rsp, QWORD PTR [rbp+200]
	pop	rdi
	pop	rbp
	ret	0
?back@?$ImVector@UImVec4@@@@QEAAAEAUImVec4@@XZ ENDP	; ImVector<ImVec4>::back
_TEXT	ENDS
; Function compile flags: /Odtp /RTCsu /ZI
;	COMDAT ?back@?$ImVector@UImDrawCmd@@@@QEAAAEAUImDrawCmd@@XZ
_TEXT	SEGMENT
this$ = 224
?back@?$ImVector@UImDrawCmd@@@@QEAAAEAUImDrawCmd@@XZ PROC ; ImVector<ImDrawCmd>::back, COMDAT
; File C:\dev\Raisin\Raisin\src\Raisin\imgui\imgui.h
; Line 1703
$LN4:
	mov	QWORD PTR [rsp+8], rcx
	push	rbp
	push	rdi
	sub	rsp, 232				; 000000e8H
	lea	rbp, QWORD PTR [rsp+32]
	lea	rcx, OFFSET FLAT:__21D911DF_imgui@h
	call	__CheckForDebuggerJustMyCode
	mov	rax, QWORD PTR this$[rbp]
	cmp	DWORD PTR [rax], 0
	jg	SHORT $LN3@back
	mov	r8d, 1703				; 000006a7H
	lea	rdx, OFFSET FLAT:??_C@_1FM@JNPAKPFE@?$AAC?$AA?3?$AA?2?$AAd?$AAe?$AAv?$AA?2?$AAR?$AAa?$AAi?$AAs?$AAi?$AAn?$AA?2?$AAR@
	lea	rcx, OFFSET FLAT:??_C@_1BC@KCECIPDP@?$AAS?$AAi?$AAz?$AAe?$AA?5?$AA?$DO?$AA?5?$AA0@
	call	QWORD PTR __imp__wassert
	xor	eax, eax
$LN3@back:
	mov	rax, QWORD PTR this$[rbp]
	mov	eax, DWORD PTR [rax]
	dec	eax
	cdqe
	imul	rax, rax, 56				; 00000038H
	mov	rcx, QWORD PTR this$[rbp]
	add	rax, QWORD PTR [rcx+8]
	lea	rsp, QWORD PTR [rbp+200]
	pop	rdi
	pop	rbp
	ret	0
?back@?$ImVector@UImDrawCmd@@@@QEAAAEAUImDrawCmd@@XZ ENDP ; ImVector<ImDrawCmd>::back
_TEXT	ENDS
; Function compile flags: /Odtp /RTCsu /ZI
;	COMDAT ??A?$ImVector@UImDrawCmd@@@@QEAAAEAUImDrawCmd@@H@Z
_TEXT	SEGMENT
this$ = 224
i$ = 232
??A?$ImVector@UImDrawCmd@@@@QEAAAEAUImDrawCmd@@H@Z PROC	; ImVector<ImDrawCmd>::operator[], COMDAT
; File C:\dev\Raisin\Raisin\src\Raisin\imgui\imgui.h
; Line 1694
$LN5:
	mov	DWORD PTR [rsp+16], edx
	mov	QWORD PTR [rsp+8], rcx
	push	rbp
	push	rdi
	sub	rsp, 232				; 000000e8H
	lea	rbp, QWORD PTR [rsp+32]
	lea	rcx, OFFSET FLAT:__21D911DF_imgui@h
	call	__CheckForDebuggerJustMyCode
	cmp	DWORD PTR i$[rbp], 0
	jl	SHORT $LN3@operator
	mov	rax, QWORD PTR this$[rbp]
	mov	eax, DWORD PTR [rax]
	cmp	DWORD PTR i$[rbp], eax
	jl	SHORT $LN4@operator
$LN3@operator:
	mov	r8d, 1694				; 0000069eH
	lea	rdx, OFFSET FLAT:??_C@_1FM@JNPAKPFE@?$AAC?$AA?3?$AA?2?$AAd?$AAe?$AAv?$AA?2?$AAR?$AAa?$AAi?$AAs?$AAi?$AAn?$AA?2?$AAR@
	lea	rcx, OFFSET FLAT:??_C@_1CG@GPMNJCJ@?$AAi?$AA?5?$AA?$DO?$AA?$DN?$AA?5?$AA0?$AA?5?$AA?$CG?$AA?$CG?$AA?5?$AAi?$AA?5?$AA?$DM?$AA?5?$AAS@
	call	QWORD PTR __imp__wassert
	xor	eax, eax
$LN4@operator:
	movsxd	rax, DWORD PTR i$[rbp]
	imul	rax, rax, 56				; 00000038H
	mov	rcx, QWORD PTR this$[rbp]
	add	rax, QWORD PTR [rcx+8]
	lea	rsp, QWORD PTR [rbp+200]
	pop	rdi
	pop	rbp
	ret	0
??A?$ImVector@UImDrawCmd@@@@QEAAAEAUImDrawCmd@@H@Z ENDP	; ImVector<ImDrawCmd>::operator[]
_TEXT	ENDS
; Function compile flags: /Odtp /RTCsu /ZI
;	COMDAT ?size@?$ImVector@UImDrawCmd@@@@QEBAHXZ
_TEXT	SEGMENT
this$ = 224
?size@?$ImVector@UImDrawCmd@@@@QEBAHXZ PROC		; ImVector<ImDrawCmd>::size, COMDAT
; File C:\dev\Raisin\Raisin\src\Raisin\imgui\imgui.h
; Line 1690
$LN3:
	mov	QWORD PTR [rsp+8], rcx
	push	rbp
	push	rdi
	sub	rsp, 232				; 000000e8H
	lea	rbp, QWORD PTR [rsp+32]
	lea	rcx, OFFSET FLAT:__21D911DF_imgui@h
	call	__CheckForDebuggerJustMyCode
	mov	rax, QWORD PTR this$[rbp]
	mov	eax, DWORD PTR [rax]
	lea	rsp, QWORD PTR [rbp+200]
	pop	rdi
	pop	rbp
	ret	0
?size@?$ImVector@UImDrawCmd@@@@QEBAHXZ ENDP		; ImVector<ImDrawCmd>::size
_TEXT	ENDS
; Function compile flags: /Odtp /RTCsu /ZI
;	COMDAT ?empty@?$ImVector@UImDrawCmd@@@@QEBA_NXZ
_TEXT	SEGMENT
tv66 = 192
this$ = 240
?empty@?$ImVector@UImDrawCmd@@@@QEBA_NXZ PROC		; ImVector<ImDrawCmd>::empty, COMDAT
; File C:\dev\Raisin\Raisin\src\Raisin\imgui\imgui.h
; Line 1689
$LN5:
	mov	QWORD PTR [rsp+8], rcx
	push	rbp
	push	rdi
	sub	rsp, 248				; 000000f8H
	lea	rbp, QWORD PTR [rsp+32]
	lea	rcx, OFFSET FLAT:__21D911DF_imgui@h
	call	__CheckForDebuggerJustMyCode
	mov	rax, QWORD PTR this$[rbp]
	cmp	DWORD PTR [rax], 0
	jne	SHORT $LN3@empty
	mov	DWORD PTR tv66[rbp], 1
	jmp	SHORT $LN4@empty
$LN3@empty:
	mov	DWORD PTR tv66[rbp], 0
$LN4@empty:
	movzx	eax, BYTE PTR tv66[rbp]
	lea	rsp, QWORD PTR [rbp+216]
	pop	rdi
	pop	rbp
	ret	0
?empty@?$ImVector@UImDrawCmd@@@@QEBA_NXZ ENDP		; ImVector<ImDrawCmd>::empty
_TEXT	ENDS
; Function compile flags: /Odtp /ZI
;	COMDAT ??0ImVec2@@QEAA@MM@Z
_TEXT	SEGMENT
this$ = 80
_x$ = 88
_y$ = 96
??0ImVec2@@QEAA@MM@Z PROC				; ImVec2::ImVec2, COMDAT
; File C:\dev\Raisin\Raisin\src\Raisin\imgui\imgui.h
; Line 248
$LN3:
	movss	DWORD PTR [rsp+24], xmm2
	movss	DWORD PTR [rsp+16], xmm1
	mov	QWORD PTR [rsp+8], rcx
	push	rbp
	sub	rsp, 96					; 00000060H
	lea	rbp, QWORD PTR [rsp+32]
	lea	rcx, OFFSET FLAT:__21D911DF_imgui@h
	call	__CheckForDebuggerJustMyCode
	mov	rax, QWORD PTR this$[rbp]
	movss	xmm0, DWORD PTR _x$[rbp]
	movss	DWORD PTR [rax], xmm0
	mov	rax, QWORD PTR this$[rbp]
	movss	xmm0, DWORD PTR _y$[rbp]
	movss	DWORD PTR [rax+4], xmm0
	mov	rax, QWORD PTR this$[rbp]
	lea	rsp, QWORD PTR [rbp+64]
	pop	rbp
	ret	0
??0ImVec2@@QEAA@MM@Z ENDP				; ImVec2::ImVec2
_TEXT	ENDS
END
