; Listing generated by Microsoft (R) Optimizing Compiler Version 19.33.31630.0 

include listing.inc

INCLUDELIB MSVCRTD
INCLUDELIB OLDNAMES

msvcjmc	SEGMENT
__A52B8F80_imconfig@h DB 01H
__529D0EAA_concurrencysal@h DB 01H
__7EC34687_sal@h DB 01H
__35A2D2DF_vadefs@h DB 01H
__5F022EB5_vcruntime@h DB 01H
__1B0272D9_corecrt@h DB 01H
__B9985323_float@h DB 01H
__79700276_stdarg@h DB 01H
__13F5961F_stddef@h DB 01H
__61CC25A1_errno@h DB 01H
__74AC4223_vcruntime_string@h DB 01H
__E4C945B4_corecrt_memcpy_s@h DB 01H
__8EAFF484_corecrt_memory@h DB 01H
__6490AEC5_corecrt_wstring@h DB 01H
__E8295E1E_string@h DB 01H
__19139D6C_assert@h DB 01H
__21D911DF_imgui@h DB 01H
__44420885_corecrt_stdio_config@h DB 01H
__AB601D8D_corecrt_wstdio@h DB 01H
__C1EC35D3_stdio@h DB 01H
__45DED006_corecrt_malloc@h DB 01H
__FD6DBD68_corecrt_search@h DB 01H
__E2E33A61_corecrt_wstdlib@h DB 01H
__F3D99286_limits@h DB 01H
__6E5ACABA_stdlib@h DB 01H
__BB16330F_corecrt_math@h DB 01H
__3BF2A406_math@h DB 01H
__F75BE1FA_mmintrin@h DB 01H
__FA77ED4C_malloc@h DB 01H
__DFD742E1_xmmintrin@h DB 01H
__BAB5CB2D_emmintrin@h DB 01H
__6514A3A4_pmmintrin@h DB 01H
__D5CDD026_tmmintrin@h DB 01H
__FCF6C5A5_smmintrin@h DB 01H
__99944C69_nmmintrin@h DB 01H
__4C2FB627_wmmintrin@h DB 01H
__87BBFB20_zmmintrin@h DB 01H
__B0AF59EA_immintrin@h DB 01H
__40756020_imstb_textedit@h DB 01H
__D68E48C9_imgui_internal@h DB 01H
__8F86256B_imstb_rectpack@h DB 01H
__B2779E6C_imstb_truetype@h DB 01H
__3FF631A4_imgui_draw@cpp DB 01H
msvcjmc	ENDS
CONST	SEGMENT
?FONT_ATLAS_DEFAULT_TEX_DATA_PIXELS@@3QBDB DB '..-         -XXXXXXX-    X'
	DB	'    -           X           -XXXXXXX          -          XXXX'
	DB	'XXX-     XX          ..-         -X.....X-   X.X   -         '
	DB	' X.X          -X.....X          -          X.....X-    X..X  '
	DB	'       ---         -XXX.XXX-  X...X  -         X...X         '
	DB	'-X....X           -           X....X-    X..X         X      '
	DB	'     -  X.X  - X.....X -        X.....X        -X...X        '
	DB	'    -            X...X-    X..X         XX          -  X.X  -'
	DB	'X.......X-       X.......X       -X..X.X           -         '
	DB	'  X.X..X-    X..X         X.X         -  X.X  -XXXX.XXXX-    '
	DB	'   XXXX.XXXX       -X.X X.X          -          X.X X.X-    X'
	DB	'..XXX       X..X        -  X.X  -   X.X   -          X.X     '
	DB	'     -XX   X.X         -         X.X   XX-    X..X..XXX    X.'
	DB	'..X       -  X.X  -   X.X   -    XX    X.X    XX    -      X.'
	DB	'X        -        X.X      -    X..X..X..XX  X....X      -  X'
	DB	'.X  -   X.X   -   X.X    X.X    X.X   -       X.X       -    '
	DB	'   X.X       -    X..X..X..X.X X.....X     -  X.X  -   X.X   '
	DB	'-  X..X    X.X    X..X  -        X.X      -      X.X        -'
	DB	'XXX X..X..X..X..XX......X    -  X.X  -   X.X   - X...XXXXXX.X'
	DB	'XXXXX...X -         X.X   XX-XX   X.X         -X..XX........X'
	DB	'..XX.......X   -  X.X  -   X.X   -X.....................X-   '
	DB	'       X.X X.X-X.X X.X          -X...X...........XX........X '
	DB	' -  X.X  -   X.X   - X...XXXXXX.XXXXXX...X -           X.X..X'
	DB	'-X..X.X           - X..............XX.........X -XXX.XXX-   X'
	DB	'.X   -  X..X    X.X    X..X  -            X...X-X...X        '
	DB	'    -  X.............XX..........X-X.....X-   X.X   -   X.X  '
	DB	'  X.X    X.X   -           X....X-X....X           -  X......'
	DB	'.......XX......XXXXX-XXXXXXX-   X.X   -    XX    X.X    XX   '
	DB	' -          X.....X-X.....X          -   X............XX...X.'
	DB	'.X    ---------   X.X   -          X.X          -          XX'
	DB	'XXXXX-XXXXXXX          -   X...........X X..X X..X   -       '
	DB	'-XXXX.XXXX-       XXXX.XXXX       ---------------------------'
	DB	'----------    X..........X X.X  X..X   -       -X.......X-   '
	DB	'    X.......X       -    XX           XX    -           -    '
	DB	'X..........X XX    X..X  -       - X.....X -        X.....X  '
	DB	'      -   X.X           X.X   -           -     X........X   '
	DB	'     X..X          -  X...X  -         X...X         -  X..X '
	DB	'          X..X  -           -     X........X         XX      '
	DB	'     -   X.X   -          X.X          - X...XXXXXXXXXXXXX...'
	DB	'X -           -     XXXXXXXXXX  ------------        -    X   '
	DB	' -           X           -X.....................X-           '
	DB	'------------------                    -----------------------'
	DB	'------------ X...XXXXXXXXXXXXX...X -                         '
	DB	'                                                          -  '
	DB	'X..X           X..X  -                                       '
	DB	'                                            -   X.X          '
	DB	' X.X   -                                                     '
	DB	'                              -    XX           XX    -      '
	DB	'                       ', 00H		; FONT_ATLAS_DEFAULT_TEX_DATA_PIXELS
	ORG $+3
?ranges@?1??GetGlyphRangesDefault@ImFontAtlas@@QEAAPEBGXZ@4QBGB DW 020H ; `ImFontAtlas::GetGlyphRangesDefault'::`2'::ranges
	DW	0ffH
	DW	00H
	ORG $+2
?ranges@?1??GetGlyphRangesKorean@ImFontAtlas@@QEAAPEBGXZ@4QBGB DW 020H ; `ImFontAtlas::GetGlyphRangesKorean'::`2'::ranges
	DW	0ffH
	DW	03131H
	DW	03163H
	DW	0ac00H
	DW	0d7a3H
	DW	0fffdH
	DW	0fffdH
	DW	00H
	ORG $+6
?ranges@?1??GetGlyphRangesChineseFull@ImFontAtlas@@QEAAPEBGXZ@4QBGB DW 020H ; `ImFontAtlas::GetGlyphRangesChineseFull'::`2'::ranges
	DW	0ffH
	DW	02000H
	DW	0206fH
	DW	03000H
	DW	030ffH
	DW	031f0H
	DW	031ffH
	DW	0ff00H
	DW	0ffefH
	DW	0fffdH
	DW	0fffdH
	DW	04e00H
	DW	09fafH
	DW	00H
	ORG $+10
?accumulative_offsets_from_0x4E00@?1??GetGlyphRangesChineseSimplifiedCommon@ImFontAtlas@@QEAAPEBGXZ@4QBFB DW 00H ; `ImFontAtlas::GetGlyphRangesChineseSimplifiedCommon'::`2'::accumulative_offsets_from_0x4E00
	DW	01H
	DW	02H
	DW	04H
	DW	01H
	DW	01H
	DW	01H
	DW	01H
	DW	02H
	DW	01H
	DW	03H
	DW	02H
	DW	01H
	DW	02H
	DW	02H
	DW	01H
	DW	01H
	DW	01H
	DW	01H
	DW	01H
	DW	05H
	DW	02H
	DW	01H
	DW	02H
	DW	03H
	DW	03H
	DW	03H
	DW	02H
	DW	02H
	DW	04H
	DW	01H
	DW	01H
	DW	01H
	DW	02H
	DW	01H
	DW	05H
	DW	02H
	DW	03H
	DW	01H
	DW	02H
	DW	01H
	DW	02H
	DW	01H
	DW	01H
	DW	02H
	DW	01H
	DW	01H
	DW	02H
	DW	02H
	DW	01H
	DW	04H
	DW	01H
	DW	01H
	DW	01H
	DW	01H
	DW	05H
	DW	0aH
	DW	01H
	DW	02H
	DW	013H
	DW	02H
	DW	01H
	DW	02H
	DW	01H
	DW	02H
	DW	01H
	DW	02H
	DW	01H
	DW	02H
	DW	01H
	DW	05H
	DW	01H
	DW	06H
	DW	03H
	DW	02H
	DW	01H
	DW	02H
	DW	02H
	DW	01H
	DW	01H
	DW	01H
	DW	04H
	DW	08H
	DW	05H
	DW	01H
	DW	01H
	DW	04H
	DW	01H
	DW	01H
	DW	03H
	DW	01H
	DW	02H
	DW	01H
	DW	05H
	DW	01H
	DW	02H
	DW	01H
	DW	01H
	DW	01H
	DW	0aH
	DW	01H
	DW	01H
	DW	05H
	DW	02H
	DW	04H
	DW	06H
	DW	01H
	DW	04H
	DW	02H
	DW	02H
	DW	02H
	DW	0cH
	DW	02H
	DW	01H
	DW	01H
	DW	06H
	DW	01H
	DW	01H
	DW	01H
	DW	04H
	DW	01H
	DW	01H
	DW	04H
	DW	06H
	DW	05H
	DW	01H
	DW	04H
	DW	02H
	DW	02H
	DW	04H
	DW	0aH
	DW	07H
	DW	01H
	DW	01H
	DW	04H
	DW	02H
	DW	04H
	DW	02H
	DW	01H
	DW	04H
	DW	03H
	DW	06H
	DW	0aH
	DW	0cH
	DW	05H
	DW	07H
	DW	02H
	DW	0eH
	DW	02H
	DW	09H
	DW	01H
	DW	01H
	DW	06H
	DW	07H
	DW	0aH
	DW	04H
	DW	07H
	DW	0dH
	DW	01H
	DW	05H
	DW	04H
	DW	08H
	DW	04H
	DW	01H
	DW	01H
	DW	02H
	DW	01cH
	DW	05H
	DW	06H
	DW	01H
	DW	01H
	DW	05H
	DW	02H
	DW	05H
	DW	014H
	DW	02H
	DW	02H
	DW	09H
	DW	08H
	DW	0bH
	DW	02H
	DW	09H
	DW	011H
	DW	01H
	DW	08H
	DW	06H
	DW	08H
	DW	01bH
	DW	04H
	DW	06H
	DW	09H
	DW	014H
	DW	0bH
	DW	01bH
	DW	06H
	DW	044H
	DW	02H
	DW	02H
	DW	01H
	DW	01H
	DW	01H
	DW	02H
	DW	01H
	DW	02H
	DW	02H
	DW	07H
	DW	06H
	DW	0bH
	DW	03H
	DW	03H
	DW	01H
	DW	01H
	DW	03H
	DW	01H
	DW	02H
	DW	01H
	DW	01H
	DW	01H
	DW	01H
	DW	01H
	DW	03H
	DW	01H
	DW	01H
	DW	08H
	DW	03H
	DW	04H
	DW	01H
	DW	05H
	DW	07H
	DW	02H
	DW	01H
	DW	04H
	DW	04H
	DW	08H
	DW	04H
	DW	02H
	DW	01H
	DW	02H
	DW	01H
	DW	01H
	DW	04H
	DW	05H
	DW	06H
	DW	03H
	DW	06H
	DW	02H
	DW	0cH
	DW	03H
	DW	01H
	DW	03H
	DW	09H
	DW	02H
	DW	04H
	DW	03H
	DW	04H
	DW	01H
	DW	05H
	DW	03H
	DW	03H
	DW	01H
	DW	03H
	DW	07H
	DW	01H
	DW	05H
	DW	01H
	DW	01H
	DW	01H
	DW	01H
	DW	02H
	DW	03H
	DW	04H
	DW	05H
	DW	02H
	DW	03H
	DW	02H
	DW	06H
	DW	01H
	DW	01H
	DW	02H
	DW	01H
	DW	07H
	DW	01H
	DW	07H
	DW	03H
	DW	04H
	DW	05H
	DW	0fH
	DW	02H
	DW	02H
	DW	01H
	DW	05H
	DW	03H
	DW	016H
	DW	013H
	DW	02H
	DW	01H
	DW	01H
	DW	01H
	DW	01H
	DW	02H
	DW	05H
	DW	01H
	DW	01H
	DW	01H
	DW	06H
	DW	01H
	DW	01H
	DW	0cH
	DW	08H
	DW	02H
	DW	09H
	DW	012H
	DW	016H
	DW	04H
	DW	01H
	DW	01H
	DW	05H
	DW	01H
	DW	010H
	DW	01H
	DW	02H
	DW	07H
	DW	0aH
	DW	0fH
	DW	01H
	DW	01H
	DW	06H
	DW	02H
	DW	04H
	DW	01H
	DW	02H
	DW	04H
	DW	01H
	DW	06H
	DW	01H
	DW	01H
	DW	03H
	DW	02H
	DW	04H
	DW	01H
	DW	06H
	DW	04H
	DW	05H
	DW	01H
	DW	02H
	DW	01H
	DW	01H
	DW	02H
	DW	01H
	DW	0aH
	DW	03H
	DW	01H
	DW	03H
	DW	02H
	DW	01H
	DW	09H
	DW	03H
	DW	02H
	DW	05H
	DW	07H
	DW	02H
	DW	013H
	DW	04H
	DW	03H
	DW	06H
	DW	01H
	DW	01H
	DW	01H
	DW	01H
	DW	01H
	DW	04H
	DW	03H
	DW	02H
	DW	01H
	DW	01H
	DW	01H
	DW	02H
	DW	05H
	DW	03H
	DW	01H
	DW	01H
	DW	01H
	DW	02H
	DW	02H
	DW	01H
	DW	01H
	DW	02H
	DW	01H
	DW	01H
	DW	02H
	DW	01H
	DW	03H
	DW	01H
	DW	01H
	DW	01H
	DW	03H
	DW	07H
	DW	01H
	DW	04H
	DW	01H
	DW	01H
	DW	02H
	DW	01H
	DW	01H
	DW	02H
	DW	01H
	DW	02H
	DW	04H
	DW	04H
	DW	03H
	DW	08H
	DW	01H
	DW	01H
	DW	01H
	DW	02H
	DW	01H
	DW	03H
	DW	05H
	DW	01H
	DW	03H
	DW	01H
	DW	03H
	DW	04H
	DW	06H
	DW	02H
	DW	02H
	DW	0eH
	DW	04H
	DW	06H
	DW	06H
	DW	0bH
	DW	09H
	DW	01H
	DW	0fH
	DW	03H
	DW	01H
	DW	01cH
	DW	05H
	DW	02H
	DW	05H
	DW	05H
	DW	03H
	DW	01H
	DW	03H
	DW	04H
	DW	05H
	DW	04H
	DW	06H
	DW	0eH
	DW	03H
	DW	02H
	DW	03H
	DW	05H
	DW	015H
	DW	02H
	DW	07H
	DW	014H
	DW	0aH
	DW	01H
	DW	02H
	DW	013H
	DW	02H
	DW	04H
	DW	01cH
	DW	01cH
	DW	02H
	DW	03H
	DW	02H
	DW	01H
	DW	0eH
	DW	04H
	DW	01H
	DW	01aH
	DW	01cH
	DW	02aH
	DW	0cH
	DW	028H
	DW	03H
	DW	034H
	DW	04fH
	DW	05H
	DW	0eH
	DW	011H
	DW	03H
	DW	02H
	DW	02H
	DW	0bH
	DW	03H
	DW	04H
	DW	06H
	DW	03H
	DW	01H
	DW	08H
	DW	02H
	DW	017H
	DW	04H
	DW	05H
	DW	08H
	DW	0aH
	DW	04H
	DW	02H
	DW	07H
	DW	03H
	DW	05H
	DW	01H
	DW	01H
	DW	06H
	DW	03H
	DW	01H
	DW	02H
	DW	02H
	DW	02H
	DW	05H
	DW	01cH
	DW	01H
	DW	01H
	DW	07H
	DW	07H
	DW	014H
	DW	05H
	DW	03H
	DW	01dH
	DW	03H
	DW	011H
	DW	01aH
	DW	01H
	DW	08H
	DW	04H
	DW	01bH
	DW	03H
	DW	06H
	DW	0bH
	DW	017H
	DW	05H
	DW	03H
	DW	04H
	DW	06H
	DW	0dH
	DW	018H
	DW	010H
	DW	06H
	DW	05H
	DW	0aH
	DW	019H
	DW	023H
	DW	07H
	DW	03H
	DW	02H
	DW	03H
	DW	03H
	DW	0eH
	DW	03H
	DW	06H
	DW	02H
	DW	06H
	DW	01H
	DW	04H
	DW	02H
	DW	03H
	DW	08H
	DW	02H
	DW	01H
	DW	01H
	DW	03H
	DW	03H
	DW	03H
	DW	04H
	DW	01H
	DW	01H
	DW	0dH
	DW	02H
	DW	02H
	DW	04H
	DW	05H
	DW	02H
	DW	01H
	DW	0eH
	DW	0eH
	DW	01H
	DW	02H
	DW	02H
	DW	01H
	DW	04H
	DW	05H
	DW	02H
	DW	03H
	DW	01H
	DW	0eH
	DW	03H
	DW	0cH
	DW	03H
	DW	011H
	DW	02H
	DW	010H
	DW	05H
	DW	01H
	DW	02H
	DW	01H
	DW	08H
	DW	09H
	DW	03H
	DW	013H
	DW	04H
	DW	02H
	DW	02H
	DW	04H
	DW	011H
	DW	019H
	DW	015H
	DW	014H
	DW	01cH
	DW	04bH
	DW	01H
	DW	0aH
	DW	01dH
	DW	067H
	DW	04H
	DW	01H
	DW	02H
	DW	01H
	DW	01H
	DW	04H
	DW	02H
	DW	04H
	DW	01H
	DW	02H
	DW	03H
	DW	018H
	DW	02H
	DW	02H
	DW	02H
	DW	01H
	DW	01H
	DW	02H
	DW	01H
	DW	03H
	DW	08H
	DW	01H
	DW	01H
	DW	01H
	DW	02H
	DW	01H
	DW	01H
	DW	03H
	DW	01H
	DW	01H
	DW	01H
	DW	06H
	DW	01H
	DW	05H
	DW	03H
	DW	01H
	DW	01H
	DW	01H
	DW	03H
	DW	04H
	DW	01H
	DW	01H
	DW	05H
	DW	02H
	DW	01H
	DW	05H
	DW	06H
	DW	0dH
	DW	09H
	DW	010H
	DW	01H
	DW	01H
	DW	01H
	DW	01H
	DW	03H
	DW	02H
	DW	03H
	DW	02H
	DW	04H
	DW	05H
	DW	02H
	DW	05H
	DW	02H
	DW	02H
	DW	03H
	DW	07H
	DW	0dH
	DW	07H
	DW	02H
	DW	02H
	DW	01H
	DW	01H
	DW	01H
	DW	01H
	DW	02H
	DW	03H
	DW	03H
	DW	02H
	DW	01H
	DW	06H
	DW	04H
	DW	09H
	DW	02H
	DW	01H
	DW	0eH
	DW	02H
	DW	0eH
	DW	02H
	DW	01H
	DW	012H
	DW	03H
	DW	04H
	DW	0eH
	DW	04H
	DW	0bH
	DW	029H
	DW	0fH
	DW	017H
	DW	0fH
	DW	017H
	DW	0b0H
	DW	01H
	DW	03H
	DW	04H
	DW	01H
	DW	01H
	DW	01H
	DW	01H
	DW	05H
	DW	03H
	DW	01H
	DW	02H
	DW	03H
	DW	07H
	DW	03H
	DW	01H
	DW	01H
	DW	02H
	DW	01H
	DW	02H
	DW	04H
	DW	04H
	DW	06H
	DW	02H
	DW	04H
	DW	01H
	DW	09H
	DW	07H
	DW	01H
	DW	0aH
	DW	05H
	DW	08H
	DW	010H
	DW	01dH
	DW	01H
	DW	01H
	DW	02H
	DW	02H
	DW	03H
	DW	01H
	DW	03H
	DW	05H
	DW	02H
	DW	04H
	DW	05H
	DW	04H
	DW	01H
	DW	01H
	DW	02H
	DW	02H
	DW	03H
	DW	03H
	DW	07H
	DW	01H
	DW	06H
	DW	0aH
	DW	01H
	DW	011H
	DW	01H
	DW	02cH
	DW	04H
	DW	06H
	DW	02H
	DW	01H
	DW	01H
	DW	06H
	DW	05H
	DW	04H
	DW	02H
	DW	0aH
	DW	01H
	DW	06H
	DW	09H
	DW	02H
	DW	08H
	DW	01H
	DW	018H
	DW	01H
	DW	02H
	DW	0dH
	DW	07H
	DW	08H
	DW	08H
	DW	02H
	DW	01H
	DW	04H
	DW	01H
	DW	03H
	DW	01H
	DW	03H
	DW	03H
	DW	05H
	DW	02H
	DW	05H
	DW	0aH
	DW	09H
	DW	04H
	DW	09H
	DW	0cH
	DW	02H
	DW	01H
	DW	06H
	DW	01H
	DW	0aH
	DW	01H
	DW	01H
	DW	07H
	DW	07H
	DW	04H
	DW	0aH
	DW	08H
	DW	03H
	DW	01H
	DW	0dH
	DW	04H
	DW	03H
	DW	01H
	DW	06H
	DW	01H
	DW	03H
	DW	05H
	DW	02H
	DW	01H
	DW	02H
	DW	011H
	DW	010H
	DW	05H
	DW	02H
	DW	010H
	DW	06H
	DW	01H
	DW	04H
	DW	02H
	DW	01H
	DW	03H
	DW	03H
	DW	06H
	DW	08H
	DW	05H
	DW	0bH
	DW	0bH
	DW	01H
	DW	03H
	DW	03H
	DW	02H
	DW	04H
	DW	06H
	DW	0aH
	DW	09H
	DW	05H
	DW	07H
	DW	04H
	DW	07H
	DW	04H
	DW	07H
	DW	01H
	DW	01H
	DW	04H
	DW	02H
	DW	01H
	DW	03H
	DW	06H
	DW	08H
	DW	07H
	DW	01H
	DW	06H
	DW	0bH
	DW	05H
	DW	05H
	DW	03H
	DW	018H
	DW	09H
	DW	04H
	DW	02H
	DW	07H
	DW	0dH
	DW	05H
	DW	01H
	DW	08H
	DW	052H
	DW	010H
	DW	03dH
	DW	01H
	DW	01H
	DW	01H
	DW	04H
	DW	02H
	DW	02H
	DW	010H
	DW	0aH
	DW	03H
	DW	08H
	DW	01H
	DW	01H
	DW	06H
	DW	04H
	DW	02H
	DW	01H
	DW	03H
	DW	01H
	DW	01H
	DW	01H
	DW	04H
	DW	03H
	DW	08H
	DW	04H
	DW	02H
	DW	02H
	DW	01H
	DW	01H
	DW	01H
	DW	01H
	DW	01H
	DW	06H
	DW	03H
	DW	05H
	DW	01H
	DW	01H
	DW	04H
	DW	06H
	DW	09H
	DW	02H
	DW	01H
	DW	01H
	DW	01H
	DW	02H
	DW	01H
	DW	07H
	DW	02H
	DW	01H
	DW	06H
	DW	01H
	DW	05H
	DW	04H
	DW	04H
	DW	03H
	DW	01H
	DW	08H
	DW	01H
	DW	03H
	DW	03H
	DW	01H
	DW	03H
	DW	02H
	DW	02H
	DW	02H
	DW	02H
	DW	03H
	DW	01H
	DW	06H
	DW	01H
	DW	02H
	DW	01H
	DW	02H
	DW	01H
	DW	03H
	DW	07H
	DW	01H
	DW	08H
	DW	02H
	DW	01H
	DW	02H
	DW	01H
	DW	05H
	DW	02H
	DW	05H
	DW	03H
	DW	05H
	DW	0aH
	DW	01H
	DW	02H
	DW	01H
	DW	01H
	DW	03H
	DW	02H
	DW	05H
	DW	0bH
	DW	03H
	DW	09H
	DW	03H
	DW	05H
	DW	01H
	DW	01H
	DW	05H
	DW	09H
	DW	01H
	DW	02H
	DW	01H
	DW	05H
	DW	07H
	DW	09H
	DW	09H
	DW	08H
	DW	01H
	DW	03H
	DW	03H
	DW	03H
	DW	06H
	DW	08H
	DW	02H
	DW	03H
	DW	02H
	DW	01H
	DW	01H
	DW	020H
	DW	06H
	DW	01H
	DW	02H
	DW	0fH
	DW	09H
	DW	03H
	DW	07H
	DW	0dH
	DW	01H
	DW	03H
	DW	0aH
	DW	0dH
	DW	02H
	DW	0eH
	DW	01H
	DW	0dH
	DW	0aH
	DW	02H
	DW	01H
	DW	03H
	DW	0aH
	DW	04H
	DW	0fH
	DW	02H
	DW	0fH
	DW	0fH
	DW	0aH
	DW	01H
	DW	03H
	DW	09H
	DW	06H
	DW	09H
	DW	020H
	DW	019H
	DW	01aH
	DW	02fH
	DW	07H
	DW	03H
	DW	02H
	DW	03H
	DW	01H
	DW	06H
	DW	03H
	DW	04H
	DW	03H
	DW	02H
	DW	08H
	DW	05H
	DW	04H
	DW	01H
	DW	09H
	DW	04H
	DW	02H
	DW	02H
	DW	013H
	DW	0aH
	DW	06H
	DW	02H
	DW	03H
	DW	08H
	DW	01H
	DW	02H
	DW	02H
	DW	04H
	DW	02H
	DW	01H
	DW	09H
	DW	04H
	DW	04H
	DW	04H
	DW	06H
	DW	04H
	DW	08H
	DW	09H
	DW	02H
	DW	03H
	DW	01H
	DW	01H
	DW	01H
	DW	01H
	DW	03H
	DW	05H
	DW	05H
	DW	01H
	DW	03H
	DW	08H
	DW	04H
	DW	06H
	DW	02H
	DW	01H
	DW	04H
	DW	0cH
	DW	01H
	DW	05H
	DW	03H
	DW	07H
	DW	0dH
	DW	02H
	DW	05H
	DW	08H
	DW	01H
	DW	06H
	DW	01H
	DW	02H
	DW	05H
	DW	0eH
	DW	06H
	DW	01H
	DW	05H
	DW	02H
	DW	04H
	DW	08H
	DW	0fH
	DW	05H
	DW	01H
	DW	017H
	DW	06H
	DW	03eH
	DW	02H
	DW	0aH
	DW	01H
	DW	01H
	DW	08H
	DW	01H
	DW	02H
	DW	02H
	DW	0aH
	DW	04H
	DW	02H
	DW	02H
	DW	09H
	DW	02H
	DW	01H
	DW	01H
	DW	03H
	DW	02H
	DW	03H
	DW	01H
	DW	05H
	DW	03H
	DW	03H
	DW	02H
	DW	01H
	DW	03H
	DW	08H
	DW	01H
	DW	01H
	DW	01H
	DW	0bH
	DW	03H
	DW	01H
	DW	01H
	DW	04H
	DW	03H
	DW	07H
	DW	01H
	DW	0eH
	DW	01H
	DW	02H
	DW	03H
	DW	0cH
	DW	05H
	DW	02H
	DW	05H
	DW	01H
	DW	06H
	DW	07H
	DW	05H
	DW	07H
	DW	0eH
	DW	0bH
	DW	01H
	DW	03H
	DW	01H
	DW	08H
	DW	09H
	DW	0cH
	DW	02H
	DW	01H
	DW	0bH
	DW	08H
	DW	04H
	DW	04H
	DW	02H
	DW	06H
	DW	0aH
	DW	09H
	DW	0dH
	DW	01H
	DW	01H
	DW	03H
	DW	01H
	DW	05H
	DW	01H
	DW	03H
	DW	02H
	DW	04H
	DW	04H
	DW	01H
	DW	012H
	DW	02H
	DW	03H
	DW	0eH
	DW	0bH
	DW	04H
	DW	01dH
	DW	04H
	DW	02H
	DW	07H
	DW	01H
	DW	03H
	DW	0dH
	DW	09H
	DW	02H
	DW	02H
	DW	05H
	DW	03H
	DW	05H
	DW	014H
	DW	07H
	DW	010H
	DW	08H
	DW	05H
	DW	048H
	DW	022H
	DW	06H
	DW	04H
	DW	016H
	DW	0cH
	DW	0cH
	DW	01cH
	DW	02dH
	DW	024H
	DW	09H
	DW	07H
	DW	027H
	DW	09H
	DW	0bfH
	DW	01H
	DW	01H
	DW	01H
	DW	04H
	DW	0bH
	DW	08H
	DW	04H
	DW	09H
	DW	02H
	DW	03H
	DW	016H
	DW	01H
	DW	01H
	DW	01H
	DW	01H
	DW	04H
	DW	011H
	DW	01H
	DW	07H
	DW	07H
	DW	01H
	DW	0bH
	DW	01fH
	DW	0aH
	DW	02H
	DW	04H
	DW	08H
	DW	02H
	DW	03H
	DW	02H
	DW	01H
	DW	04H
	DW	02H
	DW	010H
	DW	04H
	DW	020H
	DW	02H
	DW	03H
	DW	013H
	DW	0dH
	DW	04H
	DW	09H
	DW	01H
	DW	05H
	DW	02H
	DW	0eH
	DW	08H
	DW	01H
	DW	01H
	DW	03H
	DW	06H
	DW	013H
	DW	06H
	DW	05H
	DW	01H
	DW	010H
	DW	06H
	DW	02H
	DW	0aH
	DW	08H
	DW	05H
	DW	01H
	DW	02H
	DW	03H
	DW	01H
	DW	05H
	DW	05H
	DW	01H
	DW	0bH
	DW	06H
	DW	06H
	DW	01H
	DW	03H
	DW	03H
	DW	02H
	DW	06H
	DW	03H
	DW	08H
	DW	01H
	DW	01H
	DW	04H
	DW	0aH
	DW	07H
	DW	05H
	DW	07H
	DW	07H
	DW	05H
	DW	08H
	DW	09H
	DW	02H
	DW	01H
	DW	03H
	DW	04H
	DW	01H
	DW	01H
	DW	03H
	DW	01H
	DW	03H
	DW	03H
	DW	02H
	DW	06H
	DW	010H
	DW	01H
	DW	04H
	DW	06H
	DW	03H
	DW	01H
	DW	0aH
	DW	06H
	DW	01H
	DW	03H
	DW	0fH
	DW	02H
	DW	09H
	DW	02H
	DW	0aH
	DW	019H
	DW	0dH
	DW	09H
	DW	010H
	DW	06H
	DW	02H
	DW	02H
	DW	0aH
	DW	0bH
	DW	04H
	DW	03H
	DW	09H
	DW	01H
	DW	02H
	DW	06H
	DW	06H
	DW	05H
	DW	04H
	DW	01eH
	DW	028H
	DW	01H
	DW	0aH
	DW	07H
	DW	0cH
	DW	0eH
	DW	021H
	DW	06H
	DW	03H
	DW	06H
	DW	07H
	DW	03H
	DW	01H
	DW	03H
	DW	01H
	DW	0bH
	DW	0eH
	DW	04H
	DW	09H
	DW	05H
	DW	0cH
	DW	0bH
	DW	031H
	DW	012H
	DW	033H
	DW	01fH
	DW	08cH
	DW	01fH
	DW	02H
	DW	02H
	DW	01H
	DW	05H
	DW	01H
	DW	08H
	DW	01H
	DW	0aH
	DW	01H
	DW	04H
	DW	04H
	DW	03H
	DW	018H
	DW	01H
	DW	0aH
	DW	01H
	DW	03H
	DW	06H
	DW	06H
	DW	010H
	DW	03H
	DW	04H
	DW	05H
	DW	02H
	DW	01H
	DW	04H
	DW	02H
	DW	039H
	DW	0aH
	DW	06H
	DW	016H
	DW	02H
	DW	016H
	DW	03H
	DW	07H
	DW	016H
	DW	06H
	DW	0aH
	DW	0bH
	DW	024H
	DW	012H
	DW	010H
	DW	021H
	DW	024H
	DW	02H
	DW	05H
	DW	05H
	DW	01H
	DW	01H
	DW	01H
	DW	04H
	DW	0aH
	DW	01H
	DW	04H
	DW	0dH
	DW	02H
	DW	07H
	DW	05H
	DW	02H
	DW	09H
	DW	03H
	DW	04H
	DW	01H
	DW	07H
	DW	02bH
	DW	03H
	DW	07H
	DW	03H
	DW	09H
	DW	0eH
	DW	07H
	DW	09H
	DW	01H
	DW	0bH
	DW	01H
	DW	01H
	DW	03H
	DW	07H
	DW	04H
	DW	012H
	DW	0dH
	DW	01H
	DW	0eH
	DW	01H
	DW	03H
	DW	06H
	DW	0aH
	DW	049H
	DW	02H
	DW	02H
	DW	01eH
	DW	06H
	DW	01H
	DW	0bH
	DW	012H
	DW	013H
	DW	0dH
	DW	016H
	DW	03H
	DW	02eH
	DW	02aH
	DW	025H
	DW	059H
	DW	07H
	DW	03H
	DW	010H
	DW	022H
	DW	02H
	DW	02H
	DW	03H
	DW	09H
	DW	01H
	DW	07H
	DW	01H
	DW	01H
	DW	01H
	DW	02H
	DW	02H
	DW	04H
	DW	0aH
	DW	07H
	DW	03H
	DW	0aH
	DW	03H
	DW	09H
	DW	05H
	DW	01cH
	DW	09H
	DW	02H
	DW	06H
	DW	0dH
	DW	07H
	DW	03H
	DW	01H
	DW	03H
	DW	0aH
	DW	02H
	DW	07H
	DW	02H
	DW	0bH
	DW	03H
	DW	06H
	DW	015H
	DW	036H
	DW	055H
	DW	02H
	DW	01H
	DW	04H
	DW	02H
	DW	02H
	DW	01H
	DW	027H
	DW	03H
	DW	015H
	DW	02H
	DW	02H
	DW	05H
	DW	01H
	DW	01H
	DW	01H
	DW	04H
	DW	01H
	DW	01H
	DW	03H
	DW	04H
	DW	0fH
	DW	01H
	DW	03H
	DW	02H
	DW	04H
	DW	04H
	DW	02H
	DW	03H
	DW	08H
	DW	02H
	DW	014H
	DW	01H
	DW	08H
	DW	07H
	DW	0dH
	DW	04H
	DW	01H
	DW	01aH
	DW	06H
	DW	02H
	DW	09H
	DW	022H
	DW	04H
	DW	015H
	DW	034H
	DW	0aH
	DW	04H
	DW	04H
	DW	01H
	DW	05H
	DW	0cH
	DW	02H
	DW	0bH
	DW	01H
	DW	07H
	DW	02H
	DW	01eH
	DW	0cH
	DW	02cH
	DW	02H
	DW	01eH
	DW	01H
	DW	01H
	DW	03H
	DW	06H
	DW	010H
	DW	09H
	DW	011H
	DW	027H
	DW	052H
	DW	02H
	DW	02H
	DW	018H
	DW	07H
	DW	01H
	DW	07H
	DW	03H
	DW	010H
	DW	09H
	DW	0eH
	DW	02cH
	DW	02H
	DW	01H
	DW	02H
	DW	01H
	DW	02H
	DW	03H
	DW	05H
	DW	02H
	DW	04H
	DW	01H
	DW	06H
	DW	07H
	DW	05H
	DW	03H
	DW	02H
	DW	06H
	DW	01H
	DW	0bH
	DW	05H
	DW	0bH
	DW	02H
	DW	01H
	DW	012H
	DW	013H
	DW	08H
	DW	01H
	DW	03H
	DW	018H
	DW	01dH
	DW	02H
	DW	01H
	DW	03H
	DW	05H
	DW	02H
	DW	02H
	DW	01H
	DW	0dH
	DW	06H
	DW	05H
	DW	01H
	DW	02eH
	DW	0bH
	DW	03H
	DW	05H
	DW	01H
	DW	01H
	DW	05H
	DW	08H
	DW	02H
	DW	0aH
	DW	06H
	DW	0cH
	DW	06H
	DW	03H
	DW	07H
	DW	0bH
	DW	02H
	DW	04H
	DW	010H
	DW	0dH
	DW	02H
	DW	05H
	DW	01H
	DW	01H
	DW	02H
	DW	02H
	DW	05H
	DW	02H
	DW	01cH
	DW	05H
	DW	02H
	DW	017H
	DW	0aH
	DW	08H
	DW	04H
	DW	04H
	DW	016H
	DW	027H
	DW	05fH
	DW	026H
	DW	08H
	DW	0eH
	DW	09H
	DW	05H
	DW	01H
	DW	0dH
	DW	05H
	DW	04H
	DW	03H
	DW	0dH
	DW	0cH
	DW	0bH
	DW	01H
	DW	09H
	DW	01H
	DW	01bH
	DW	025H
	DW	02H
	DW	05H
	DW	04H
	DW	04H
	DW	03fH
	DW	0d3H
	DW	05fH
	DW	02H
	DW	02H
	DW	02H
	DW	01H
	DW	03H
	DW	05H
	DW	02H
	DW	01H
	DW	01H
	DW	02H
	DW	02H
	DW	01H
	DW	01H
	DW	01H
	DW	03H
	DW	02H
	DW	04H
	DW	01H
	DW	02H
	DW	01H
	DW	01H
	DW	05H
	DW	02H
	DW	02H
	DW	01H
	DW	01H
	DW	02H
	DW	03H
	DW	01H
	DW	03H
	DW	01H
	DW	01H
	DW	01H
	DW	03H
	DW	01H
	DW	04H
	DW	02H
	DW	01H
	DW	03H
	DW	06H
	DW	01H
	DW	01H
	DW	03H
	DW	07H
	DW	0fH
	DW	05H
	DW	03H
	DW	02H
	DW	05H
	DW	03H
	DW	09H
	DW	0bH
	DW	04H
	DW	02H
	DW	016H
	DW	01H
	DW	06H
	DW	03H
	DW	08H
	DW	07H
	DW	01H
	DW	04H
	DW	01cH
	DW	04H
	DW	010H
	DW	03H
	DW	03H
	DW	019H
	DW	04H
	DW	04H
	DW	01bH
	DW	01bH
	DW	01H
	DW	04H
	DW	01H
	DW	02H
	DW	02H
	DW	07H
	DW	01H
	DW	03H
	DW	05H
	DW	02H
	DW	01cH
	DW	08H
	DW	02H
	DW	0eH
	DW	01H
	DW	08H
	DW	06H
	DW	010H
	DW	019H
	DW	03H
	DW	03H
	DW	03H
	DW	0eH
	DW	03H
	DW	03H
	DW	01H
	DW	01H
	DW	02H
	DW	01H
	DW	04H
	DW	06H
	DW	03H
	DW	08H
	DW	04H
	DW	01H
	DW	01H
	DW	01H
	DW	02H
	DW	03H
	DW	06H
	DW	0aH
	DW	06H
	DW	02H
	DW	03H
	DW	012H
	DW	03H
	DW	02H
	DW	05H
	DW	05H
	DW	04H
	DW	03H
	DW	01H
	DW	05H
	DW	02H
	DW	05H
	DW	04H
	DW	017H
	DW	07H
	DW	06H
	DW	0cH
	DW	06H
	DW	04H
	DW	011H
	DW	0bH
	DW	09H
	DW	05H
	DW	01H
	DW	01H
	DW	0aH
	DW	05H
	DW	0cH
	DW	01H
	DW	01H
	DW	0bH
	DW	01aH
	DW	021H
	DW	07H
	DW	03H
	DW	06H
	DW	01H
	DW	011H
	DW	07H
	DW	01H
	DW	05H
	DW	0cH
	DW	01H
	DW	0bH
	DW	02H
	DW	04H
	DW	01H
	DW	08H
	DW	0eH
	DW	011H
	DW	017H
	DW	01H
	DW	02H
	DW	01H
	DW	07H
	DW	08H
	DW	010H
	DW	0bH
	DW	09H
	DW	06H
	DW	05H
	DW	02H
	DW	06H
	DW	04H
	DW	010H
	DW	02H
	DW	08H
	DW	0eH
	DW	01H
	DW	0bH
	DW	08H
	DW	09H
	DW	01H
	DW	01H
	DW	01H
	DW	09H
	DW	019H
	DW	04H
	DW	0bH
	DW	013H
	DW	07H
	DW	02H
	DW	0fH
	DW	02H
	DW	0cH
	DW	08H
	DW	034H
	DW	07H
	DW	05H
	DW	013H
	DW	02H
	DW	010H
	DW	04H
	DW	024H
	DW	08H
	DW	01H
	DW	010H
	DW	08H
	DW	018H
	DW	01aH
	DW	04H
	DW	06H
	DW	02H
	DW	09H
	DW	05H
	DW	04H
	DW	024H
	DW	03H
	DW	01cH
	DW	0cH
	DW	019H
	DW	0fH
	DW	025H
	DW	01bH
	DW	011H
	DW	0cH
	DW	03bH
	DW	026H
	DW	05H
	DW	020H
	DW	07fH
	DW	01H
	DW	02H
	DW	09H
	DW	011H
	DW	0eH
	DW	04H
	DW	01H
	DW	02H
	DW	01H
	DW	01H
	DW	08H
	DW	0bH
	DW	032H
	DW	04H
	DW	0eH
	DW	02H
	DW	013H
	DW	010H
	DW	04H
	DW	011H
	DW	05H
	DW	04H
	DW	05H
	DW	01aH
	DW	0cH
	DW	02dH
	DW	02H
	DW	017H
	DW	02dH
	DW	068H
	DW	01eH
	DW	0cH
	DW	08H
	DW	03H
	DW	0aH
	DW	02H
	DW	02H
	DW	03H
	DW	03H
	DW	01H
	DW	04H
	DW	014H
	DW	07H
	DW	02H
	DW	09H
	DW	06H
	DW	0fH
	DW	02H
	DW	014H
	DW	01H
	DW	03H
	DW	010H
	DW	04H
	DW	0bH
	DW	0fH
	DW	06H
	DW	086H
	DW	02H
	DW	05H
	DW	03bH
	DW	01H
	DW	02H
	DW	02H
	DW	02H
	DW	01H
	DW	09H
	DW	011H
	DW	03H
	DW	01aH
	DW	089H
	DW	0aH
	DW	0d3H
	DW	03bH
	DW	01H
	DW	02H
	DW	04H
	DW	01H
	DW	04H
	DW	01H
	DW	01H
	DW	01H
	DW	02H
	DW	06H
	DW	02H
	DW	03H
	DW	01H
	DW	01H
	DW	02H
	DW	03H
	DW	02H
	DW	03H
	DW	01H
	DW	03H
	DW	04H
	DW	04H
	DW	02H
	DW	03H
	DW	03H
	DW	01H
	DW	04H
	DW	03H
	DW	01H
	DW	07H
	DW	02H
	DW	02H
	DW	03H
	DW	01H
	DW	02H
	DW	01H
	DW	03H
	DW	03H
	DW	03H
	DW	02H
	DW	02H
	DW	03H
	DW	02H
	DW	01H
	DW	03H
	DW	0eH
	DW	06H
	DW	01H
	DW	03H
	DW	02H
	DW	09H
	DW	06H
	DW	0fH
	DW	01bH
	DW	09H
	DW	022H
	DW	091H
	DW	01H
	DW	01H
	DW	02H
	DW	01H
	DW	01H
	DW	01H
	DW	01H
	DW	02H
	DW	01H
	DW	01H
	DW	01H
	DW	01H
	DW	02H
	DW	02H
	DW	02H
	DW	03H
	DW	01H
	DW	02H
	DW	01H
	DW	01H
	DW	01H
	DW	02H
	DW	03H
	DW	05H
	DW	08H
	DW	03H
	DW	05H
	DW	02H
	DW	04H
	DW	01H
	DW	03H
	DW	02H
	DW	02H
	DW	02H
	DW	0cH
	DW	04H
	DW	01H
	DW	01H
	DW	01H
	DW	0aH
	DW	04H
	DW	05H
	DW	01H
	DW	014H
	DW	04H
	DW	010H
	DW	01H
	DW	0fH
	DW	09H
	DW	05H
	DW	0cH
	DW	02H
	DW	09H
	DW	02H
	DW	05H
	DW	04H
	DW	02H
	DW	01aH
	DW	013H
	DW	07H
	DW	01H
	DW	01aH
	DW	04H
	DW	01eH
	DW	0cH
	DW	0fH
	DW	02aH
	DW	01H
	DW	06H
	DW	08H
	DW	0acH
	DW	01H
	DW	01H
	DW	04H
	DW	02H
	DW	01H
	DW	01H
	DW	0bH
	DW	02H
	DW	02H
	DW	04H
	DW	02H
	DW	01H
	DW	02H
	DW	01H
	DW	0aH
	DW	08H
	DW	01H
	DW	02H
	DW	01H
	DW	04H
	DW	05H
	DW	01H
	DW	02H
	DW	05H
	DW	01H
	DW	08H
	DW	04H
	DW	01H
	DW	03H
	DW	04H
	DW	02H
	DW	01H
	DW	06H
	DW	02H
	DW	01H
	DW	03H
	DW	04H
	DW	01H
	DW	02H
	DW	01H
	DW	01H
	DW	01H
	DW	01H
	DW	0cH
	DW	05H
	DW	07H
	DW	02H
	DW	04H
	DW	03H
	DW	01H
	DW	01H
	DW	01H
	DW	03H
	DW	03H
	DW	06H
	DW	01H
	DW	02H
	DW	02H
	DW	03H
	DW	03H
	DW	03H
	DW	02H
	DW	01H
	DW	02H
	DW	0cH
	DW	0eH
	DW	0bH
	DW	06H
	DW	06H
	DW	04H
	DW	0cH
	DW	02H
	DW	08H
	DW	01H
	DW	07H
	DW	0aH
	DW	01H
	DW	023H
	DW	07H
	DW	04H
	DW	0dH
	DW	0fH
	DW	04H
	DW	03H
	DW	017H
	DW	015H
	DW	01cH
	DW	034H
	DW	05H
	DW	01aH
	DW	05H
	DW	06H
	DW	01H
	DW	07H
	DW	0aH
	DW	02H
	DW	07H
	DW	035H
	DW	03H
	DW	02H
	DW	01H
	DW	01H
	DW	01H
	DW	02H
	DW	0a3H
	DW	0214H
	DW	01H
	DW	0aH
	DW	0bH
	DW	01H
	DW	03H
	DW	03H
	DW	04H
	DW	08H
	DW	02H
	DW	08H
	DW	06H
	DW	02H
	DW	02H
	DW	017H
	DW	016H
	DW	04H
	DW	02H
	DW	02H
	DW	04H
	DW	02H
	DW	01H
	DW	03H
	DW	01H
	DW	03H
	DW	03H
	DW	05H
	DW	09H
	DW	08H
	DW	02H
	DW	01H
	DW	02H
	DW	08H
	DW	01H
	DW	0aH
	DW	02H
	DW	0cH
	DW	015H
	DW	014H
	DW	0fH
	DW	069H
	DW	02H
	DW	03H
	DW	01H
	DW	01H
	DW	03H
	DW	02H
	DW	03H
	DW	01H
	DW	01H
	DW	02H
	DW	05H
	DW	01H
	DW	04H
	DW	0fH
	DW	0bH
	DW	013H
	DW	01H
	DW	01H
	DW	01H
	DW	01H
	DW	05H
	DW	04H
	DW	05H
	DW	01H
	DW	01H
	DW	02H
	DW	05H
	DW	03H
	DW	05H
	DW	0cH
	DW	01H
	DW	02H
	DW	05H
	DW	01H
	DW	0bH
	DW	01H
	DW	01H
	DW	0fH
	DW	09H
	DW	01H
	DW	04H
	DW	05H
	DW	03H
	DW	01aH
	DW	08H
	DW	02H
	DW	01H
	DW	03H
	DW	01H
	DW	01H
	DW	0fH
	DW	013H
	DW	02H
	DW	0cH
	DW	01H
	DW	02H
	DW	05H
	DW	02H
	DW	07H
	DW	02H
	DW	013H
	DW	02H
	DW	014H
	DW	06H
	DW	01aH
	DW	07H
	DW	05H
	DW	02H
	DW	02H
	DW	07H
	DW	022H
	DW	015H
	DW	0dH
	DW	046H
	DW	02H
	DW	080H
	DW	01H
	DW	01H
	DW	02H
	DW	01H
	DW	01H
	DW	02H
	DW	01H
	DW	01H
	DW	03H
	DW	02H
	DW	02H
	DW	02H
	DW	0fH
	DW	01H
	DW	04H
	DW	01H
	DW	03H
	DW	04H
	DW	02aH
	DW	0aH
	DW	06H
	DW	01H
	DW	031H
	DW	055H
	DW	08H
	DW	01H
	DW	02H
	DW	01H
	DW	01H
	DW	04H
	DW	04H
	DW	02H
	DW	03H
	DW	06H
	DW	01H
	DW	05H
	DW	07H
	DW	04H
	DW	03H
	DW	0d3H
	DW	04H
	DW	01H
	DW	02H
	DW	01H
	DW	02H
	DW	05H
	DW	01H
	DW	02H
	DW	04H
	DW	02H
	DW	02H
	DW	06H
	DW	05H
	DW	06H
	DW	0aH
	DW	03H
	DW	04H
	DW	030H
	DW	064H
	DW	06H
	DW	02H
	DW	010H
	DW	0128H
	DW	05H
	DW	01bH
	DW	0183H
	DW	02H
	DW	02H
	DW	03H
	DW	07H
	DW	010H
	DW	08H
	DW	05H
	DW	026H
	DW	0fH
	DW	027H
	DW	015H
	DW	09H
	DW	0aH
	DW	03H
	DW	07H
	DW	03bH
	DW	0dH
	DW	01bH
	DW	015H
	DW	02fH
	DW	05H
	DW	015H
	DW	06H
	ORG $+8
?accumulative_offsets_from_0x4E00@?1??GetGlyphRangesJapanese@ImFontAtlas@@QEAAPEBGXZ@4QBFB DW 00H ; `ImFontAtlas::GetGlyphRangesJapanese'::`2'::accumulative_offsets_from_0x4E00
	DW	01H
	DW	02H
	DW	04H
	DW	01H
	DW	01H
	DW	01H
	DW	01H
	DW	02H
	DW	01H
	DW	03H
	DW	03H
	DW	02H
	DW	02H
	DW	01H
	DW	05H
	DW	03H
	DW	05H
	DW	07H
	DW	05H
	DW	06H
	DW	01H
	DW	02H
	DW	01H
	DW	07H
	DW	02H
	DW	06H
	DW	03H
	DW	01H
	DW	08H
	DW	01H
	DW	01H
	DW	04H
	DW	01H
	DW	01H
	DW	012H
	DW	02H
	DW	0bH
	DW	02H
	DW	06H
	DW	02H
	DW	01H
	DW	02H
	DW	01H
	DW	05H
	DW	01H
	DW	02H
	DW	01H
	DW	03H
	DW	01H
	DW	02H
	DW	01H
	DW	02H
	DW	03H
	DW	03H
	DW	01H
	DW	01H
	DW	02H
	DW	03H
	DW	01H
	DW	01H
	DW	01H
	DW	0cH
	DW	07H
	DW	09H
	DW	01H
	DW	04H
	DW	05H
	DW	01H
	DW	01H
	DW	02H
	DW	01H
	DW	0aH
	DW	01H
	DW	01H
	DW	09H
	DW	02H
	DW	02H
	DW	04H
	DW	05H
	DW	06H
	DW	09H
	DW	03H
	DW	01H
	DW	01H
	DW	01H
	DW	01H
	DW	09H
	DW	03H
	DW	012H
	DW	05H
	DW	02H
	DW	02H
	DW	02H
	DW	02H
	DW	01H
	DW	06H
	DW	03H
	DW	07H
	DW	01H
	DW	01H
	DW	01H
	DW	01H
	DW	02H
	DW	02H
	DW	04H
	DW	02H
	DW	01H
	DW	017H
	DW	02H
	DW	0aH
	DW	04H
	DW	03H
	DW	05H
	DW	02H
	DW	04H
	DW	0aH
	DW	02H
	DW	04H
	DW	0dH
	DW	01H
	DW	06H
	DW	01H
	DW	09H
	DW	03H
	DW	01H
	DW	01H
	DW	06H
	DW	06H
	DW	07H
	DW	06H
	DW	03H
	DW	01H
	DW	02H
	DW	0bH
	DW	03H
	DW	02H
	DW	02H
	DW	03H
	DW	02H
	DW	0fH
	DW	02H
	DW	02H
	DW	05H
	DW	04H
	DW	03H
	DW	06H
	DW	04H
	DW	01H
	DW	02H
	DW	05H
	DW	02H
	DW	0cH
	DW	010H
	DW	06H
	DW	0dH
	DW	09H
	DW	0dH
	DW	02H
	DW	01H
	DW	01H
	DW	07H
	DW	010H
	DW	04H
	DW	07H
	DW	01H
	DW	013H
	DW	01H
	DW	05H
	DW	01H
	DW	02H
	DW	02H
	DW	07H
	DW	07H
	DW	08H
	DW	02H
	DW	06H
	DW	05H
	DW	04H
	DW	09H
	DW	012H
	DW	07H
	DW	04H
	DW	05H
	DW	09H
	DW	0dH
	DW	0bH
	DW	08H
	DW	0fH
	DW	02H
	DW	01H
	DW	01H
	DW	01H
	DW	02H
	DW	01H
	DW	02H
	DW	02H
	DW	01H
	DW	02H
	DW	02H
	DW	08H
	DW	02H
	DW	09H
	DW	03H
	DW	03H
	DW	01H
	DW	01H
	DW	04H
	DW	04H
	DW	01H
	DW	01H
	DW	01H
	DW	04H
	DW	09H
	DW	01H
	DW	04H
	DW	03H
	DW	05H
	DW	05H
	DW	02H
	DW	07H
	DW	05H
	DW	03H
	DW	04H
	DW	08H
	DW	02H
	DW	01H
	DW	0dH
	DW	02H
	DW	03H
	DW	03H
	DW	01H
	DW	0eH
	DW	01H
	DW	01H
	DW	04H
	DW	05H
	DW	01H
	DW	03H
	DW	06H
	DW	01H
	DW	05H
	DW	02H
	DW	01H
	DW	01H
	DW	03H
	DW	03H
	DW	03H
	DW	03H
	DW	01H
	DW	01H
	DW	02H
	DW	07H
	DW	06H
	DW	06H
	DW	07H
	DW	01H
	DW	04H
	DW	07H
	DW	06H
	DW	01H
	DW	01H
	DW	01H
	DW	01H
	DW	01H
	DW	0cH
	DW	03H
	DW	03H
	DW	09H
	DW	05H
	DW	02H
	DW	06H
	DW	01H
	DW	05H
	DW	06H
	DW	01H
	DW	02H
	DW	03H
	DW	012H
	DW	02H
	DW	04H
	DW	0eH
	DW	04H
	DW	01H
	DW	03H
	DW	06H
	DW	01H
	DW	01H
	DW	06H
	DW	03H
	DW	05H
	DW	05H
	DW	03H
	DW	02H
	DW	02H
	DW	02H
	DW	02H
	DW	0cH
	DW	03H
	DW	01H
	DW	04H
	DW	02H
	DW	03H
	DW	02H
	DW	03H
	DW	0bH
	DW	01H
	DW	07H
	DW	04H
	DW	01H
	DW	02H
	DW	01H
	DW	03H
	DW	011H
	DW	01H
	DW	09H
	DW	01H
	DW	018H
	DW	01H
	DW	01H
	DW	04H
	DW	02H
	DW	02H
	DW	04H
	DW	01H
	DW	02H
	DW	07H
	DW	01H
	DW	01H
	DW	01H
	DW	03H
	DW	01H
	DW	02H
	DW	02H
	DW	04H
	DW	0fH
	DW	01H
	DW	01H
	DW	02H
	DW	01H
	DW	01H
	DW	02H
	DW	01H
	DW	05H
	DW	02H
	DW	05H
	DW	014H
	DW	02H
	DW	05H
	DW	09H
	DW	01H
	DW	0aH
	DW	08H
	DW	07H
	DW	06H
	DW	01H
	DW	01H
	DW	01H
	DW	01H
	DW	01H
	DW	01H
	DW	06H
	DW	02H
	DW	01H
	DW	02H
	DW	08H
	DW	01H
	DW	01H
	DW	01H
	DW	01H
	DW	05H
	DW	01H
	DW	01H
	DW	03H
	DW	01H
	DW	01H
	DW	01H
	DW	01H
	DW	03H
	DW	01H
	DW	01H
	DW	0cH
	DW	04H
	DW	01H
	DW	03H
	DW	01H
	DW	01H
	DW	01H
	DW	01H
	DW	01H
	DW	0aH
	DW	03H
	DW	01H
	DW	07H
	DW	05H
	DW	0dH
	DW	01H
	DW	02H
	DW	03H
	DW	04H
	DW	06H
	DW	01H
	DW	01H
	DW	01eH
	DW	02H
	DW	09H
	DW	09H
	DW	01H
	DW	0fH
	DW	026H
	DW	0bH
	DW	03H
	DW	01H
	DW	08H
	DW	018H
	DW	07H
	DW	01H
	DW	09H
	DW	08H
	DW	0aH
	DW	02H
	DW	01H
	DW	09H
	DW	01fH
	DW	02H
	DW	0dH
	DW	06H
	DW	02H
	DW	09H
	DW	04H
	DW	031H
	DW	05H
	DW	02H
	DW	0fH
	DW	02H
	DW	01H
	DW	0aH
	DW	02H
	DW	01H
	DW	01H
	DW	01H
	DW	02H
	DW	02H
	DW	06H
	DW	0fH
	DW	01eH
	DW	023H
	DW	03H
	DW	0eH
	DW	012H
	DW	08H
	DW	01H
	DW	010H
	DW	0aH
	DW	01cH
	DW	0cH
	DW	013H
	DW	02dH
	DW	026H
	DW	01H
	DW	03H
	DW	02H
	DW	03H
	DW	0dH
	DW	02H
	DW	01H
	DW	07H
	DW	03H
	DW	06H
	DW	05H
	DW	03H
	DW	04H
	DW	03H
	DW	01H
	DW	05H
	DW	07H
	DW	08H
	DW	01H
	DW	05H
	DW	03H
	DW	012H
	DW	05H
	DW	03H
	DW	06H
	DW	01H
	DW	015H
	DW	04H
	DW	018H
	DW	09H
	DW	018H
	DW	028H
	DW	03H
	DW	0eH
	DW	03H
	DW	015H
	DW	03H
	DW	02H
	DW	01H
	DW	02H
	DW	04H
	DW	02H
	DW	03H
	DW	01H
	DW	0fH
	DW	0fH
	DW	06H
	DW	05H
	DW	01H
	DW	01H
	DW	03H
	DW	01H
	DW	05H
	DW	06H
	DW	01H
	DW	09H
	DW	07H
	DW	03H
	DW	03H
	DW	02H
	DW	01H
	DW	04H
	DW	03H
	DW	08H
	DW	015H
	DW	05H
	DW	010H
	DW	04H
	DW	05H
	DW	02H
	DW	0aH
	DW	0bH
	DW	0bH
	DW	03H
	DW	06H
	DW	03H
	DW	02H
	DW	09H
	DW	03H
	DW	06H
	DW	0dH
	DW	01H
	DW	02H
	DW	01H
	DW	01H
	DW	01H
	DW	01H
	DW	0bH
	DW	0cH
	DW	06H
	DW	06H
	DW	01H
	DW	04H
	DW	02H
	DW	06H
	DW	05H
	DW	02H
	DW	01H
	DW	01H
	DW	03H
	DW	03H
	DW	06H
	DW	0dH
	DW	03H
	DW	01H
	DW	01H
	DW	05H
	DW	01H
	DW	02H
	DW	03H
	DW	03H
	DW	0eH
	DW	02H
	DW	01H
	DW	02H
	DW	02H
	DW	02H
	DW	05H
	DW	01H
	DW	09H
	DW	05H
	DW	01H
	DW	01H
	DW	06H
	DW	0cH
	DW	03H
	DW	0cH
	DW	03H
	DW	04H
	DW	0dH
	DW	02H
	DW	0eH
	DW	02H
	DW	08H
	DW	01H
	DW	011H
	DW	05H
	DW	01H
	DW	010H
	DW	04H
	DW	02H
	DW	02H
	DW	015H
	DW	08H
	DW	09H
	DW	06H
	DW	017H
	DW	014H
	DW	0cH
	DW	019H
	DW	013H
	DW	09H
	DW	026H
	DW	08H
	DW	03H
	DW	015H
	DW	028H
	DW	019H
	DW	021H
	DW	0dH
	DW	04H
	DW	03H
	DW	01H
	DW	04H
	DW	01H
	DW	02H
	DW	04H
	DW	01H
	DW	02H
	DW	05H
	DW	01aH
	DW	02H
	DW	01H
	DW	01H
	DW	02H
	DW	01H
	DW	03H
	DW	06H
	DW	02H
	DW	01H
	DW	01H
	DW	01H
	DW	01H
	DW	01H
	DW	01H
	DW	02H
	DW	03H
	DW	01H
	DW	01H
	DW	01H
	DW	09H
	DW	02H
	DW	03H
	DW	01H
	DW	01H
	DW	01H
	DW	03H
	DW	06H
	DW	03H
	DW	02H
	DW	01H
	DW	01H
	DW	06H
	DW	06H
	DW	01H
	DW	08H
	DW	02H
	DW	02H
	DW	02H
	DW	01H
	DW	04H
	DW	01H
	DW	02H
	DW	03H
	DW	02H
	DW	07H
	DW	03H
	DW	02H
	DW	04H
	DW	01H
	DW	02H
	DW	01H
	DW	02H
	DW	02H
	DW	01H
	DW	01H
	DW	01H
	DW	01H
	DW	01H
	DW	03H
	DW	01H
	DW	02H
	DW	05H
	DW	04H
	DW	0aH
	DW	09H
	DW	04H
	DW	09H
	DW	01H
	DW	01H
	DW	01H
	DW	01H
	DW	01H
	DW	01H
	DW	05H
	DW	03H
	DW	02H
	DW	01H
	DW	06H
	DW	04H
	DW	09H
	DW	06H
	DW	01H
	DW	0aH
	DW	02H
	DW	01fH
	DW	011H
	DW	08H
	DW	03H
	DW	07H
	DW	05H
	DW	028H
	DW	01H
	DW	07H
	DW	07H
	DW	01H
	DW	06H
	DW	05H
	DW	02H
	DW	0aH
	DW	07H
	DW	08H
	DW	04H
	DW	0fH
	DW	027H
	DW	019H
	DW	06H
	DW	01cH
	DW	02fH
	DW	012H
	DW	0aH
	DW	07H
	DW	01H
	DW	03H
	DW	01H
	DW	01H
	DW	02H
	DW	01H
	DW	01H
	DW	01H
	DW	03H
	DW	03H
	DW	03H
	DW	01H
	DW	01H
	DW	01H
	DW	03H
	DW	04H
	DW	02H
	DW	01H
	DW	04H
	DW	01H
	DW	03H
	DW	06H
	DW	0aH
	DW	07H
	DW	08H
	DW	06H
	DW	02H
	DW	02H
	DW	01H
	DW	03H
	DW	03H
	DW	02H
	DW	05H
	DW	08H
	DW	07H
	DW	09H
	DW	0cH
	DW	02H
	DW	0fH
	DW	01H
	DW	01H
	DW	04H
	DW	01H
	DW	02H
	DW	01H
	DW	01H
	DW	01H
	DW	03H
	DW	02H
	DW	01H
	DW	03H
	DW	03H
	DW	05H
	DW	06H
	DW	02H
	DW	03H
	DW	02H
	DW	0aH
	DW	01H
	DW	04H
	DW	02H
	DW	08H
	DW	01H
	DW	01H
	DW	01H
	DW	0bH
	DW	06H
	DW	01H
	DW	015H
	DW	04H
	DW	010H
	DW	03H
	DW	01H
	DW	03H
	DW	01H
	DW	04H
	DW	02H
	DW	03H
	DW	06H
	DW	05H
	DW	01H
	DW	03H
	DW	01H
	DW	01H
	DW	03H
	DW	03H
	DW	04H
	DW	06H
	DW	01H
	DW	01H
	DW	0aH
	DW	04H
	DW	02H
	DW	07H
	DW	0aH
	DW	04H
	DW	07H
	DW	04H
	DW	02H
	DW	09H
	DW	04H
	DW	03H
	DW	01H
	DW	01H
	DW	01H
	DW	04H
	DW	01H
	DW	08H
	DW	03H
	DW	04H
	DW	01H
	DW	03H
	DW	01H
	DW	06H
	DW	01H
	DW	04H
	DW	02H
	DW	01H
	DW	04H
	DW	07H
	DW	02H
	DW	01H
	DW	08H
	DW	01H
	DW	04H
	DW	05H
	DW	01H
	DW	01H
	DW	02H
	DW	02H
	DW	04H
	DW	06H
	DW	02H
	DW	07H
	DW	01H
	DW	0aH
	DW	01H
	DW	01H
	DW	03H
	DW	04H
	DW	0bH
	DW	0aH
	DW	08H
	DW	015H
	DW	04H
	DW	06H
	DW	01H
	DW	03H
	DW	05H
	DW	02H
	DW	01H
	DW	02H
	DW	01cH
	DW	05H
	DW	05H
	DW	02H
	DW	03H
	DW	0dH
	DW	01H
	DW	02H
	DW	03H
	DW	01H
	DW	04H
	DW	02H
	DW	01H
	DW	05H
	DW	014H
	DW	03H
	DW	08H
	DW	0bH
	DW	01H
	DW	03H
	DW	03H
	DW	03H
	DW	01H
	DW	08H
	DW	0aH
	DW	09H
	DW	02H
	DW	0aH
	DW	09H
	DW	02H
	DW	03H
	DW	01H
	DW	01H
	DW	02H
	DW	04H
	DW	01H
	DW	08H
	DW	03H
	DW	06H
	DW	01H
	DW	07H
	DW	08H
	DW	06H
	DW	0bH
	DW	01H
	DW	04H
	DW	01dH
	DW	08H
	DW	04H
	DW	03H
	DW	01H
	DW	02H
	DW	07H
	DW	0dH
	DW	01H
	DW	04H
	DW	01H
	DW	06H
	DW	02H
	DW	06H
	DW	0cH
	DW	0cH
	DW	02H
	DW	014H
	DW	03H
	DW	02H
	DW	03H
	DW	06H
	DW	04H
	DW	08H
	DW	09H
	DW	02H
	DW	07H
	DW	022H
	DW	05H
	DW	01H
	DW	012H
	DW	06H
	DW	01H
	DW	01H
	DW	04H
	DW	04H
	DW	05H
	DW	07H
	DW	09H
	DW	01H
	DW	02H
	DW	02H
	DW	04H
	DW	03H
	DW	04H
	DW	01H
	DW	07H
	DW	02H
	DW	02H
	DW	02H
	DW	06H
	DW	02H
	DW	03H
	DW	019H
	DW	05H
	DW	03H
	DW	06H
	DW	01H
	DW	04H
	DW	06H
	DW	07H
	DW	04H
	DW	02H
	DW	01H
	DW	04H
	DW	02H
	DW	0dH
	DW	06H
	DW	04H
	DW	04H
	DW	03H
	DW	01H
	DW	05H
	DW	03H
	DW	04H
	DW	04H
	DW	03H
	DW	02H
	DW	01H
	DW	01H
	DW	04H
	DW	01H
	DW	02H
	DW	01H
	DW	01H
	DW	03H
	DW	01H
	DW	0bH
	DW	01H
	DW	06H
	DW	03H
	DW	01H
	DW	07H
	DW	03H
	DW	06H
	DW	02H
	DW	08H
	DW	08H
	DW	06H
	DW	09H
	DW	03H
	DW	04H
	DW	0bH
	DW	03H
	DW	02H
	DW	0aH
	DW	0cH
	DW	02H
	DW	05H
	DW	0bH
	DW	01H
	DW	06H
	DW	04H
	DW	05H
	DW	03H
	DW	01H
	DW	08H
	DW	05H
	DW	04H
	DW	06H
	DW	06H
	DW	03H
	DW	05H
	DW	01H
	DW	01H
	DW	03H
	DW	02H
	DW	01H
	DW	02H
	DW	02H
	DW	06H
	DW	011H
	DW	0cH
	DW	01H
	DW	0aH
	DW	01H
	DW	06H
	DW	0cH
	DW	01H
	DW	06H
	DW	06H
	DW	013H
	DW	09H
	DW	06H
	DW	010H
	DW	01H
	DW	0dH
	DW	04H
	DW	04H
	DW	0fH
	DW	07H
	DW	011H
	DW	06H
	DW	0bH
	DW	09H
	DW	0fH
	DW	0cH
	DW	06H
	DW	07H
	DW	02H
	DW	01H
	DW	02H
	DW	02H
	DW	0fH
	DW	09H
	DW	03H
	DW	015H
	DW	04H
	DW	06H
	DW	031H
	DW	012H
	DW	07H
	DW	03H
	DW	02H
	DW	03H
	DW	01H
	DW	06H
	DW	08H
	DW	02H
	DW	02H
	DW	06H
	DW	02H
	DW	09H
	DW	01H
	DW	03H
	DW	06H
	DW	04H
	DW	04H
	DW	01H
	DW	02H
	DW	010H
	DW	02H
	DW	05H
	DW	02H
	DW	01H
	DW	06H
	DW	02H
	DW	03H
	DW	05H
	DW	03H
	DW	01H
	DW	02H
	DW	05H
	DW	01H
	DW	02H
	DW	01H
	DW	09H
	DW	03H
	DW	01H
	DW	08H
	DW	06H
	DW	04H
	DW	08H
	DW	0bH
	DW	03H
	DW	01H
	DW	01H
	DW	01H
	DW	01H
	DW	03H
	DW	01H
	DW	0dH
	DW	08H
	DW	04H
	DW	01H
	DW	03H
	DW	02H
	DW	02H
	DW	01H
	DW	04H
	DW	01H
	DW	0bH
	DW	01H
	DW	05H
	DW	02H
	DW	01H
	DW	05H
	DW	02H
	DW	05H
	DW	08H
	DW	06H
	DW	01H
	DW	01H
	DW	07H
	DW	04H
	DW	03H
	DW	08H
	DW	03H
	DW	02H
	DW	07H
	DW	02H
	DW	01H
	DW	05H
	DW	01H
	DW	05H
	DW	02H
	DW	04H
	DW	07H
	DW	06H
	DW	02H
	DW	08H
	DW	05H
	DW	01H
	DW	0bH
	DW	04H
	DW	05H
	DW	03H
	DW	06H
	DW	012H
	DW	01H
	DW	02H
	DW	0dH
	DW	03H
	DW	03H
	DW	01H
	DW	015H
	DW	01H
	DW	01H
	DW	04H
	DW	01H
	DW	04H
	DW	01H
	DW	01H
	DW	01H
	DW	08H
	DW	01H
	DW	02H
	DW	02H
	DW	07H
	DW	01H
	DW	02H
	DW	04H
	DW	02H
	DW	02H
	DW	09H
	DW	02H
	DW	01H
	DW	01H
	DW	01H
	DW	04H
	DW	03H
	DW	06H
	DW	03H
	DW	0cH
	DW	05H
	DW	01H
	DW	01H
	DW	01H
	DW	05H
	DW	06H
	DW	03H
	DW	02H
	DW	04H
	DW	08H
	DW	02H
	DW	02H
	DW	04H
	DW	02H
	DW	07H
	DW	01H
	DW	08H
	DW	09H
	DW	05H
	DW	02H
	DW	03H
	DW	02H
	DW	01H
	DW	03H
	DW	02H
	DW	0dH
	DW	07H
	DW	0eH
	DW	06H
	DW	05H
	DW	01H
	DW	01H
	DW	02H
	DW	01H
	DW	04H
	DW	02H
	DW	017H
	DW	02H
	DW	01H
	DW	01H
	DW	06H
	DW	03H
	DW	01H
	DW	04H
	DW	01H
	DW	0fH
	DW	03H
	DW	01H
	DW	07H
	DW	03H
	DW	09H
	DW	0eH
	DW	01H
	DW	03H
	DW	01H
	DW	04H
	DW	01H
	DW	01H
	DW	05H
	DW	08H
	DW	01H
	DW	03H
	DW	08H
	DW	03H
	DW	08H
	DW	0fH
	DW	0bH
	DW	04H
	DW	0eH
	DW	04H
	DW	04H
	DW	02H
	DW	05H
	DW	05H
	DW	01H
	DW	07H
	DW	01H
	DW	06H
	DW	0eH
	DW	07H
	DW	07H
	DW	08H
	DW	05H
	DW	0fH
	DW	04H
	DW	08H
	DW	06H
	DW	05H
	DW	06H
	DW	02H
	DW	01H
	DW	0dH
	DW	01H
	DW	014H
	DW	0fH
	DW	0bH
	DW	09H
	DW	02H
	DW	05H
	DW	06H
	DW	02H
	DW	0bH
	DW	02H
	DW	06H
	DW	02H
	DW	05H
	DW	01H
	DW	05H
	DW	08H
	DW	04H
	DW	0dH
	DW	013H
	DW	019H
	DW	04H
	DW	01H
	DW	01H
	DW	0bH
	DW	01H
	DW	022H
	DW	02H
	DW	05H
	DW	09H
	DW	0eH
	DW	06H
	DW	02H
	DW	02H
	DW	06H
	DW	01H
	DW	01H
	DW	0eH
	DW	01H
	DW	03H
	DW	0eH
	DW	0dH
	DW	01H
	DW	06H
	DW	0cH
	DW	015H
	DW	0eH
	DW	0eH
	DW	06H
	DW	020H
	DW	011H
	DW	08H
	DW	020H
	DW	09H
	DW	01cH
	DW	01H
	DW	02H
	DW	04H
	DW	0bH
	DW	08H
	DW	03H
	DW	01H
	DW	0eH
	DW	02H
	DW	05H
	DW	0fH
	DW	01H
	DW	01H
	DW	01H
	DW	01H
	DW	03H
	DW	06H
	DW	04H
	DW	01H
	DW	03H
	DW	04H
	DW	0bH
	DW	03H
	DW	01H
	DW	01H
	DW	0bH
	DW	01eH
	DW	01H
	DW	05H
	DW	01H
	DW	04H
	DW	01H
	DW	05H
	DW	08H
	DW	01H
	DW	01H
	DW	03H
	DW	02H
	DW	04H
	DW	03H
	DW	011H
	DW	023H
	DW	02H
	DW	06H
	DW	0cH
	DW	011H
	DW	03H
	DW	01H
	DW	06H
	DW	02H
	DW	01H
	DW	01H
	DW	0cH
	DW	02H
	DW	07H
	DW	03H
	DW	03H
	DW	02H
	DW	01H
	DW	010H
	DW	02H
	DW	08H
	DW	03H
	DW	06H
	DW	05H
	DW	04H
	DW	07H
	DW	03H
	DW	03H
	DW	08H
	DW	01H
	DW	09H
	DW	08H
	DW	05H
	DW	01H
	DW	02H
	DW	01H
	DW	03H
	DW	02H
	DW	08H
	DW	01H
	DW	02H
	DW	09H
	DW	0cH
	DW	01H
	DW	01H
	DW	02H
	DW	03H
	DW	08H
	DW	03H
	DW	018H
	DW	0cH
	DW	04H
	DW	03H
	DW	07H
	DW	05H
	DW	08H
	DW	03H
	DW	03H
	DW	03H
	DW	03H
	DW	03H
	DW	03H
	DW	01H
	DW	017H
	DW	0aH
	DW	03H
	DW	01H
	DW	02H
	DW	02H
	DW	06H
	DW	03H
	DW	01H
	DW	010H
	DW	01H
	DW	010H
	DW	016H
	DW	03H
	DW	0aH
	DW	04H
	DW	0bH
	DW	06H
	DW	09H
	DW	07H
	DW	07H
	DW	03H
	DW	06H
	DW	02H
	DW	02H
	DW	02H
	DW	04H
	DW	0aH
	DW	02H
	DW	01H
	DW	01H
	DW	02H
	DW	08H
	DW	07H
	DW	01H
	DW	06H
	DW	04H
	DW	01H
	DW	03H
	DW	03H
	DW	03H
	DW	05H
	DW	0aH
	DW	0cH
	DW	0cH
	DW	02H
	DW	03H
	DW	0cH
	DW	08H
	DW	0fH
	DW	01H
	DW	01H
	DW	010H
	DW	06H
	DW	06H
	DW	01H
	DW	05H
	DW	09H
	DW	0bH
	DW	04H
	DW	0bH
	DW	04H
	DW	02H
	DW	06H
	DW	0cH
	DW	01H
	DW	011H
	DW	05H
	DW	0dH
	DW	01H
	DW	04H
	DW	09H
	DW	05H
	DW	01H
	DW	0bH
	DW	02H
	DW	01H
	DW	08H
	DW	01H
	DW	05H
	DW	07H
	DW	01cH
	DW	08H
	DW	03H
	DW	05H
	DW	0aH
	DW	02H
	DW	011H
	DW	03H
	DW	026H
	DW	016H
	DW	01H
	DW	02H
	DW	012H
	DW	0cH
	DW	0aH
	DW	04H
	DW	026H
	DW	012H
	DW	01H
	DW	04H
	DW	02cH
	DW	013H
	DW	04H
	DW	01H
	DW	08H
	DW	04H
	DW	01H
	DW	0cH
	DW	01H
	DW	04H
	DW	01fH
	DW	0cH
	DW	01H
	DW	0eH
	DW	07H
	DW	04bH
	DW	07H
	DW	05H
	DW	0aH
	DW	06H
	DW	06H
	DW	0dH
	DW	03H
	DW	02H
	DW	0bH
	DW	0bH
	DW	03H
	DW	02H
	DW	05H
	DW	01cH
	DW	0fH
	DW	06H
	DW	012H
	DW	012H
	DW	05H
	DW	06H
	DW	04H
	DW	03H
	DW	010H
	DW	01H
	DW	07H
	DW	012H
	DW	07H
	DW	024H
	DW	03H
	DW	05H
	DW	03H
	DW	01H
	DW	07H
	DW	01H
	DW	09H
	DW	01H
	DW	0aH
	DW	07H
	DW	02H
	DW	04H
	DW	02H
	DW	06H
	DW	02H
	DW	09H
	DW	07H
	DW	04H
	DW	03H
	DW	020H
	DW	0cH
	DW	03H
	DW	07H
	DW	0aH
	DW	02H
	DW	017H
	DW	010H
	DW	03H
	DW	01H
	DW	0cH
	DW	03H
	DW	01fH
	DW	04H
	DW	0bH
	DW	01H
	DW	03H
	DW	08H
	DW	09H
	DW	05H
	DW	01H
	DW	01eH
	DW	0fH
	DW	06H
	DW	0cH
	DW	03H
	DW	02H
	DW	02H
	DW	0bH
	DW	013H
	DW	09H
	DW	0eH
	DW	02H
	DW	06H
	DW	02H
	DW	03H
	DW	013H
	DW	0dH
	DW	011H
	DW	05H
	DW	03H
	DW	03H
	DW	019H
	DW	03H
	DW	0eH
	DW	01H
	DW	01H
	DW	01H
	DW	024H
	DW	01H
	DW	03H
	DW	02H
	DW	013H
	DW	03H
	DW	0dH
	DW	024H
	DW	09H
	DW	0dH
	DW	01fH
	DW	06H
	DW	04H
	DW	010H
	DW	022H
	DW	02H
	DW	05H
	DW	04H
	DW	02H
	DW	03H
	DW	03H
	DW	05H
	DW	01H
	DW	01H
	DW	01H
	DW	04H
	DW	03H
	DW	01H
	DW	011H
	DW	03H
	DW	02H
	DW	03H
	DW	05H
	DW	03H
	DW	01H
	DW	03H
	DW	02H
	DW	03H
	DW	05H
	DW	06H
	DW	03H
	DW	0cH
	DW	0bH
	DW	01H
	DW	03H
	DW	01H
	DW	02H
	DW	01aH
	DW	07H
	DW	0cH
	DW	07H
	DW	02H
	DW	0eH
	DW	03H
	DW	03H
	DW	07H
	DW	07H
	DW	0bH
	DW	019H
	DW	019H
	DW	01cH
	DW	010H
	DW	04H
	DW	024H
	DW	01H
	DW	02H
	DW	01H
	DW	06H
	DW	02H
	DW	01H
	DW	09H
	DW	03H
	DW	01bH
	DW	011H
	DW	04H
	DW	03H
	DW	04H
	DW	0dH
	DW	04H
	DW	01H
	DW	03H
	DW	02H
	DW	02H
	DW	01H
	DW	0aH
	DW	04H
	DW	02H
	DW	04H
	DW	06H
	DW	03H
	DW	08H
	DW	02H
	DW	01H
	DW	012H
	DW	01H
	DW	01H
	DW	018H
	DW	02H
	DW	02H
	DW	04H
	DW	021H
	DW	02H
	DW	03H
	DW	03fH
	DW	07H
	DW	01H
	DW	06H
	DW	028H
	DW	07H
	DW	03H
	DW	04H
	DW	04H
	DW	02H
	DW	04H
	DW	0fH
	DW	012H
	DW	01H
	DW	010H
	DW	01H
	DW	01H
	DW	0bH
	DW	02H
	DW	029H
	DW	0eH
	DW	01H
	DW	03H
	DW	012H
	DW	0dH
	DW	03H
	DW	02H
	DW	04H
	DW	010H
	DW	02H
	DW	011H
	DW	07H
	DW	0fH
	DW	018H
	DW	07H
	DW	012H
	DW	0dH
	DW	02cH
	DW	02H
	DW	02H
	DW	03H
	DW	06H
	DW	01H
	DW	01H
	DW	07H
	DW	05H
	DW	01H
	DW	07H
	DW	01H
	DW	04H
	DW	03H
	DW	03H
	DW	05H
	DW	0aH
	DW	08H
	DW	02H
	DW	03H
	DW	01H
	DW	08H
	DW	01H
	DW	01H
	DW	01bH
	DW	04H
	DW	02H
	DW	01H
	DW	0cH
	DW	01H
	DW	02H
	DW	01H
	DW	0aH
	DW	06H
	DW	01H
	DW	06H
	DW	07H
	DW	05H
	DW	02H
	DW	03H
	DW	07H
	DW	0bH
	DW	05H
	DW	0bH
	DW	03H
	DW	06H
	DW	06H
	DW	02H
	DW	03H
	DW	0fH
	DW	04H
	DW	09H
	DW	01H
	DW	01H
	DW	02H
	DW	01H
	DW	02H
	DW	0bH
	DW	02H
	DW	08H
	DW	0cH
	DW	08H
	DW	05H
	DW	04H
	DW	02H
	DW	03H
	DW	01H
	DW	05H
	DW	02H
	DW	02H
	DW	01H
	DW	0eH
	DW	01H
	DW	0cH
	DW	0bH
	DW	04H
	DW	01H
	DW	0bH
	DW	011H
	DW	011H
	DW	04H
	DW	03H
	DW	02H
	DW	05H
	DW	05H
	DW	07H
	DW	03H
	DW	01H
	DW	05H
	DW	09H
	DW	09H
	DW	08H
	DW	02H
	DW	05H
	DW	06H
	DW	06H
	DW	0dH
	DW	0dH
	DW	02H
	DW	01H
	DW	02H
	DW	06H
	DW	01H
	DW	02H
	DW	02H
	DW	031H
	DW	04H
	DW	09H
	DW	01H
	DW	02H
	DW	0aH
	DW	010H
	DW	07H
	DW	08H
	DW	04H
	DW	03H
	DW	02H
	DW	017H
	DW	04H
	DW	03aH
	DW	03H
	DW	01dH
	DW	01H
	DW	0eH
	DW	013H
	DW	013H
	DW	0bH
	DW	0bH
	DW	02H
	DW	07H
	DW	05H
	DW	01H
	DW	03H
	DW	04H
	DW	06H
	DW	02H
	DW	012H
	DW	05H
	DW	0cH
	DW	0cH
	DW	011H
	DW	011H
	DW	03H
	DW	03H
	DW	02H
	DW	04H
	DW	01H
	DW	06H
	DW	02H
	DW	03H
	DW	04H
	DW	03H
	DW	01H
	DW	01H
	DW	01H
	DW	01H
	DW	05H
	DW	01H
	DW	01H
	DW	09H
	DW	01H
	DW	03H
	DW	01H
	DW	03H
	DW	06H
	DW	01H
	DW	08H
	DW	01H
	DW	01H
	DW	02H
	DW	06H
	DW	04H
	DW	0eH
	DW	03H
	DW	01H
	DW	04H
	DW	0bH
	DW	04H
	DW	01H
	DW	03H
	DW	020H
	DW	01H
	DW	02H
	DW	04H
	DW	0dH
	DW	04H
	DW	01H
	DW	02H
	DW	04H
	DW	02H
	DW	01H
	DW	03H
	DW	01H
	DW	0bH
	DW	01H
	DW	04H
	DW	02H
	DW	01H
	DW	04H
	DW	04H
	DW	06H
	DW	03H
	DW	05H
	DW	01H
	DW	06H
	DW	05H
	DW	07H
	DW	06H
	DW	03H
	DW	017H
	DW	03H
	DW	05H
	DW	03H
	DW	05H
	DW	03H
	DW	03H
	DW	0dH
	DW	03H
	DW	09H
	DW	0aH
	DW	01H
	DW	0cH
	DW	0aH
	DW	02H
	DW	03H
	DW	012H
	DW	0dH
	DW	07H
	DW	0a0H
	DW	034H
	DW	04H
	DW	02H
	DW	02H
	DW	03H
	DW	02H
	DW	0eH
	DW	05H
	DW	04H
	DW	0cH
	DW	04H
	DW	06H
	DW	04H
	DW	01H
	DW	014H
	DW	04H
	DW	0bH
	DW	06H
	DW	02H
	DW	0cH
	DW	01bH
	DW	01H
	DW	04H
	DW	01H
	DW	02H
	DW	02H
	DW	07H
	DW	04H
	DW	05H
	DW	02H
	DW	01cH
	DW	03H
	DW	07H
	DW	019H
	DW	08H
	DW	03H
	DW	013H
	DW	03H
	DW	06H
	DW	0aH
	DW	02H
	DW	02H
	DW	01H
	DW	0aH
	DW	02H
	DW	05H
	DW	04H
	DW	01H
	DW	03H
	DW	04H
	DW	01H
	DW	05H
	DW	03H
	DW	02H
	DW	06H
	DW	09H
	DW	03H
	DW	06H
	DW	02H
	DW	010H
	DW	03H
	DW	03H
	DW	010H
	DW	04H
	DW	05H
	DW	05H
	DW	03H
	DW	02H
	DW	01H
	DW	02H
	DW	010H
	DW	0fH
	DW	08H
	DW	02H
	DW	06H
	DW	015H
	DW	02H
	DW	04H
	DW	01H
	DW	016H
	DW	05H
	DW	08H
	DW	01H
	DW	01H
	DW	015H
	DW	0bH
	DW	02H
	DW	01H
	DW	0bH
	DW	0bH
	DW	013H
	DW	0dH
	DW	0cH
	DW	04H
	DW	02H
	DW	03H
	DW	02H
	DW	03H
	DW	06H
	DW	01H
	DW	08H
	DW	0bH
	DW	01H
	DW	04H
	DW	02H
	DW	09H
	DW	05H
	DW	02H
	DW	01H
	DW	0bH
	DW	02H
	DW	09H
	DW	01H
	DW	01H
	DW	02H
	DW	0eH
	DW	01fH
	DW	09H
	DW	03H
	DW	04H
	DW	015H
	DW	0eH
	DW	04H
	DW	08H
	DW	01H
	DW	07H
	DW	02H
	DW	02H
	DW	02H
	DW	05H
	DW	01H
	DW	04H
	DW	014H
	DW	03H
	DW	03H
	DW	04H
	DW	0aH
	DW	01H
	DW	0bH
	DW	09H
	DW	08H
	DW	02H
	DW	01H
	DW	04H
	DW	05H
	DW	0eH
	DW	0cH
	DW	0eH
	DW	02H
	DW	011H
	DW	09H
	DW	06H
	DW	01fH
	DW	04H
	DW	0eH
	DW	01H
	DW	014H
	DW	0dH
	DW	01aH
	DW	05H
	DW	02H
	DW	07H
	DW	03H
	DW	06H
	DW	0dH
	DW	02H
	DW	04H
	DW	02H
	DW	013H
	DW	06H
	DW	02H
	DW	02H
	DW	012H
	DW	09H
	DW	03H
	DW	05H
	DW	0cH
	DW	0cH
	DW	0eH
	DW	04H
	DW	06H
	DW	02H
	DW	03H
	DW	06H
	DW	09H
	DW	05H
	DW	016H
	DW	04H
	DW	05H
	DW	019H
	DW	06H
	DW	04H
	DW	08H
	DW	05H
	DW	02H
	DW	06H
	DW	01bH
	DW	02H
	DW	023H
	DW	02H
	DW	010H
	DW	03H
	DW	07H
	DW	08H
	DW	08H
	DW	06H
	DW	06H
	DW	05H
	DW	09H
	DW	011H
	DW	02H
	DW	014H
	DW	06H
	DW	013H
	DW	02H
	DW	0dH
	DW	03H
	DW	01H
	DW	01H
	DW	01H
	DW	04H
	DW	011H
	DW	0cH
	DW	02H
	DW	0eH
	DW	07H
	DW	01H
	DW	04H
	DW	012H
	DW	0cH
	DW	026H
	DW	021H
	DW	02H
	DW	0aH
	DW	01H
	DW	01H
	DW	02H
	DW	0dH
	DW	0eH
	DW	011H
	DW	0bH
	DW	032H
	DW	06H
	DW	021H
	DW	014H
	DW	01aH
	DW	04aH
	DW	010H
	DW	017H
	DW	02dH
	DW	032H
	DW	0dH
	DW	026H
	DW	021H
	DW	06H
	DW	06H
	DW	07H
	DW	04H
	DW	04H
	DW	02H
	DW	01H
	DW	03H
	DW	02H
	DW	05H
	DW	08H
	DW	07H
	DW	08H
	DW	09H
	DW	03H
	DW	0bH
	DW	015H
	DW	09H
	DW	0dH
	DW	01H
	DW	03H
	DW	0aH
	DW	06H
	DW	07H
	DW	01H
	DW	02H
	DW	02H
	DW	012H
	DW	05H
	DW	05H
	DW	01H
	DW	09H
	DW	09H
	DW	02H
	DW	044H
	DW	09H
	DW	013H
	DW	0dH
	DW	02H
	DW	05H
	DW	01H
	DW	04H
	DW	04H
	DW	07H
	DW	04H
	DW	0dH
	DW	03H
	DW	09H
	DW	0aH
	DW	015H
	DW	011H
	DW	03H
	DW	01aH
	DW	02H
	DW	01H
	DW	05H
	DW	02H
	DW	04H
	DW	05H
	DW	04H
	DW	01H
	DW	07H
	DW	04H
	DW	07H
	DW	03H
	DW	04H
	DW	02H
	DW	01H
	DW	06H
	DW	01H
	DW	01H
	DW	014H
	DW	04H
	DW	01H
	DW	09H
	DW	02H
	DW	02H
	DW	01H
	DW	03H
	DW	03H
	DW	02H
	DW	03H
	DW	02H
	DW	01H
	DW	01H
	DW	01H
	DW	014H
	DW	02H
	DW	03H
	DW	01H
	DW	06H
	DW	02H
	DW	03H
	DW	06H
	DW	02H
	DW	04H
	DW	08H
	DW	01H
	DW	03H
	DW	02H
	DW	0aH
	DW	03H
	DW	05H
	DW	03H
	DW	04H
	DW	04H
	DW	03H
	DW	04H
	DW	010H
	DW	01H
	DW	06H
	DW	01H
	DW	0aH
	DW	02H
	DW	04H
	DW	02H
	DW	01H
	DW	01H
	DW	02H
	DW	0aH
	DW	0bH
	DW	02H
	DW	02H
	DW	03H
	DW	01H
	DW	018H
	DW	01fH
	DW	04H
	DW	0aH
	DW	0aH
	DW	02H
	DW	05H
	DW	0cH
	DW	010H
	DW	0a4H
	DW	0fH
	DW	04H
	DW	010H
	DW	07H
	DW	09H
	DW	0fH
	DW	013H
	DW	011H
	DW	01H
	DW	02H
	DW	01H
	DW	01H
	DW	05H
	DW	01H
	DW	01H
	DW	01H
	DW	01H
	DW	01H
	DW	03H
	DW	01H
	DW	04H
	DW	03H
	DW	01H
	DW	03H
	DW	01H
	DW	03H
	DW	01H
	DW	02H
	DW	01H
	DW	01H
	DW	03H
	DW	03H
	DW	07H
	DW	02H
	DW	08H
	DW	01H
	DW	02H
	DW	02H
	DW	02H
	DW	01H
	DW	03H
	DW	04H
	DW	03H
	DW	07H
	DW	08H
	DW	0cH
	DW	05cH
	DW	02H
	DW	0aH
	DW	03H
	DW	01H
	DW	03H
	DW	0eH
	DW	05H
	DW	019H
	DW	010H
	DW	02aH
	DW	04H
	DW	07H
	DW	07H
	DW	04H
	DW	02H
	DW	015H
	DW	05H
	DW	01bH
	DW	01aH
	DW	01bH
	DW	015H
	DW	019H
	DW	01eH
	DW	01fH
	DW	02H
	DW	01H
	DW	05H
	DW	0dH
	DW	03H
	DW	016H
	DW	05H
	DW	06H
	DW	06H
	DW	0bH
	DW	09H
	DW	0cH
	DW	01H
	DW	05H
	DW	09H
	DW	07H
	DW	05H
	DW	05H
	DW	016H
	DW	03cH
	DW	03H
	DW	05H
	DW	0dH
	DW	01H
	DW	01H
	DW	08H
	DW	01H
	DW	01H
	DW	03H
	DW	03H
	DW	02H
	DW	01H
	DW	09H
	DW	03H
	DW	03H
	DW	012H
	DW	04H
	DW	01H
	DW	02H
	DW	03H
	DW	07H
	DW	06H
	DW	03H
	DW	01H
	DW	02H
	DW	03H
	DW	09H
	DW	01H
	DW	03H
	DW	01H
	DW	03H
	DW	02H
	DW	01H
	DW	03H
	DW	01H
	DW	01H
	DW	01H
	DW	02H
	DW	01H
	DW	0bH
	DW	03H
	DW	01H
	DW	06H
	DW	09H
	DW	01H
	DW	03H
	DW	02H
	DW	03H
	DW	01H
	DW	02H
	DW	01H
	DW	05H
	DW	01H
	DW	01H
	DW	04H
	DW	03H
	DW	04H
	DW	01H
	DW	02H
	DW	02H
	DW	04H
	DW	04H
	DW	01H
	DW	07H
	DW	02H
	DW	01H
	DW	02H
	DW	02H
	DW	03H
	DW	05H
	DW	0dH
	DW	012H
	DW	03H
	DW	04H
	DW	0eH
	DW	09H
	DW	09H
	DW	04H
	DW	010H
	DW	03H
	DW	07H
	DW	05H
	DW	08H
	DW	02H
	DW	06H
	DW	030H
	DW	01cH
	DW	03H
	DW	01H
	DW	01H
	DW	04H
	DW	02H
	DW	0eH
	DW	08H
	DW	02H
	DW	09H
	DW	02H
	DW	01H
	DW	0fH
	DW	02H
	DW	04H
	DW	03H
	DW	02H
	DW	0aH
	DW	010H
	DW	0cH
	DW	08H
	DW	07H
	DW	01H
	DW	01H
	DW	03H
	DW	01H
	DW	01H
	DW	01H
	DW	02H
	DW	07H
	DW	04H
	DW	01H
	DW	06H
	DW	04H
	DW	026H
	DW	027H
	DW	010H
	DW	017H
	DW	07H
	DW	0fH
	DW	0fH
	DW	03H
	DW	02H
	DW	0cH
	DW	07H
	DW	015H
	DW	025H
	DW	01bH
	DW	06H
	DW	05H
	DW	04H
	DW	08H
	DW	02H
	DW	0aH
	DW	08H
	DW	08H
	DW	06H
	DW	05H
	DW	01H
	DW	02H
	DW	01H
	DW	03H
	DW	018H
	DW	01H
	DW	010H
	DW	011H
	DW	09H
	DW	017H
	DW	0aH
	DW	011H
	DW	06H
	DW	01H
	DW	033H
	DW	037H
	DW	02cH
	DW	0dH
	DW	0126H
	DW	09H
	DW	03H
	DW	06H
	DW	02H
	DW	04H
	DW	02H
	DW	02H
	DW	0fH
	DW	01H
	DW	01H
	DW	01H
	DW	0dH
	DW	015H
	DW	011H
	DW	044H
	DW	0eH
	DW	08H
	DW	09H
	DW	04H
	DW	01H
	DW	04H
	DW	09H
	DW	03H
	DW	0bH
	DW	07H
	DW	01H
	DW	01H
	DW	01H
	DW	05H
	DW	06H
	DW	03H
	DW	02H
	DW	01H
	DW	01H
	DW	01H
	DW	02H
	DW	03H
	DW	08H
	DW	01H
	DW	02H
	DW	02H
	DW	04H
	DW	01H
	DW	05H
	DW	05H
	DW	02H
	DW	01H
	DW	04H
	DW	03H
	DW	07H
	DW	0dH
	DW	04H
	DW	01H
	DW	04H
	DW	01H
	DW	03H
	DW	01H
	DW	01H
	DW	01H
	DW	05H
	DW	05H
	DW	0aH
	DW	01H
	DW	06H
	DW	01H
	DW	05H
	DW	02H
	DW	01H
	DW	05H
	DW	02H
	DW	04H
	DW	01H
	DW	04H
	DW	05H
	DW	07H
	DW	03H
	DW	012H
	DW	02H
	DW	09H
	DW	0bH
	DW	020H
	DW	04H
	DW	03H
	DW	03H
	DW	02H
	DW	04H
	DW	07H
	DW	0bH
	DW	010H
	DW	09H
	DW	0bH
	DW	08H
	DW	0dH
	DW	026H
	DW	020H
	DW	08H
	DW	04H
	DW	02H
	DW	01H
	DW	01H
	DW	02H
	DW	01H
	DW	02H
	DW	04H
	DW	04H
	DW	01H
	DW	01H
	DW	01H
	DW	04H
	DW	01H
	DW	015H
	DW	03H
	DW	0bH
	DW	01H
	DW	010H
	DW	01H
	DW	01H
	DW	06H
	DW	01H
	DW	03H
	DW	02H
	DW	04H
	DW	09H
	DW	08H
	DW	039H
	DW	07H
	DW	02cH
	DW	01H
	DW	03H
	DW	03H
	DW	0dH
	DW	03H
	DW	0aH
	DW	01H
	DW	01H
	DW	07H
	DW	05H
	DW	02H
	DW	07H
	DW	015H
	DW	02fH
	DW	03fH
	DW	03H
	DW	0fH
	DW	04H
	DW	07H
	DW	01H
	DW	010H
	DW	01H
	DW	01H
	DW	02H
	DW	08H
	DW	02H
	DW	03H
	DW	02aH
	DW	0fH
	DW	04H
	DW	01H
	DW	01dH
	DW	07H
	DW	016H
	DW	0aH
	DW	03H
	DW	04eH
	DW	010H
	DW	0cH
	DW	014H
	DW	012H
	DW	04H
	DW	043H
	DW	0bH
	DW	05H
	DW	01H
	DW	03H
	DW	0fH
	DW	06H
	DW	015H
	DW	01fH
	DW	020H
	DW	01bH
	DW	012H
	DW	0dH
	DW	047H
	DW	023H
	DW	05H
	DW	08eH
	DW	04H
	DW	0aH
	DW	01H
	DW	02H
	DW	032H
	DW	013H
	DW	021H
	DW	010H
	DW	023H
	DW	025H
	DW	010H
	DW	013H
	DW	01bH
	DW	07H
	DW	01H
	DW	085H
	DW	013H
	DW	01H
	DW	04H
	DW	08H
	DW	07H
	DW	014H
	DW	01H
	DW	04H
	DW	04H
	DW	01H
	DW	0aH
	DW	03H
	DW	01H
	DW	06H
	DW	01H
	DW	02H
	DW	033H
	DW	05H
	DW	028H
	DW	0fH
	DW	018H
	DW	02bH
	DW	05990H
	DW	0bH
	DW	01H
	DW	0dH
	DW	09aH
	DW	046H
	DW	03H
	DW	01H
	DW	01H
	DW	07H
	DW	04H
	DW	0aH
	DW	01H
	DW	02H
	DW	01H
	DW	01H
	DW	02H
	DW	01H
	DW	02H
	DW	01H
	DW	02H
	DW	02H
	DW	01H
	DW	01H
	DW	02H
	DW	01H
	DW	01H
	DW	01H
	DW	01H
	DW	01H
	DW	02H
	DW	01H
	DW	01H
	DW	01H
	DW	01H
	DW	01H
	DW	01H
	DW	01H
	DW	01H
	DW	01H
	DW	01H
	DW	01H
	DW	01H
	DW	01H
	DW	02H
	DW	01H
	DW	01H
	DW	01H
	DW	03H
	DW	02H
	DW	01H
	DW	01H
	DW	01H
	DW	01H
	DW	02H
	DW	01H
	DW	01H
	ORG $+2
?ranges@?1??GetGlyphRangesCyrillic@ImFontAtlas@@QEAAPEBGXZ@4QBGB DW 020H ; `ImFontAtlas::GetGlyphRangesCyrillic'::`2'::ranges
	DW	0ffH
	DW	0400H
	DW	052fH
	DW	02de0H
	DW	02dffH
	DW	0a640H
	DW	0a69fH
	DW	00H
	ORG $+6
?ranges@?1??GetGlyphRangesThai@ImFontAtlas@@QEAAPEBGXZ@4QBGB DW 020H ; `ImFontAtlas::GetGlyphRangesThai'::`2'::ranges
	DW	0ffH
	DW	02010H
	DW	0205eH
	DW	0e00H
	DW	0e7fH
	DW	00H
	ORG $+2
?ranges@?1??GetGlyphRangesVietnamese@ImFontAtlas@@QEAAPEBGXZ@4QBGB DW 020H ; `ImFontAtlas::GetGlyphRangesVietnamese'::`2'::ranges
	DW	0ffH
	DW	0102H
	DW	0103H
	DW	0110H
	DW	0111H
	DW	0128H
	DW	0129H
	DW	0168H
	DW	0169H
	DW	01a0H
	DW	01a1H
	DW	01afH
	DW	01b0H
	DW	01ea0H
	DW	01ef9H
	DW	00H
	ORG $+6
?proggy_clean_ttf_compressed_data_base85@@3QBDB DB '7])#######hV0qs''/###'
	DB	'[),##/l:$#Q6>##5[n42>c-TH`->>#/e>11NNV=Bv(*:.F?uu#(gRU.o0XGH`'
	DB	'$vhLG1hxt9?W`#,5LsCp#-i>.r$<$6pD>Lb'';9Crc6tgXmKVeU2cD4Eo3R/2'
	DB	'*>]b(MC;$jPfY.;h^`IWM9<Lh2TlS+f-s$o6Q<BWH`YiU.xfLq$N;$0iR/GX:'
	DB	'U(jcW2p/W*q?-qmnUCI;jHSAiFWM.R*kU@C=GH?a9wp8f$e.-4^Qg1)Q-GL(l'
	DB	'f(r/7GrRgwV%MS=C#`8ND>Qo#t''X#(v#Y9w0#1D$CIf;W''#pWUPXOuxXuU('
	DB	'H9M(1<q-UE31#^-V''8IRUo7Qf./L>=Ke$$''5F%)]0^#0X@U.a<r:QLtFsLc'
	DB	'L6##lOj)#.Y5<-R&KgLwqJfLgN&;Q?gI^#DY2uLi@^rMl9t=cWq6##weg>$FB'
	DB	'jVQTSDgEKnIS7EM9>ZY9w0#L;>>#Mx&4Mvt//L[MkA#W@lK.N''[0#7RL_&#w'
	DB	'+F%HtG9M#XL`N&.,GM4Pg;-<nLENhvx>-VsM.M0rJfLH2eTM`*oJMHRC`Nkfi'
	DB	'mM2J,W-jXS:)r0wK#@Fge$U>`w''N7G#$#fB#$E^$#:9:hk+eOe--6x)F7*E%'
	DB	'?76%^GMHePW-Z5l''&GiF#$956:rS?dA#fiK:)Yr+`&#0j@''DbG&#^$PG.Ll'
	DB	'+DNa<XCMKEV*N)LN/N*b=%Q6pia-Xg8I$<MR&,VdJe$<(7G;Ckl''&hF;;$<_'
	DB	'=X(b.RS%%)###MPBuuE1V:v&cX&#2m#(&cV]`k9OhLMbn%s$G2,B$BfD3X*sp'
	DB	'5#l,$R#]x_X1xKX%b5U*[r5iMfUo9U`N99hG)tm+/Us9pG)XPu`<0s-)WTt(g'
	DB	'CRxIg(%6sfh=ktMKn3j)<6<b5Sk_/0(^]AaN#(p/L>&VZ>1i%h1S9u5o@YaaW'
	DB	'$e+b<TWFn/Z:Oh(Cx2$lNEoN^e)#CFY@@I;BOQ*sRwZtZxRcU7uW6CXow0i(?'
	DB	'$Q[cjOd[P4d)]>ROPOpxTO7Stwi1::iB1q)C_=dV26J;2,]7op$]uQr@_V7$q'
	DB	'^%lQwtuHY]=DX,n3L#0PHDO4f9>dC@O>HBuKPpP*E,N+b3L#lpR/MrTEH.IAQ'
	DB	'k.a>D[.e;mc.x]Ip.PH^''/aqUO/$1WxLoW0[iLA<QT;5HKD+@qQ''NQ(3_PL'
	DB	'hE48R.qAPSwQ0/WK?Z,[x?-J;jQTWA0X@KJ(_Y8N-:/M74:/-ZpKrUss?d#dZ'
	DB	'q]DAbkU*JqkL+nwX@@47`5>w=4h(9.`GCRUxHPeR`5Mjol(dUWxZa(>STrPkr'
	DB	'JiWx`5U7F#.g*jrohGg`cg:lSTvEY/EV_7H4Q9[Z%cnv;JQYZ5q.l7Zeas:HO'
	DB	'IZOB?G<Nald$qs]@]L<J7bR*>gv:[7MI2k).''2($5FNP&EQ(,)U]W]+fh18.'
	DB	'vsai00);D3@4ku5P?DP8aJt+;qUM]=+b''8@;mViBKx0DE[-auGl8:PJ&Dj+M'
	DB	'6OC]O^((##]`0i)drT;-7X`=-H3[igUnPG-NZlo.#k@h#=Ork$m>a>$-?Tm$U'
	DB	'V(?#P6YY#''/###xe7q.73rI3*pP/$1>s9)W,JrM7SN]''/4C#v$U`0#V.[0>'
	DB	'xQsH$fEmPMgY2u7Kh(G%siIfLSoS+MK2eTM$=5,M8p`A.;_R%#u[K#$x4AG8.'
	DB	'kK/HSB==-''Ie/QTtG?-.*^N-4B/ZM_3YlQC7(p7q)&](`6_c)$/*JL(L-^(]'
	DB	'$wIM`dPtOdGA,U3:w2M-0<q-]L_?^)1vw''.,MRsqVr.L;aN&#/EgJ)PBc[-f'
	DB	'>+WomX2u7lqM2iEumMTcsF?-aT=Z-97UEnXglEn1K-bnEO`guFt(c%=;Am_Qs'
	DB	'@jLooI&NX;]0#j4#F14;gl8-GQpgwhrq8''=l_f-b49''UOqkLu7-##oDY2L('
	DB	'te+Mch&gLYtJ,MEtJfLh''x''M=$CS-ZZ%P]8bZ>#S?YY#%Q&q''3^Fw&?D)U'
	DB	'DNrocM3A76//oL?#h7gl85[qW/NDOk%16ij;+:1a''iNIdb-ou8.P*w,v5#EI'
	DB	'$TWS>Pot-R*H''-SEpA:g)f+O$%%`kA#G=8RMmG1&O`>to8bC]T&$,n.LoO>2'
	DB	'9sp3dt-52U%VM#q7''DHpg+#Z9%H[K<L%a2E-grWVM3@2=-k22tL]4$##6We'''
	DB	'8UJCKE[d_=%wI;''6X-GsLX4j^SgJ$##R*w,vP3wK#iiW&#*h^D&R?jp7+/u&'
	DB	'#(AP##XU8c$fSYW-J95_-Dp[g9wcO&#M-h1OcJlc-*vpw0xUX&#OQFKNX@QI'''
	DB	'IoPp7nb,QU//MQ&ZDkKP)X<WSVL(68uVl&#c''[0#(s1X&xm$Y%B7*K:eDA32'
	DB	'3j998GXbA#pwMs-jgD$9QISB-A_(aN4xoFM^@C58D0+Q+q3n0#3U1InDjF682'
	DB	'-SjMXJK)(h$hxua_K]ul92%''BOU&#BRRh-slg8KDlr:%L71Ka:.A;%YULjDP'
	DB	'mL<LYs8i#XwJOYaKPKc1h:''9Ke,g)b),78=I39B;xiY$bgGw-&.Zi9InXDuY'
	DB	'a%G*f2Bq7mn9^#p1vv%#(Wi-;/Z5ho;#2:;%d&#x9v68C5g?ntX0X)pT`;%pB'
	DB	'3q7mgGN)3%(P8nTd5L7GeA-GL@+%J3u2:(Yf>et`e;)f#Km8&+DC$I46>#Kr]'
	DB	']u-[=99tts1.qb#q72g1WJO81q+eN''03''eM>&1XxY-caEnOj%2n8)),?ILR'
	DB	'5^.Ibn<-X-Mq7[a82Lq:F&#ce+S9wsCK*x`569E8ew''He]h:sI[2LM$[guka'
	DB	'3ZRd6:t%IG:;$%YiJ:Nq=?eAw;/:nnDq0(CYcMpG)qLN4$##&J<j$UpK<Q4a1'
	DB	']MupW^-sj_$%[HK%''F####QRZJ::Y3EGl4''@%FkiAOg#p[##O`gukTfBHag'
	DB	'L<LHw%q&OV0##F=6/:chIm0@eCP8X]:kFI%hl8hgO@RcBhS-@Qb$%+m=hPDLg'
	DB	'*%K8ln(wcf3/''DW-$.lR?n[nCH-eXOONTJlh:.RYF%3''p6sq:UIMA945&^H'
	DB	'FS87@$EP2iG<-lCO$%c`uKGD3rC$x0BL8aFn--`ke%#HMP''vh1/R&O_J9''u'
	DB	'm,.<tx[@%wsJk&bUT2`0uMv7gg#qp/ij.L56''hl;.s5CUrxjOM7-##.l+Au'''
	DB	'A&O:-T72L]P`&=;ctp''XScX*rU.>-XTt,%OVU4)S1+R-#dg0/Nn?Ku1^0f$B'
	DB	'*P:Rowwm-`0PKjYDDM''3]d39VZHEl4,.j'']Pk-M.h^&:0FACm$maq-&sgw0'
	DB	't7/6(^xtk%LuH88Fj-ekm>GA#_>568x6(OFRl-IZp`&b,_P''$M<Jnq79VsJW'
	DB	'/mWS*PUiq76;]/NM_>hLbxfc$mj`,O;&%W2m`Zh:/)Uetw:aJ%]K9h:TcF]u_'
	DB	'-Sj9,VK3M.*''&0D[Ca]J9gp8,kAW]%(?A%R$f<->Zts''^kn=-^@c4%-pY6q'
	DB	'I%J%1IGxfLU9CP8cbPlXv);C=b),<2mOvP8up,UVf3839acAWAW-W?#ao/^#%'
	DB	'KYo8fRULNd2.>%m]UK:n%r$''sw]J;5pAoO_#2mO3n,''=H5(etHg*`+RLgv>'
	DB	'=4U8guD$I%D:W>-r5V*%j*W:Kvej.Lp$<M-SGZ'':+Q_k+uvOSLiEo(<aD/K<'
	DB	'CCc`''Lx>''?;++O''>()jLR-^u68PHm8ZFWe+ej8h:9r6L*0//c&iH&R8pRb'
	DB	'A#Kjm%upV1g:a_#Ur7FuA#(tRh#.Y5K+@?3<-8m0$PEn;J:rh6?I6uG<-`wMU'
	DB	'''ircp0LaE_OtlMb&1#6T.#FDKu#1Lw%u%+GM+X''e?YLfjM[VO0MbuFp7;>Q'
	DB	'&#WIo)0@F%q7c#4XAXN-U&VB<HFF*qL($/V,;(kXZejWO`<[5??ewY(*9=%wD'
	DB	'c;,u<''9t3W-(H1th3+G]ucQ]kLs7df($/*JL]@*t7Bu_G3_7mp7<iaQjO@.k'
	DB	'Lg;x3B0lqp7Hf,^Ze7-##@/c58Mo(3;knp0%)A7?-W+eI''o8)b<nKnw''Ho8'
	DB	'C=Y>pqB>0ie&jhZ[?iLR@@_AvA-iQC(=ksRZRVp7`.=+NpBC%rh&3]R:8XDmE'
	DB	'5^V8O(x<<aG/1N$#FX$0V5Y6x''aErI3I$7x%E`v<-BY,)%-?Psf*l?%C3.mM'
	DB	'(=/M0:JxG''?7WhH%o''a<-80g0NBxoO(GH<dM]n.+%q@jH?f.UsJ2Ggs&4<-'
	DB	'e47&Kl+f//9@`b+?.TeN_&B8Ss?v;^Trk;f#YvJkl&w$]>-+k?''(<S:68tq*'
	DB	'WoDfZu'';mM?8X[ma8W%*`-=;D.(nc7/;)g:T1=^J$&BRV(-lTmNB6xqB[@0*'
	DB	'o.erM*<SWF]u2=st-*(6v>^](H.aREZSi,#1:[IXaZFOm<-ui#qUq2$##Ri;u'
	DB	'75OK#(RtaW-K-F`S+cF]uN`-KMQ%rP/Xri.LRcB##=YL3BgM/3MD?@f&1''BW'
	DB	'-)Ju<L25gl8uhVm1hL$##*8###''A3/LkKW+(^rWX?5W_8g)a(m&K8P>#bmmW'
	DB	'CMkk&#TR`C,5d>g)F;t,4:@_l8G/5h4vUd%&%950:VXD''QdWoY-F$BtUwmfe'
	DB	'$YqL''8(PWX(P?^@Po3$##`MSs?DWBZ/S>+4%>fX,VWv/w''KD`LP5IbH;rTV'
	DB	'>n3cEK8U#bX]l-/V+^lj3;vlMb&[5YQ8#pekX9JP3XUC72L,,?+Ni&co7ApnO'
	DB	'*5NK,((W-i:$,kp''UDAO(G0Sq7MVjJsbIu)''Z,*[>br5fX^:FPAWr-m2KgL'
	DB	'<LUN098kTF&#lvo58=/vjDo;.;)Ka*hLR#/k=rKbxuV`>Q_nN6''8uTG&#1T5'
	DB	'g)uLv:873UpTLgH+#FgpH''_o1780Ph8KmxQJ8#H72L4@768@Tm&Qh4CB/5Ov'
	DB	'mA&,Q&QbUoi$a_%3M01H)4x7I^&KQVgtFnV+;[Pc>[m4k//,]1?#`VY[Jr*3&'
	DB	'&slRfLiVZJ:]?=K3Sw=[$=uRB?3xk48@aeg<Z''<$#4H)6,>e0jT6''N#(q%.'
	DB	'O=?2S]u*(m<-V8J''(1)G][68hW$5''q[GC&5j`TE?m''esFGNRM)j,ffZ?-q'
	DB	'x8;->g4t*:CIP/[Qap7/9''#(1sao7w-.qNUdkJ)tCF&#B^;xGvn2r9FEPFFF'
	DB	'cL@.iFNkTve$m%#QvQS8U@)2Z+3K:AKM5isZ88+dKQ)W6>J%CL<KE>`.d*(B`'
	DB	'-n8D9oK<Up]c$X$(,)M8Zt7/[rdkqTgl-0cuGMv''?>-XV1q[''-5k''cAZ69'
	DB	'e;D_?$ZPP&s^+7])$*$#@QYi9,5P&#9r+$%CE=68>K8r0=dSC%%(@p7.m7jil'
	DB	'Q02''0-VWAg<a/''''3u.=4L$Y)6k/K:_[3=&jvL<L0C/2''v:^;-DIBW,B4E'
	DB	'68:kZ;%?8(Q8BH=kO65BW?xSG&#@uU,DS*,?.+(o(#1vCS8#CHF>TlGW''b)T'
	DB	'q7VT9q^*^$$.:&N@@$&)WHtPm*5_rO0&e%K&#-30j(E4#''Zb.o/(Tpm$>K'''
	DB	'f@[PvFl,hfINTNU6u''0pao7%XUp9]5.>%h`8_=VYbxuel.NTSsJfLacFu3B'''
	DB	'lQSu/m6-Oqem8T+oE--$0a/k]uj9EwsG>%veR*hv^BFpQj:K''#SJ,sB-''#]'
	DB	'(j.Lg92rTw-*n%@/;39rrJF,l#qV%OrtBeC6/,;qB3ebNW[?,Hqj2L.1NP&Gj'
	DB	'UR=1D8QaS3Up&@*9wP?+lo7b?@%''k4`p0Z$22%K3+iCZj?XJN4Nm&+YF]u@-'
	DB	'W$U%VEQ/,,>>#)D<h#`)h0:<Q6909ua+&VU%n2:cG3FJ-%@Bj-DgLr`Hw&HAK'
	DB	'jKjseK</xKT*)B,N9X3]krc12t''pgTV(Lv-tL[xg_%=M_q7a^x?7Ubd>#%8c'
	DB	'Y#YZ?=,`Wdxu/ae&#w6)R89tI#6@s''(6Bf7a&?S=^ZI_kS&ai`&=tE72L_D,'
	DB	';^R)7[$s<Eh#c&)q.MXI%#v9ROa5FZO%sF7q7Nwb&#ptUJ:aqJe$Sl68%.D##'
	DB	'#EC><?-aF&#RNQv>o8lKN%5/$(vdfq7+ebA#u1p]ovUKW&Y%q]''>$1@-[xfn'
	DB	'$7ZTp7mM,G,Ko7a&Gu%G[RMxJs[0MM%wci.LFDK)(<c`Q8N)jEIF*+?P2a8g%'
	DB	')$q]o2aH8C&<SibC/q,(e:v;-b#6[$NtDZ84Je2KNvB#$P5?tQ3nt(0d=j.LQ'
	DB	'f./Ll33+(;q3L-w=8dX$#WF&uIJ@-bfI>%:_i2B5CsR8&9Z&#=mPEnm0f`<&c'
	DB	')QL5uJ#%u%lJj+D-r;BoF&#4DoS97h5g)E#o:&S4weDF,9^Hoe`h*L+_a*NrL'
	DB	'W-1pG_&2UdB86e%B/:=>)N4xeW.*wft-;$''58-ESqr<b?UI(_%@[P46>#U`'''
	DB	'6AQ]m&6/`Z>#S?YY#Vc;r7U2&326d=w&H####?TZ`*4?&.MK?LP8Vxg>$[QXc'
	DB	'%QJv92.(Db*B)gb*BM9dM*hJMAo*c&#b0v=Pjer]$gG&JXDf->''StvU7505l'
	DB	'9$AFvgYRI^&<^b68?j#q9QX4SM''RO#&sL1IM.rJfLUAj221]d##DW=m83u5;'
	DB	'''bYx,*Sl0hL(W;;$doB&O/TQ:(Z^xBdLjL<Lni;''''X.`$#8+1GD:k$YUWs'
	DB	'bn8ogh6rxZ2Z9]%nd+>V#*8U_72Lh+2Q8Cj0i:6hp&$C/:p(HK>T8Y[gHQ4`4'
	DB	')''$Ab(Nof%V''8hL&#<NEdtg(n''=S1A(Q1/I&4([%dM`,Iu''1:_hL>SfD0'
	DB	'7&6D<fp8dHM7/g+tlPN9J*rKaPct&?''uBCem^jn%9_K)<,C5K3s=5g&GmJb*'
	DB	'[SYq7K;TRLGCsM-$$;S%:Y@r7AK0pprpL<Lrh,q7e/%KWK:50I^+m''vi`3?%'
	DB	'Zp+<-d+$L-Sv:@.o19n$s0&39;kn;S%BSq*$3WoJSCLweV[aZ''MQIjO<7;X-'
	DB	'X;&+dMLvu#^UsGEC9WEc[X(wI7#2.(F0jV*eZf<-Qv3J-c+J5AlrB#$p(H68L'
	DB	'vEA''q3n0#m,[`*8Ft)FcYgEud]CWfm68,(aLA$@EFTgLXoBq/UPlp7:d[/;r'
	DB	'_ix=:TF`S5H-b<LI&HY(K=h#)]Lk$K14lVfm:x$H<3^Ql<M`$OhapBnkup''D'
	DB	'#L$Pb_`N*g]2e;X/Dtg,bsj&K#2[-:iYr''_wgH)NUIR8a1n#S?Yej''h8^58'
	DB	'UbZd+^FKD*T@;6A7aQC[K8d-(v6GI$x:T<&''Gp5Uf>@M.*J:;$-rv29''M]8'
	DB	'qMv-tLp,''886iaC=Hb*YJoKJ,(j%K=H`K.v9HggqBIiZu''QvBT.#=)0ukru'
	DB	'V&.)3=(^1`o*Pj4<-<aN((^7(''#Z0wK#5GX@7u][`*S^43933A4rl][`*O4C'
	DB	'gLEl]v$1Q3AeF37dbXk,.)vj#x''d`;qgbQR%FW,2(?LO=s%Sc68%NP''##Ao'
	DB	'tl8x=BE#j1UD([3$M(]UI2LX3RpKN@;/#f''f/&_mt&F)XdF<9t4)Qa.*kTLw'
	DB	'Q''(TTB9.xH''>#MJ+gLq9-##@HuZPN0]u:h7.T..G:;$/Usj(T7`Q8tT72Ln'
	DB	'Yl<-qx8;-HV7Q-&Xdx%1a,hC=0u+HlsV>nuIQL-5<N?)NBS)QN*_I,?&)2''I'
	DB	'M%L3I)X((e/dl2&8''<M:^#M*Q+[T.Xri.LYS3v%fF`68h;b-X[/En''CR.q7'
	DB	'E)p''/kle2HM,u;^%OKC-N+Ll%F9CF<Nf''^#t2L,;27W:0O@6##U6W7:$rJf'
	DB	'LWHj$#)woqBefIZ.PK<b*t7ed;p*_m;4ExK#h@&]>_>@kXQtMacfD.m-VAb8;'
	DB	'IReM3$wf0''''hra*so568''Ip&vRs849''MRYSp%:t:h5qSgwpEr$B>Q,;s('
	DB	'C#$)`svQuF$##-D,##,g68@2[T;.XSdN9Qe)rpt._K-#5wF)sP''##p#C0c%-'
	DB	'Gb%hd+<-j''Ai*x&&HMkT]C''OSl##5RG[JXaHN;d''uA#x._U;.`PU@(Z3dt'
	DB	'4r152@:v,''R.Sj''w#0<-;kPI)FfJ&#AYJ&#//)>-k=m=*XnK$>=)72L]0I%'
	DB	'>.G690a:$##<,);?;72#?x9+d;^V''9;jY@;)br#q^YQpx:X#Te$Z^''=-=bG'
	DB	'hLf:D6&bNwZ9-ZD#n^9HhLMr5G;'']d&6''wYmTFmL<LD)F^%[tC''8;+9E#C'
	DB	'$g%#5Y>q9wI>P(9mI[>kC-ekLC/R&CH+s''B;K-M6$EB%is00:+A4[7xks.Lr'
	DB	'Nk0&E)wILYF@2L''0Nb$+pv<(2.768/FrY&h$^3i&@+G%JT''<-,v`3;_)I9M'
	DB	'^AE]CN?Cl2AZg+%4iTpT3<n-&%H%b<FDj2M<hH=&Eh<2Len$b*aTX=-8QxN)k'
	DB	'11IM1c^j%9s<L<NFSo)B?+<-(GxsF,^-Eh@$4dXhN$+#rxK8''je''D7k`e;)'
	DB	'2pYwPA''_p9&@^18ml1^[@g4t*[JOa*[=Qp7(qJ_oOL^(''7fB&Hq-:sf,sNj'
	DB	'8xq^>$U4O]GKx''m9)b@p7YsvK3w^YR-CdQ*:Ir<($u&)#(&?L9Rg3H)4fiEp'
	DB	'^iI9O8KnTj,]H?D*r7''M;PwZ9K0E^k&-cpI;.p/6_vwoFMV<->#%Xi.LxVnr'
	DB	'U(4&8/P+:hLSKj$#U%]49t''I:rgMi''FL@a:0Y-uA[39'',(vbma*hU%<-SR'
	DB	'F`Tt:542R_VV$p@[p8DV[A,?1839FWdF<TddF<9Ah-6&9tWoDlh]&1SpGMq>T'
	DB	'i1O*H&#(AL8[_P%.M>v^-))qOT*F5Cq0`Ye%+$B6i:7@0IX<N+T+0MlMBPQ*V'
	DB	'j>SsD<U4JHY8kD2)2fU/M#$e.)T4,_=8hLim[&);?UkK''-x?''(:siIfL<$p'
	DB	'FM`i<?%W(mGDHM%>iWP,##P`%/L<eXi:@Z9C.7o=@(pXdAO/NLQ8lPl+HPOQa'
	DB	'8wD8=^GlPa8TKI1CjhsCTSLJM''/Wl>-S(qw%sf/@%#B6;/U7K]uZbi^Oc^2n'
	DB	'<bhPmUkMw>%t<)''mEVE''''n`WnJra$^TKvX5B>;_aSEK'',(hwa0:i4G?.B'
	DB	'ci.(X[?b*($,=-n<.Q%`(X=?+@Am*Js0&=3bh8K]mL<LoNs''6,''85`0?t/'''
	DB	'_U59@]ddF<#LdF<eWdF<OuN/45rY<-L@&#+fm>69=Lb,OcZV/);TTm8VI;?%O'
	DB	'tJ<(b4mq7M6:u?KRdF<gR@2L=FNU-<b[(9c/ML3m;Z[$oF3g)GAWqpARc=<RO'
	DB	'u7cL5l;-[A]%/+fsd;l#SafT/f*W]0=O''$(Tb<[)*@e775R-:Yob%g*>l*:x'
	DB	'P?Yb.5)%w_I?7uk5JC+FS(m#i''k.''a0i)9<7b''fs''59hq$*5Uhv##pi^8'
	DB	'+hIEBF`nvo`;''l0.^S1<-wUK2/Coh58KKhLjM=SO*rfO`+qC`W-On.=AJ56>'
	DB	'>i2@2LH6A:&5q`?9I3@@''04&p2/LVa*T-4<-i3;M9UvZd+N7>b*eIwg:CC)c'
	DB	'<>nO&#<IGe;__.thjZl<%w(Wk2xmp4Q@I#I9,DF]u7-P=.-_:YJ]aS@V?6*C('
	DB	')dOp7:WL,b&3Rg/.cmM9&r^>$(>.Z-I&J(Q0Hd5Q%7Co-b`-c<N(6r@ip+Aur'
	DB	'K<m86QIth*#v;-OBqi+L7wDE-Ir8K[''m+DDSLwK&/.?-V%U_%3:qKNu$_b*B'
	DB	'-kp7NaD''QdWQPKYq[@>P)hI;*_F]u`Rb[.j8_Q/<&>uu+VsH$sM9TA%?)(vm'
	DB	'J80),P7E>)tjD%2L=-t#fK[%`v=Q8<FfNkgg^oIbah*#8/Qt$F&:K*-(N/''+'
	DB	'1vMB,u()-a.VUU*#[e%gAAO(S>WlA2);Sa>gXm8YB`1d@K#n]76-a$U,mF<fX'
	DB	']idqd)<3,]J7JmW4`6]uks=4-72L(jEk+:bJ0M^q-8Dm_Z?0olP1C9Sa&H[d&'
	DB	'c$ooQUj]Exd*3ZM@-WGW2%s'',B-_M%>%Ul:#/''xoFM9QX-$.QN''>[%$Z$u'
	DB	'F6pA6Ki2O5:8w*vP1<-1`[G,)-m#>0`P&#eb#.3i)rtB61(o''$?X3B</R90;'
	DB	'eZ]%Ncq;-Tl]#F>2Qft^ae_5tKL9MUe9b*sLEQ95C&`=G?@Mj=wh*''3E>=-<'
	DB	')Gt*Iw)''QG:`@IwOf7&]1i''S01B+Ev/Nac#9S;=;YQpg_6U`*kVY39xK,[/'
	DB	'6Aj7:''1Bm-_1EYfa1+o&o4hp7KN_Q(OlIo@S%;jVdn0''1<Vc52=u`3^o-n1'
	DB	'''g4v58Hj&6_t7$##?M)c<$bgQ_''SY((-xkA#Y(,p''H9rIVY-b,''%bCPF7'
	DB	'.J<Up^,(dU1VY*5#WkTU>h19w,WQhLI)3S#f$2(eb,jr*b;3Vw]*7NH%$c4Vs'
	DB	',eD9>XW8?N]o+(*pgC%/72LV-u<Hp,3@e^9UB1J+ak9-TN/mhKPg+AJYd$Mlv'
	DB	'AF_jCK*.O-^(63adMT->W%iewS8W6m2rtCpo''RS1R84=@paTKt)>=%&1[)*v'
	DB	'p''u+x,VrwN;&]kuO9JDbg=pO$J*.jVe;u''m0dr9l,<*wMK*Oe=g8lV_KEBF'
	DB	'kO''oU]^=[-792#ok,)i]lR8qQ2oA8wcRCZ^7w/Njh;?.stX?Q1>S1q4Bn$)K'
	DB	'1<-rGdO''$Wr.Lc.CG)$/*JL4tNR/,SVO3,aUw''DJN:)Ss;wGn9A32ijw%FL'
	DB	'+Z0Fn.U9;reSq)bmI32U==5ALuG&#Vf1398/pVo1*c-(aY168o<`JsSbk-,1N'
	DB	';$>0:OUas(3:8Z972LSfF8eb=c-;>SPw7.6hn3m`9^Xkn(r.qS[0;T%&Qc=+S'
	DB	'TRxX''q1BNk3&*eu2;&8q$&x>Q#Q7^Tf+6<(d%ZVmj2bDi%.3L2n+4W''$PiD'
	DB	'DG)g,r%+?,$@?uou5tSe2aN_AQU*<h`e-GI7)?OK2A.d7_c)?wQ5AS@DL3r#7'
	DB	'fSkgl6-++D:''A,uq7SvlB$pcpH''q3n0#_%dY#xCpr-l<F0NR@-##FEV6NTF'
	DB	'6##$l84N1w?AO>''IAOURQ##V^Fv-XFbGM7Fl(N<3DhLGF%q.1rC$#:T__&Pi'
	DB	'68%0xi_&[qFJ(77j_&JWoF.V735&T,[R*:xFR*K5>>#`bW-?4Ne_&6Ne_&6Ne'
	DB	'_&n`kr-#GJcM6X;uM6X;uM(.a..^2TkL%oR(#;u.T%fAr%4tJ8&><1=GHZ_+m'
	DB	'9/#H1F^R#SC#*N=BA9(D?v[UiFY>>^8p,KKF.W]L29uLkLlu/+4T<XoIB&hx='
	DB	'T1PcDaB&;HH+-AFr?(m9HZV)FKS8JCw;SD=6[^/DZUL`EUDf]GGlG&>w$)F./'
	DB	'^n3+rlo+DB;5sIYGNk+i1t-69Jg--0pao7Sm#K)pdHW&;LuDNH@H>#/X-TI(;'
	DB	'P>#,Gc>#0Su>#4`1?#8lC?#<xU?#@.i?#D:%@#HF7@#LRI@#P_[@#Tkn@#Xw*'
	DB	'A#]-=A#a9OA#d<F&#*;G##.GY##2Sl##6`($#:l:$#>xL$#B.`$#F:r$#JF.%'
	DB	'#NR@%#R_R%#Vke%#Zww%#_-4&#3^Rh%Sflr-k''MS.o?.5/sWel/wpEM0%3'''
	DB	'/1)K^f1-d>G21&v(35>V`39V7A4=onx4A1OY5EI0;6Ibgr6M$HS7Q<)58C5w,'
	DB	';WoA*#[%T*#`1g*#d=#+#hI5+#lUG+#pbY+#tnl+#x$),#&1;,#*=M,#.I`,#'
	DB	'2Ur,#6b.-#;w[H#iQtA#m^0B#qjBB#uvTB##-hB#''9$C#+E6C#/QHC#3^ZC#'
	DB	'7jmC#;v)D#?,<D#C8ND#GDaD#KPsD#O]/E#g1A5#KA*1#gC17#MGd;#8(02#L'
	DB	'-d3#rWM4#Hga1#,<w0#T.j<#O#''2#CYN1#qa^:#_4m3#o@/=#eG8=#t8J5#`'
	DB	'+78#4uI-#m3B2#SB[8#Q0@8#i[*9#iOn8#1Nm;#^sN9#qh<9#:=x-#P;K2#$%'
	DB	'X9#bC+.#Rg;<#mN=.#MTF.#RZO.#2?)4#Y#(/#[)1/#b;L/#dAU/#0Sv;#lY$'
	DB	'0#n`-0#sf60#(F24#wrH0#%/e0#TmD<#%JSMFove:CTBEXI:<eh2g)B,3h2^G'
	DB	'3i;#d3jD>)4kMYD4lVu`4m`:&5niUA5@(A5BA1]PBB:xlBCC=2CDLXMCEUtiC'
	DB	'f&0g2''tN?PGT4CPGT4CPGT4CPGT4CPGT4CPGT4CPGT4CPGT4CPGT4CPGT4CP'
	DB	'GT4CPGT4CPGT4CP-qekC`.9kEg^+F$kwViFJTB&5KTB&5KTB&5KTB&5KTB&5K'
	DB	'TB&5KTB&5KTB&5KTB&5KTB&5KTB&5KTB&5KTB&5KTB&5KTB&5o,^<-28ZI''O'
	DB	'?;xpO?;xpO?;xpO?;xpO?;xpO?;xpO?;xpO?;xpO?;xpO?;xpO?;xpO?;xpO?'
	DB	';xpO?;xp;7q-#lLYI:xvD=#', 00H		; proggy_clean_ttf_compressed_data_base85
CONST	ENDS
PUBLIC	??_H@YAXPEAX_K1P6APEAX0@Z@Z			; `vector constructor iterator'
PUBLIC	??0ImVec2@@QEAA@XZ				; ImVec2::ImVec2
PUBLIC	??0ImVec2@@QEAA@MM@Z				; ImVec2::ImVec2
PUBLIC	??0ImVec4@@QEAA@XZ				; ImVec4::ImVec4
PUBLIC	??0ImVec4@@QEAA@MMMM@Z				; ImVec4::ImVec4
PUBLIC	?StyleColorsDark@ImGui@@YAXPEAUImGuiStyle@@@Z	; ImGui::StyleColorsDark
PUBLIC	?StyleColorsLight@ImGui@@YAXPEAUImGuiStyle@@@Z	; ImGui::StyleColorsLight
PUBLIC	?StyleColorsClassic@ImGui@@YAXPEAUImGuiStyle@@@Z ; ImGui::StyleColorsClassic
PUBLIC	??2@YAPEAX_KUImNewWrapper@@PEAX@Z		; operator new
PUBLIC	??3@YAXPEAXUImNewWrapper@@0@Z			; operator delete
PUBLIC	??0?$ImVector@G@@QEAA@XZ			; ImVector<unsigned short>::ImVector<unsigned short>
PUBLIC	??4?$ImVector@G@@QEAAAEAU0@AEBU0@@Z		; ImVector<unsigned short>::operator=
PUBLIC	??1?$ImVector@G@@QEAA@XZ			; ImVector<unsigned short>::~ImVector<unsigned short>
PUBLIC	?clear@?$ImVector@G@@QEAAXXZ			; ImVector<unsigned short>::clear
PUBLIC	?empty@?$ImVector@G@@QEBA_NXZ			; ImVector<unsigned short>::empty
PUBLIC	??A?$ImVector@G@@QEAAAEAGH@Z			; ImVector<unsigned short>::operator[]
PUBLIC	?_grow_capacity@?$ImVector@G@@QEBAHH@Z		; ImVector<unsigned short>::_grow_capacity
PUBLIC	?resize@?$ImVector@G@@QEAAXH@Z			; ImVector<unsigned short>::resize
PUBLIC	?resize@?$ImVector@G@@QEAAXHAEBG@Z		; ImVector<unsigned short>::resize
PUBLIC	?shrink@?$ImVector@G@@QEAAXH@Z			; ImVector<unsigned short>::shrink
PUBLIC	?reserve@?$ImVector@G@@QEAAXH@Z			; ImVector<unsigned short>::reserve
PUBLIC	?push_back@?$ImVector@G@@QEAAXAEBG@Z		; ImVector<unsigned short>::push_back
PUBLIC	??0ImDrawCmd@@QEAA@XZ				; ImDrawCmd::ImDrawCmd
PUBLIC	??0ImDrawCmdHeader@@QEAA@XZ			; ImDrawCmdHeader::ImDrawCmdHeader
PUBLIC	??0?$ImVector@UImDrawCmd@@@@QEAA@XZ		; ImVector<ImDrawCmd>::ImVector<ImDrawCmd>
PUBLIC	??4?$ImVector@UImDrawCmd@@@@QEAAAEAU0@AEBU0@@Z	; ImVector<ImDrawCmd>::operator=
PUBLIC	??1?$ImVector@UImDrawCmd@@@@QEAA@XZ		; ImVector<ImDrawCmd>::~ImVector<ImDrawCmd>
PUBLIC	?clear@?$ImVector@UImDrawCmd@@@@QEAAXXZ		; ImVector<ImDrawCmd>::clear
PUBLIC	??A?$ImVector@UImDrawCmd@@@@QEAAAEAUImDrawCmd@@H@Z ; ImVector<ImDrawCmd>::operator[]
PUBLIC	?back@?$ImVector@UImDrawCmd@@@@QEAAAEAUImDrawCmd@@XZ ; ImVector<ImDrawCmd>::back
PUBLIC	?_grow_capacity@?$ImVector@UImDrawCmd@@@@QEBAHH@Z ; ImVector<ImDrawCmd>::_grow_capacity
PUBLIC	?resize@?$ImVector@UImDrawCmd@@@@QEAAXH@Z	; ImVector<ImDrawCmd>::resize
PUBLIC	?reserve@?$ImVector@UImDrawCmd@@@@QEAAXH@Z	; ImVector<ImDrawCmd>::reserve
PUBLIC	?push_back@?$ImVector@UImDrawCmd@@@@QEAAXAEBUImDrawCmd@@@Z ; ImVector<ImDrawCmd>::push_back
PUBLIC	?pop_back@?$ImVector@UImDrawCmd@@@@QEAAXXZ	; ImVector<ImDrawCmd>::pop_back
PUBLIC	?erase@?$ImVector@UImDrawCmd@@@@QEAAPEAUImDrawCmd@@PEBU2@@Z ; ImVector<ImDrawCmd>::erase
PUBLIC	??0ImDrawChannel@@QEAA@XZ			; ImDrawChannel::ImDrawChannel
PUBLIC	??0?$ImVector@UImDrawChannel@@@@QEAA@XZ		; ImVector<ImDrawChannel>::ImVector<ImDrawChannel>
PUBLIC	?clear@?$ImVector@UImDrawChannel@@@@QEAAXXZ	; ImVector<ImDrawChannel>::clear
PUBLIC	??A?$ImVector@UImDrawChannel@@@@QEAAAEAUImDrawChannel@@H@Z ; ImVector<ImDrawChannel>::operator[]
PUBLIC	?_grow_capacity@?$ImVector@UImDrawChannel@@@@QEBAHH@Z ; ImVector<ImDrawChannel>::_grow_capacity
PUBLIC	?resize@?$ImVector@UImDrawChannel@@@@QEAAXH@Z	; ImVector<ImDrawChannel>::resize
PUBLIC	?reserve@?$ImVector@UImDrawChannel@@@@QEAAXH@Z	; ImVector<ImDrawChannel>::reserve
PUBLIC	??0ImDrawListSplitter@@QEAA@XZ			; ImDrawListSplitter::ImDrawListSplitter
PUBLIC	?Clear@ImDrawListSplitter@@QEAAXXZ		; ImDrawListSplitter::Clear
PUBLIC	?ClearFreeMemory@ImDrawListSplitter@@QEAAXXZ	; ImDrawListSplitter::ClearFreeMemory
PUBLIC	?Split@ImDrawListSplitter@@QEAAXPEAUImDrawList@@H@Z ; ImDrawListSplitter::Split
PUBLIC	?Merge@ImDrawListSplitter@@QEAAXPEAUImDrawList@@@Z ; ImDrawListSplitter::Merge
PUBLIC	?SetCurrentChannel@ImDrawListSplitter@@QEAAXPEAUImDrawList@@H@Z ; ImDrawListSplitter::SetCurrentChannel
PUBLIC	??0?$ImVector@UImDrawVert@@@@QEAA@XZ		; ImVector<ImDrawVert>::ImVector<ImDrawVert>
PUBLIC	??4?$ImVector@UImDrawVert@@@@QEAAAEAU0@AEBU0@@Z	; ImVector<ImDrawVert>::operator=
PUBLIC	??1?$ImVector@UImDrawVert@@@@QEAA@XZ		; ImVector<ImDrawVert>::~ImVector<ImDrawVert>
PUBLIC	?clear@?$ImVector@UImDrawVert@@@@QEAAXXZ	; ImVector<ImDrawVert>::clear
PUBLIC	??A?$ImVector@UImDrawVert@@@@QEAAAEAUImDrawVert@@H@Z ; ImVector<ImDrawVert>::operator[]
PUBLIC	?swap@?$ImVector@UImDrawVert@@@@QEAAXAEAU1@@Z	; ImVector<ImDrawVert>::swap
PUBLIC	?_grow_capacity@?$ImVector@UImDrawVert@@@@QEBAHH@Z ; ImVector<ImDrawVert>::_grow_capacity
PUBLIC	?resize@?$ImVector@UImDrawVert@@@@QEAAXH@Z	; ImVector<ImDrawVert>::resize
PUBLIC	?shrink@?$ImVector@UImDrawVert@@@@QEAAXH@Z	; ImVector<ImDrawVert>::shrink
PUBLIC	?reserve@?$ImVector@UImDrawVert@@@@QEAAXH@Z	; ImVector<ImDrawVert>::reserve
PUBLIC	??0?$ImVector@UImVec4@@@@QEAA@XZ		; ImVector<ImVec4>::ImVector<ImVec4>
PUBLIC	??1?$ImVector@UImVec4@@@@QEAA@XZ		; ImVector<ImVec4>::~ImVector<ImVec4>
PUBLIC	?clear@?$ImVector@UImVec4@@@@QEAAXXZ		; ImVector<ImVec4>::clear
PUBLIC	?_grow_capacity@?$ImVector@UImVec4@@@@QEBAHH@Z	; ImVector<ImVec4>::_grow_capacity
PUBLIC	?resize@?$ImVector@UImVec4@@@@QEAAXH@Z		; ImVector<ImVec4>::resize
PUBLIC	?reserve@?$ImVector@UImVec4@@@@QEAAXH@Z		; ImVector<ImVec4>::reserve
PUBLIC	?push_back@?$ImVector@UImVec4@@@@QEAAXAEBUImVec4@@@Z ; ImVector<ImVec4>::push_back
PUBLIC	?pop_back@?$ImVector@UImVec4@@@@QEAAXXZ		; ImVector<ImVec4>::pop_back
PUBLIC	??0?$ImVector@PEAX@@QEAA@XZ			; ImVector<void *>::ImVector<void *>
PUBLIC	??1?$ImVector@PEAX@@QEAA@XZ			; ImVector<void *>::~ImVector<void *>
PUBLIC	?clear@?$ImVector@PEAX@@QEAAXXZ			; ImVector<void *>::clear
PUBLIC	?_grow_capacity@?$ImVector@PEAX@@QEBAHH@Z	; ImVector<void *>::_grow_capacity
PUBLIC	?resize@?$ImVector@PEAX@@QEAAXH@Z		; ImVector<void *>::resize
PUBLIC	?reserve@?$ImVector@PEAX@@QEAAXH@Z		; ImVector<void *>::reserve
PUBLIC	?push_back@?$ImVector@PEAX@@QEAAXAEBQEAX@Z	; ImVector<void *>::push_back
PUBLIC	?pop_back@?$ImVector@PEAX@@QEAAXXZ		; ImVector<void *>::pop_back
PUBLIC	??0?$ImVector@UImVec2@@@@QEAA@XZ		; ImVector<ImVec2>::ImVector<ImVec2>
PUBLIC	??1?$ImVector@UImVec2@@@@QEAA@XZ		; ImVector<ImVec2>::~ImVector<ImVec2>
PUBLIC	?clear@?$ImVector@UImVec2@@@@QEAAXXZ		; ImVector<ImVec2>::clear
PUBLIC	?back@?$ImVector@UImVec2@@@@QEAAAEAUImVec2@@XZ	; ImVector<ImVec2>::back
PUBLIC	?_grow_capacity@?$ImVector@UImVec2@@@@QEBAHH@Z	; ImVector<ImVec2>::_grow_capacity
PUBLIC	?resize@?$ImVector@UImVec2@@@@QEAAXH@Z		; ImVector<ImVec2>::resize
PUBLIC	?reserve@?$ImVector@UImVec2@@@@QEAAXH@Z		; ImVector<ImVec2>::reserve
PUBLIC	?push_back@?$ImVector@UImVec2@@@@QEAAXAEBUImVec2@@@Z ; ImVector<ImVec2>::push_back
PUBLIC	??0ImDrawList@@QEAA@PEBUImDrawListSharedData@@@Z ; ImDrawList::ImDrawList
PUBLIC	?PushClipRect@ImDrawList@@QEAAXUImVec2@@0_N@Z	; ImDrawList::PushClipRect
PUBLIC	?PushClipRectFullScreen@ImDrawList@@QEAAXXZ	; ImDrawList::PushClipRectFullScreen
PUBLIC	?PopClipRect@ImDrawList@@QEAAXXZ		; ImDrawList::PopClipRect
PUBLIC	?PushTextureID@ImDrawList@@QEAAXPEAX@Z		; ImDrawList::PushTextureID
PUBLIC	?PopTextureID@ImDrawList@@QEAAXXZ		; ImDrawList::PopTextureID
PUBLIC	?AddLine@ImDrawList@@QEAAXAEBUImVec2@@0IM@Z	; ImDrawList::AddLine
PUBLIC	?AddRect@ImDrawList@@QEAAXAEBUImVec2@@0IMHM@Z	; ImDrawList::AddRect
PUBLIC	?AddRectFilled@ImDrawList@@QEAAXAEBUImVec2@@0IMH@Z ; ImDrawList::AddRectFilled
PUBLIC	?AddRectFilledMultiColor@ImDrawList@@QEAAXAEBUImVec2@@0IIII@Z ; ImDrawList::AddRectFilledMultiColor
PUBLIC	?AddQuad@ImDrawList@@QEAAXAEBUImVec2@@000IM@Z	; ImDrawList::AddQuad
PUBLIC	?AddQuadFilled@ImDrawList@@QEAAXAEBUImVec2@@000I@Z ; ImDrawList::AddQuadFilled
PUBLIC	?AddTriangle@ImDrawList@@QEAAXAEBUImVec2@@00IM@Z ; ImDrawList::AddTriangle
PUBLIC	?AddTriangleFilled@ImDrawList@@QEAAXAEBUImVec2@@00I@Z ; ImDrawList::AddTriangleFilled
PUBLIC	?AddCircle@ImDrawList@@QEAAXAEBUImVec2@@MIHM@Z	; ImDrawList::AddCircle
PUBLIC	?AddCircleFilled@ImDrawList@@QEAAXAEBUImVec2@@MIH@Z ; ImDrawList::AddCircleFilled
PUBLIC	?AddNgon@ImDrawList@@QEAAXAEBUImVec2@@MIHM@Z	; ImDrawList::AddNgon
PUBLIC	?AddNgonFilled@ImDrawList@@QEAAXAEBUImVec2@@MIH@Z ; ImDrawList::AddNgonFilled
PUBLIC	?AddText@ImDrawList@@QEAAXAEBUImVec2@@IPEBD1@Z	; ImDrawList::AddText
PUBLIC	?AddText@ImDrawList@@QEAAXPEBUImFont@@MAEBUImVec2@@IPEBD2MPEBUImVec4@@@Z ; ImDrawList::AddText
PUBLIC	?AddPolyline@ImDrawList@@QEAAXPEBUImVec2@@HIHM@Z ; ImDrawList::AddPolyline
PUBLIC	?AddConvexPolyFilled@ImDrawList@@QEAAXPEBUImVec2@@HI@Z ; ImDrawList::AddConvexPolyFilled
PUBLIC	?AddBezierCubic@ImDrawList@@QEAAXAEBUImVec2@@000IMH@Z ; ImDrawList::AddBezierCubic
PUBLIC	?AddBezierQuadratic@ImDrawList@@QEAAXAEBUImVec2@@00IMH@Z ; ImDrawList::AddBezierQuadratic
PUBLIC	?AddImage@ImDrawList@@QEAAXPEAXAEBUImVec2@@111I@Z ; ImDrawList::AddImage
PUBLIC	?AddImageQuad@ImDrawList@@QEAAXPEAXAEBUImVec2@@1111111I@Z ; ImDrawList::AddImageQuad
PUBLIC	?AddImageRounded@ImDrawList@@QEAAXPEAXAEBUImVec2@@111IMH@Z ; ImDrawList::AddImageRounded
PUBLIC	?PathLineTo@ImDrawList@@QEAAXAEBUImVec2@@@Z	; ImDrawList::PathLineTo
PUBLIC	?PathFillConvex@ImDrawList@@QEAAXI@Z		; ImDrawList::PathFillConvex
PUBLIC	?PathStroke@ImDrawList@@QEAAXIHM@Z		; ImDrawList::PathStroke
PUBLIC	?PathArcTo@ImDrawList@@QEAAXAEBUImVec2@@MMMH@Z	; ImDrawList::PathArcTo
PUBLIC	?PathArcToFast@ImDrawList@@QEAAXAEBUImVec2@@MHH@Z ; ImDrawList::PathArcToFast
PUBLIC	?PathBezierCubicCurveTo@ImDrawList@@QEAAXAEBUImVec2@@00H@Z ; ImDrawList::PathBezierCubicCurveTo
PUBLIC	?PathBezierQuadraticCurveTo@ImDrawList@@QEAAXAEBUImVec2@@0H@Z ; ImDrawList::PathBezierQuadraticCurveTo
PUBLIC	?PathRect@ImDrawList@@QEAAXAEBUImVec2@@0MH@Z	; ImDrawList::PathRect
PUBLIC	?AddCallback@ImDrawList@@QEAAXP6AXPEBU1@PEBUImDrawCmd@@@ZPEAX@Z ; ImDrawList::AddCallback
PUBLIC	?AddDrawCmd@ImDrawList@@QEAAXXZ			; ImDrawList::AddDrawCmd
PUBLIC	?CloneOutput@ImDrawList@@QEBAPEAU1@XZ		; ImDrawList::CloneOutput
PUBLIC	?PrimReserve@ImDrawList@@QEAAXHH@Z		; ImDrawList::PrimReserve
PUBLIC	?PrimUnreserve@ImDrawList@@QEAAXHH@Z		; ImDrawList::PrimUnreserve
PUBLIC	?PrimRect@ImDrawList@@QEAAXAEBUImVec2@@0I@Z	; ImDrawList::PrimRect
PUBLIC	?PrimRectUV@ImDrawList@@QEAAXAEBUImVec2@@000I@Z	; ImDrawList::PrimRectUV
PUBLIC	?PrimQuadUV@ImDrawList@@QEAAXAEBUImVec2@@0000000I@Z ; ImDrawList::PrimQuadUV
PUBLIC	?PrimWriteVtx@ImDrawList@@QEAAXAEBUImVec2@@0I@Z	; ImDrawList::PrimWriteVtx
PUBLIC	?PrimWriteIdx@ImDrawList@@QEAAXG@Z		; ImDrawList::PrimWriteIdx
PUBLIC	?_ResetForNewFrame@ImDrawList@@QEAAXXZ		; ImDrawList::_ResetForNewFrame
PUBLIC	?_ClearFreeMemory@ImDrawList@@QEAAXXZ		; ImDrawList::_ClearFreeMemory
PUBLIC	?_PopUnusedDrawCmd@ImDrawList@@QEAAXXZ		; ImDrawList::_PopUnusedDrawCmd
PUBLIC	?_TryMergeDrawCmds@ImDrawList@@QEAAXXZ		; ImDrawList::_TryMergeDrawCmds
PUBLIC	?_OnChangedClipRect@ImDrawList@@QEAAXXZ		; ImDrawList::_OnChangedClipRect
PUBLIC	?_OnChangedTextureID@ImDrawList@@QEAAXXZ	; ImDrawList::_OnChangedTextureID
PUBLIC	?_OnChangedVtxOffset@ImDrawList@@QEAAXXZ	; ImDrawList::_OnChangedVtxOffset
PUBLIC	?_CalcCircleAutoSegmentCount@ImDrawList@@QEBAHM@Z ; ImDrawList::_CalcCircleAutoSegmentCount
PUBLIC	?_PathArcToFastEx@ImDrawList@@QEAAXAEBUImVec2@@MHHH@Z ; ImDrawList::_PathArcToFastEx
PUBLIC	?_PathArcToN@ImDrawList@@QEAAXAEBUImVec2@@MMMH@Z ; ImDrawList::_PathArcToN
PUBLIC	?DeIndexAllBuffers@ImDrawData@@QEAAXXZ		; ImDrawData::DeIndexAllBuffers
PUBLIC	?ScaleClipRects@ImDrawData@@QEAAXAEBUImVec2@@@Z	; ImDrawData::ScaleClipRects
PUBLIC	??0ImFontConfig@@QEAA@XZ			; ImFontConfig::ImFontConfig
PUBLIC	??1?$ImVector@I@@QEAA@XZ			; ImVector<unsigned int>::~ImVector<unsigned int>
PUBLIC	?clear@?$ImVector@I@@QEAAXXZ			; ImVector<unsigned int>::clear
PUBLIC	?empty@?$ImVector@I@@QEBA_NXZ			; ImVector<unsigned int>::empty
PUBLIC	??A?$ImVector@I@@QEAAAEAIH@Z			; ImVector<unsigned int>::operator[]
PUBLIC	??A?$ImVector@I@@QEBAAEBIH@Z			; ImVector<unsigned int>::operator[]
PUBLIC	?begin@?$ImVector@I@@QEBAPEBIXZ			; ImVector<unsigned int>::begin
PUBLIC	?end@?$ImVector@I@@QEBAPEBIXZ			; ImVector<unsigned int>::end
PUBLIC	?_grow_capacity@?$ImVector@I@@QEBAHH@Z		; ImVector<unsigned int>::_grow_capacity
PUBLIC	?resize@?$ImVector@I@@QEAAXH@Z			; ImVector<unsigned int>::resize
PUBLIC	?reserve@?$ImVector@I@@QEAAXH@Z			; ImVector<unsigned int>::reserve
PUBLIC	?GetBit@ImFontGlyphRangesBuilder@@QEBA_N_K@Z	; ImFontGlyphRangesBuilder::GetBit
PUBLIC	?SetBit@ImFontGlyphRangesBuilder@@QEAAX_K@Z	; ImFontGlyphRangesBuilder::SetBit
PUBLIC	?AddChar@ImFontGlyphRangesBuilder@@QEAAXG@Z	; ImFontGlyphRangesBuilder::AddChar
PUBLIC	?AddText@ImFontGlyphRangesBuilder@@QEAAXPEBD0@Z	; ImFontGlyphRangesBuilder::AddText
PUBLIC	?AddRanges@ImFontGlyphRangesBuilder@@QEAAXPEBG@Z ; ImFontGlyphRangesBuilder::AddRanges
PUBLIC	?BuildRanges@ImFontGlyphRangesBuilder@@QEAAXPEAU?$ImVector@G@@@Z ; ImFontGlyphRangesBuilder::BuildRanges
PUBLIC	??0ImFontAtlasCustomRect@@QEAA@XZ		; ImFontAtlasCustomRect::ImFontAtlasCustomRect
PUBLIC	?IsPacked@ImFontAtlasCustomRect@@QEBA_NXZ	; ImFontAtlasCustomRect::IsPacked
PUBLIC	??0ImFontAtlas@@QEAA@XZ				; ImFontAtlas::ImFontAtlas
PUBLIC	??1ImFontAtlas@@QEAA@XZ				; ImFontAtlas::~ImFontAtlas
PUBLIC	?AddFont@ImFontAtlas@@QEAAPEAUImFont@@PEBUImFontConfig@@@Z ; ImFontAtlas::AddFont
PUBLIC	?AddFontDefault@ImFontAtlas@@QEAAPEAUImFont@@PEBUImFontConfig@@@Z ; ImFontAtlas::AddFontDefault
PUBLIC	?AddFontFromFileTTF@ImFontAtlas@@QEAAPEAUImFont@@PEBDMPEBUImFontConfig@@PEBG@Z ; ImFontAtlas::AddFontFromFileTTF
PUBLIC	?AddFontFromMemoryTTF@ImFontAtlas@@QEAAPEAUImFont@@PEAXHMPEBUImFontConfig@@PEBG@Z ; ImFontAtlas::AddFontFromMemoryTTF
PUBLIC	?AddFontFromMemoryCompressedTTF@ImFontAtlas@@QEAAPEAUImFont@@PEBXHMPEBUImFontConfig@@PEBG@Z ; ImFontAtlas::AddFontFromMemoryCompressedTTF
PUBLIC	?AddFontFromMemoryCompressedBase85TTF@ImFontAtlas@@QEAAPEAUImFont@@PEBDMPEBUImFontConfig@@PEBG@Z ; ImFontAtlas::AddFontFromMemoryCompressedBase85TTF
PUBLIC	?ClearInputData@ImFontAtlas@@QEAAXXZ		; ImFontAtlas::ClearInputData
PUBLIC	?ClearTexData@ImFontAtlas@@QEAAXXZ		; ImFontAtlas::ClearTexData
PUBLIC	?ClearFonts@ImFontAtlas@@QEAAXXZ		; ImFontAtlas::ClearFonts
PUBLIC	?Clear@ImFontAtlas@@QEAAXXZ			; ImFontAtlas::Clear
PUBLIC	?Build@ImFontAtlas@@QEAA_NXZ			; ImFontAtlas::Build
PUBLIC	?GetTexDataAsAlpha8@ImFontAtlas@@QEAAXPEAPEAEPEAH11@Z ; ImFontAtlas::GetTexDataAsAlpha8
PUBLIC	?GetTexDataAsRGBA32@ImFontAtlas@@QEAAXPEAPEAEPEAH11@Z ; ImFontAtlas::GetTexDataAsRGBA32
PUBLIC	?GetGlyphRangesDefault@ImFontAtlas@@QEAAPEBGXZ	; ImFontAtlas::GetGlyphRangesDefault
PUBLIC	?GetGlyphRangesKorean@ImFontAtlas@@QEAAPEBGXZ	; ImFontAtlas::GetGlyphRangesKorean
PUBLIC	?GetGlyphRangesJapanese@ImFontAtlas@@QEAAPEBGXZ	; ImFontAtlas::GetGlyphRangesJapanese
PUBLIC	?GetGlyphRangesChineseFull@ImFontAtlas@@QEAAPEBGXZ ; ImFontAtlas::GetGlyphRangesChineseFull
PUBLIC	?GetGlyphRangesChineseSimplifiedCommon@ImFontAtlas@@QEAAPEBGXZ ; ImFontAtlas::GetGlyphRangesChineseSimplifiedCommon
PUBLIC	?GetGlyphRangesCyrillic@ImFontAtlas@@QEAAPEBGXZ	; ImFontAtlas::GetGlyphRangesCyrillic
PUBLIC	?GetGlyphRangesThai@ImFontAtlas@@QEAAPEBGXZ	; ImFontAtlas::GetGlyphRangesThai
PUBLIC	?GetGlyphRangesVietnamese@ImFontAtlas@@QEAAPEBGXZ ; ImFontAtlas::GetGlyphRangesVietnamese
PUBLIC	?AddCustomRectRegular@ImFontAtlas@@QEAAHHH@Z	; ImFontAtlas::AddCustomRectRegular
PUBLIC	?AddCustomRectFontGlyph@ImFontAtlas@@QEAAHPEAUImFont@@GHHMAEBUImVec2@@@Z ; ImFontAtlas::AddCustomRectFontGlyph
PUBLIC	?GetCustomRectByIndex@ImFontAtlas@@QEAAPEAUImFontAtlasCustomRect@@H@Z ; ImFontAtlas::GetCustomRectByIndex
PUBLIC	?CalcCustomRectUV@ImFontAtlas@@QEBAXPEBUImFontAtlasCustomRect@@PEAUImVec2@@1@Z ; ImFontAtlas::CalcCustomRectUV
PUBLIC	?GetMouseCursorTexData@ImFontAtlas@@QEAA_NHPEAUImVec2@@0QEAU2@1@Z ; ImFontAtlas::GetMouseCursorTexData
PUBLIC	??0?$ImVector@PEAUImFont@@@@QEAA@XZ		; ImVector<ImFont *>::ImVector<ImFont *>
PUBLIC	??1?$ImVector@PEAUImFont@@@@QEAA@XZ		; ImVector<ImFont *>::~ImVector<ImFont *>
PUBLIC	?clear@?$ImVector@PEAUImFont@@@@QEAAXXZ		; ImVector<ImFont *>::clear
PUBLIC	?clear_delete@?$ImVector@PEAUImFont@@@@QEAAXXZ	; ImVector<ImFont *>::clear_delete
PUBLIC	?empty@?$ImVector@PEAUImFont@@@@QEBA_NXZ	; ImVector<ImFont *>::empty
PUBLIC	??A?$ImVector@PEAUImFont@@@@QEAAAEAPEAUImFont@@H@Z ; ImVector<ImFont *>::operator[]
PUBLIC	?back@?$ImVector@PEAUImFont@@@@QEAAAEAPEAUImFont@@XZ ; ImVector<ImFont *>::back
PUBLIC	?_grow_capacity@?$ImVector@PEAUImFont@@@@QEBAHH@Z ; ImVector<ImFont *>::_grow_capacity
PUBLIC	?reserve@?$ImVector@PEAUImFont@@@@QEAAXH@Z	; ImVector<ImFont *>::reserve
PUBLIC	?push_back@?$ImVector@PEAUImFont@@@@QEAAXAEBQEAUImFont@@@Z ; ImVector<ImFont *>::push_back
PUBLIC	??0?$ImVector@UImFontAtlasCustomRect@@@@QEAA@XZ	; ImVector<ImFontAtlasCustomRect>::ImVector<ImFontAtlasCustomRect>
PUBLIC	??1?$ImVector@UImFontAtlasCustomRect@@@@QEAA@XZ	; ImVector<ImFontAtlasCustomRect>::~ImVector<ImFontAtlasCustomRect>
PUBLIC	?clear@?$ImVector@UImFontAtlasCustomRect@@@@QEAAXXZ ; ImVector<ImFontAtlasCustomRect>::clear
PUBLIC	??A?$ImVector@UImFontAtlasCustomRect@@@@QEAAAEAUImFontAtlasCustomRect@@H@Z ; ImVector<ImFontAtlasCustomRect>::operator[]
PUBLIC	?_grow_capacity@?$ImVector@UImFontAtlasCustomRect@@@@QEBAHH@Z ; ImVector<ImFontAtlasCustomRect>::_grow_capacity
PUBLIC	?reserve@?$ImVector@UImFontAtlasCustomRect@@@@QEAAXH@Z ; ImVector<ImFontAtlasCustomRect>::reserve
PUBLIC	?push_back@?$ImVector@UImFontAtlasCustomRect@@@@QEAAXAEBUImFontAtlasCustomRect@@@Z ; ImVector<ImFontAtlasCustomRect>::push_back
PUBLIC	??0?$ImVector@UImFontConfig@@@@QEAA@XZ		; ImVector<ImFontConfig>::ImVector<ImFontConfig>
PUBLIC	??1?$ImVector@UImFontConfig@@@@QEAA@XZ		; ImVector<ImFontConfig>::~ImVector<ImFontConfig>
PUBLIC	?clear@?$ImVector@UImFontConfig@@@@QEAAXXZ	; ImVector<ImFontConfig>::clear
PUBLIC	??A?$ImVector@UImFontConfig@@@@QEAAAEAUImFontConfig@@H@Z ; ImVector<ImFontConfig>::operator[]
PUBLIC	?back@?$ImVector@UImFontConfig@@@@QEAAAEAUImFontConfig@@XZ ; ImVector<ImFontConfig>::back
PUBLIC	?_grow_capacity@?$ImVector@UImFontConfig@@@@QEBAHH@Z ; ImVector<ImFontConfig>::_grow_capacity
PUBLIC	?reserve@?$ImVector@UImFontConfig@@@@QEAAXH@Z	; ImVector<ImFontConfig>::reserve
PUBLIC	?push_back@?$ImVector@UImFontConfig@@@@QEAAXAEBUImFontConfig@@@Z ; ImVector<ImFontConfig>::push_back
PUBLIC	??0?$ImVector@M@@QEAA@XZ			; ImVector<float>::ImVector<float>
PUBLIC	??1?$ImVector@M@@QEAA@XZ			; ImVector<float>::~ImVector<float>
PUBLIC	?clear@?$ImVector@M@@QEAAXXZ			; ImVector<float>::clear
PUBLIC	??A?$ImVector@M@@QEAAAEAMH@Z			; ImVector<float>::operator[]
PUBLIC	?_grow_capacity@?$ImVector@M@@QEBAHH@Z		; ImVector<float>::_grow_capacity
PUBLIC	?resize@?$ImVector@M@@QEAAXHAEBM@Z		; ImVector<float>::resize
PUBLIC	?reserve@?$ImVector@M@@QEAAXH@Z			; ImVector<float>::reserve
PUBLIC	??0?$ImVector@UImFontGlyph@@@@QEAA@XZ		; ImVector<ImFontGlyph>::ImVector<ImFontGlyph>
PUBLIC	??1?$ImVector@UImFontGlyph@@@@QEAA@XZ		; ImVector<ImFontGlyph>::~ImVector<ImFontGlyph>
PUBLIC	?clear@?$ImVector@UImFontGlyph@@@@QEAAXXZ	; ImVector<ImFontGlyph>::clear
PUBLIC	??A?$ImVector@UImFontGlyph@@@@QEAAAEAUImFontGlyph@@H@Z ; ImVector<ImFontGlyph>::operator[]
PUBLIC	?back@?$ImVector@UImFontGlyph@@@@QEAAAEAUImFontGlyph@@XZ ; ImVector<ImFontGlyph>::back
PUBLIC	?_grow_capacity@?$ImVector@UImFontGlyph@@@@QEBAHH@Z ; ImVector<ImFontGlyph>::_grow_capacity
PUBLIC	?resize@?$ImVector@UImFontGlyph@@@@QEAAXH@Z	; ImVector<ImFontGlyph>::resize
PUBLIC	?reserve@?$ImVector@UImFontGlyph@@@@QEAAXH@Z	; ImVector<ImFontGlyph>::reserve
PUBLIC	??0ImFont@@QEAA@XZ				; ImFont::ImFont
PUBLIC	??1ImFont@@QEAA@XZ				; ImFont::~ImFont
PUBLIC	?FindGlyph@ImFont@@QEBAPEBUImFontGlyph@@G@Z	; ImFont::FindGlyph
PUBLIC	?FindGlyphNoFallback@ImFont@@QEBAPEBUImFontGlyph@@G@Z ; ImFont::FindGlyphNoFallback
PUBLIC	?IsLoaded@ImFont@@QEBA_NXZ			; ImFont::IsLoaded
PUBLIC	?CalcTextSizeA@ImFont@@QEBA?AUImVec2@@MMMPEBD0PEAPEBD@Z ; ImFont::CalcTextSizeA
PUBLIC	?CalcWordWrapPositionA@ImFont@@QEBAPEBDMPEBD0M@Z ; ImFont::CalcWordWrapPositionA
PUBLIC	?RenderChar@ImFont@@QEBAXPEAUImDrawList@@MUImVec2@@IG@Z ; ImFont::RenderChar
PUBLIC	?RenderText@ImFont@@QEBAXPEAUImDrawList@@MUImVec2@@IAEBUImVec4@@PEBD3M_N@Z ; ImFont::RenderText
PUBLIC	?BuildLookupTable@ImFont@@QEAAXXZ		; ImFont::BuildLookupTable
PUBLIC	?ClearOutputData@ImFont@@QEAAXXZ		; ImFont::ClearOutputData
PUBLIC	?GrowIndex@ImFont@@QEAAXH@Z			; ImFont::GrowIndex
PUBLIC	?AddGlyph@ImFont@@QEAAXPEBUImFontConfig@@GMMMMMMMMM@Z ; ImFont::AddGlyph
PUBLIC	?AddRemapChar@ImFont@@QEAAXGG_N@Z		; ImFont::AddRemapChar
PUBLIC	?SetGlyphVisible@ImFont@@QEAAXG_N@Z		; ImFont::SetGlyphVisible
PUBLIC	?IsGlyphRangeUnused@ImFont@@QEAA_NII@Z		; ImFont::IsGlyphRangeUnused
PUBLIC	??_GImFont@@QEAAPEAXI@Z				; ImFont::`scalar deleting destructor'
PUBLIC	fabsf
PUBLIC	?ImBezierCubicCalc@@YA?AUImVec2@@AEBU1@000M@Z	; ImBezierCubicCalc
PUBLIC	?ImBezierQuadraticCalc@@YA?AUImVec2@@AEBU1@00M@Z ; ImBezierQuadraticCalc
PUBLIC	?ImBitArrayTestBit@@YA_NPEBIH@Z			; ImBitArrayTestBit
PUBLIC	?ImBitArraySetBit@@YAXPEAIH@Z			; ImBitArraySetBit
PUBLIC	?Create@ImBitVector@@QEAAXH@Z			; ImBitVector::Create
PUBLIC	?Clear@ImBitVector@@QEAAXXZ			; ImBitVector::Clear
PUBLIC	?TestBit@ImBitVector@@QEBA_NH@Z			; ImBitVector::TestBit
PUBLIC	?SetBit@ImBitVector@@QEAAXH@Z			; ImBitVector::SetBit
PUBLIC	??1ImBitVector@@QEAA@XZ				; ImBitVector::~ImBitVector
PUBLIC	??0ImDrawListSharedData@@QEAA@XZ		; ImDrawListSharedData::ImDrawListSharedData
PUBLIC	?SetCircleTessellationMaxError@ImDrawListSharedData@@QEAAXM@Z ; ImDrawListSharedData::SetCircleTessellationMaxError
PUBLIC	??1?$ImVector@H@@QEAA@XZ			; ImVector<int>::~ImVector<int>
PUBLIC	??A?$ImVector@H@@QEAAAEAHH@Z			; ImVector<int>::operator[]
PUBLIC	?_grow_capacity@?$ImVector@H@@QEBAHH@Z		; ImVector<int>::_grow_capacity
PUBLIC	?reserve@?$ImVector@H@@QEAAXH@Z			; ImVector<int>::reserve
PUBLIC	?push_back@?$ImVector@H@@QEAAXAEBH@Z		; ImVector<int>::push_back
PUBLIC	?RenderColorRectWithAlphaCheckerboard@ImGui@@YAXPEAUImDrawList@@UImVec2@@1IM1MH@Z ; ImGui::RenderColorRectWithAlphaCheckerboard
PUBLIC	?RenderArrow@ImGui@@YAXPEAUImDrawList@@UImVec2@@IHM@Z ; ImGui::RenderArrow
PUBLIC	?RenderBullet@ImGui@@YAXPEAUImDrawList@@UImVec2@@I@Z ; ImGui::RenderBullet
PUBLIC	?RenderCheckMark@ImGui@@YAXPEAUImDrawList@@UImVec2@@IM@Z ; ImGui::RenderCheckMark
PUBLIC	?RenderMouseCursor@ImGui@@YAXPEAUImDrawList@@UImVec2@@MHIII@Z ; ImGui::RenderMouseCursor
PUBLIC	?RenderArrowPointingAt@ImGui@@YAXPEAUImDrawList@@UImVec2@@1HI@Z ; ImGui::RenderArrowPointingAt
PUBLIC	?RenderRectFilledRangeH@ImGui@@YAXPEAUImDrawList@@AEBUImRect@@IMMM@Z ; ImGui::RenderRectFilledRangeH
PUBLIC	?RenderRectFilledWithHole@ImGui@@YAXPEAUImDrawList@@UImRect@@1IM@Z ; ImGui::RenderRectFilledWithHole
PUBLIC	?ShadeVertsLinearColorGradientKeepAlpha@ImGui@@YAXPEAUImDrawList@@HHUImVec2@@1II@Z ; ImGui::ShadeVertsLinearColorGradientKeepAlpha
PUBLIC	?ShadeVertsLinearUV@ImGui@@YAXPEAUImDrawList@@HHAEBUImVec2@@111_N@Z ; ImGui::ShadeVertsLinearUV
PUBLIC	?ImFontAtlasGetBuilderForStbTruetype@@YAPEBUImFontBuilderIO@@XZ ; ImFontAtlasGetBuilderForStbTruetype
PUBLIC	?ImFontAtlasBuildInit@@YAXPEAUImFontAtlas@@@Z	; ImFontAtlasBuildInit
PUBLIC	?ImFontAtlasBuildSetupFont@@YAXPEAUImFontAtlas@@PEAUImFont@@PEAUImFontConfig@@MM@Z ; ImFontAtlasBuildSetupFont
PUBLIC	?ImFontAtlasBuildPackCustomRects@@YAXPEAUImFontAtlas@@PEAX@Z ; ImFontAtlasBuildPackCustomRects
PUBLIC	?ImFontAtlasBuildFinish@@YAXPEAUImFontAtlas@@@Z	; ImFontAtlasBuildFinish
PUBLIC	?ImFontAtlasBuildRender8bppRectFromString@@YAXPEAUImFontAtlas@@HHHHPEBDDE@Z ; ImFontAtlasBuildRender8bppRectFromString
PUBLIC	?ImFontAtlasBuildRender32bppRectFromString@@YAXPEAUImFontAtlas@@HHHHPEBDDI@Z ; ImFontAtlasBuildRender32bppRectFromString
PUBLIC	?ImFontAtlasBuildMultiplyCalcLookupTable@@YAXQEAEM@Z ; ImFontAtlasBuildMultiplyCalcLookupTable
PUBLIC	?ImFontAtlasBuildMultiplyRectAlpha8@@YAXQEBEPEAEHHHHH@Z ; ImFontAtlasBuildMultiplyRectAlpha8
PUBLIC	??1ImFontBuildSrcData@@QEAA@XZ			; ImFontBuildSrcData::~ImFontBuildSrcData
PUBLIC	??_GImFontBuildSrcData@@QEAAPEAXI@Z		; ImFontBuildSrcData::`scalar deleting destructor'
PUBLIC	??0?$ImVector@UImFontBuildSrcData@@@@QEAA@XZ	; ImVector<ImFontBuildSrcData>::ImVector<ImFontBuildSrcData>
PUBLIC	??1?$ImVector@UImFontBuildSrcData@@@@QEAA@XZ	; ImVector<ImFontBuildSrcData>::~ImVector<ImFontBuildSrcData>
PUBLIC	?clear@?$ImVector@UImFontBuildSrcData@@@@QEAAXXZ ; ImVector<ImFontBuildSrcData>::clear
PUBLIC	?clear_destruct@?$ImVector@UImFontBuildSrcData@@@@QEAAXXZ ; ImVector<ImFontBuildSrcData>::clear_destruct
PUBLIC	?size_in_bytes@?$ImVector@UImFontBuildSrcData@@@@QEBAHXZ ; ImVector<ImFontBuildSrcData>::size_in_bytes
PUBLIC	??A?$ImVector@UImFontBuildSrcData@@@@QEAAAEAUImFontBuildSrcData@@H@Z ; ImVector<ImFontBuildSrcData>::operator[]
PUBLIC	?_grow_capacity@?$ImVector@UImFontBuildSrcData@@@@QEBAHH@Z ; ImVector<ImFontBuildSrcData>::_grow_capacity
PUBLIC	?resize@?$ImVector@UImFontBuildSrcData@@@@QEAAXH@Z ; ImVector<ImFontBuildSrcData>::resize
PUBLIC	?reserve@?$ImVector@UImFontBuildSrcData@@@@QEAAXH@Z ; ImVector<ImFontBuildSrcData>::reserve
PUBLIC	??0?$ImVector@UImFontBuildDstData@@@@QEAA@XZ	; ImVector<ImFontBuildDstData>::ImVector<ImFontBuildDstData>
PUBLIC	??1?$ImVector@UImFontBuildDstData@@@@QEAA@XZ	; ImVector<ImFontBuildDstData>::~ImVector<ImFontBuildDstData>
PUBLIC	?clear@?$ImVector@UImFontBuildDstData@@@@QEAAXXZ ; ImVector<ImFontBuildDstData>::clear
PUBLIC	?size_in_bytes@?$ImVector@UImFontBuildDstData@@@@QEBAHXZ ; ImVector<ImFontBuildDstData>::size_in_bytes
PUBLIC	??A?$ImVector@UImFontBuildDstData@@@@QEAAAEAUImFontBuildDstData@@H@Z ; ImVector<ImFontBuildDstData>::operator[]
PUBLIC	?_grow_capacity@?$ImVector@UImFontBuildDstData@@@@QEBAHH@Z ; ImVector<ImFontBuildDstData>::_grow_capacity
PUBLIC	?resize@?$ImVector@UImFontBuildDstData@@@@QEAAXH@Z ; ImVector<ImFontBuildDstData>::resize
PUBLIC	?reserve@?$ImVector@UImFontBuildDstData@@@@QEAAXH@Z ; ImVector<ImFontBuildDstData>::reserve
PUBLIC	??0?$ImVector@Ustbrp_rect@@@@QEAA@XZ		; ImVector<stbrp_rect>::ImVector<stbrp_rect>
PUBLIC	??1?$ImVector@Ustbrp_rect@@@@QEAA@XZ		; ImVector<stbrp_rect>::~ImVector<stbrp_rect>
PUBLIC	?clear@?$ImVector@Ustbrp_rect@@@@QEAAXXZ	; ImVector<stbrp_rect>::clear
PUBLIC	?size_in_bytes@?$ImVector@Ustbrp_rect@@@@QEBAHXZ ; ImVector<stbrp_rect>::size_in_bytes
PUBLIC	??A?$ImVector@Ustbrp_rect@@@@QEAAAEAUstbrp_rect@@H@Z ; ImVector<stbrp_rect>::operator[]
PUBLIC	?_grow_capacity@?$ImVector@Ustbrp_rect@@@@QEBAHH@Z ; ImVector<stbrp_rect>::_grow_capacity
PUBLIC	?resize@?$ImVector@Ustbrp_rect@@@@QEAAXH@Z	; ImVector<stbrp_rect>::resize
PUBLIC	?reserve@?$ImVector@Ustbrp_rect@@@@QEAAXH@Z	; ImVector<stbrp_rect>::reserve
PUBLIC	??0?$ImVector@Ustbtt_packedchar@@@@QEAA@XZ	; ImVector<stbtt_packedchar>::ImVector<stbtt_packedchar>
PUBLIC	??1?$ImVector@Ustbtt_packedchar@@@@QEAA@XZ	; ImVector<stbtt_packedchar>::~ImVector<stbtt_packedchar>
PUBLIC	?size_in_bytes@?$ImVector@Ustbtt_packedchar@@@@QEBAHXZ ; ImVector<stbtt_packedchar>::size_in_bytes
PUBLIC	??A?$ImVector@Ustbtt_packedchar@@@@QEAAAEAUstbtt_packedchar@@H@Z ; ImVector<stbtt_packedchar>::operator[]
PUBLIC	?_grow_capacity@?$ImVector@Ustbtt_packedchar@@@@QEBAHH@Z ; ImVector<stbtt_packedchar>::_grow_capacity
PUBLIC	?resize@?$ImVector@Ustbtt_packedchar@@@@QEAAXH@Z ; ImVector<stbtt_packedchar>::resize
PUBLIC	?reserve@?$ImVector@Ustbtt_packedchar@@@@QEAAXH@Z ; ImVector<stbtt_packedchar>::reserve
PUBLIC	??$IM_DELETE@UImFont@@@@YAXPEAUImFont@@@Z	; IM_DELETE<ImFont>
PUBLIC	__JustMyCode_Default
PUBLIC	??_C@_1FM@JNPAKPFE@?$AAC?$AA?3?$AA?2?$AAd?$AAe?$AAv?$AA?2?$AAR?$AAa?$AAi?$AAs?$AAi?$AAn?$AA?2?$AAR@ ; `string'
PUBLIC	??_C@_1BG@HMJJDGFN@?$AAi?$AAn?$AAd?$AAe?$AAx?$AA?5?$AA?$DO?$AA?$DN?$AA?5?$AA0@ ; `string'
PUBLIC	??_C@_1GO@IOCEAJPC@?$AAC?$AA?3?$AA?2?$AAd?$AAe?$AAv?$AA?2?$AAR?$AAa?$AAi?$AAs?$AAi?$AAn?$AA?2?$AAR@ ; `string'
PUBLIC	??_C@_1DA@HCNHOFJN@?$AAn?$AA?5?$AA?$DM?$AA?5?$AA?$CI?$AAS?$AAt?$AAo?$AAr?$AAa?$AAg?$AAe?$AA?4?$AAS?$AAi@ ; `string'
PUBLIC	??_C@_13COJANIEC@?$AA0@				; `string'
PUBLIC	??_C@_1GO@KIDGKFHL@?$AAC?$AA?3?$AA?2?$AAd?$AAe?$AAv?$AA?2?$AAR?$AAa?$AAi?$AAs?$AAi?$AAn?$AA?2?$AAR@ ; `string'
PUBLIC	?__LINE__Var@?0??stbrp_init_target@@9@4JA	; `stbrp_init_target'::`1'::__LINE__Var
PUBLIC	??_C@_1EI@NNJKMECF@?$AAw?$AAi?$AAd?$AAt?$AAh?$AA?5?$AA?$DM?$AA?$DN?$AA?5?$AA0?$AAx?$AAf?$AAf?$AAf?$AAf@ ; `string'
PUBLIC	?__LINE__Var@?0??stbrp__skyline_find_min_y@@YAHPEAUstbrp_context@@PEAUstbrp_node@@HHPEAH@Z@4JA ; `stbrp__skyline_find_min_y'::`1'::__LINE__Var
PUBLIC	??_C@_1BO@KBODBKOH@?$AAf?$AAi?$AAr?$AAs?$AAt?$AA?9?$AA?$DO?$AAx?$AA?5?$AA?$DM?$AA?$DN?$AA?5?$AAx?$AA0@ ; `string'
PUBLIC	??_C@_1CG@BDIGDJGP@?$AAn?$AAo?$AAd?$AAe?$AA?9?$AA?$DO?$AAn?$AAe?$AAx?$AAt?$AA?9?$AA?$DO?$AAx?$AA?5?$AA?$DO@ ; `string'
PUBLIC	??_C@_1BM@JHJLEEND@?$AAn?$AAo?$AAd?$AAe?$AA?9?$AA?$DO?$AAx?$AA?5?$AA?$DM?$AA?$DN?$AA?5?$AAx?$AA0@ ; `string'
PUBLIC	?__LINE__Var@?0??stbrp__skyline_find_best_pos@@YA?AUstbrp__findresult@@PEAUstbrp_context@@HH@Z@4JA ; `stbrp__skyline_find_best_pos'::`1'::__LINE__Var
PUBLIC	??_C@_1CM@LEHAODMI@?$AAw?$AAi?$AAd?$AAt?$AAh?$AA?5?$AA?$CF?$AA?5?$AAc?$AA?9?$AA?$DO?$AAa?$AAl?$AAi?$AAg@ ; `string'
PUBLIC	??_C@_1BE@MNLKNDNL@?$AAx?$AAp?$AAo?$AAs?$AA?5?$AA?$DO?$AA?$DN?$AA?5?$AA0@ ; `string'
PUBLIC	??_C@_1FA@GPDJEJHP@?$AAn?$AAo?$AAd?$AAe?$AA?9?$AA?$DO?$AAn?$AAe?$AAx?$AAt?$AA?9?$AA?$DO?$AAx?$AA?5?$AA?$DO@ ; `string'
PUBLIC	??_C@_1BI@JNFMLHFF@?$AAy?$AA?5?$AA?$DM?$AA?$DN?$AA?5?$AAb?$AAe?$AAs?$AAt?$AA_?$AAy@ ; `string'
PUBLIC	?__LINE__Var@?0??stbrp__skyline_pack_rectangle@@YA?AUstbrp__findresult@@PEAUstbrp_context@@HH@Z@4JA ; `stbrp__skyline_pack_rectangle'::`1'::__LINE__Var
PUBLIC	??_C@_1CM@NCKIDPDA@?$AAc?$AAu?$AAr?$AA?9?$AA?$DO?$AAx?$AA?5?$AA?$DM?$AA?5?$AAc?$AAu?$AAr?$AA?9?$AA?$DO?$AAn@ ; `string'
PUBLIC	??_C@_1BO@NJIDGHPD@?$AAc?$AAu?$AAr?$AA?9?$AA?$DO?$AAn?$AAe?$AAx?$AAt?$AA?5?$AA?$DN?$AA?$DN?$AA?5?$AA0@ ; `string'
PUBLIC	??_C@_1DM@MABMKAHD@?$AAc?$AAo?$AAu?$AAn?$AAt?$AA?5?$AA?$DN?$AA?$DN?$AA?5?$AAc?$AAo?$AAn?$AAt?$AAe?$AAx@ ; `string'
PUBLIC	?__LINE__Var@?0??stbtt__buf_seek@@YAXPEAUstbtt__buf@@H@Z@4JA ; `stbtt__buf_seek'::`1'::__LINE__Var
PUBLIC	??_C@_1GO@HJHOIBBP@?$AAC?$AA?3?$AA?2?$AAd?$AAe?$AAv?$AA?2?$AAR?$AAa?$AAi?$AAs?$AAi?$AAn?$AA?2?$AAR@ ; `string'
PUBLIC	??_C@_1DA@CPAEOPEI@?$AA?$CB?$AA?$CI?$AAo?$AA?5?$AA?$DO?$AA?5?$AAb?$AA?9?$AA?$DO?$AAs?$AAi?$AAz?$AAe?$AA?5?$AA?$HM@ ; `string'
PUBLIC	?__LINE__Var@?0??stbtt__buf_get@@YAIPEAUstbtt__buf@@H@Z@4JA ; `stbtt__buf_get'::`1'::__LINE__Var
PUBLIC	??_C@_1CC@OMFGMKMB@?$AAn?$AA?5?$AA?$DO?$AA?$DN?$AA?5?$AA1?$AA?5?$AA?$CG?$AA?$CG?$AA?5?$AAn?$AA?5?$AA?$DM?$AA?$DN?$AA?5@ ; `string'
PUBLIC	?__LINE__Var@?0??stbtt__new_buf@@YA?AUstbtt__buf@@PEBX_K@Z@4JA ; `stbtt__new_buf'::`1'::__LINE__Var
PUBLIC	??_C@_1CE@EPOLDKHI@?$AAs?$AAi?$AAz?$AAe?$AA?5?$AA?$DM?$AA?5?$AA0?$AAx?$AA4?$AA0?$AA0?$AA0?$AA0?$AA0@ ; `string'
PUBLIC	?__LINE__Var@?0??stbtt__cff_get_index@@YA?AUstbtt__buf@@PEAU2@@Z@4JA ; `stbtt__cff_get_index'::`1'::__LINE__Var
PUBLIC	??_C@_1DK@IJDIOPHB@?$AAo?$AAf?$AAf?$AAs?$AAi?$AAz?$AAe?$AA?5?$AA?$DO?$AA?$DN?$AA?5?$AA1?$AA?5?$AA?$CG?$AA?$CG@ ; `string'
PUBLIC	?__LINE__Var@?0??stbtt__cff_int@@YAIPEAUstbtt__buf@@@Z@4JA ; `stbtt__cff_int'::`1'::__LINE__Var
PUBLIC	?__LINE__Var@?0??stbtt__cff_skip_operand@@YAXPEAUstbtt__buf@@@Z@4JA ; `stbtt__cff_skip_operand'::`1'::__LINE__Var
PUBLIC	??_C@_1BC@KDMJFGHG@?$AAb?$AA0?$AA?5?$AA?$DO?$AA?$DN?$AA?5?$AA2?$AA8@ ; `string'
PUBLIC	?__LINE__Var@?0??stbtt__cff_index_get@@YA?AUstbtt__buf@@U2@H@Z@4JA ; `stbtt__cff_index_get'::`1'::__LINE__Var
PUBLIC	??_C@_1CI@PFMEGAIA@?$AAi?$AA?5?$AA?$DO?$AA?$DN?$AA?5?$AA0?$AA?5?$AA?$CG?$AA?$CG?$AA?5?$AAi?$AA?5?$AA?$DM?$AA?5?$AAc@ ; `string'
PUBLIC	??_C@_04LBBEMOBJ@typ1@				; `string'
PUBLIC	??_C@_04LLEFIKCJ@OTTO@				; `string'
PUBLIC	??_C@_04LOAJBDKD@true@				; `string'
PUBLIC	??_C@_04KIOEMAHO@ttcf@				; `string'
PUBLIC	??_C@_04EICJPCEA@cmap@				; `string'
PUBLIC	??_C@_04DACNFKGE@loca@				; `string'
PUBLIC	??_C@_04NEODDMOL@head@				; `string'
PUBLIC	??_C@_04LLIHEPK@glyf@				; `string'
PUBLIC	??_C@_04FMPHLIKP@hhea@				; `string'
PUBLIC	??_C@_04ONMNCIMC@hmtx@				; `string'
PUBLIC	??_C@_04HHMMLDJI@kern@				; `string'
PUBLIC	??_C@_04PCFDEHHD@GPOS@				; `string'
PUBLIC	??_C@_04HJGCPIEK@CFF?5@				; `string'
PUBLIC	??_C@_04KODIGLGG@maxp@				; `string'
PUBLIC	?__LINE__Var@?0??stbtt_FindGlyphIndex@@9@4JA	; `stbtt_FindGlyphIndex'::`1'::__LINE__Var
PUBLIC	??_C@_1HA@EBGBJFDE@?$AAu?$AAn?$AAi?$AAc?$AAo?$AAd?$AAe?$AA_?$AAc?$AAo?$AAd?$AAe?$AAp?$AAo?$AAi@ ; `string'
PUBLIC	?__LINE__Var@?0??stbtt__GetGlyfOffset@@YAHPEBUstbtt_fontinfo@@H@Z@4JA ; `stbtt__GetGlyfOffset'::`1'::__LINE__Var
PUBLIC	??_C@_1CA@MDABGEPC@?$AA?$CB?$AAi?$AAn?$AAf?$AAo?$AA?9?$AA?$DO?$AAc?$AAf?$AAf?$AA?4?$AAs?$AAi?$AAz?$AAe@ ; `string'
PUBLIC	?__LINE__Var@?0??stbtt__GetGlyphShapeTT@@YAHPEBUstbtt_fontinfo@@HPEAPEAUstbtt_vertex@@@Z@4JA ; `stbtt__GetGlyphShapeTT'::`1'::__LINE__Var
PUBLIC	?__LINE__Var@?0??stbtt__GetGlyphShapeT2@@YAHPEBUstbtt_fontinfo@@HPEAPEAUstbtt_vertex@@@Z@4JA ; `stbtt__GetGlyphShapeT2'::`1'::__LINE__Var
PUBLIC	??_C@_1GE@KABFAMEA@?$AAo?$AAu?$AAt?$AAp?$AAu?$AAt?$AA_?$AAc?$AAt?$AAx?$AA?4?$AAn?$AAu?$AAm?$AA_@ ; `string'
PUBLIC	?__LINE__Var@?0??stbtt__new_active@@YAPEAUstbtt__active_edge@@PEAUstbtt__hheap@@PEAUstbtt__edge@@HMPEAX@Z@4JA ; `stbtt__new_active'::`1'::__LINE__Var
PUBLIC	??_C@_1O@EHPNOHML@?$AAz?$AA?5?$AA?$CB?$AA?$DN?$AA?5?$AA0@ ; `string'
PUBLIC	?__LINE__Var@?0??stbtt__handle_clipped_edge@@YAXPEAMHPEAUstbtt__active_edge@@MMMM@Z@4JA ; `stbtt__handle_clipped_edge'::`1'::__LINE__Var
PUBLIC	??_C@_1BA@ENLNFFAM@?$AAy?$AA0?$AA?5?$AA?$DM?$AA?5?$AAy?$AA1@ ; `string'
PUBLIC	??_C@_1BO@JGPMADBG@?$AAe?$AA?9?$AA?$DO?$AAs?$AAy?$AA?5?$AA?$DM?$AA?$DN?$AA?5?$AAe?$AA?9?$AA?$DO?$AAe?$AAy@ ; `string'
PUBLIC	??_C@_1BE@DHAKMBPL@?$AAx?$AA1?$AA?5?$AA?$DM?$AA?$DN?$AA?5?$AAx?$AA?$CL?$AA1@ ; `string'
PUBLIC	??_C@_1BA@FAAMJPKE@?$AAx?$AA1?$AA?5?$AA?$DO?$AA?$DN?$AA?5?$AAx@ ; `string'
PUBLIC	??_C@_1BA@FEPJEPJJ@?$AAx?$AA1?$AA?5?$AA?$DM?$AA?$DN?$AA?5?$AAx@ ; `string'
PUBLIC	??_C@_1BE@NGGEAFFG@?$AAx?$AA1?$AA?5?$AA?$DO?$AA?$DN?$AA?5?$AAx?$AA?$CL?$AA1@ ; `string'
PUBLIC	??_C@_1CK@NILBPPPH@?$AAx?$AA1?$AA?5?$AA?$DO?$AA?$DN?$AA?5?$AAx?$AA?5?$AA?$CG?$AA?$CG?$AA?5?$AAx?$AA1?$AA?5?$AA?$DM@ ; `string'
PUBLIC	??_C@_1FK@JPMIPNJF@?$AAx?$AA0?$AA?5?$AA?$DO?$AA?$DN?$AA?5?$AAx?$AA?5?$AA?$CG?$AA?$CG?$AA?5?$AAx?$AA0?$AA?5?$AA?$DM@ ; `string'
PUBLIC	?__LINE__Var@?0??stbtt__fill_active_edges_new@@YAXPEAM0HPEAUstbtt__active_edge@@M@Z@4JA ; `stbtt__fill_active_edges_new'::`1'::__LINE__Var
PUBLIC	??_C@_1BO@MDBOACOJ@?$AAe?$AA?9?$AA?$DO?$AAe?$AAy?$AA?5?$AA?$DO?$AA?$DN?$AA?5?$AAy?$AA_?$AAt?$AAo?$AAp@ ; `string'
PUBLIC	??_C@_1EI@KOIFPDFH@?$AAe?$AA?9?$AA?$DO?$AAs?$AAy?$AA?5?$AA?$DM?$AA?$DN?$AA?5?$AAy?$AA_?$AAb?$AAo?$AAt?$AAt@ ; `string'
PUBLIC	??_C@_1CE@GDDDMDCC@?$AAx?$AA?5?$AA?$DO?$AA?$DN?$AA?5?$AA0?$AA?5?$AA?$CG?$AA?$CG?$AA?5?$AAx?$AA?5?$AA?$DM?$AA?5?$AAl@ ; `string'
PUBLIC	??_C@_1CK@PHOJNIKI@?$AAf?$AAa?$AAb?$AAs?$AAf?$AA?$CI?$AAa?$AAr?$AAe?$AAa?$AA?$CJ?$AA?5?$AA?$DM?$AA?$DN?$AA?5@ ; `string'
PUBLIC	?__LINE__Var@?0??stbtt__rasterize_sorted_edges@@YAXPEAUstbtt__bitmap@@PEAUstbtt__edge@@HHHHPEAX@Z@4JA ; `stbtt__rasterize_sorted_edges'::`1'::__LINE__Var
PUBLIC	??_C@_1BK@LMAHJHLI@?$AAz?$AA?9?$AA?$DO?$AAd?$AAi?$AAr?$AAe?$AAc?$AAt?$AAi?$AAo?$AAn@ ; `string'
PUBLIC	??_C@_1CI@PMJHELI@?$AAz?$AA?9?$AA?$DO?$AAe?$AAy?$AA?5?$AA?$DO?$AA?$DN?$AA?5?$AAs?$AAc?$AAa?$AAn?$AA_?$AAy@ ; `string'
PUBLIC	?__LINE__Var@?0??stbtt__h_prefilter@@YAXPEAEHHHI@Z@4JA ; `stbtt__h_prefilter'::`1'::__LINE__Var
PUBLIC	??_C@_1BO@BDJAMAMF@?$AAp?$AAi?$AAx?$AAe?$AAl?$AAs?$AA?$FL?$AAi?$AA?$FN?$AA?5?$AA?$DN?$AA?$DN?$AA?5?$AA0@ ; `string'
PUBLIC	?__LINE__Var@?0??stbtt__v_prefilter@@YAXPEAEHHHI@Z@4JA ; `stbtt__v_prefilter'::`1'::__LINE__Var
PUBLIC	??_C@_1DO@LAPBLJ@?$AAp?$AAi?$AAx?$AAe?$AAl?$AAs?$AA?$FL?$AAi?$AA?$CK?$AAs?$AAt?$AAr?$AAi?$AAd?$AAe@ ; `string'
PUBLIC	?__LINE__Var@?0??SetCircleTessellationMaxError@ImDrawListSharedData@@QEAAXM@Z@4JA ; `ImDrawListSharedData::SetCircleTessellationMaxError'::`1'::__LINE__Var
PUBLIC	??_C@_1GK@JMLKBNFK@?$AAC?$AA?3?$AA?2?$AAd?$AAe?$AAv?$AA?2?$AAR?$AAa?$AAi?$AAs?$AAi?$AAn?$AA?2?$AAR@ ; `string'
PUBLIC	??_C@_1CC@JCMOPDC@?$AAm?$AAa?$AAx?$AA_?$AAe?$AAr?$AAr?$AAo?$AAr?$AA?5?$AA?$DO?$AA?5?$AA0?$AA?4?$AA0@ ; `string'
PUBLIC	?__LINE__Var@?0??AddDrawCmd@ImDrawList@@QEAAXXZ@4JA ; `ImDrawList::AddDrawCmd'::`1'::__LINE__Var
PUBLIC	??_C@_1LC@MAEAJCLC@?$AAd?$AAr?$AAa?$AAw?$AA_?$AAc?$AAm?$AAd?$AA?4?$AAC?$AAl?$AAi?$AAp?$AAR?$AAe@ ; `string'
PUBLIC	?__LINE__Var@?0??AddCallback@ImDrawList@@QEAAXP6AXPEBU2@PEBUImDrawCmd@@@ZPEAX@Z@4JA ; `ImDrawList::AddCallback'::`1'::__LINE__Var
PUBLIC	??_C@_1DI@FGNNAPCK@?$AAc?$AAu?$AAr?$AAr?$AA_?$AAc?$AAm?$AAd?$AA?9?$AA?$DO?$AAU?$AAs?$AAe?$AAr?$AAC@ ; `string'
PUBLIC	?__LINE__Var@?0??_OnChangedClipRect@ImDrawList@@QEAAXXZ@4JA ; `ImDrawList::_OnChangedClipRect'::`1'::__LINE__Var
PUBLIC	?__LINE__Var@?0??_OnChangedTextureID@ImDrawList@@QEAAXXZ@4JA ; `ImDrawList::_OnChangedTextureID'::`1'::__LINE__Var
PUBLIC	?__LINE__Var@?0??_OnChangedVtxOffset@ImDrawList@@QEAAXXZ@4JA ; `ImDrawList::_OnChangedVtxOffset'::`1'::__LINE__Var
PUBLIC	?__LINE__Var@?0??FixRectCornerFlags@@YAHH@Z@4JA	; `FixRectCornerFlags'::`1'::__LINE__Var
PUBLIC	??_C@_0DF@FNKJFHEE@Misuse?5of?5legacy?5hardcoded?5ImDr@ ; `string'
PUBLIC	??_C@_1JM@GAJOFMMN@?$AA?$CI?$AAf?$AAl?$AAa?$AAg?$AAs?$AA?5?$AA?$CG?$AA?5?$AA0?$AAx?$AA0?$AAF?$AA?$CJ?$AA?5@ ; `string'
PUBLIC	?__LINE__Var@?0??AddText@ImDrawList@@QEAAXPEBUImFont@@MAEBUImVec2@@IPEBD2MPEBUImVec4@@@Z@4JA ; `ImDrawList::AddText'::`1'::__LINE__Var
PUBLIC	??_C@_1GI@CIGOLMNM@?$AAf?$AAo?$AAn?$AAt?$AA?9?$AA?$DO?$AAC?$AAo?$AAn?$AAt?$AAa?$AAi?$AAn?$AAe?$AAr@ ; `string'
PUBLIC	?__LINE__Var@?0??Split@ImDrawListSplitter@@QEAAXPEAUImDrawList@@H@Z@4JA ; `ImDrawListSplitter::Split'::`1'::__LINE__Var
PUBLIC	??_C@_0GA@FGMHMEOI@Nested?5channel?5splitting?5is?5not@ ; `string'
PUBLIC	??_C@_1BAE@LAENHIMB@?$AA_?$AAC?$AAu?$AAr?$AAr?$AAe?$AAn?$AAt?$AA?5?$AA?$DN?$AA?$DN?$AA?5?$AA0?$AA?5?$AA?$CG@ ; `string'
PUBLIC	?__LINE__Var@?0??SetCurrentChannel@ImDrawListSplitter@@QEAAXPEAUImDrawList@@H@Z@4JA ; `ImDrawListSplitter::SetCurrentChannel'::`1'::__LINE__Var
PUBLIC	??_C@_1DC@ILGGLBID@?$AAi?$AAd?$AAx?$AA?5?$AA?$DO?$AA?$DN?$AA?5?$AA0?$AA?5?$AA?$CG?$AA?$CG?$AA?5?$AAi?$AAd?$AAx@ ; `string'
PUBLIC	?__LINE__Var@?0???1ImFontAtlas@@QEAA@XZ@4JA	; `ImFontAtlas::~ImFontAtlas'::`1'::__LINE__Var
PUBLIC	??_C@_0EN@DLIEKEGM@Cannot?5modify?5a?5locked?5ImFontAt@ ; `string'
PUBLIC	??_C@_1LE@PGHOGCJ@?$AA?$CB?$AAL?$AAo?$AAc?$AAk?$AAe?$AAd?$AA?5?$AA?$CG?$AA?$CG?$AA?5?$AA?$CC?$AAC?$AAa?$AAn@ ; `string'
PUBLIC	?__LINE__Var@?0??ClearInputData@ImFontAtlas@@QEAAXXZ@4JA ; `ImFontAtlas::ClearInputData'::`1'::__LINE__Var
PUBLIC	?__LINE__Var@?0??ClearTexData@ImFontAtlas@@QEAAXXZ@4JA ; `ImFontAtlas::ClearTexData'::`1'::__LINE__Var
PUBLIC	?__LINE__Var@?0??ClearFonts@ImFontAtlas@@QEAAXXZ@4JA ; `ImFontAtlas::ClearFonts'::`1'::__LINE__Var
PUBLIC	?__LINE__Var@?0??AddFont@ImFontAtlas@@QEAAPEAUImFont@@PEBUImFontConfig@@@Z@4JA ; `ImFontAtlas::AddFont'::`1'::__LINE__Var
PUBLIC	??_C@_1GM@FAHJAOLI@?$AAf?$AAo?$AAn?$AAt?$AA_?$AAc?$AAf?$AAg?$AA?9?$AA?$DO?$AAF?$AAo?$AAn?$AAt?$AAD@ ; `string'
PUBLIC	??_C@_1DI@LEOIHPJH@?$AAf?$AAo?$AAn?$AAt?$AA_?$AAc?$AAf?$AAg?$AA?9?$AA?$DO?$AAS?$AAi?$AAz?$AAe?$AAP@ ; `string'
PUBLIC	??_C@_0CI@EDBCHFCN@Cannot?5use?5MergeMode?5for?5the?5fi@ ; `string'
PUBLIC	??_C@_1HI@KOOOLAEJ@?$AA?$CB?$AAF?$AAo?$AAn?$AAt?$AAs?$AA?4?$AAe?$AAm?$AAp?$AAt?$AAy?$AA?$CI?$AA?$CJ?$AA?5@ ; `string'
PUBLIC	??_C@_0BG@CONABPA@ProggyClean?4ttf?0?5?$CFdpx@	; `string'
PUBLIC	?__LINE__Var@?0??AddFontFromFileTTF@ImFontAtlas@@QEAAPEAUImFont@@PEBDMPEBUImFontConfig@@PEBG@Z@4JA ; `ImFontAtlas::AddFontFromFileTTF'::`1'::__LINE__Var
PUBLIC	??_C@_02JDPG@rb@				; `string'
PUBLIC	??_C@_1EG@KCPDJPKE@?$AA?$CI?$AA0?$AA?$CJ?$AA?5?$AA?$CG?$AA?$CG?$AA?5?$AA?$CC?$AAC?$AAo?$AAu?$AAl?$AAd?$AA?5?$AAn@ ; `string'
PUBLIC	??_C@_0L@EPCGLJHG@?$CFs?0?5?$CF?40fpx@		; `string'
PUBLIC	?__LINE__Var@?0??AddFontFromMemoryTTF@ImFontAtlas@@QEAAPEAUImFont@@PEAXHMPEBUImFontConfig@@PEBG@Z@4JA ; `ImFontAtlas::AddFontFromMemoryTTF'::`1'::__LINE__Var
PUBLIC	??_C@_1CO@ODFMNMML@?$AAf?$AAo?$AAn?$AAt?$AA_?$AAc?$AAf?$AAg?$AA?4?$AAF?$AAo?$AAn?$AAt?$AAD?$AAa@ ; `string'
PUBLIC	?__LINE__Var@?0??AddFontFromMemoryCompressedTTF@ImFontAtlas@@QEAAPEAUImFont@@PEBXHMPEBUImFontConfig@@PEBG@Z@4JA ; `ImFontAtlas::AddFontFromMemoryCompressedTTF'::`1'::__LINE__Var
PUBLIC	?__LINE__Var@?0??AddCustomRectRegular@ImFontAtlas@@QEAAHHH@Z@4JA ; `ImFontAtlas::AddCustomRectRegular'::`1'::__LINE__Var
PUBLIC	??_C@_1DK@GHLOFHKF@?$AAw?$AAi?$AAd?$AAt?$AAh?$AA?5?$AA?$DO?$AA?5?$AA0?$AA?5?$AA?$CG?$AA?$CG?$AA?5?$AAw?$AAi@ ; `string'
PUBLIC	??_C@_1DO@CAIIJEKF@?$AAh?$AAe?$AAi?$AAg?$AAh?$AAt?$AA?5?$AA?$DO?$AA?5?$AA0?$AA?5?$AA?$CG?$AA?$CG?$AA?5?$AAh@ ; `string'
PUBLIC	?__LINE__Var@?0??AddCustomRectFontGlyph@ImFontAtlas@@QEAAHPEAUImFont@@GHHMAEBUImVec2@@@Z@4JA ; `ImFontAtlas::AddCustomRectFontGlyph'::`1'::__LINE__Var
PUBLIC	??_C@_1BE@PBFICKNN@?$AAf?$AAo?$AAn?$AAt?$AA?5?$AA?$CB?$AA?$DN?$AA?5?$AA0@ ; `string'
PUBLIC	?__LINE__Var@?0??CalcCustomRectUV@ImFontAtlas@@QEBAXPEBUImFontAtlasCustomRect@@PEAUImVec2@@1@Z@4JA ; `ImFontAtlas::CalcCustomRectUV'::`1'::__LINE__Var
PUBLIC	??_C@_1DM@CMBJAGBP@?$AAT?$AAe?$AAx?$AAW?$AAi?$AAd?$AAt?$AAh?$AA?5?$AA?$DO?$AA?5?$AA0?$AA?5?$AA?$CG?$AA?$CG@ ; `string'
PUBLIC	??_C@_1CC@DEJIAPCP@?$AAr?$AAe?$AAc?$AAt?$AA?9?$AA?$DO?$AAI?$AAs?$AAP?$AAa?$AAc?$AAk?$AAe?$AAd?$AA?$CI@ ; `string'
PUBLIC	?__LINE__Var@?0??GetMouseCursorTexData@ImFontAtlas@@QEAA_NHPEAUImVec2@@0QEAU3@1@Z@4JA ; `ImFontAtlas::GetMouseCursorTexData'::`1'::__LINE__Var
PUBLIC	??_C@_1DC@JHOLDEIK@?$AAP?$AAa?$AAc?$AAk?$AAI?$AAd?$AAM?$AAo?$AAu?$AAs?$AAe?$AAC?$AAu?$AAr?$AAs@ ; `string'
PUBLIC	?__LINE__Var@?0??Build@ImFontAtlas@@QEAA_NXZ@4JA ; `ImFontAtlas::Build'::`1'::__LINE__Var
PUBLIC	?__LINE__Var@?0??ImFontAtlasBuildWithStbTruetype@@YA_NPEAUImFontAtlas@@@Z@4JA ; `ImFontAtlasBuildWithStbTruetype'::`1'::__LINE__Var
PUBLIC	??_C@_1DG@BBHAKCJP@?$AAa?$AAt?$AAl?$AAa?$AAs?$AA?9?$AA?$DO?$AAC?$AAo?$AAn?$AAf?$AAi?$AAg?$AAD?$AAa@ ; `string'
PUBLIC	??_C@_1KE@NPGLPIC@?$AAc?$AAf?$AAg?$AA?4?$AAD?$AAs?$AAt?$AAF?$AAo?$AAn?$AAt?$AA?5?$AA?$CG?$AA?$CG?$AA?5@ ; `string'
PUBLIC	??_C@_1CO@NKKOCLPN@?$AAs?$AAr?$AAc?$AA_?$AAt?$AAm?$AAp?$AA?4?$AAD?$AAs?$AAt?$AAI?$AAn?$AAd?$AAe@ ; `string'
PUBLIC	??_C@_0DC@IFELKFNN@FontData?5is?5incorrect?0?5or?5FontN@ ; `string'
PUBLIC	??_C@_1JA@MENENCJI@?$AAf?$AAo?$AAn?$AAt?$AA_?$AAo?$AAf?$AAf?$AAs?$AAe?$AAt?$AA?5?$AA?$DO?$AA?$DN?$AA?5@ ; `string'
PUBLIC	??_C@_1FO@GJGKHCEN@?$AAs?$AAr?$AAc?$AA_?$AAt?$AAm?$AAp?$AA?4?$AAG?$AAl?$AAy?$AAp?$AAh?$AAs?$AAL@ ; `string'
PUBLIC	??_C@_1DC@ENBGOGEF@?$AAg?$AAl?$AAy?$AAp?$AAh?$AA_?$AAi?$AAn?$AAd?$AAe?$AAx?$AA_?$AAi?$AAn?$AA_@ ; `string'
PUBLIC	?__LINE__Var@?0??ImFontAtlasBuildPackCustomRects@@YAXPEAUImFontAtlas@@PEAX@Z@4JA ; `ImFontAtlasBuildPackCustomRects'::`1'::__LINE__Var
PUBLIC	??_C@_1CE@FMMHMDCM@?$AAp?$AAa?$AAc?$AAk?$AA_?$AAc?$AAo?$AAn?$AAt?$AAe?$AAx?$AAt?$AA?5?$AA?$CB?$AA?$DN@ ; `string'
PUBLIC	??_C@_1CK@POMOOFJC@?$AAu?$AAs?$AAe?$AAr?$AA_?$AAr?$AAe?$AAc?$AAt?$AAs?$AA?4?$AAS?$AAi?$AAz?$AAe@ ; `string'
PUBLIC	??_C@_1KE@CBAIECN@?$AAp?$AAa?$AAc?$AAk?$AA_?$AAr?$AAe?$AAc?$AAt?$AAs?$AA?$FL?$AAi?$AA?$FN?$AA?4?$AAw@ ; `string'
PUBLIC	?__LINE__Var@?0??ImFontAtlasBuildRender8bppRectFromString@@YAXPEAUImFontAtlas@@HHHHPEBDDE@Z@4JA ; `ImFontAtlasBuildRender8bppRectFromString'::`1'::__LINE__Var
PUBLIC	??_C@_1EG@KOLNNAOF@?$AAx?$AA?5?$AA?$DO?$AA?$DN?$AA?5?$AA0?$AA?5?$AA?$CG?$AA?$CG?$AA?5?$AAx?$AA?5?$AA?$CL?$AA?5?$AAw@ ; `string'
PUBLIC	??_C@_1EI@CHFOHLGN@?$AAy?$AA?5?$AA?$DO?$AA?$DN?$AA?5?$AA0?$AA?5?$AA?$CG?$AA?$CG?$AA?5?$AAy?$AA?5?$AA?$CL?$AA?5?$AAh@ ; `string'
PUBLIC	?__LINE__Var@?0??ImFontAtlasBuildRender32bppRectFromString@@YAXPEAUImFontAtlas@@HHHHPEBDDI@Z@4JA ; `ImFontAtlasBuildRender32bppRectFromString'::`1'::__LINE__Var
PUBLIC	?__LINE__Var@?0??ImFontAtlasBuildRenderDefaultTexData@@YAXPEAUImFontAtlas@@@Z@4JA ; `ImFontAtlasBuildRenderDefaultTexData'::`1'::__LINE__Var
PUBLIC	??_C@_1BM@DDBMCGAE@?$AAr?$AA?9?$AA?$DO?$AAI?$AAs?$AAP?$AAa?$AAc?$AAk?$AAe?$AAd?$AA?$CI?$AA?$CJ@ ; `string'
PUBLIC	??_C@_1MA@PDHEAINP@?$AAr?$AA?9?$AA?$DO?$AAW?$AAi?$AAd?$AAt?$AAh?$AA?5?$AA?$DN?$AA?$DN?$AA?5?$AAF?$AAO?$AAN@ ; `string'
PUBLIC	??_C@_1EA@DBHHBIED@?$AAr?$AA?9?$AA?$DO?$AAW?$AAi?$AAd?$AAt?$AAh?$AA?5?$AA?$DN?$AA?$DN?$AA?5?$AA2?$AA?5?$AA?$CG@ ; `string'
PUBLIC	?__LINE__Var@?0??ImFontAtlasBuildRenderLinesTexData@@YAXPEAUImFontAtlas@@@Z@4JA ; `ImFontAtlasBuildRenderLinesTexData'::`1'::__LINE__Var
PUBLIC	??_C@_1HO@DLMJCKJA@?$AAp?$AAa?$AAd?$AA_?$AAl?$AAe?$AAf?$AAt?$AA?5?$AA?$CL?$AA?5?$AAl?$AAi?$AAn?$AAe@ ; `string'
PUBLIC	?__LINE__Var@?0??ImFontAtlasBuildFinish@@YAXPEAUImFontAtlas@@@Z@4JA ; `ImFontAtlasBuildFinish'::`1'::__LINE__Var
PUBLIC	??_C@_1HG@JLCPLJIF@?$AAa?$AAt?$AAl?$AAa?$AAs?$AA?9?$AA?$DO?$AAT?$AAe?$AAx?$AAP?$AAi?$AAx?$AAe?$AAl@ ; `string'
PUBLIC	??_C@_1EC@BJJINGAO@?$AAr?$AA?9?$AA?$DO?$AAF?$AAo?$AAn?$AAt?$AA?9?$AA?$DO?$AAC?$AAo?$AAn?$AAt?$AAa?$AAi@ ; `string'
PUBLIC	?__LINE__Var@?0??BuildLookupTable@ImFont@@QEAAXXZ@4JA ; `ImFont::BuildLookupTable'::`1'::__LINE__Var
PUBLIC	??_C@_1CK@FHBHHKB@?$AAG?$AAl?$AAy?$AAp?$AAh?$AAs?$AA?4?$AAS?$AAi?$AAz?$AAe?$AA?5?$AA?$DM?$AA?5?$AA0@ ; `string'
PUBLIC	?__LINE__Var@?0??GrowIndex@ImFont@@QEAAXH@Z@4JA	; `ImFont::GrowIndex'::`1'::__LINE__Var
PUBLIC	??_C@_1EO@HLFAHELG@?$AAI?$AAn?$AAd?$AAe?$AAx?$AAA?$AAd?$AAv?$AAa?$AAn?$AAc?$AAe?$AAX?$AA?4?$AAS@ ; `string'
PUBLIC	?__LINE__Var@?0??AddRemapChar@ImFont@@QEAAXGG_N@Z@4JA ; `ImFont::AddRemapChar'::`1'::__LINE__Var
PUBLIC	??_C@_1CK@OHOOGJPG@?$AAI?$AAn?$AAd?$AAe?$AAx?$AAL?$AAo?$AAo?$AAk?$AAu?$AAp?$AA?4?$AAS?$AAi?$AAz@ ; `string'
PUBLIC	?__LINE__Var@?0??RenderArrow@ImGui@@YAXPEAUImDrawList@@UImVec2@@IHM@Z@4JA ; `ImGui::RenderArrow'::`1'::__LINE__Var
PUBLIC	?__LINE__Var@?0??RenderMouseCursor@ImGui@@YAXPEAUImDrawList@@UImVec2@@MHIII@Z@4JA ; `ImGui::RenderMouseCursor'::`1'::__LINE__Var
PUBLIC	??_C@_1JM@LKKCKIOL@?$AAm?$AAo?$AAu?$AAs?$AAe?$AA_?$AAc?$AAu?$AAr?$AAs?$AAo?$AAr?$AA?5?$AA?$DO?$AA?5@ ; `string'
PUBLIC	?__LINE__Var@?0??stb__match@@YAXPEBEI@Z@4JA	; `stb__match'::`1'::__LINE__Var
PUBLIC	??_C@_1FC@IADGHEAH@?$AAs?$AAt?$AAb?$AA_?$AA_?$AAd?$AAo?$AAu?$AAt?$AA?5?$AA?$CL?$AA?5?$AAl?$AAe?$AAn@ ; `string'
PUBLIC	?__LINE__Var@?0??stb__lit@@YAXPEBEI@Z@4JA	; `stb__lit'::`1'::__LINE__Var
PUBLIC	?__LINE__Var@?0??stb_decompress@@YAIPEAEPEBEI@Z@4JA ; `stb_decompress'::`1'::__LINE__Var
PUBLIC	??_C@_1DG@GCANDLHA@?$AAs?$AAt?$AAb?$AA_?$AA_?$AAd?$AAo?$AAu?$AAt?$AA?5?$AA?$DN?$AA?$DN?$AA?5?$AAo?$AAu@ ; `string'
PUBLIC	??_C@_1DG@EGIPGKEG@?$AAs?$AAt?$AAb?$AA_?$AA_?$AAd?$AAo?$AAu?$AAt?$AA?5?$AA?$DM?$AA?$DN?$AA?5?$AAo?$AAu@ ; `string'
PUBLIC	??_C@_1CG@GPMNJCJ@?$AAi?$AA?5?$AA?$DO?$AA?$DN?$AA?5?$AA0?$AA?5?$AA?$CG?$AA?$CG?$AA?5?$AAi?$AA?5?$AA?$DM?$AA?5?$AAS@ ; `string'
PUBLIC	??_C@_1DO@NPHOAPAC@?$AAi?$AAt?$AA?5?$AA?$DO?$AA?$DN?$AA?5?$AAD?$AAa?$AAt?$AAa?$AA?5?$AA?$CG?$AA?$CG?$AA?5?$AAi@ ; `string'
PUBLIC	??_C@_1BC@KCECIPDP@?$AAS?$AAi?$AAz?$AAe?$AA?5?$AA?$DO?$AA?5?$AA0@ ; `string'
PUBLIC	??_C@_1CC@BPLGCGDC@?$AAn?$AAe?$AAw?$AA_?$AAs?$AAi?$AAz?$AAe?$AA?5?$AA?$DM?$AA?$DN?$AA?5?$AAS?$AAi?$AAz@ ; `string'
PUBLIC	__real@00000000
PUBLIC	__real@358637bd
PUBLIC	__real@3727c5ac
PUBLIC	__real@3ca3d70a
PUBLIC	__real@3d23d70a
PUBLIC	__real@3d75c28f
PUBLIC	__real@3d8f5c29
PUBLIC	__real@3da3d70a
PUBLIC	__real@3db851ec
PUBLIC	__real@3dcccccd
PUBLIC	__real@3de147ae
PUBLIC	__real@3e0f5c29
PUBLIC	__real@3e23d70a
PUBLIC	__real@3e2e147b
PUBLIC	__real@3e428f5c
PUBLIC	__real@3e4ccccd
PUBLIC	__real@3e6b851f
PUBLIC	__real@3e75c28f
PUBLIC	__real@3e800000
PUBLIC	__real@3e851eb8
PUBLIC	__real@3e8a3d71
PUBLIC	__real@3e8f5c29
PUBLIC	__real@3e947ae1
PUBLIC	__real@3e99999a
PUBLIC	__real@3e9eb852
PUBLIC	__real@3ea3d70a
PUBLIC	__real@3eb33333
PUBLIC	__real@3ec28f5c
PUBLIC	__real@3ec7ae14
PUBLIC	__real@3ecccccd
PUBLIC	__real@3ed1eb85
PUBLIC	__real@3ed70a3d
PUBLIC	__real@3edc28f6
PUBLIC	__real@3ee147ae
PUBLIC	__real@3ee66666
PUBLIC	__real@3eeb851f
PUBLIC	__real@3ef0a3d7
PUBLIC	__real@3ef5c28f
PUBLIC	__real@3efae148
PUBLIC	__real@3f000000
PUBLIC	__real@3f028f5c
PUBLIC	__real@3f051eb8
PUBLIC	__real@3f07ae14
PUBLIC	__real@3f0a3d71
PUBLIC	__real@3f0ccccd
PUBLIC	__real@3f11eb85
PUBLIC	__real@3f170a3d
PUBLIC	__real@3f19999a
PUBLIC	__real@3f1c28f6
PUBLIC	__real@3f1eb852
PUBLIC	__real@3f2147ae
PUBLIC	__real@3f23d70a
PUBLIC	__real@3f2b851f
PUBLIC	__real@3f2e147b
PUBLIC	__real@3f30a3d7
PUBLIC	__real@3f333333
PUBLIC	__real@3f35c28f
PUBLIC	__real@3f3d70a4
PUBLIC	__real@3f400000
PUBLIC	__real@3f47ae14
PUBLIC	__real@3f4a3d71
PUBLIC	__real@3f4ccccd
PUBLIC	__real@3f51eb85
PUBLIC	__real@3f547ae1
PUBLIC	__real@3f59999a
PUBLIC	__real@3f5c28f6
PUBLIC	__real@3f5db22d
PUBLIC	__real@3f5eb852
PUBLIC	__real@3f6147ae
PUBLIC	__real@3f666666
PUBLIC	__real@3f6b851f
PUBLIC	__real@3f70a3d7
PUBLIC	__real@3f733333
PUBLIC	__real@3f75c28f
PUBLIC	__real@3f7ae148
PUBLIC	__real@3f7d70a4
PUBLIC	__real@3f7fffef
PUBLIC	__real@3f800000
PUBLIC	__real@3f8147ae
PUBLIC	__real@3fc90fdb
PUBLIC	__real@40000000
PUBLIC	__real@40400000
PUBLIC	__real@40490fdb
PUBLIC	__real@40800000
PUBLIC	__real@40a00000
PUBLIC	__real@40c90fdb
PUBLIC	__real@40e00000
PUBLIC	__real@41000000
PUBLIC	__real@41100000
PUBLIC	__real@41300000
PUBLIC	__real@41400000
PUBLIC	__real@41500000
PUBLIC	__real@41800000
PUBLIC	__real@41880000
PUBLIC	__real@41900000
PUBLIC	__real@41980000
PUBLIC	__real@41a80000
PUBLIC	__real@41b00000
PUBLIC	__real@41b80000
PUBLIC	__real@41f80000
PUBLIC	__real@42400000
PUBLIC	__real@425c0000
PUBLIC	__real@42920000
PUBLIC	__real@42b60000
PUBLIC	__real@42c80000
PUBLIC	__real@42da0000
PUBLIC	__real@437f0000
PUBLIC	__real@44333333
PUBLIC	__real@44b33333
PUBLIC	__real@45333333
PUBLIC	__real@46800000
PUBLIC	__real@47800000
PUBLIC	__real@7f7fffff
PUBLIC	__real@bf400000
PUBLIC	__real@bf5db22d
PUBLIC	__real@bf800000
PUBLIC	__xmm@7fffffffffffffff7fffffffffffffff
PUBLIC	__xmm@80000000800000008000000080000000
EXTRN	??3@YAXPEAX_K@Z:PROC				; operator delete
EXTRN	__imp__wassert:PROC
EXTRN	?GetStyle@ImGui@@YAAEAUImGuiStyle@@XZ:PROC	; ImGui::GetStyle
EXTRN	?GetColorU32@ImGui@@YAII@Z:PROC			; ImGui::GetColorU32
EXTRN	?MemAlloc@ImGui@@YAPEAX_K@Z:PROC		; ImGui::MemAlloc
EXTRN	?MemFree@ImGui@@YAXPEAX@Z:PROC			; ImGui::MemFree
EXTRN	__imp_qsort:PROC
EXTRN	?ImAlphaBlendColors@@YAIII@Z:PROC		; ImAlphaBlendColors
EXTRN	?ImFormatString@@YAHPEAD_KPEBDZZ:PROC		; ImFormatString
EXTRN	?ImTextCharFromUtf8@@YAHPEAIPEBD1@Z:PROC	; ImTextCharFromUtf8
EXTRN	?ImFileLoadToMemory@@YAPEAXPEBD0PEA_KH@Z:PROC	; ImFileLoadToMemory
EXTRN	_RTC_AllocaHelper:PROC
EXTRN	_RTC_CheckStackVars:PROC
EXTRN	_RTC_CheckStackVars2:PROC
EXTRN	_RTC_InitBase:PROC
EXTRN	_RTC_Shutdown:PROC
EXTRN	__CheckForDebuggerJustMyCode:PROC
EXTRN	__CxxFrameHandler4:PROC
EXTRN	__GSHandlerCheck:PROC
EXTRN	__GSHandlerCheck_EH4:PROC
EXTRN	__chkstk:PROC
EXTRN	__security_check_cookie:PROC
EXTRN	acosf:PROC
EXTRN	ceilf:PROC
EXTRN	cosf:PROC
EXTRN	memchr:PROC
EXTRN	memcmp:PROC
EXTRN	memmove:PROC
EXTRN	sinf:PROC
EXTRN	sqrtf:PROC
EXTRN	__ImageBase:BYTE
EXTRN	__security_cookie:QWORD
EXTRN	_fltused:DWORD
_BSS	SEGMENT
?FONT_ATLAS_DEFAULT_TEX_CURSOR_DATA@@3QAY02$$CBUImVec2@@A DQ 01bH DUP (?) ; FONT_ATLAS_DEFAULT_TEX_CURSOR_DATA
?io@?1??ImFontAtlasGetBuilderForStbTruetype@@YAPEBUImFontBuilderIO@@XZ@4U2@A DQ 01H DUP (?) ; `ImFontAtlasGetBuilderForStbTruetype'::`2'::io
?full_ranges@?1??GetGlyphRangesChineseSimplifiedCommon@ImFontAtlas@@QEAAPEBGXZ@4PAGA DW 01395H DUP (?) ; `ImFontAtlas::GetGlyphRangesChineseSimplifiedCommon'::`2'::full_ranges
	ALIGN	4

?full_ranges@?1??GetGlyphRangesJapanese@ImFontAtlas@@QEAAPEBGXZ@4PAGA DW 01779H DUP (?) ; `ImFontAtlas::GetGlyphRangesJapanese'::`2'::full_ranges
	ALIGN	8

?stb__barrier_out_e@@3PEAEEA DQ 01H DUP (?)		; stb__barrier_out_e
?stb__barrier_out_b@@3PEAEEA DQ 01H DUP (?)		; stb__barrier_out_b
?stb__barrier_in_b@@3PEBEEB DQ 01H DUP (?)		; stb__barrier_in_b
?stb__dout@@3PEAEEA DQ 01H DUP (?)			; stb__dout
_BSS	ENDS
;	COMDAT pdata
pdata	SEGMENT
$pdata$??_H@YAXPEAX_K1P6APEAX0@Z@Z DD imagerel $LN7
	DD	imagerel $LN7+172
	DD	imagerel $unwind$??_H@YAXPEAX_K1P6APEAX0@Z@Z
pdata	ENDS
;	COMDAT pdata
pdata	SEGMENT
$pdata$??0ImVec2@@QEAA@XZ DD imagerel $LN3
	DD	imagerel $LN3+60
	DD	imagerel $unwind$??0ImVec2@@QEAA@XZ
pdata	ENDS
;	COMDAT pdata
pdata	SEGMENT
$pdata$??0ImVec2@@QEAA@MM@Z DD imagerel $LN3
	DD	imagerel $LN3+76
	DD	imagerel $unwind$??0ImVec2@@QEAA@MM@Z
pdata	ENDS
;	COMDAT pdata
pdata	SEGMENT
$pdata$??0ImVec4@@QEAA@XZ DD imagerel $LN3
	DD	imagerel $LN3+84
	DD	imagerel $unwind$??0ImVec4@@QEAA@XZ
pdata	ENDS
;	COMDAT pdata
pdata	SEGMENT
$pdata$??0ImVec4@@QEAA@MMMM@Z DD imagerel $LN3
	DD	imagerel $LN3+110
	DD	imagerel $unwind$??0ImVec4@@QEAA@MMMM@Z
pdata	ENDS
;	COMDAT pdata
pdata	SEGMENT
$pdata$?StyleColorsDark@ImGui@@YAXPEAUImGuiStyle@@@Z DD imagerel $LN5
	DD	imagerel $LN5+4109
	DD	imagerel $unwind$?StyleColorsDark@ImGui@@YAXPEAUImGuiStyle@@@Z
pdata	ENDS
;	COMDAT pdata
pdata	SEGMENT
$pdata$?StyleColorsLight@ImGui@@YAXPEAUImGuiStyle@@@Z DD imagerel $LN5
	DD	imagerel $LN5+4099
	DD	imagerel $unwind$?StyleColorsLight@ImGui@@YAXPEAUImGuiStyle@@@Z
pdata	ENDS
;	COMDAT pdata
pdata	SEGMENT
$pdata$?StyleColorsClassic@ImGui@@YAXPEAUImGuiStyle@@@Z DD imagerel $LN5
	DD	imagerel $LN5+4094
	DD	imagerel $unwind$?StyleColorsClassic@ImGui@@YAXPEAUImGuiStyle@@@Z
pdata	ENDS
;	COMDAT pdata
pdata	SEGMENT
$pdata$??2@YAPEAX_KUImNewWrapper@@PEAX@Z DD imagerel $LN3
	DD	imagerel $LN3+57
	DD	imagerel $unwind$??2@YAPEAX_KUImNewWrapper@@PEAX@Z
pdata	ENDS
;	COMDAT pdata
pdata	SEGMENT
$pdata$??3@YAXPEAXUImNewWrapper@@0@Z DD imagerel $LN3
	DD	imagerel $LN3+50
	DD	imagerel $unwind$??3@YAXPEAXUImNewWrapper@@0@Z
pdata	ENDS
;	COMDAT pdata
pdata	SEGMENT
$pdata$??0?$ImVector@G@@QEAA@XZ DD imagerel $LN3
	DD	imagerel $LN3+90
	DD	imagerel $unwind$??0?$ImVector@G@@QEAA@XZ
pdata	ENDS
;	COMDAT pdata
pdata	SEGMENT
$pdata$??4?$ImVector@G@@QEAAAEAU0@AEBU0@@Z DD imagerel $LN3
	DD	imagerel $LN3+128
	DD	imagerel $unwind$??4?$ImVector@G@@QEAAAEAU0@AEBU0@@Z
pdata	ENDS
;	COMDAT pdata
pdata	SEGMENT
$pdata$??1?$ImVector@G@@QEAA@XZ DD imagerel $LN4
	DD	imagerel $LN4+72
	DD	imagerel $unwind$??1?$ImVector@G@@QEAA@XZ
pdata	ENDS
;	COMDAT pdata
pdata	SEGMENT
$pdata$?clear@?$ImVector@G@@QEAAXXZ DD imagerel $LN4
	DD	imagerel $LN4+113
	DD	imagerel $unwind$?clear@?$ImVector@G@@QEAAXXZ
pdata	ENDS
;	COMDAT pdata
pdata	SEGMENT
$pdata$?empty@?$ImVector@G@@QEBA_NXZ DD imagerel $LN5
	DD	imagerel $LN5+82
	DD	imagerel $unwind$?empty@?$ImVector@G@@QEBA_NXZ
pdata	ENDS
;	COMDAT pdata
pdata	SEGMENT
$pdata$??A?$ImVector@G@@QEAAAEAGH@Z DD imagerel $LN5
	DD	imagerel $LN5+121
	DD	imagerel $unwind$??A?$ImVector@G@@QEAAAEAGH@Z
pdata	ENDS
;	COMDAT pdata
pdata	SEGMENT
$pdata$?_grow_capacity@?$ImVector@G@@QEBAHH@Z DD imagerel $LN7
	DD	imagerel $LN7+150
	DD	imagerel $unwind$?_grow_capacity@?$ImVector@G@@QEBAHH@Z
pdata	ENDS
;	COMDAT pdata
pdata	SEGMENT
$pdata$?resize@?$ImVector@G@@QEAAXH@Z DD imagerel $LN4
	DD	imagerel $LN4+110
	DD	imagerel $unwind$?resize@?$ImVector@G@@QEAAXH@Z
pdata	ENDS
;	COMDAT pdata
pdata	SEGMENT
$pdata$?resize@?$ImVector@G@@QEAAXHAEBG@Z DD imagerel $LN8
	DD	imagerel $LN8+196
	DD	imagerel $unwind$?resize@?$ImVector@G@@QEAAXHAEBG@Z
pdata	ENDS
;	COMDAT pdata
pdata	SEGMENT
$pdata$?shrink@?$ImVector@G@@QEAAXH@Z DD imagerel $LN4
	DD	imagerel $LN4+105
	DD	imagerel $unwind$?shrink@?$ImVector@G@@QEAAXH@Z
pdata	ENDS
;	COMDAT pdata
pdata	SEGMENT
$pdata$?reserve@?$ImVector@G@@QEAAXH@Z DD imagerel $LN5
	DD	imagerel $LN5+183
	DD	imagerel $unwind$?reserve@?$ImVector@G@@QEAAXH@Z
pdata	ENDS
;	COMDAT pdata
pdata	SEGMENT
$pdata$?push_back@?$ImVector@G@@QEAAXAEBG@Z DD imagerel $LN4
	DD	imagerel $LN4+161
	DD	imagerel $unwind$?push_back@?$ImVector@G@@QEAAXAEBG@Z
pdata	ENDS
;	COMDAT pdata
pdata	SEGMENT
$pdata$??0ImDrawCmd@@QEAA@XZ DD imagerel $LN3
	DD	imagerel $LN3+79
	DD	imagerel $unwind$??0ImDrawCmd@@QEAA@XZ
pdata	ENDS
;	COMDAT pdata
pdata	SEGMENT
$pdata$??0ImDrawCmdHeader@@QEAA@XZ DD imagerel $LN3
	DD	imagerel $LN3+51
	DD	imagerel $unwind$??0ImDrawCmdHeader@@QEAA@XZ
pdata	ENDS
;	COMDAT pdata
pdata	SEGMENT
$pdata$??0?$ImVector@UImDrawCmd@@@@QEAA@XZ DD imagerel $LN3
	DD	imagerel $LN3+90
	DD	imagerel $unwind$??0?$ImVector@UImDrawCmd@@@@QEAA@XZ
pdata	ENDS
;	COMDAT pdata
pdata	SEGMENT
$pdata$??4?$ImVector@UImDrawCmd@@@@QEAAAEAU0@AEBU0@@Z DD imagerel $LN3
	DD	imagerel $LN3+129
	DD	imagerel $unwind$??4?$ImVector@UImDrawCmd@@@@QEAAAEAU0@AEBU0@@Z
pdata	ENDS
;	COMDAT pdata
pdata	SEGMENT
$pdata$??1?$ImVector@UImDrawCmd@@@@QEAA@XZ DD imagerel $LN4
	DD	imagerel $LN4+72
	DD	imagerel $unwind$??1?$ImVector@UImDrawCmd@@@@QEAA@XZ
pdata	ENDS
;	COMDAT pdata
pdata	SEGMENT
$pdata$?clear@?$ImVector@UImDrawCmd@@@@QEAAXXZ DD imagerel $LN4
	DD	imagerel $LN4+113
	DD	imagerel $unwind$?clear@?$ImVector@UImDrawCmd@@@@QEAAXXZ
pdata	ENDS
;	COMDAT pdata
pdata	SEGMENT
$pdata$??A?$ImVector@UImDrawCmd@@@@QEAAAEAUImDrawCmd@@H@Z DD imagerel $LN5
	DD	imagerel $LN5+121
	DD	imagerel $unwind$??A?$ImVector@UImDrawCmd@@@@QEAAAEAUImDrawCmd@@H@Z
pdata	ENDS
;	COMDAT pdata
pdata	SEGMENT
$pdata$?back@?$ImVector@UImDrawCmd@@@@QEAAAEAUImDrawCmd@@XZ DD imagerel $LN4
	DD	imagerel $LN4+109
	DD	imagerel $unwind$?back@?$ImVector@UImDrawCmd@@@@QEAAAEAUImDrawCmd@@XZ
pdata	ENDS
;	COMDAT pdata
pdata	SEGMENT
$pdata$?_grow_capacity@?$ImVector@UImDrawCmd@@@@QEBAHH@Z DD imagerel $LN7
	DD	imagerel $LN7+150
	DD	imagerel $unwind$?_grow_capacity@?$ImVector@UImDrawCmd@@@@QEBAHH@Z
pdata	ENDS
;	COMDAT pdata
pdata	SEGMENT
$pdata$?resize@?$ImVector@UImDrawCmd@@@@QEAAXH@Z DD imagerel $LN4
	DD	imagerel $LN4+110
	DD	imagerel $unwind$?resize@?$ImVector@UImDrawCmd@@@@QEAAXH@Z
pdata	ENDS
;	COMDAT pdata
pdata	SEGMENT
$pdata$?reserve@?$ImVector@UImDrawCmd@@@@QEAAXH@Z DD imagerel $LN5
	DD	imagerel $LN5+185
	DD	imagerel $unwind$?reserve@?$ImVector@UImDrawCmd@@@@QEAAXH@Z
pdata	ENDS
;	COMDAT pdata
pdata	SEGMENT
$pdata$?push_back@?$ImVector@UImDrawCmd@@@@QEAAXAEBUImDrawCmd@@@Z DD imagerel $LN4
	DD	imagerel $LN4+171
	DD	imagerel $unwind$?push_back@?$ImVector@UImDrawCmd@@@@QEAAXAEBUImDrawCmd@@@Z
pdata	ENDS
;	COMDAT pdata
pdata	SEGMENT
$pdata$?pop_back@?$ImVector@UImDrawCmd@@@@QEAAXXZ DD imagerel $LN4
	DD	imagerel $LN4+101
	DD	imagerel $unwind$?pop_back@?$ImVector@UImDrawCmd@@@@QEAAXXZ
pdata	ENDS
;	COMDAT pdata
pdata	SEGMENT
$pdata$?erase@?$ImVector@UImDrawCmd@@@@QEAAPEAUImDrawCmd@@PEBU2@@Z DD imagerel $LN5
	DD	imagerel $LN5+288
	DD	imagerel $unwind$?erase@?$ImVector@UImDrawCmd@@@@QEAAPEAUImDrawCmd@@PEBU2@@Z
pdata	ENDS
;	COMDAT pdata
pdata	SEGMENT
$pdata$??0ImDrawChannel@@QEAA@XZ DD imagerel $LN5
	DD	imagerel $LN5+72
	DD	imagerel $unwind$??0ImDrawChannel@@QEAA@XZ
pdata	ENDS
;	COMDAT pdata
pdata	SEGMENT
$pdata$?dtor$0@?0???0ImDrawChannel@@QEAA@XZ@4HA DD imagerel ?dtor$0@?0???0ImDrawChannel@@QEAA@XZ@4HA
	DD	imagerel ?dtor$0@?0???0ImDrawChannel@@QEAA@XZ@4HA+39
	DD	imagerel $unwind$?dtor$0@?0???0ImDrawChannel@@QEAA@XZ@4HA
pdata	ENDS
;	COMDAT pdata
pdata	SEGMENT
$pdata$??0?$ImVector@UImDrawChannel@@@@QEAA@XZ DD imagerel $LN3
	DD	imagerel $LN3+90
	DD	imagerel $unwind$??0?$ImVector@UImDrawChannel@@@@QEAA@XZ
pdata	ENDS
;	COMDAT pdata
pdata	SEGMENT
$pdata$?clear@?$ImVector@UImDrawChannel@@@@QEAAXXZ DD imagerel $LN4
	DD	imagerel $LN4+113
	DD	imagerel $unwind$?clear@?$ImVector@UImDrawChannel@@@@QEAAXXZ
pdata	ENDS
;	COMDAT pdata
pdata	SEGMENT
$pdata$??A?$ImVector@UImDrawChannel@@@@QEAAAEAUImDrawChannel@@H@Z DD imagerel $LN5
	DD	imagerel $LN5+121
	DD	imagerel $unwind$??A?$ImVector@UImDrawChannel@@@@QEAAAEAUImDrawChannel@@H@Z
pdata	ENDS
;	COMDAT pdata
pdata	SEGMENT
$pdata$?_grow_capacity@?$ImVector@UImDrawChannel@@@@QEBAHH@Z DD imagerel $LN7
	DD	imagerel $LN7+150
	DD	imagerel $unwind$?_grow_capacity@?$ImVector@UImDrawChannel@@@@QEBAHH@Z
pdata	ENDS
;	COMDAT pdata
pdata	SEGMENT
$pdata$?resize@?$ImVector@UImDrawChannel@@@@QEAAXH@Z DD imagerel $LN4
	DD	imagerel $LN4+110
	DD	imagerel $unwind$?resize@?$ImVector@UImDrawChannel@@@@QEAAXH@Z
pdata	ENDS
;	COMDAT pdata
pdata	SEGMENT
$pdata$?reserve@?$ImVector@UImDrawChannel@@@@QEAAXH@Z DD imagerel $LN5
	DD	imagerel $LN5+185
	DD	imagerel $unwind$?reserve@?$ImVector@UImDrawChannel@@@@QEAAXH@Z
pdata	ENDS
;	COMDAT pdata
pdata	SEGMENT
$pdata$??0ImDrawListSplitter@@QEAA@XZ DD imagerel $LN4
	DD	imagerel $LN4+83
	DD	imagerel $unwind$??0ImDrawListSplitter@@QEAA@XZ
pdata	ENDS
;	COMDAT pdata
pdata	SEGMENT
$pdata$?Clear@ImDrawListSplitter@@QEAAXXZ DD imagerel $LN3
	DD	imagerel $LN3+68
	DD	imagerel $unwind$?Clear@ImDrawListSplitter@@QEAAXXZ
pdata	ENDS
;	COMDAT pdata
pdata	SEGMENT
$pdata$?ClearFreeMemory@ImDrawListSplitter@@QEAAXXZ DD imagerel $LN7
	DD	imagerel $LN7+273
	DD	imagerel $unwind$?ClearFreeMemory@ImDrawListSplitter@@QEAAXXZ
pdata	ENDS
;	COMDAT pdata
pdata	SEGMENT
$pdata$?Split@ImDrawListSplitter@@QEAAXPEAUImDrawList@@H@Z DD imagerel $LN14
	DD	imagerel $LN14+601
	DD	imagerel $unwind$?Split@ImDrawListSplitter@@QEAAXPEAUImDrawList@@H@Z
pdata	ENDS
;	COMDAT pdata
pdata	SEGMENT
$pdata$?dtor$0@?0??Split@ImDrawListSplitter@@QEAAXPEAUImDrawList@@H@Z@4HA DD imagerel ?dtor$0@?0??Split@ImDrawListSplitter@@QEAAXPEAUImDrawList@@H@Z@4HA
	DD	imagerel ?dtor$0@?0??Split@ImDrawListSplitter@@QEAAXPEAUImDrawList@@H@Z@4HA+56
	DD	imagerel $unwind$?dtor$0@?0??Split@ImDrawListSplitter@@QEAAXPEAUImDrawList@@H@Z@4HA
pdata	ENDS
;	COMDAT pdata
pdata	SEGMENT
$pdata$?Merge@ImDrawListSplitter@@QEAAXPEAUImDrawList@@@Z DD imagerel $LN28
	DD	imagerel $LN28+1402
	DD	imagerel $unwind$?Merge@ImDrawListSplitter@@QEAAXPEAUImDrawList@@@Z
pdata	ENDS
;	COMDAT pdata
pdata	SEGMENT
$pdata$?SetCurrentChannel@ImDrawListSplitter@@QEAAXPEAUImDrawList@@H@Z DD imagerel $LN13
	DD	imagerel $LN13+539
	DD	imagerel $unwind$?SetCurrentChannel@ImDrawListSplitter@@QEAAXPEAUImDrawList@@H@Z
pdata	ENDS
;	COMDAT pdata
pdata	SEGMENT
$pdata$??0?$ImVector@UImDrawVert@@@@QEAA@XZ DD imagerel $LN3
	DD	imagerel $LN3+90
	DD	imagerel $unwind$??0?$ImVector@UImDrawVert@@@@QEAA@XZ
pdata	ENDS
;	COMDAT pdata
pdata	SEGMENT
$pdata$??4?$ImVector@UImDrawVert@@@@QEAAAEAU0@AEBU0@@Z DD imagerel $LN3
	DD	imagerel $LN3+129
	DD	imagerel $unwind$??4?$ImVector@UImDrawVert@@@@QEAAAEAU0@AEBU0@@Z
pdata	ENDS
;	COMDAT pdata
pdata	SEGMENT
$pdata$??1?$ImVector@UImDrawVert@@@@QEAA@XZ DD imagerel $LN4
	DD	imagerel $LN4+72
	DD	imagerel $unwind$??1?$ImVector@UImDrawVert@@@@QEAA@XZ
pdata	ENDS
;	COMDAT pdata
pdata	SEGMENT
$pdata$?clear@?$ImVector@UImDrawVert@@@@QEAAXXZ DD imagerel $LN4
	DD	imagerel $LN4+113
	DD	imagerel $unwind$?clear@?$ImVector@UImDrawVert@@@@QEAAXXZ
pdata	ENDS
;	COMDAT pdata
pdata	SEGMENT
$pdata$??A?$ImVector@UImDrawVert@@@@QEAAAEAUImDrawVert@@H@Z DD imagerel $LN5
	DD	imagerel $LN5+121
	DD	imagerel $unwind$??A?$ImVector@UImDrawVert@@@@QEAAAEAUImDrawVert@@H@Z
pdata	ENDS
;	COMDAT pdata
pdata	SEGMENT
$pdata$?swap@?$ImVector@UImDrawVert@@@@QEAAXAEAU1@@Z DD imagerel $LN3
	DD	imagerel $LN3+186
	DD	imagerel $unwind$?swap@?$ImVector@UImDrawVert@@@@QEAAXAEAU1@@Z
pdata	ENDS
;	COMDAT pdata
pdata	SEGMENT
$pdata$?_grow_capacity@?$ImVector@UImDrawVert@@@@QEBAHH@Z DD imagerel $LN7
	DD	imagerel $LN7+150
	DD	imagerel $unwind$?_grow_capacity@?$ImVector@UImDrawVert@@@@QEBAHH@Z
pdata	ENDS
;	COMDAT pdata
pdata	SEGMENT
$pdata$?resize@?$ImVector@UImDrawVert@@@@QEAAXH@Z DD imagerel $LN4
	DD	imagerel $LN4+110
	DD	imagerel $unwind$?resize@?$ImVector@UImDrawVert@@@@QEAAXH@Z
pdata	ENDS
;	COMDAT pdata
pdata	SEGMENT
$pdata$?shrink@?$ImVector@UImDrawVert@@@@QEAAXH@Z DD imagerel $LN4
	DD	imagerel $LN4+105
	DD	imagerel $unwind$?shrink@?$ImVector@UImDrawVert@@@@QEAAXH@Z
pdata	ENDS
;	COMDAT pdata
pdata	SEGMENT
$pdata$?reserve@?$ImVector@UImDrawVert@@@@QEAAXH@Z DD imagerel $LN5
	DD	imagerel $LN5+185
	DD	imagerel $unwind$?reserve@?$ImVector@UImDrawVert@@@@QEAAXH@Z
pdata	ENDS
;	COMDAT pdata
pdata	SEGMENT
$pdata$??0?$ImVector@UImVec4@@@@QEAA@XZ DD imagerel $LN3
	DD	imagerel $LN3+90
	DD	imagerel $unwind$??0?$ImVector@UImVec4@@@@QEAA@XZ
pdata	ENDS
;	COMDAT pdata
pdata	SEGMENT
$pdata$??1?$ImVector@UImVec4@@@@QEAA@XZ DD imagerel $LN4
	DD	imagerel $LN4+72
	DD	imagerel $unwind$??1?$ImVector@UImVec4@@@@QEAA@XZ
pdata	ENDS
;	COMDAT pdata
pdata	SEGMENT
$pdata$?clear@?$ImVector@UImVec4@@@@QEAAXXZ DD imagerel $LN4
	DD	imagerel $LN4+113
	DD	imagerel $unwind$?clear@?$ImVector@UImVec4@@@@QEAAXXZ
pdata	ENDS
;	COMDAT pdata
pdata	SEGMENT
$pdata$?_grow_capacity@?$ImVector@UImVec4@@@@QEBAHH@Z DD imagerel $LN7
	DD	imagerel $LN7+150
	DD	imagerel $unwind$?_grow_capacity@?$ImVector@UImVec4@@@@QEBAHH@Z
pdata	ENDS
;	COMDAT pdata
pdata	SEGMENT
$pdata$?resize@?$ImVector@UImVec4@@@@QEAAXH@Z DD imagerel $LN4
	DD	imagerel $LN4+110
	DD	imagerel $unwind$?resize@?$ImVector@UImVec4@@@@QEAAXH@Z
pdata	ENDS
;	COMDAT pdata
pdata	SEGMENT
$pdata$?reserve@?$ImVector@UImVec4@@@@QEAAXH@Z DD imagerel $LN5
	DD	imagerel $LN5+185
	DD	imagerel $unwind$?reserve@?$ImVector@UImVec4@@@@QEAAXH@Z
pdata	ENDS
;	COMDAT pdata
pdata	SEGMENT
$pdata$?push_back@?$ImVector@UImVec4@@@@QEAAXAEBUImVec4@@@Z DD imagerel $LN4
	DD	imagerel $LN4+171
	DD	imagerel $unwind$?push_back@?$ImVector@UImVec4@@@@QEAAXAEBUImVec4@@@Z
pdata	ENDS
;	COMDAT pdata
pdata	SEGMENT
$pdata$?pop_back@?$ImVector@UImVec4@@@@QEAAXXZ DD imagerel $LN4
	DD	imagerel $LN4+101
	DD	imagerel $unwind$?pop_back@?$ImVector@UImVec4@@@@QEAAXXZ
pdata	ENDS
;	COMDAT pdata
pdata	SEGMENT
$pdata$??0?$ImVector@PEAX@@QEAA@XZ DD imagerel $LN3
	DD	imagerel $LN3+90
	DD	imagerel $unwind$??0?$ImVector@PEAX@@QEAA@XZ
pdata	ENDS
;	COMDAT pdata
pdata	SEGMENT
$pdata$??1?$ImVector@PEAX@@QEAA@XZ DD imagerel $LN4
	DD	imagerel $LN4+72
	DD	imagerel $unwind$??1?$ImVector@PEAX@@QEAA@XZ
pdata	ENDS
;	COMDAT pdata
pdata	SEGMENT
$pdata$?clear@?$ImVector@PEAX@@QEAAXXZ DD imagerel $LN4
	DD	imagerel $LN4+113
	DD	imagerel $unwind$?clear@?$ImVector@PEAX@@QEAAXXZ
pdata	ENDS
;	COMDAT pdata
pdata	SEGMENT
$pdata$?_grow_capacity@?$ImVector@PEAX@@QEBAHH@Z DD imagerel $LN7
	DD	imagerel $LN7+150
	DD	imagerel $unwind$?_grow_capacity@?$ImVector@PEAX@@QEBAHH@Z
pdata	ENDS
;	COMDAT pdata
pdata	SEGMENT
$pdata$?resize@?$ImVector@PEAX@@QEAAXH@Z DD imagerel $LN4
	DD	imagerel $LN4+110
	DD	imagerel $unwind$?resize@?$ImVector@PEAX@@QEAAXH@Z
pdata	ENDS
;	COMDAT pdata
pdata	SEGMENT
$pdata$?reserve@?$ImVector@PEAX@@QEAAXH@Z DD imagerel $LN5
	DD	imagerel $LN5+185
	DD	imagerel $unwind$?reserve@?$ImVector@PEAX@@QEAAXH@Z
pdata	ENDS
;	COMDAT pdata
pdata	SEGMENT
$pdata$?push_back@?$ImVector@PEAX@@QEAAXAEBQEAX@Z DD imagerel $LN4
	DD	imagerel $LN4+161
	DD	imagerel $unwind$?push_back@?$ImVector@PEAX@@QEAAXAEBQEAX@Z
pdata	ENDS
;	COMDAT pdata
pdata	SEGMENT
$pdata$?pop_back@?$ImVector@PEAX@@QEAAXXZ DD imagerel $LN4
	DD	imagerel $LN4+101
	DD	imagerel $unwind$?pop_back@?$ImVector@PEAX@@QEAAXXZ
pdata	ENDS
;	COMDAT pdata
pdata	SEGMENT
$pdata$??0?$ImVector@UImVec2@@@@QEAA@XZ DD imagerel $LN3
	DD	imagerel $LN3+90
	DD	imagerel $unwind$??0?$ImVector@UImVec2@@@@QEAA@XZ
pdata	ENDS
;	COMDAT pdata
pdata	SEGMENT
$pdata$??1?$ImVector@UImVec2@@@@QEAA@XZ DD imagerel $LN4
	DD	imagerel $LN4+72
	DD	imagerel $unwind$??1?$ImVector@UImVec2@@@@QEAA@XZ
pdata	ENDS
;	COMDAT pdata
pdata	SEGMENT
$pdata$?clear@?$ImVector@UImVec2@@@@QEAAXXZ DD imagerel $LN4
	DD	imagerel $LN4+113
	DD	imagerel $unwind$?clear@?$ImVector@UImVec2@@@@QEAAXXZ
pdata	ENDS
;	COMDAT pdata
pdata	SEGMENT
$pdata$?back@?$ImVector@UImVec2@@@@QEAAAEAUImVec2@@XZ DD imagerel $LN4
	DD	imagerel $LN4+109
	DD	imagerel $unwind$?back@?$ImVector@UImVec2@@@@QEAAAEAUImVec2@@XZ
pdata	ENDS
;	COMDAT pdata
pdata	SEGMENT
$pdata$?_grow_capacity@?$ImVector@UImVec2@@@@QEBAHH@Z DD imagerel $LN7
	DD	imagerel $LN7+150
	DD	imagerel $unwind$?_grow_capacity@?$ImVector@UImVec2@@@@QEBAHH@Z
pdata	ENDS
;	COMDAT pdata
pdata	SEGMENT
$pdata$?resize@?$ImVector@UImVec2@@@@QEAAXH@Z DD imagerel $LN4
	DD	imagerel $LN4+110
	DD	imagerel $unwind$?resize@?$ImVector@UImVec2@@@@QEAAXH@Z
pdata	ENDS
;	COMDAT pdata
pdata	SEGMENT
$pdata$?reserve@?$ImVector@UImVec2@@@@QEAAXH@Z DD imagerel $LN5
	DD	imagerel $LN5+185
	DD	imagerel $unwind$?reserve@?$ImVector@UImVec2@@@@QEAAXH@Z
pdata	ENDS
;	COMDAT pdata
pdata	SEGMENT
$pdata$?push_back@?$ImVector@UImVec2@@@@QEAAXAEBUImVec2@@@Z DD imagerel $LN4
	DD	imagerel $LN4+161
	DD	imagerel $unwind$?push_back@?$ImVector@UImVec2@@@@QEAAXAEBUImVec2@@@Z
pdata	ENDS
;	COMDAT pdata
pdata	SEGMENT
$pdata$??0ImDrawList@@QEAA@PEBUImDrawListSharedData@@@Z DD imagerel $LN10
	DD	imagerel $LN10+245
	DD	imagerel $unwind$??0ImDrawList@@QEAA@PEBUImDrawListSharedData@@@Z
pdata	ENDS
;	COMDAT pdata
pdata	SEGMENT
$pdata$?dtor$0@?0???0ImDrawList@@QEAA@PEBUImDrawListSharedData@@@Z@4HA DD imagerel ?dtor$0@?0???0ImDrawList@@QEAA@PEBUImDrawListSharedData@@@Z@4HA
	DD	imagerel ?dtor$0@?0???0ImDrawList@@QEAA@PEBUImDrawListSharedData@@@Z@4HA+39
	DD	imagerel $unwind$?dtor$0@?0???0ImDrawList@@QEAA@PEBUImDrawListSharedData@@@Z@4HA
pdata	ENDS
;	COMDAT pdata
pdata	SEGMENT
$pdata$?dtor$1@?0???0ImDrawList@@QEAA@PEBUImDrawListSharedData@@@Z@4HA DD imagerel ?dtor$1@?0???0ImDrawList@@QEAA@PEBUImDrawListSharedData@@@Z@4HA
	DD	imagerel ?dtor$1@?0???0ImDrawList@@QEAA@PEBUImDrawListSharedData@@@Z@4HA+43
	DD	imagerel $unwind$?dtor$1@?0???0ImDrawList@@QEAA@PEBUImDrawListSharedData@@@Z@4HA
pdata	ENDS
;	COMDAT pdata
pdata	SEGMENT
$pdata$?dtor$2@?0???0ImDrawList@@QEAA@PEBUImDrawListSharedData@@@Z@4HA DD imagerel ?dtor$2@?0???0ImDrawList@@QEAA@PEBUImDrawListSharedData@@@Z@4HA
	DD	imagerel ?dtor$2@?0???0ImDrawList@@QEAA@PEBUImDrawListSharedData@@@Z@4HA+43
	DD	imagerel $unwind$?dtor$2@?0???0ImDrawList@@QEAA@PEBUImDrawListSharedData@@@Z@4HA
pdata	ENDS
;	COMDAT pdata
pdata	SEGMENT
$pdata$?dtor$3@?0???0ImDrawList@@QEAA@PEBUImDrawListSharedData@@@Z@4HA DD imagerel ?dtor$3@?0???0ImDrawList@@QEAA@PEBUImDrawListSharedData@@@Z@4HA
	DD	imagerel ?dtor$3@?0???0ImDrawList@@QEAA@PEBUImDrawListSharedData@@@Z@4HA+43
	DD	imagerel $unwind$?dtor$3@?0???0ImDrawList@@QEAA@PEBUImDrawListSharedData@@@Z@4HA
pdata	ENDS
;	COMDAT pdata
pdata	SEGMENT
$pdata$?dtor$4@?0???0ImDrawList@@QEAA@PEBUImDrawListSharedData@@@Z@4HA DD imagerel ?dtor$4@?0???0ImDrawList@@QEAA@PEBUImDrawListSharedData@@@Z@4HA
	DD	imagerel ?dtor$4@?0???0ImDrawList@@QEAA@PEBUImDrawListSharedData@@@Z@4HA+43
	DD	imagerel $unwind$?dtor$4@?0???0ImDrawList@@QEAA@PEBUImDrawListSharedData@@@Z@4HA
pdata	ENDS
;	COMDAT pdata
pdata	SEGMENT
$pdata$?dtor$5@?0???0ImDrawList@@QEAA@PEBUImDrawListSharedData@@@Z@4HA DD imagerel ?dtor$5@?0???0ImDrawList@@QEAA@PEBUImDrawListSharedData@@@Z@4HA
	DD	imagerel ?dtor$5@?0???0ImDrawList@@QEAA@PEBUImDrawListSharedData@@@Z@4HA+43
	DD	imagerel $unwind$?dtor$5@?0???0ImDrawList@@QEAA@PEBUImDrawListSharedData@@@Z@4HA
pdata	ENDS
;	COMDAT pdata
pdata	SEGMENT
$pdata$?PushClipRect@ImDrawList@@QEAAXUImVec2@@0_N@Z DD imagerel $LN8
	DD	imagerel $LN8+415
	DD	imagerel $unwind$?PushClipRect@ImDrawList@@QEAAXUImVec2@@0_N@Z
pdata	ENDS
;	COMDAT pdata
pdata	SEGMENT
$pdata$?PushClipRectFullScreen@ImDrawList@@QEAAXXZ DD imagerel $LN3
	DD	imagerel $LN3+178
	DD	imagerel $unwind$?PushClipRectFullScreen@ImDrawList@@QEAAXXZ
pdata	ENDS
;	COMDAT pdata
pdata	SEGMENT
$pdata$?PopClipRect@ImDrawList@@QEAAXXZ DD imagerel $LN5
	DD	imagerel $LN5+189
	DD	imagerel $unwind$?PopClipRect@ImDrawList@@QEAAXXZ
pdata	ENDS
;	COMDAT pdata
pdata	SEGMENT
$pdata$?PushTextureID@ImDrawList@@QEAAXPEAX@Z DD imagerel $LN3
	DD	imagerel $LN3+116
	DD	imagerel $unwind$?PushTextureID@ImDrawList@@QEAAXPEAX@Z
pdata	ENDS
;	COMDAT pdata
pdata	SEGMENT
$pdata$?PopTextureID@ImDrawList@@QEAAXXZ DD imagerel $LN5
	DD	imagerel $LN5+155
	DD	imagerel $unwind$?PopTextureID@ImDrawList@@QEAAXXZ
pdata	ENDS
;	COMDAT pdata
pdata	SEGMENT
$pdata$?AddLine@ImDrawList@@QEAAXAEBUImVec2@@0IM@Z DD imagerel $LN4
	DD	imagerel $LN4+235
	DD	imagerel $unwind$?AddLine@ImDrawList@@QEAAXAEBUImVec2@@0IM@Z
pdata	ENDS
;	COMDAT pdata
pdata	SEGMENT
$pdata$?AddRect@ImDrawList@@QEAAXAEBUImVec2@@0IMHM@Z DD imagerel $LN6
	DD	imagerel $LN6+450
	DD	imagerel $unwind$?AddRect@ImDrawList@@QEAAXAEBUImVec2@@0IMHM@Z
pdata	ENDS
;	COMDAT pdata
pdata	SEGMENT
$pdata$?AddRectFilled@ImDrawList@@QEAAXAEBUImVec2@@0IMH@Z DD imagerel $LN7
	DD	imagerel $LN7+226
	DD	imagerel $unwind$?AddRectFilled@ImDrawList@@QEAAXAEBUImVec2@@0IMH@Z
pdata	ENDS
;	COMDAT pdata
pdata	SEGMENT
$pdata$?AddRectFilledMultiColor@ImDrawList@@QEAAXAEBUImVec2@@0IIII@Z DD imagerel $LN4
	DD	imagerel $LN4+551
	DD	imagerel $unwind$?AddRectFilledMultiColor@ImDrawList@@QEAAXAEBUImVec2@@0IIII@Z
pdata	ENDS
;	COMDAT pdata
pdata	SEGMENT
$pdata$?AddQuad@ImDrawList@@QEAAXAEBUImVec2@@000IM@Z DD imagerel $LN4
	DD	imagerel $LN4+181
	DD	imagerel $unwind$?AddQuad@ImDrawList@@QEAAXAEBUImVec2@@000IM@Z
pdata	ENDS
;	COMDAT pdata
pdata	SEGMENT
$pdata$?AddQuadFilled@ImDrawList@@QEAAXAEBUImVec2@@000I@Z DD imagerel $LN4
	DD	imagerel $LN4+167
	DD	imagerel $unwind$?AddQuadFilled@ImDrawList@@QEAAXAEBUImVec2@@000I@Z
pdata	ENDS
;	COMDAT pdata
pdata	SEGMENT
$pdata$?AddTriangle@ImDrawList@@QEAAXAEBUImVec2@@00IM@Z DD imagerel $LN4
	DD	imagerel $LN4+162
	DD	imagerel $unwind$?AddTriangle@ImDrawList@@QEAAXAEBUImVec2@@00IM@Z
pdata	ENDS
;	COMDAT pdata
pdata	SEGMENT
$pdata$?AddTriangleFilled@ImDrawList@@QEAAXAEBUImVec2@@00I@Z DD imagerel $LN4
	DD	imagerel $LN4+148
	DD	imagerel $unwind$?AddTriangleFilled@ImDrawList@@QEAAXAEBUImVec2@@00I@Z
pdata	ENDS
;	COMDAT pdata
pdata	SEGMENT
$pdata$?AddCircle@ImDrawList@@QEAAXAEBUImVec2@@MIHM@Z DD imagerel $LN9
	DD	imagerel $LN9+358
	DD	imagerel $unwind$?AddCircle@ImDrawList@@QEAAXAEBUImVec2@@MIHM@Z
pdata	ENDS
;	COMDAT pdata
pdata	SEGMENT
$pdata$?AddCircleFilled@ImDrawList@@QEAAXAEBUImVec2@@MIH@Z DD imagerel $LN9
	DD	imagerel $LN9+322
	DD	imagerel $unwind$?AddCircleFilled@ImDrawList@@QEAAXAEBUImVec2@@MIH@Z
pdata	ENDS
;	COMDAT pdata
pdata	SEGMENT
$pdata$?AddNgon@ImDrawList@@QEAAXAEBUImVec2@@MIHM@Z DD imagerel $LN5
	DD	imagerel $LN5+230
	DD	imagerel $unwind$?AddNgon@ImDrawList@@QEAAXAEBUImVec2@@MIHM@Z
pdata	ENDS
;	COMDAT pdata
pdata	SEGMENT
$pdata$?AddNgonFilled@ImDrawList@@QEAAXAEBUImVec2@@MIH@Z DD imagerel $LN5
	DD	imagerel $LN5+202
	DD	imagerel $unwind$?AddNgonFilled@ImDrawList@@QEAAXAEBUImVec2@@MIH@Z
pdata	ENDS
;	COMDAT pdata
pdata	SEGMENT
$pdata$?AddText@ImDrawList@@QEAAXAEBUImVec2@@IPEBD1@Z DD imagerel $LN3
	DD	imagerel $LN3+132
	DD	imagerel $unwind$?AddText@ImDrawList@@QEAAXAEBUImVec2@@IPEBD1@Z
pdata	ENDS
;	COMDAT pdata
pdata	SEGMENT
$pdata$?AddText@ImDrawList@@QEAAXPEBUImFont@@MAEBUImVec2@@IPEBD2MPEBUImVec4@@@Z DD imagerel $LN13
	DD	imagerel $LN13+678
	DD	imagerel $unwind$?AddText@ImDrawList@@QEAAXPEBUImFont@@MAEBUImVec2@@IPEBD2MPEBUImVec4@@@Z
pdata	ENDS
;	COMDAT pdata
pdata	SEGMENT
$pdata$?AddPolyline@ImDrawList@@QEAAXPEBUImVec2@@HIHM@Z DD imagerel $LN78
	DD	imagerel $LN78+8621
	DD	imagerel $unwind$?AddPolyline@ImDrawList@@QEAAXPEBUImVec2@@HIHM@Z
pdata	ENDS
;	COMDAT pdata
pdata	SEGMENT
$pdata$?AddConvexPolyFilled@ImDrawList@@QEAAXPEBUImVec2@@HI@Z DD imagerel $LN25
	DD	imagerel $LN25+2578
	DD	imagerel $unwind$?AddConvexPolyFilled@ImDrawList@@QEAAXPEBUImVec2@@HI@Z
pdata	ENDS
;	COMDAT pdata
pdata	SEGMENT
$pdata$?AddBezierCubic@ImDrawList@@QEAAXAEBUImVec2@@000IMH@Z DD imagerel $LN4
	DD	imagerel $LN4+164
	DD	imagerel $unwind$?AddBezierCubic@ImDrawList@@QEAAXAEBUImVec2@@000IMH@Z
pdata	ENDS
;	COMDAT pdata
pdata	SEGMENT
$pdata$?AddBezierQuadratic@ImDrawList@@QEAAXAEBUImVec2@@00IMH@Z DD imagerel $LN4
	DD	imagerel $LN4+154
	DD	imagerel $unwind$?AddBezierQuadratic@ImDrawList@@QEAAXAEBUImVec2@@00IMH@Z
pdata	ENDS
;	COMDAT pdata
pdata	SEGMENT
$pdata$?AddImage@ImDrawList@@QEAAXPEAXAEBUImVec2@@111I@Z DD imagerel $LN8
	DD	imagerel $LN8+250
	DD	imagerel $unwind$?AddImage@ImDrawList@@QEAAXPEAXAEBUImVec2@@111I@Z
pdata	ENDS
;	COMDAT pdata
pdata	SEGMENT
$pdata$?AddImageQuad@ImDrawList@@QEAAXPEAXAEBUImVec2@@1111111I@Z DD imagerel $LN8
	DD	imagerel $LN8+298
	DD	imagerel $unwind$?AddImageQuad@ImDrawList@@QEAAXPEAXAEBUImVec2@@1111111I@Z
pdata	ENDS
;	COMDAT pdata
pdata	SEGMENT
$pdata$?AddImageRounded@ImDrawList@@QEAAXPEAXAEBUImVec2@@111IMH@Z DD imagerel $LN10
	DD	imagerel $LN10+446
	DD	imagerel $unwind$?AddImageRounded@ImDrawList@@QEAAXPEAXAEBUImVec2@@111IMH@Z
pdata	ENDS
;	COMDAT pdata
pdata	SEGMENT
$pdata$?PathLineTo@ImDrawList@@QEAAXAEBUImVec2@@@Z DD imagerel $LN3
	DD	imagerel $LN3+83
	DD	imagerel $unwind$?PathLineTo@ImDrawList@@QEAAXAEBUImVec2@@@Z
pdata	ENDS
;	COMDAT pdata
pdata	SEGMENT
$pdata$?PathFillConvex@ImDrawList@@QEAAXI@Z DD imagerel $LN3
	DD	imagerel $LN3+103
	DD	imagerel $unwind$?PathFillConvex@ImDrawList@@QEAAXI@Z
pdata	ENDS
;	COMDAT pdata
pdata	SEGMENT
$pdata$?PathStroke@ImDrawList@@QEAAXIHM@Z DD imagerel $LN3
	DD	imagerel $LN3+138
	DD	imagerel $unwind$?PathStroke@ImDrawList@@QEAAXIHM@Z
pdata	ENDS
;	COMDAT pdata
pdata	SEGMENT
$pdata$?PathArcTo@ImDrawList@@QEAAXAEBUImVec2@@MMMH@Z DD imagerel $LN28
	DD	imagerel $LN28+1415
	DD	imagerel $unwind$?PathArcTo@ImDrawList@@QEAAXAEBUImVec2@@MMMH@Z
pdata	ENDS
;	COMDAT pdata
pdata	SEGMENT
$pdata$?PathArcToFast@ImDrawList@@QEAAXAEBUImVec2@@MHH@Z DD imagerel $LN4
	DD	imagerel $LN4+194
	DD	imagerel $unwind$?PathArcToFast@ImDrawList@@QEAAXAEBUImVec2@@MHH@Z
pdata	ENDS
;	COMDAT pdata
pdata	SEGMENT
$pdata$?PathBezierCubicCurveTo@ImDrawList@@QEAAXAEBUImVec2@@00H@Z DD imagerel $LN8
	DD	imagerel $LN8+484
	DD	imagerel $unwind$?PathBezierCubicCurveTo@ImDrawList@@QEAAXAEBUImVec2@@00H@Z
pdata	ENDS
;	COMDAT pdata
pdata	SEGMENT
$pdata$?PathBezierQuadraticCurveTo@ImDrawList@@QEAAXAEBUImVec2@@0H@Z DD imagerel $LN8
	DD	imagerel $LN8+433
	DD	imagerel $unwind$?PathBezierQuadraticCurveTo@ImDrawList@@QEAAXAEBUImVec2@@0H@Z
pdata	ENDS
;	COMDAT pdata
pdata	SEGMENT
$pdata$?PathRect@ImDrawList@@QEAAXAEBUImVec2@@0MH@Z DD imagerel $LN18
	DD	imagerel $LN18+1066
	DD	imagerel $unwind$?PathRect@ImDrawList@@QEAAXAEBUImVec2@@0MH@Z
pdata	ENDS
;	COMDAT pdata
pdata	SEGMENT
$pdata$?AddCallback@ImDrawList@@QEAAXP6AXPEBU1@PEBUImDrawCmd@@@ZPEAX@Z DD imagerel $LN5
	DD	imagerel $LN5+224
	DD	imagerel $unwind$?AddCallback@ImDrawList@@QEAAXP6AXPEBU1@PEBUImDrawCmd@@@ZPEAX@Z
pdata	ENDS
;	COMDAT pdata
pdata	SEGMENT
$pdata$?AddDrawCmd@ImDrawList@@QEAAXXZ DD imagerel $LN5
	DD	imagerel $LN5+286
	DD	imagerel $unwind$?AddDrawCmd@ImDrawList@@QEAAXXZ
pdata	ENDS
;	COMDAT pdata
pdata	SEGMENT
$pdata$?CloneOutput@ImDrawList@@QEBAPEAU1@XZ DD imagerel $LN6
	DD	imagerel $LN6+278
	DD	imagerel $unwind$?CloneOutput@ImDrawList@@QEBAPEAU1@XZ
pdata	ENDS
;	COMDAT pdata
pdata	SEGMENT
$pdata$?dtor$0@?0??CloneOutput@ImDrawList@@QEBAPEAU1@XZ@4HA DD imagerel ?dtor$0@?0??CloneOutput@ImDrawList@@QEBAPEAU1@XZ@4HA
	DD	imagerel ?dtor$0@?0??CloneOutput@ImDrawList@@QEBAPEAU1@XZ@4HA+56
	DD	imagerel $unwind$?dtor$0@?0??CloneOutput@ImDrawList@@QEBAPEAU1@XZ@4HA
pdata	ENDS
;	COMDAT pdata
pdata	SEGMENT
$pdata$?PrimReserve@ImDrawList@@QEAAXHH@Z DD imagerel $LN4
	DD	imagerel $LN4+360
	DD	imagerel $unwind$?PrimReserve@ImDrawList@@QEAAXHH@Z
pdata	ENDS
;	COMDAT pdata
pdata	SEGMENT
$pdata$?PrimUnreserve@ImDrawList@@QEAAXHH@Z DD imagerel $LN3
	DD	imagerel $LN3+204
	DD	imagerel $unwind$?PrimUnreserve@ImDrawList@@QEAAXHH@Z
pdata	ENDS
;	COMDAT pdata
pdata	SEGMENT
$pdata$?PrimRect@ImDrawList@@QEAAXAEBUImVec2@@0I@Z DD imagerel $LN3
	DD	imagerel $LN3+840
	DD	imagerel $unwind$?PrimRect@ImDrawList@@QEAAXAEBUImVec2@@0I@Z
pdata	ENDS
;	COMDAT pdata
pdata	SEGMENT
$pdata$?PrimRectUV@ImDrawList@@QEAAXAEBUImVec2@@000I@Z DD imagerel $LN3
	DD	imagerel $LN3+919
	DD	imagerel $unwind$?PrimRectUV@ImDrawList@@QEAAXAEBUImVec2@@000I@Z
pdata	ENDS
;	COMDAT pdata
pdata	SEGMENT
$pdata$?PrimQuadUV@ImDrawList@@QEAAXAEBUImVec2@@0000000I@Z DD imagerel $LN3
	DD	imagerel $LN3+721
	DD	imagerel $unwind$?PrimQuadUV@ImDrawList@@QEAAXAEBUImVec2@@0000000I@Z
pdata	ENDS
;	COMDAT pdata
pdata	SEGMENT
$pdata$?PrimWriteVtx@ImDrawList@@QEAAXAEBUImVec2@@0I@Z DD imagerel $LN3
	DD	imagerel $LN3+173
	DD	imagerel $unwind$?PrimWriteVtx@ImDrawList@@QEAAXAEBUImVec2@@0I@Z
pdata	ENDS
;	COMDAT pdata
pdata	SEGMENT
$pdata$?PrimWriteIdx@ImDrawList@@QEAAXG@Z DD imagerel $LN3
	DD	imagerel $LN3+93
	DD	imagerel $unwind$?PrimWriteIdx@ImDrawList@@QEAAXG@Z
pdata	ENDS
;	COMDAT pdata
pdata	SEGMENT
$pdata$?_ResetForNewFrame@ImDrawList@@QEAAXXZ DD imagerel $LN3
	DD	imagerel $LN3+407
	DD	imagerel $unwind$?_ResetForNewFrame@ImDrawList@@QEAAXXZ
pdata	ENDS
;	COMDAT pdata
pdata	SEGMENT
$pdata$?_ClearFreeMemory@ImDrawList@@QEAAXXZ DD imagerel $LN3
	DD	imagerel $LN3+230
	DD	imagerel $unwind$?_ClearFreeMemory@ImDrawList@@QEAAXXZ
pdata	ENDS
;	COMDAT pdata
pdata	SEGMENT
$pdata$?_PopUnusedDrawCmd@ImDrawList@@QEAAXXZ DD imagerel $LN5
	DD	imagerel $LN5+123
	DD	imagerel $unwind$?_PopUnusedDrawCmd@ImDrawList@@QEAAXXZ
pdata	ENDS
;	COMDAT pdata
pdata	SEGMENT
$pdata$?_TryMergeDrawCmds@ImDrawList@@QEAAXXZ DD imagerel $LN4
	DD	imagerel $LN4+166
	DD	imagerel $unwind$?_TryMergeDrawCmds@ImDrawList@@QEAAXXZ
pdata	ENDS
;	COMDAT pdata
pdata	SEGMENT
$pdata$?_OnChangedClipRect@ImDrawList@@QEAAXXZ DD imagerel $LN6
	DD	imagerel $LN6+304
	DD	imagerel $unwind$?_OnChangedClipRect@ImDrawList@@QEAAXXZ
pdata	ENDS
;	COMDAT pdata
pdata	SEGMENT
$pdata$?_OnChangedTextureID@ImDrawList@@QEAAXXZ DD imagerel $LN6
	DD	imagerel $LN6+288
	DD	imagerel $unwind$?_OnChangedTextureID@ImDrawList@@QEAAXXZ
pdata	ENDS
;	COMDAT pdata
pdata	SEGMENT
$pdata$?_OnChangedVtxOffset@ImDrawList@@QEAAXXZ DD imagerel $LN5
	DD	imagerel $LN5+176
	DD	imagerel $unwind$?_OnChangedVtxOffset@ImDrawList@@QEAAXXZ
pdata	ENDS
;	COMDAT pdata
pdata	SEGMENT
$pdata$?_CalcCircleAutoSegmentCount@ImDrawList@@QEBAHM@Z DD imagerel $LN5
	DD	imagerel $LN5+211
	DD	imagerel $unwind$?_CalcCircleAutoSegmentCount@ImDrawList@@QEBAHM@Z
pdata	ENDS
;	COMDAT pdata
pdata	SEGMENT
$pdata$?_PathArcToFastEx@ImDrawList@@QEAAXAEBUImVec2@@MHHH@Z DD imagerel $LN23
	DD	imagerel $LN23+1312
	DD	imagerel $unwind$?_PathArcToFastEx@ImDrawList@@QEAAXAEBUImVec2@@MHHH@Z
pdata	ENDS
;	COMDAT pdata
pdata	SEGMENT
$pdata$?_PathArcToN@ImDrawList@@QEAAXAEBUImVec2@@MMMH@Z DD imagerel $LN7
	DD	imagerel $LN7+398
	DD	imagerel $unwind$?_PathArcToN@ImDrawList@@QEAAXAEBUImVec2@@MMMH@Z
pdata	ENDS
;	COMDAT pdata
pdata	SEGMENT
$pdata$?DeIndexAllBuffers@ImDrawData@@QEAAXXZ DD imagerel $LN11
	DD	imagerel $LN11+503
	DD	imagerel $unwind$?DeIndexAllBuffers@ImDrawData@@QEAAXXZ
pdata	ENDS
;	COMDAT pdata
pdata	SEGMENT
$pdata$?dtor$0@?0??DeIndexAllBuffers@ImDrawData@@QEAAXXZ@4HA DD imagerel ?dtor$0@?0??DeIndexAllBuffers@ImDrawData@@QEAAXXZ@4HA
	DD	imagerel ?dtor$0@?0??DeIndexAllBuffers@ImDrawData@@QEAAXXZ@4HA+36
	DD	imagerel $unwind$?dtor$0@?0??DeIndexAllBuffers@ImDrawData@@QEAAXXZ@4HA
pdata	ENDS
;	COMDAT pdata
pdata	SEGMENT
$pdata$?ScaleClipRects@ImDrawData@@QEAAXAEBUImVec2@@@Z DD imagerel $LN9
	DD	imagerel $LN9+314
	DD	imagerel $unwind$?ScaleClipRects@ImDrawData@@QEAAXAEBUImVec2@@@Z
pdata	ENDS
;	COMDAT pdata
pdata	SEGMENT
$pdata$??0ImFontConfig@@QEAA@XZ DD imagerel $LN3
	DD	imagerel $LN3+197
	DD	imagerel $unwind$??0ImFontConfig@@QEAA@XZ
pdata	ENDS
;	COMDAT pdata
pdata	SEGMENT
$pdata$??1?$ImVector@I@@QEAA@XZ DD imagerel $LN4
	DD	imagerel $LN4+72
	DD	imagerel $unwind$??1?$ImVector@I@@QEAA@XZ
pdata	ENDS
;	COMDAT pdata
pdata	SEGMENT
$pdata$?clear@?$ImVector@I@@QEAAXXZ DD imagerel $LN4
	DD	imagerel $LN4+113
	DD	imagerel $unwind$?clear@?$ImVector@I@@QEAAXXZ
pdata	ENDS
;	COMDAT pdata
pdata	SEGMENT
$pdata$?empty@?$ImVector@I@@QEBA_NXZ DD imagerel $LN5
	DD	imagerel $LN5+82
	DD	imagerel $unwind$?empty@?$ImVector@I@@QEBA_NXZ
pdata	ENDS
;	COMDAT pdata
pdata	SEGMENT
$pdata$??A?$ImVector@I@@QEAAAEAIH@Z DD imagerel $LN5
	DD	imagerel $LN5+121
	DD	imagerel $unwind$??A?$ImVector@I@@QEAAAEAIH@Z
pdata	ENDS
;	COMDAT pdata
pdata	SEGMENT
$pdata$??A?$ImVector@I@@QEBAAEBIH@Z DD imagerel $LN5
	DD	imagerel $LN5+121
	DD	imagerel $unwind$??A?$ImVector@I@@QEBAAEBIH@Z
pdata	ENDS
;	COMDAT pdata
pdata	SEGMENT
$pdata$?begin@?$ImVector@I@@QEBAPEBIXZ DD imagerel $LN3
	DD	imagerel $LN3+52
	DD	imagerel $unwind$?begin@?$ImVector@I@@QEBAPEBIXZ
pdata	ENDS
;	COMDAT pdata
pdata	SEGMENT
$pdata$?end@?$ImVector@I@@QEBAPEBIXZ DD imagerel $LN3
	DD	imagerel $LN3+66
	DD	imagerel $unwind$?end@?$ImVector@I@@QEBAPEBIXZ
pdata	ENDS
;	COMDAT pdata
pdata	SEGMENT
$pdata$?_grow_capacity@?$ImVector@I@@QEBAHH@Z DD imagerel $LN7
	DD	imagerel $LN7+150
	DD	imagerel $unwind$?_grow_capacity@?$ImVector@I@@QEBAHH@Z
pdata	ENDS
;	COMDAT pdata
pdata	SEGMENT
$pdata$?resize@?$ImVector@I@@QEAAXH@Z DD imagerel $LN4
	DD	imagerel $LN4+110
	DD	imagerel $unwind$?resize@?$ImVector@I@@QEAAXH@Z
pdata	ENDS
;	COMDAT pdata
pdata	SEGMENT
$pdata$?reserve@?$ImVector@I@@QEAAXH@Z DD imagerel $LN5
	DD	imagerel $LN5+185
	DD	imagerel $unwind$?reserve@?$ImVector@I@@QEAAXH@Z
pdata	ENDS
;	COMDAT pdata
pdata	SEGMENT
$pdata$?GetBit@ImFontGlyphRangesBuilder@@QEBA_N_K@Z DD imagerel $LN5
	DD	imagerel $LN5+165
	DD	imagerel $unwind$?GetBit@ImFontGlyphRangesBuilder@@QEBA_N_K@Z
pdata	ENDS
;	COMDAT pdata
pdata	SEGMENT
$pdata$?SetBit@ImFontGlyphRangesBuilder@@QEAAX_K@Z DD imagerel $LN3
	DD	imagerel $LN3+155
	DD	imagerel $unwind$?SetBit@ImFontGlyphRangesBuilder@@QEAAX_K@Z
pdata	ENDS
;	COMDAT pdata
pdata	SEGMENT
$pdata$?AddChar@ImFontGlyphRangesBuilder@@QEAAXG@Z DD imagerel $LN3
	DD	imagerel $LN3+67
	DD	imagerel $unwind$?AddChar@ImFontGlyphRangesBuilder@@QEAAXG@Z
pdata	ENDS
;	COMDAT pdata
pdata	SEGMENT
$pdata$?AddText@ImFontGlyphRangesBuilder@@QEAAXPEBD0@Z DD imagerel $LN10
	DD	imagerel $LN10+297
	DD	imagerel $unwind$?AddText@ImFontGlyphRangesBuilder@@QEAAXPEBD0@Z
pdata	ENDS
;	COMDAT pdata
pdata	SEGMENT
$pdata$?AddRanges@ImFontGlyphRangesBuilder@@QEAAXPEBG@Z DD imagerel $LN9
	DD	imagerel $LN9+175
	DD	imagerel $unwind$?AddRanges@ImFontGlyphRangesBuilder@@QEAAXPEBG@Z
pdata	ENDS
;	COMDAT pdata
pdata	SEGMENT
$pdata$?BuildRanges@ImFontGlyphRangesBuilder@@QEAAXPEAU?$ImVector@G@@@Z DD imagerel $LN9
	DD	imagerel $LN9+250
	DD	imagerel $unwind$?BuildRanges@ImFontGlyphRangesBuilder@@QEAAXPEAU?$ImVector@G@@@Z
pdata	ENDS
;	COMDAT pdata
pdata	SEGMENT
$pdata$??0ImFontAtlasCustomRect@@QEAA@XZ DD imagerel $LN3
	DD	imagerel $LN3+200
	DD	imagerel $unwind$??0ImFontAtlasCustomRect@@QEAA@XZ
pdata	ENDS
;	COMDAT pdata
pdata	SEGMENT
$pdata$?IsPacked@ImFontAtlasCustomRect@@QEBA_NXZ DD imagerel $LN5
	DD	imagerel $LN5+88
	DD	imagerel $unwind$?IsPacked@ImFontAtlasCustomRect@@QEBA_NXZ
pdata	ENDS
;	COMDAT pdata
pdata	SEGMENT
$pdata$??0ImFontAtlas@@QEAA@XZ DD imagerel $LN6
	DD	imagerel $LN6+247
	DD	imagerel $unwind$??0ImFontAtlas@@QEAA@XZ
pdata	ENDS
;	COMDAT pdata
pdata	SEGMENT
$pdata$?dtor$0@?0???0ImFontAtlas@@QEAA@XZ@4HA DD imagerel ?dtor$0@?0???0ImFontAtlas@@QEAA@XZ@4HA
	DD	imagerel ?dtor$0@?0???0ImFontAtlas@@QEAA@XZ@4HA+43
	DD	imagerel $unwind$?dtor$0@?0???0ImFontAtlas@@QEAA@XZ@4HA
pdata	ENDS
;	COMDAT pdata
pdata	SEGMENT
$pdata$?dtor$1@?0???0ImFontAtlas@@QEAA@XZ@4HA DD imagerel ?dtor$1@?0???0ImFontAtlas@@QEAA@XZ@4HA
	DD	imagerel ?dtor$1@?0???0ImFontAtlas@@QEAA@XZ@4HA+43
	DD	imagerel $unwind$?dtor$1@?0???0ImFontAtlas@@QEAA@XZ@4HA
pdata	ENDS
;	COMDAT pdata
pdata	SEGMENT
$pdata$?dtor$2@?0???0ImFontAtlas@@QEAA@XZ@4HA DD imagerel ?dtor$2@?0???0ImFontAtlas@@QEAA@XZ@4HA
	DD	imagerel ?dtor$2@?0???0ImFontAtlas@@QEAA@XZ@4HA+43
	DD	imagerel $unwind$?dtor$2@?0???0ImFontAtlas@@QEAA@XZ@4HA
pdata	ENDS
;	COMDAT pdata
pdata	SEGMENT
$pdata$??1ImFontAtlas@@QEAA@XZ DD imagerel $LN5
	DD	imagerel $LN5+171
	DD	imagerel $unwind$??1ImFontAtlas@@QEAA@XZ
pdata	ENDS
;	COMDAT pdata
pdata	SEGMENT
$pdata$?AddFont@ImFontAtlas@@QEAAPEAUImFont@@PEBUImFontConfig@@@Z DD imagerel $LN18
	DD	imagerel $LN18+750
	DD	imagerel $unwind$?AddFont@ImFontAtlas@@QEAAPEAUImFont@@PEBUImFontConfig@@@Z
pdata	ENDS
;	COMDAT pdata
pdata	SEGMENT
$pdata$?dtor$0@?0??AddFont@ImFontAtlas@@QEAAPEAUImFont@@PEBUImFontConfig@@@Z@4HA DD imagerel ?dtor$0@?0??AddFont@ImFontAtlas@@QEAAPEAUImFont@@PEBUImFontConfig@@@Z@4HA
	DD	imagerel ?dtor$0@?0??AddFont@ImFontAtlas@@QEAAPEAUImFont@@PEBUImFontConfig@@@Z@4HA+56
	DD	imagerel $unwind$?dtor$0@?0??AddFont@ImFontAtlas@@QEAAPEAUImFont@@PEBUImFontConfig@@@Z@4HA
pdata	ENDS
;	COMDAT pdata
pdata	SEGMENT
$pdata$?AddFontDefault@ImFontAtlas@@QEAAPEAUImFont@@PEBUImFontConfig@@@Z DD imagerel $LN10
	DD	imagerel $LN10+496
	DD	imagerel $unwind$?AddFontDefault@ImFontAtlas@@QEAAPEAUImFont@@PEBUImFontConfig@@@Z
pdata	ENDS
;	COMDAT pdata
pdata	SEGMENT
$pdata$?AddFontFromFileTTF@ImFontAtlas@@QEAAPEAUImFont@@PEBDMPEBUImFontConfig@@PEBG@Z DD imagerel $LN14
	DD	imagerel $LN14+679
	DD	imagerel $unwind$?AddFontFromFileTTF@ImFontAtlas@@QEAAPEAUImFont@@PEBDMPEBUImFontConfig@@PEBG@Z
pdata	ENDS
;	COMDAT pdata
pdata	SEGMENT
$pdata$?AddFontFromMemoryTTF@ImFontAtlas@@QEAAPEAUImFont@@PEAXHMPEBUImFontConfig@@PEBG@Z DD imagerel $LN11
	DD	imagerel $LN11+461
	DD	imagerel $unwind$?AddFontFromMemoryTTF@ImFontAtlas@@QEAAPEAUImFont@@PEAXHMPEBUImFontConfig@@PEBG@Z
pdata	ENDS
;	COMDAT pdata
pdata	SEGMENT
$pdata$?AddFontFromMemoryCompressedTTF@ImFontAtlas@@QEAAPEAUImFont@@PEBXHMPEBUImFontConfig@@PEBG@Z DD imagerel $LN6
	DD	imagerel $LN6+388
	DD	imagerel $unwind$?AddFontFromMemoryCompressedTTF@ImFontAtlas@@QEAAPEAUImFont@@PEBXHMPEBUImFontConfig@@PEBG@Z
pdata	ENDS
;	COMDAT pdata
pdata	SEGMENT
$pdata$?AddFontFromMemoryCompressedBase85TTF@ImFontAtlas@@QEAAPEAUImFont@@PEBDMPEBUImFontConfig@@PEBG@Z DD imagerel $LN4
	DD	imagerel $LN4+234
	DD	imagerel $unwind$?AddFontFromMemoryCompressedBase85TTF@ImFontAtlas@@QEAAPEAUImFont@@PEBDMPEBUImFontConfig@@PEBG@Z
pdata	ENDS
;	COMDAT pdata
pdata	SEGMENT
$pdata$?ClearInputData@ImFontAtlas@@QEAAXXZ DD imagerel $LN13
	DD	imagerel $LN13+641
	DD	imagerel $unwind$?ClearInputData@ImFontAtlas@@QEAAXXZ
pdata	ENDS
;	COMDAT pdata
pdata	SEGMENT
$pdata$?ClearTexData@ImFontAtlas@@QEAAXXZ DD imagerel $LN7
	DD	imagerel $LN7+202
	DD	imagerel $unwind$?ClearTexData@ImFontAtlas@@QEAAXXZ
pdata	ENDS
;	COMDAT pdata
pdata	SEGMENT
$pdata$?ClearFonts@ImFontAtlas@@QEAAXXZ DD imagerel $LN5
	DD	imagerel $LN5+131
	DD	imagerel $unwind$?ClearFonts@ImFontAtlas@@QEAAXXZ
pdata	ENDS
;	COMDAT pdata
pdata	SEGMENT
$pdata$?Clear@ImFontAtlas@@QEAAXXZ DD imagerel $LN3
	DD	imagerel $LN3+77
	DD	imagerel $unwind$?Clear@ImFontAtlas@@QEAAXXZ
pdata	ENDS
;	COMDAT pdata
pdata	SEGMENT
$pdata$?Build@ImFontAtlas@@QEAA_NXZ DD imagerel $LN7
	DD	imagerel $LN7+189
	DD	imagerel $unwind$?Build@ImFontAtlas@@QEAA_NXZ
pdata	ENDS
;	COMDAT pdata
pdata	SEGMENT
$pdata$?GetTexDataAsAlpha8@ImFontAtlas@@QEAAXPEAPEAEPEAH11@Z DD imagerel $LN7
	DD	imagerel $LN7+184
	DD	imagerel $unwind$?GetTexDataAsAlpha8@ImFontAtlas@@QEAAXPEAPEAEPEAH11@Z
pdata	ENDS
;	COMDAT pdata
pdata	SEGMENT
$pdata$?GetTexDataAsRGBA32@ImFontAtlas@@QEAAXPEAPEAEPEAH11@Z DD imagerel $LN11
	DD	imagerel $LN11+479
	DD	imagerel $unwind$?GetTexDataAsRGBA32@ImFontAtlas@@QEAAXPEAPEAEPEAH11@Z
pdata	ENDS
;	COMDAT pdata
pdata	SEGMENT
$pdata$?GetGlyphRangesDefault@ImFontAtlas@@QEAAPEBGXZ DD imagerel $LN3
	DD	imagerel $LN3+63
	DD	imagerel $unwind$?GetGlyphRangesDefault@ImFontAtlas@@QEAAPEBGXZ
pdata	ENDS
;	COMDAT pdata
pdata	SEGMENT
$pdata$?GetGlyphRangesKorean@ImFontAtlas@@QEAAPEBGXZ DD imagerel $LN3
	DD	imagerel $LN3+63
	DD	imagerel $unwind$?GetGlyphRangesKorean@ImFontAtlas@@QEAAPEBGXZ
pdata	ENDS
;	COMDAT pdata
pdata	SEGMENT
$pdata$?GetGlyphRangesJapanese@ImFontAtlas@@QEAAPEBGXZ DD imagerel $LN4
	DD	imagerel $LN4+153
	DD	imagerel $unwind$?GetGlyphRangesJapanese@ImFontAtlas@@QEAAPEBGXZ
pdata	ENDS
;	COMDAT pdata
pdata	SEGMENT
$pdata$?GetGlyphRangesChineseFull@ImFontAtlas@@QEAAPEBGXZ DD imagerel $LN3
	DD	imagerel $LN3+63
	DD	imagerel $unwind$?GetGlyphRangesChineseFull@ImFontAtlas@@QEAAPEBGXZ
pdata	ENDS
;	COMDAT pdata
pdata	SEGMENT
$pdata$?GetGlyphRangesChineseSimplifiedCommon@ImFontAtlas@@QEAAPEBGXZ DD imagerel $LN4
	DD	imagerel $LN4+153
	DD	imagerel $unwind$?GetGlyphRangesChineseSimplifiedCommon@ImFontAtlas@@QEAAPEBGXZ
pdata	ENDS
;	COMDAT pdata
pdata	SEGMENT
$pdata$?GetGlyphRangesCyrillic@ImFontAtlas@@QEAAPEBGXZ DD imagerel $LN3
	DD	imagerel $LN3+63
	DD	imagerel $unwind$?GetGlyphRangesCyrillic@ImFontAtlas@@QEAAPEBGXZ
pdata	ENDS
;	COMDAT pdata
pdata	SEGMENT
$pdata$?GetGlyphRangesThai@ImFontAtlas@@QEAAPEBGXZ DD imagerel $LN3
	DD	imagerel $LN3+63
	DD	imagerel $unwind$?GetGlyphRangesThai@ImFontAtlas@@QEAAPEBGXZ
pdata	ENDS
;	COMDAT pdata
pdata	SEGMENT
$pdata$?GetGlyphRangesVietnamese@ImFontAtlas@@QEAAPEBGXZ DD imagerel $LN3
	DD	imagerel $LN3+63
	DD	imagerel $unwind$?GetGlyphRangesVietnamese@ImFontAtlas@@QEAAPEBGXZ
pdata	ENDS
;	COMDAT pdata
pdata	SEGMENT
$pdata$?AddCustomRectRegular@ImFontAtlas@@QEAAHHH@Z DD imagerel $LN7
	DD	imagerel $LN7+313
	DD	imagerel $unwind$?AddCustomRectRegular@ImFontAtlas@@QEAAHHH@Z
pdata	ENDS
;	COMDAT pdata
pdata	SEGMENT
$pdata$?AddCustomRectFontGlyph@ImFontAtlas@@QEAAHPEAUImFont@@GHHMAEBUImVec2@@@Z DD imagerel $LN8
	DD	imagerel $LN8+413
	DD	imagerel $unwind$?AddCustomRectFontGlyph@ImFontAtlas@@QEAAHPEAUImFont@@GHHMAEBUImVec2@@@Z
pdata	ENDS
;	COMDAT pdata
pdata	SEGMENT
$pdata$?GetCustomRectByIndex@ImFontAtlas@@QEAAPEAUImFontAtlasCustomRect@@H@Z DD imagerel $LN4
	DD	imagerel $LN4+118
	DD	imagerel $unwind$?GetCustomRectByIndex@ImFontAtlas@@QEAAPEAUImFontAtlasCustomRect@@H@Z
pdata	ENDS
;	COMDAT pdata
pdata	SEGMENT
$pdata$?CalcCustomRectUV@ImFontAtlas@@QEBAXPEBUImFontAtlasCustomRect@@PEAUImVec2@@1@Z DD imagerel $LN6
	DD	imagerel $LN6+357
	DD	imagerel $unwind$?CalcCustomRectUV@ImFontAtlas@@QEBAXPEBUImFontAtlasCustomRect@@PEAUImVec2@@1@Z
pdata	ENDS
;	COMDAT pdata
pdata	SEGMENT
$pdata$?GetMouseCursorTexData@ImFontAtlas@@QEAA_NHPEAUImVec2@@0QEAU2@1@Z DD imagerel $LN7
	DD	imagerel $LN7+751
	DD	imagerel $unwind$?GetMouseCursorTexData@ImFontAtlas@@QEAA_NHPEAUImVec2@@0QEAU2@1@Z
pdata	ENDS
;	COMDAT pdata
pdata	SEGMENT
$pdata$??0?$ImVector@PEAUImFont@@@@QEAA@XZ DD imagerel $LN3
	DD	imagerel $LN3+90
	DD	imagerel $unwind$??0?$ImVector@PEAUImFont@@@@QEAA@XZ
pdata	ENDS
;	COMDAT pdata
pdata	SEGMENT
$pdata$??1?$ImVector@PEAUImFont@@@@QEAA@XZ DD imagerel $LN4
	DD	imagerel $LN4+72
	DD	imagerel $unwind$??1?$ImVector@PEAUImFont@@@@QEAA@XZ
pdata	ENDS
;	COMDAT pdata
pdata	SEGMENT
$pdata$?clear@?$ImVector@PEAUImFont@@@@QEAAXXZ DD imagerel $LN4
	DD	imagerel $LN4+113
	DD	imagerel $unwind$?clear@?$ImVector@PEAUImFont@@@@QEAAXXZ
pdata	ENDS
;	COMDAT pdata
pdata	SEGMENT
$pdata$?clear_delete@?$ImVector@PEAUImFont@@@@QEAAXXZ DD imagerel $LN6
	DD	imagerel $LN6+110
	DD	imagerel $unwind$?clear_delete@?$ImVector@PEAUImFont@@@@QEAAXXZ
pdata	ENDS
;	COMDAT pdata
pdata	SEGMENT
$pdata$?empty@?$ImVector@PEAUImFont@@@@QEBA_NXZ DD imagerel $LN5
	DD	imagerel $LN5+82
	DD	imagerel $unwind$?empty@?$ImVector@PEAUImFont@@@@QEBA_NXZ
pdata	ENDS
;	COMDAT pdata
pdata	SEGMENT
$pdata$??A?$ImVector@PEAUImFont@@@@QEAAAEAPEAUImFont@@H@Z DD imagerel $LN5
	DD	imagerel $LN5+121
	DD	imagerel $unwind$??A?$ImVector@PEAUImFont@@@@QEAAAEAPEAUImFont@@H@Z
pdata	ENDS
;	COMDAT pdata
pdata	SEGMENT
$pdata$?back@?$ImVector@PEAUImFont@@@@QEAAAEAPEAUImFont@@XZ DD imagerel $LN4
	DD	imagerel $LN4+109
	DD	imagerel $unwind$?back@?$ImVector@PEAUImFont@@@@QEAAAEAPEAUImFont@@XZ
pdata	ENDS
;	COMDAT pdata
pdata	SEGMENT
$pdata$?_grow_capacity@?$ImVector@PEAUImFont@@@@QEBAHH@Z DD imagerel $LN7
	DD	imagerel $LN7+150
	DD	imagerel $unwind$?_grow_capacity@?$ImVector@PEAUImFont@@@@QEBAHH@Z
pdata	ENDS
;	COMDAT pdata
pdata	SEGMENT
$pdata$?reserve@?$ImVector@PEAUImFont@@@@QEAAXH@Z DD imagerel $LN5
	DD	imagerel $LN5+185
	DD	imagerel $unwind$?reserve@?$ImVector@PEAUImFont@@@@QEAAXH@Z
pdata	ENDS
;	COMDAT pdata
pdata	SEGMENT
$pdata$?push_back@?$ImVector@PEAUImFont@@@@QEAAXAEBQEAUImFont@@@Z DD imagerel $LN4
	DD	imagerel $LN4+161
	DD	imagerel $unwind$?push_back@?$ImVector@PEAUImFont@@@@QEAAXAEBQEAUImFont@@@Z
pdata	ENDS
;	COMDAT pdata
pdata	SEGMENT
$pdata$??0?$ImVector@UImFontAtlasCustomRect@@@@QEAA@XZ DD imagerel $LN3
	DD	imagerel $LN3+90
	DD	imagerel $unwind$??0?$ImVector@UImFontAtlasCustomRect@@@@QEAA@XZ
pdata	ENDS
;	COMDAT pdata
pdata	SEGMENT
$pdata$??1?$ImVector@UImFontAtlasCustomRect@@@@QEAA@XZ DD imagerel $LN4
	DD	imagerel $LN4+72
	DD	imagerel $unwind$??1?$ImVector@UImFontAtlasCustomRect@@@@QEAA@XZ
pdata	ENDS
;	COMDAT pdata
pdata	SEGMENT
$pdata$?clear@?$ImVector@UImFontAtlasCustomRect@@@@QEAAXXZ DD imagerel $LN4
	DD	imagerel $LN4+113
	DD	imagerel $unwind$?clear@?$ImVector@UImFontAtlasCustomRect@@@@QEAAXXZ
pdata	ENDS
;	COMDAT pdata
pdata	SEGMENT
$pdata$??A?$ImVector@UImFontAtlasCustomRect@@@@QEAAAEAUImFontAtlasCustomRect@@H@Z DD imagerel $LN5
	DD	imagerel $LN5+121
	DD	imagerel $unwind$??A?$ImVector@UImFontAtlasCustomRect@@@@QEAAAEAUImFontAtlasCustomRect@@H@Z
pdata	ENDS
;	COMDAT pdata
pdata	SEGMENT
$pdata$?_grow_capacity@?$ImVector@UImFontAtlasCustomRect@@@@QEBAHH@Z DD imagerel $LN7
	DD	imagerel $LN7+150
	DD	imagerel $unwind$?_grow_capacity@?$ImVector@UImFontAtlasCustomRect@@@@QEBAHH@Z
pdata	ENDS
;	COMDAT pdata
pdata	SEGMENT
$pdata$?reserve@?$ImVector@UImFontAtlasCustomRect@@@@QEAAXH@Z DD imagerel $LN5
	DD	imagerel $LN5+185
	DD	imagerel $unwind$?reserve@?$ImVector@UImFontAtlasCustomRect@@@@QEAAXH@Z
pdata	ENDS
;	COMDAT pdata
pdata	SEGMENT
$pdata$?push_back@?$ImVector@UImFontAtlasCustomRect@@@@QEAAXAEBUImFontAtlasCustomRect@@@Z DD imagerel $LN4
	DD	imagerel $LN4+171
	DD	imagerel $unwind$?push_back@?$ImVector@UImFontAtlasCustomRect@@@@QEAAXAEBUImFontAtlasCustomRect@@@Z
pdata	ENDS
;	COMDAT pdata
pdata	SEGMENT
$pdata$??0?$ImVector@UImFontConfig@@@@QEAA@XZ DD imagerel $LN3
	DD	imagerel $LN3+90
	DD	imagerel $unwind$??0?$ImVector@UImFontConfig@@@@QEAA@XZ
pdata	ENDS
;	COMDAT pdata
pdata	SEGMENT
$pdata$??1?$ImVector@UImFontConfig@@@@QEAA@XZ DD imagerel $LN4
	DD	imagerel $LN4+72
	DD	imagerel $unwind$??1?$ImVector@UImFontConfig@@@@QEAA@XZ
pdata	ENDS
;	COMDAT pdata
pdata	SEGMENT
$pdata$?clear@?$ImVector@UImFontConfig@@@@QEAAXXZ DD imagerel $LN4
	DD	imagerel $LN4+113
	DD	imagerel $unwind$?clear@?$ImVector@UImFontConfig@@@@QEAAXXZ
pdata	ENDS
;	COMDAT pdata
pdata	SEGMENT
$pdata$??A?$ImVector@UImFontConfig@@@@QEAAAEAUImFontConfig@@H@Z DD imagerel $LN5
	DD	imagerel $LN5+124
	DD	imagerel $unwind$??A?$ImVector@UImFontConfig@@@@QEAAAEAUImFontConfig@@H@Z
pdata	ENDS
;	COMDAT pdata
pdata	SEGMENT
$pdata$?back@?$ImVector@UImFontConfig@@@@QEAAAEAUImFontConfig@@XZ DD imagerel $LN4
	DD	imagerel $LN4+112
	DD	imagerel $unwind$?back@?$ImVector@UImFontConfig@@@@QEAAAEAUImFontConfig@@XZ
pdata	ENDS
;	COMDAT pdata
pdata	SEGMENT
$pdata$?_grow_capacity@?$ImVector@UImFontConfig@@@@QEBAHH@Z DD imagerel $LN7
	DD	imagerel $LN7+150
	DD	imagerel $unwind$?_grow_capacity@?$ImVector@UImFontConfig@@@@QEBAHH@Z
pdata	ENDS
;	COMDAT pdata
pdata	SEGMENT
$pdata$?reserve@?$ImVector@UImFontConfig@@@@QEAAXH@Z DD imagerel $LN5
	DD	imagerel $LN5+191
	DD	imagerel $unwind$?reserve@?$ImVector@UImFontConfig@@@@QEAAXH@Z
pdata	ENDS
;	COMDAT pdata
pdata	SEGMENT
$pdata$?push_back@?$ImVector@UImFontConfig@@@@QEAAXAEBUImFontConfig@@@Z DD imagerel $LN4
	DD	imagerel $LN4+174
	DD	imagerel $unwind$?push_back@?$ImVector@UImFontConfig@@@@QEAAXAEBUImFontConfig@@@Z
pdata	ENDS
;	COMDAT pdata
pdata	SEGMENT
$pdata$??0?$ImVector@M@@QEAA@XZ DD imagerel $LN3
	DD	imagerel $LN3+90
	DD	imagerel $unwind$??0?$ImVector@M@@QEAA@XZ
pdata	ENDS
;	COMDAT pdata
pdata	SEGMENT
$pdata$??1?$ImVector@M@@QEAA@XZ DD imagerel $LN4
	DD	imagerel $LN4+72
	DD	imagerel $unwind$??1?$ImVector@M@@QEAA@XZ
pdata	ENDS
;	COMDAT pdata
pdata	SEGMENT
$pdata$?clear@?$ImVector@M@@QEAAXXZ DD imagerel $LN4
	DD	imagerel $LN4+113
	DD	imagerel $unwind$?clear@?$ImVector@M@@QEAAXXZ
pdata	ENDS
;	COMDAT pdata
pdata	SEGMENT
$pdata$??A?$ImVector@M@@QEAAAEAMH@Z DD imagerel $LN5
	DD	imagerel $LN5+121
	DD	imagerel $unwind$??A?$ImVector@M@@QEAAAEAMH@Z
pdata	ENDS
;	COMDAT pdata
pdata	SEGMENT
$pdata$?_grow_capacity@?$ImVector@M@@QEBAHH@Z DD imagerel $LN7
	DD	imagerel $LN7+150
	DD	imagerel $unwind$?_grow_capacity@?$ImVector@M@@QEBAHH@Z
pdata	ENDS
;	COMDAT pdata
pdata	SEGMENT
$pdata$?resize@?$ImVector@M@@QEAAXHAEBM@Z DD imagerel $LN8
	DD	imagerel $LN8+194
	DD	imagerel $unwind$?resize@?$ImVector@M@@QEAAXHAEBM@Z
pdata	ENDS
;	COMDAT pdata
pdata	SEGMENT
$pdata$?reserve@?$ImVector@M@@QEAAXH@Z DD imagerel $LN5
	DD	imagerel $LN5+185
	DD	imagerel $unwind$?reserve@?$ImVector@M@@QEAAXH@Z
pdata	ENDS
;	COMDAT pdata
pdata	SEGMENT
$pdata$??0?$ImVector@UImFontGlyph@@@@QEAA@XZ DD imagerel $LN3
	DD	imagerel $LN3+90
	DD	imagerel $unwind$??0?$ImVector@UImFontGlyph@@@@QEAA@XZ
pdata	ENDS
;	COMDAT pdata
pdata	SEGMENT
$pdata$??1?$ImVector@UImFontGlyph@@@@QEAA@XZ DD imagerel $LN4
	DD	imagerel $LN4+72
	DD	imagerel $unwind$??1?$ImVector@UImFontGlyph@@@@QEAA@XZ
pdata	ENDS
;	COMDAT pdata
pdata	SEGMENT
$pdata$?clear@?$ImVector@UImFontGlyph@@@@QEAAXXZ DD imagerel $LN4
	DD	imagerel $LN4+113
	DD	imagerel $unwind$?clear@?$ImVector@UImFontGlyph@@@@QEAAXXZ
pdata	ENDS
;	COMDAT pdata
pdata	SEGMENT
$pdata$??A?$ImVector@UImFontGlyph@@@@QEAAAEAUImFontGlyph@@H@Z DD imagerel $LN5
	DD	imagerel $LN5+121
	DD	imagerel $unwind$??A?$ImVector@UImFontGlyph@@@@QEAAAEAUImFontGlyph@@H@Z
pdata	ENDS
;	COMDAT pdata
pdata	SEGMENT
$pdata$?back@?$ImVector@UImFontGlyph@@@@QEAAAEAUImFontGlyph@@XZ DD imagerel $LN4
	DD	imagerel $LN4+109
	DD	imagerel $unwind$?back@?$ImVector@UImFontGlyph@@@@QEAAAEAUImFontGlyph@@XZ
pdata	ENDS
;	COMDAT pdata
pdata	SEGMENT
$pdata$?_grow_capacity@?$ImVector@UImFontGlyph@@@@QEBAHH@Z DD imagerel $LN7
	DD	imagerel $LN7+150
	DD	imagerel $unwind$?_grow_capacity@?$ImVector@UImFontGlyph@@@@QEBAHH@Z
pdata	ENDS
;	COMDAT pdata
pdata	SEGMENT
$pdata$?resize@?$ImVector@UImFontGlyph@@@@QEAAXH@Z DD imagerel $LN4
	DD	imagerel $LN4+110
	DD	imagerel $unwind$?resize@?$ImVector@UImFontGlyph@@@@QEAAXH@Z
pdata	ENDS
;	COMDAT pdata
pdata	SEGMENT
$pdata$?reserve@?$ImVector@UImFontGlyph@@@@QEAAXH@Z DD imagerel $LN5
	DD	imagerel $LN5+185
	DD	imagerel $unwind$?reserve@?$ImVector@UImFontGlyph@@@@QEAAXH@Z
pdata	ENDS
;	COMDAT pdata
pdata	SEGMENT
$pdata$??0ImFont@@QEAA@XZ DD imagerel $LN6
	DD	imagerel $LN6+337
	DD	imagerel $unwind$??0ImFont@@QEAA@XZ
pdata	ENDS
;	COMDAT pdata
pdata	SEGMENT
$pdata$?dtor$0@?0???0ImFont@@QEAA@XZ@4HA DD imagerel ?dtor$0@?0???0ImFont@@QEAA@XZ@4HA
	DD	imagerel ?dtor$0@?0???0ImFont@@QEAA@XZ@4HA+39
	DD	imagerel $unwind$?dtor$0@?0???0ImFont@@QEAA@XZ@4HA
pdata	ENDS
;	COMDAT pdata
pdata	SEGMENT
$pdata$?dtor$1@?0???0ImFont@@QEAA@XZ@4HA DD imagerel ?dtor$1@?0???0ImFont@@QEAA@XZ@4HA
	DD	imagerel ?dtor$1@?0???0ImFont@@QEAA@XZ@4HA+43
	DD	imagerel $unwind$?dtor$1@?0???0ImFont@@QEAA@XZ@4HA
pdata	ENDS
;	COMDAT pdata
pdata	SEGMENT
$pdata$??1ImFont@@QEAA@XZ DD imagerel $LN3
	DD	imagerel $LN3+107
	DD	imagerel $unwind$??1ImFont@@QEAA@XZ
pdata	ENDS
;	COMDAT pdata
pdata	SEGMENT
$pdata$?FindGlyph@ImFont@@QEBAPEBUImFontGlyph@@G@Z DD imagerel $LN5
	DD	imagerel $LN5+151
	DD	imagerel $unwind$?FindGlyph@ImFont@@QEBAPEBUImFontGlyph@@G@Z
pdata	ENDS
;	COMDAT pdata
pdata	SEGMENT
$pdata$?FindGlyphNoFallback@ImFont@@QEBAPEBUImFontGlyph@@G@Z DD imagerel $LN5
	DD	imagerel $LN5+133
	DD	imagerel $unwind$?FindGlyphNoFallback@ImFont@@QEBAPEBUImFontGlyph@@G@Z
pdata	ENDS
;	COMDAT pdata
pdata	SEGMENT
$pdata$?IsLoaded@ImFont@@QEBA_NXZ DD imagerel $LN5
	DD	imagerel $LN5+84
	DD	imagerel $unwind$?IsLoaded@ImFont@@QEBA_NXZ
pdata	ENDS
;	COMDAT pdata
pdata	SEGMENT
$pdata$?CalcTextSizeA@ImFont@@QEBA?AUImVec2@@MMMPEBD0PEAPEBD@Z DD imagerel $LN36
	DD	imagerel $LN36+1148
	DD	imagerel $unwind$?CalcTextSizeA@ImFont@@QEBA?AUImVec2@@MMMPEBD0PEAPEBD@Z
pdata	ENDS
;	COMDAT pdata
pdata	SEGMENT
$pdata$?CalcWordWrapPositionA@ImFont@@QEBAPEBDMPEBD0M@Z DD imagerel $LN26
	DD	imagerel $LN26+933
	DD	imagerel $unwind$?CalcWordWrapPositionA@ImFont@@QEBAPEBDMPEBD0M@Z
pdata	ENDS
;	COMDAT pdata
pdata	SEGMENT
$pdata$?RenderChar@ImFont@@QEBAXPEAUImDrawList@@MUImVec2@@IG@Z DD imagerel $LN8
	DD	imagerel $LN8+565
	DD	imagerel $unwind$?RenderChar@ImFont@@QEBAXPEAUImDrawList@@MUImVec2@@IG@Z
pdata	ENDS
;	COMDAT pdata
pdata	SEGMENT
$pdata$?RenderText@ImFont@@QEBAXPEAUImDrawList@@MUImVec2@@IAEBUImVec4@@PEBD3M_N@Z DD imagerel $LN54
	DD	imagerel $LN54+3688
	DD	imagerel $unwind$?RenderText@ImFont@@QEBAXPEAUImDrawList@@MUImVec2@@IAEBUImVec4@@PEBD3M_N@Z
pdata	ENDS
;	COMDAT pdata
pdata	SEGMENT
$pdata$?BuildLookupTable@ImFont@@QEAAXXZ DD imagerel $LN20
	DD	imagerel $LN20+1644
	DD	imagerel $unwind$?BuildLookupTable@ImFont@@QEAAXXZ
pdata	ENDS
;	COMDAT pdata
pdata	SEGMENT
$pdata$?ClearOutputData@ImFont@@QEAAXXZ DD imagerel $LN3
	DD	imagerel $LN3+209
	DD	imagerel $unwind$?ClearOutputData@ImFont@@QEAAXXZ
pdata	ENDS
;	COMDAT pdata
pdata	SEGMENT
$pdata$?GrowIndex@ImFont@@QEAAXH@Z DD imagerel $LN5
	DD	imagerel $LN5+229
	DD	imagerel $unwind$?GrowIndex@ImFont@@QEAAXH@Z
pdata	ENDS
;	COMDAT pdata
pdata	SEGMENT
$pdata$?AddGlyph@ImFont@@QEAAXPEBUImFontConfig@@GMMMMMMMMM@Z DD imagerel $LN13
	DD	imagerel $LN13+876
	DD	imagerel $unwind$?AddGlyph@ImFont@@QEAAXPEBUImFontConfig@@GMMMMMMMMM@Z
pdata	ENDS
;	COMDAT pdata
pdata	SEGMENT
$pdata$?AddRemapChar@ImFont@@QEAAXGG_N@Z DD imagerel $LN10
	DD	imagerel $LN10+437
	DD	imagerel $unwind$?AddRemapChar@ImFont@@QEAAXGG_N@Z
pdata	ENDS
;	COMDAT pdata
pdata	SEGMENT
$pdata$?SetGlyphVisible@ImFont@@QEAAXG_N@Z DD imagerel $LN6
	DD	imagerel $LN6+144
	DD	imagerel $unwind$?SetGlyphVisible@ImFont@@QEAAXG_N@Z
pdata	ENDS
;	COMDAT pdata
pdata	SEGMENT
$pdata$?IsGlyphRangeUnused@ImFont@@QEAA_NII@Z DD imagerel $LN8
	DD	imagerel $LN8+173
	DD	imagerel $unwind$?IsGlyphRangeUnused@ImFont@@QEAA_NII@Z
pdata	ENDS
;	COMDAT pdata
pdata	SEGMENT
$pdata$??_GImFont@@QEAAPEAXI@Z DD imagerel $LN4
	DD	imagerel $LN4+82
	DD	imagerel $unwind$??_GImFont@@QEAAPEAXI@Z
pdata	ENDS
;	COMDAT pdata
pdata	SEGMENT
$pdata$fabsf DD	imagerel $LN3
	DD	imagerel $LN3+61
	DD	imagerel $unwind$fabsf
pdata	ENDS
;	COMDAT pdata
pdata	SEGMENT
$pdata$?ImUpperPowerOfTwo@@YAHH@Z DD imagerel ?ImUpperPowerOfTwo@@YAHH@Z
	DD	imagerel ?ImUpperPowerOfTwo@@YAHH@Z+198
	DD	imagerel $unwind$?ImUpperPowerOfTwo@@YAHH@Z
pdata	ENDS
;	COMDAT pdata
pdata	SEGMENT
$pdata$?ImCharIsBlankA@@YA_ND@Z DD imagerel ?ImCharIsBlankA@@YA_ND@Z
	DD	imagerel ?ImCharIsBlankA@@YA_ND@Z+93
	DD	imagerel $unwind$?ImCharIsBlankA@@YA_ND@Z
pdata	ENDS
;	COMDAT pdata
pdata	SEGMENT
$pdata$?ImCharIsBlankW@@YA_NI@Z DD imagerel ?ImCharIsBlankW@@YA_NI@Z
	DD	imagerel ?ImCharIsBlankW@@YA_NI@Z+99
	DD	imagerel $unwind$?ImCharIsBlankW@@YA_NI@Z
pdata	ENDS
;	COMDAT pdata
pdata	SEGMENT
$pdata$??D@YA?AUImVec2@@AEBU0@M@Z DD imagerel ??D@YA?AUImVec2@@AEBU0@M@Z
	DD	imagerel ??D@YA?AUImVec2@@AEBU0@M@Z+87
	DD	imagerel $unwind$??D@YA?AUImVec2@@AEBU0@M@Z
pdata	ENDS
;	COMDAT pdata
pdata	SEGMENT
$pdata$??H@YA?AUImVec2@@AEBU0@0@Z DD imagerel ??H@YA?AUImVec2@@AEBU0@0@Z
	DD	imagerel ??H@YA?AUImVec2@@AEBU0@0@Z+93
	DD	imagerel $unwind$??H@YA?AUImVec2@@AEBU0@0@Z
pdata	ENDS
;	COMDAT pdata
pdata	SEGMENT
$pdata$??G@YA?AUImVec2@@AEBU0@0@Z DD imagerel ??G@YA?AUImVec2@@AEBU0@0@Z
	DD	imagerel ??G@YA?AUImVec2@@AEBU0@0@Z+93
	DD	imagerel $unwind$??G@YA?AUImVec2@@AEBU0@0@Z
pdata	ENDS
;	COMDAT pdata
pdata	SEGMENT
$pdata$??D@YA?AUImVec2@@AEBU0@0@Z DD imagerel ??D@YA?AUImVec2@@AEBU0@0@Z
	DD	imagerel ??D@YA?AUImVec2@@AEBU0@0@Z+93
	DD	imagerel $unwind$??D@YA?AUImVec2@@AEBU0@0@Z
pdata	ENDS
;	COMDAT pdata
pdata	SEGMENT
$pdata$??Y@YAAEAUImVec2@@AEAU0@AEBU0@@Z DD imagerel ??Y@YAAEAUImVec2@@AEAU0@AEBU0@@Z
	DD	imagerel ??Y@YAAEAUImVec2@@AEAU0@AEBU0@@Z+93
	DD	imagerel $unwind$??Y@YAAEAUImVec2@@AEAU0@AEBU0@@Z
pdata	ENDS
;	COMDAT pdata
pdata	SEGMENT
$pdata$??Z@YAAEAUImVec2@@AEAU0@AEBU0@@Z DD imagerel ??Z@YAAEAUImVec2@@AEAU0@AEBU0@@Z
	DD	imagerel ??Z@YAAEAUImVec2@@AEAU0@AEBU0@@Z+93
	DD	imagerel $unwind$??Z@YAAEAUImVec2@@AEAU0@AEBU0@@Z
pdata	ENDS
;	COMDAT pdata
pdata	SEGMENT
$pdata$?ImAbs@@YAHH@Z DD imagerel ?ImAbs@@YAHH@Z
	DD	imagerel ?ImAbs@@YAHH@Z+57
	DD	imagerel $unwind$?ImAbs@@YAHH@Z
pdata	ENDS
;	COMDAT pdata
pdata	SEGMENT
$pdata$?ImAbs@@YAMM@Z DD imagerel ?ImAbs@@YAMM@Z
	DD	imagerel ?ImAbs@@YAMM@Z+44
	DD	imagerel $unwind$?ImAbs@@YAMM@Z
pdata	ENDS
;	COMDAT pdata
pdata	SEGMENT
$pdata$?ImRsqrt@@YAMM@Z DD imagerel ?ImRsqrt@@YAMM@Z
	DD	imagerel ?ImRsqrt@@YAMM@Z+85
	DD	imagerel $unwind$?ImRsqrt@@YAMM@Z
pdata	ENDS
;	COMDAT pdata
pdata	SEGMENT
$pdata$?ImMin@@YA?AUImVec2@@AEBU1@0@Z DD imagerel ?ImMin@@YA?AUImVec2@@AEBU1@0@Z
	DD	imagerel ?ImMin@@YA?AUImVec2@@AEBU1@0@Z+160
	DD	imagerel $unwind$?ImMin@@YA?AUImVec2@@AEBU1@0@Z
pdata	ENDS
;	COMDAT pdata
pdata	SEGMENT
$pdata$?ImMax@@YA?AUImVec2@@AEBU1@0@Z DD imagerel ?ImMax@@YA?AUImVec2@@AEBU1@0@Z
	DD	imagerel ?ImMax@@YA?AUImVec2@@AEBU1@0@Z+160
	DD	imagerel $unwind$?ImMax@@YA?AUImVec2@@AEBU1@0@Z
pdata	ENDS
;	COMDAT pdata
pdata	SEGMENT
$pdata$?ImClamp@@YA?AUImVec2@@AEBU1@0U1@@Z DD imagerel ?ImClamp@@YA?AUImVec2@@AEBU1@0U1@@Z
	DD	imagerel ?ImClamp@@YA?AUImVec2@@AEBU1@0U1@@Z+238
	DD	imagerel $unwind$?ImClamp@@YA?AUImVec2@@AEBU1@0U1@@Z
pdata	ENDS
;	COMDAT pdata
pdata	SEGMENT
$pdata$?ImLerp@@YA?AUImVec4@@AEBU1@0M@Z DD imagerel ?ImLerp@@YA?AUImVec4@@AEBU1@0M@Z
	DD	imagerel ?ImLerp@@YA?AUImVec4@@AEBU1@0M@Z+240
	DD	imagerel $unwind$?ImLerp@@YA?AUImVec4@@AEBU1@0M@Z
pdata	ENDS
;	COMDAT pdata
pdata	SEGMENT
$pdata$?ImLengthSqr@@YAMAEBUImVec2@@@Z DD imagerel ?ImLengthSqr@@YAMAEBUImVec2@@@Z
	DD	imagerel ?ImLengthSqr@@YAMAEBUImVec2@@@Z+71
	DD	imagerel $unwind$?ImLengthSqr@@YAMAEBUImVec2@@@Z
pdata	ENDS
;	COMDAT pdata
pdata	SEGMENT
$pdata$?ImFloor@@YAMM@Z DD imagerel ?ImFloor@@YAMM@Z
	DD	imagerel ?ImFloor@@YAMM@Z+43
	DD	imagerel $unwind$?ImFloor@@YAMM@Z
pdata	ENDS
;	COMDAT pdata
pdata	SEGMENT
$pdata$?ImFloorSigned@@YAMM@Z DD imagerel ?ImFloorSigned@@YAMM@Z
	DD	imagerel ?ImFloorSigned@@YAMM@Z+90
	DD	imagerel $unwind$?ImFloorSigned@@YAMM@Z
pdata	ENDS
;	COMDAT pdata
pdata	SEGMENT
$pdata$?ImDot@@YAMAEBUImVec2@@0@Z DD imagerel ?ImDot@@YAMAEBUImVec2@@0@Z
	DD	imagerel ?ImDot@@YAMAEBUImVec2@@0@Z+76
	DD	imagerel $unwind$?ImDot@@YAMAEBUImVec2@@0@Z
pdata	ENDS
;	COMDAT pdata
pdata	SEGMENT
$pdata$??$ImMin@M@@YAMMM@Z DD imagerel ??$ImMin@M@@YAMMM@Z
	DD	imagerel ??$ImMin@M@@YAMMM@Z+107
	DD	imagerel $unwind$??$ImMin@M@@YAMMM@Z
pdata	ENDS
;	COMDAT pdata
pdata	SEGMENT
$pdata$??$ImMax@M@@YAMMM@Z DD imagerel ??$ImMax@M@@YAMMM@Z
	DD	imagerel ??$ImMax@M@@YAMMM@Z+107
	DD	imagerel $unwind$??$ImMax@M@@YAMMM@Z
pdata	ENDS
;	COMDAT pdata
pdata	SEGMENT
$pdata$?ImMul@@YA?AUImVec2@@AEBU1@0@Z DD imagerel ?ImMul@@YA?AUImVec2@@AEBU1@0@Z
	DD	imagerel ?ImMul@@YA?AUImVec2@@AEBU1@0@Z+93
	DD	imagerel $unwind$?ImMul@@YA?AUImVec2@@AEBU1@0@Z
pdata	ENDS
;	COMDAT pdata
pdata	SEGMENT
$pdata$?ImBezierCubicCalc@@YA?AUImVec2@@AEBU1@000M@Z DD imagerel $LN3
	DD	imagerel $LN3+378
	DD	imagerel $unwind$?ImBezierCubicCalc@@YA?AUImVec2@@AEBU1@000M@Z
pdata	ENDS
;	COMDAT pdata
pdata	SEGMENT
$pdata$?ImBezierQuadraticCalc@@YA?AUImVec2@@AEBU1@00M@Z DD imagerel $LN3
	DD	imagerel $LN3+276
	DD	imagerel $unwind$?ImBezierQuadraticCalc@@YA?AUImVec2@@AEBU1@00M@Z
pdata	ENDS
;	COMDAT pdata
pdata	SEGMENT
$pdata$?ImBitArrayTestBit@@YA_NPEBIH@Z DD imagerel $LN5
	DD	imagerel $LN5+138
	DD	imagerel $unwind$?ImBitArrayTestBit@@YA_NPEBIH@Z
pdata	ENDS
;	COMDAT pdata
pdata	SEGMENT
$pdata$?ImBitArraySetBit@@YAXPEAIH@Z DD imagerel $LN3
	DD	imagerel $LN3+127
	DD	imagerel $unwind$?ImBitArraySetBit@@YAXPEAIH@Z
pdata	ENDS
;	COMDAT pdata
pdata	SEGMENT
$pdata$?Create@ImBitVector@@QEAAXH@Z DD imagerel $LN3
	DD	imagerel $LN3+128
	DD	imagerel $unwind$?Create@ImBitVector@@QEAAXH@Z
pdata	ENDS
;	COMDAT pdata
pdata	SEGMENT
$pdata$?Clear@ImBitVector@@QEAAXXZ DD imagerel $LN3
	DD	imagerel $LN3+56
	DD	imagerel $unwind$?Clear@ImBitVector@@QEAAXXZ
pdata	ENDS
;	COMDAT pdata
pdata	SEGMENT
$pdata$?TestBit@ImBitVector@@QEBA_NH@Z DD imagerel $LN4
	DD	imagerel $LN4+115
	DD	imagerel $unwind$?TestBit@ImBitVector@@QEBA_NH@Z
pdata	ENDS
;	COMDAT pdata
pdata	SEGMENT
$pdata$?SetBit@ImBitVector@@QEAAXH@Z DD imagerel $LN4
	DD	imagerel $LN4+115
	DD	imagerel $unwind$?SetBit@ImBitVector@@QEAAXH@Z
pdata	ENDS
;	COMDAT pdata
pdata	SEGMENT
$pdata$??1ImBitVector@@QEAA@XZ DD imagerel $LN3
	DD	imagerel $LN3+44
	DD	imagerel $unwind$??1ImBitVector@@QEAA@XZ
pdata	ENDS
;	COMDAT pdata
pdata	SEGMENT
$pdata$??0ImDrawListSharedData@@QEAA@XZ DD imagerel $LN6
	DD	imagerel $LN6+357
	DD	imagerel $unwind$??0ImDrawListSharedData@@QEAA@XZ
pdata	ENDS
;	COMDAT pdata
pdata	SEGMENT
$pdata$?SetCircleTessellationMaxError@ImDrawListSharedData@@QEAAXM@Z DD imagerel $LN10
	DD	imagerel $LN10+425
	DD	imagerel $unwind$?SetCircleTessellationMaxError@ImDrawListSharedData@@QEAAXM@Z
pdata	ENDS
;	COMDAT pdata
pdata	SEGMENT
$pdata$??1?$ImVector@H@@QEAA@XZ DD imagerel $LN4
	DD	imagerel $LN4+72
	DD	imagerel $unwind$??1?$ImVector@H@@QEAA@XZ
pdata	ENDS
;	COMDAT pdata
pdata	SEGMENT
$pdata$??A?$ImVector@H@@QEAAAEAHH@Z DD imagerel $LN5
	DD	imagerel $LN5+121
	DD	imagerel $unwind$??A?$ImVector@H@@QEAAAEAHH@Z
pdata	ENDS
;	COMDAT pdata
pdata	SEGMENT
$pdata$?_grow_capacity@?$ImVector@H@@QEBAHH@Z DD imagerel $LN7
	DD	imagerel $LN7+150
	DD	imagerel $unwind$?_grow_capacity@?$ImVector@H@@QEBAHH@Z
pdata	ENDS
;	COMDAT pdata
pdata	SEGMENT
$pdata$?reserve@?$ImVector@H@@QEAAXH@Z DD imagerel $LN5
	DD	imagerel $LN5+185
	DD	imagerel $unwind$?reserve@?$ImVector@H@@QEAAXH@Z
pdata	ENDS
;	COMDAT pdata
pdata	SEGMENT
$pdata$?push_back@?$ImVector@H@@QEAAXAEBH@Z DD imagerel $LN4
	DD	imagerel $LN4+159
	DD	imagerel $unwind$?push_back@?$ImVector@H@@QEAAXAEBH@Z
pdata	ENDS
;	COMDAT pdata
pdata	SEGMENT
$pdata$?RenderColorRectWithAlphaCheckerboard@ImGui@@YAXPEAUImDrawList@@UImVec2@@1IM1MH@Z DD imagerel $LN22
	DD	imagerel $LN22+1016
	DD	imagerel $unwind$?RenderColorRectWithAlphaCheckerboard@ImGui@@YAXPEAUImDrawList@@UImVec2@@1IM1MH@Z
pdata	ENDS
;	COMDAT pdata
pdata	SEGMENT
$pdata$?RenderArrow@ImGui@@YAXPEAUImDrawList@@UImVec2@@IHM@Z DD imagerel $LN15
	DD	imagerel $LN15+936
	DD	imagerel $unwind$?RenderArrow@ImGui@@YAXPEAUImDrawList@@UImVec2@@IHM@Z
pdata	ENDS
;	COMDAT pdata
pdata	SEGMENT
$pdata$?RenderBullet@ImGui@@YAXPEAUImDrawList@@UImVec2@@I@Z DD imagerel $LN3
	DD	imagerel $LN3+112
	DD	imagerel $unwind$?RenderBullet@ImGui@@YAXPEAUImDrawList@@UImVec2@@I@Z
pdata	ENDS
;	COMDAT pdata
pdata	SEGMENT
$pdata$?RenderCheckMark@ImGui@@YAXPEAUImDrawList@@UImVec2@@IM@Z DD imagerel $LN3
	DD	imagerel $LN3+453
	DD	imagerel $unwind$?RenderCheckMark@ImGui@@YAXPEAUImDrawList@@UImVec2@@IM@Z
pdata	ENDS
;	COMDAT pdata
pdata	SEGMENT
$pdata$?RenderMouseCursor@ImGui@@YAXPEAUImDrawList@@UImVec2@@MHIII@Z DD imagerel $LN7
	DD	imagerel $LN7+1200
	DD	imagerel $unwind$?RenderMouseCursor@ImGui@@YAXPEAUImDrawList@@UImVec2@@MHIII@Z
pdata	ENDS
;	COMDAT pdata
pdata	SEGMENT
$pdata$?RenderArrowPointingAt@ImGui@@YAXPEAUImDrawList@@UImVec2@@1HI@Z DD imagerel $LN11
	DD	imagerel $LN11+740
	DD	imagerel $unwind$?RenderArrowPointingAt@ImGui@@YAXPEAUImDrawList@@UImVec2@@1HI@Z
pdata	ENDS
;	COMDAT pdata
pdata	SEGMENT
$pdata$?RenderRectFilledRangeH@ImGui@@YAXPEAUImDrawList@@AEBUImRect@@IMMM@Z DD imagerel $LN15
	DD	imagerel $LN15+2020
	DD	imagerel $unwind$?RenderRectFilledRangeH@ImGui@@YAXPEAUImDrawList@@AEBUImRect@@IMMM@Z
pdata	ENDS
;	COMDAT pdata
pdata	SEGMENT
$pdata$?RenderRectFilledWithHole@ImGui@@YAXPEAUImDrawList@@UImRect@@1IM@Z DD imagerel $LN35
	DD	imagerel $LN35+1810
	DD	imagerel $unwind$?RenderRectFilledWithHole@ImGui@@YAXPEAUImDrawList@@UImRect@@1IM@Z
pdata	ENDS
;	COMDAT pdata
pdata	SEGMENT
$pdata$?ShadeVertsLinearColorGradientKeepAlpha@ImGui@@YAXPEAUImDrawList@@HHUImVec2@@1II@Z DD imagerel $LN6
	DD	imagerel $LN6+675
	DD	imagerel $unwind$?ShadeVertsLinearColorGradientKeepAlpha@ImGui@@YAXPEAUImDrawList@@HHUImVec2@@1II@Z
pdata	ENDS
;	COMDAT pdata
pdata	SEGMENT
$pdata$?ShadeVertsLinearUV@ImGui@@YAXPEAUImDrawList@@HHAEBUImVec2@@111_N@Z DD imagerel $LN17
	DD	imagerel $LN17+806
	DD	imagerel $unwind$?ShadeVertsLinearUV@ImGui@@YAXPEAUImDrawList@@HHAEBUImVec2@@111_N@Z
pdata	ENDS
;	COMDAT pdata
pdata	SEGMENT
$pdata$?ImFontAtlasGetBuilderForStbTruetype@@YAPEBUImFontBuilderIO@@XZ DD imagerel $LN3
	DD	imagerel $LN3+58
	DD	imagerel $unwind$?ImFontAtlasGetBuilderForStbTruetype@@YAPEBUImFontBuilderIO@@XZ
pdata	ENDS
;	COMDAT pdata
pdata	SEGMENT
$pdata$?ImFontAtlasBuildInit@@YAXPEAUImFontAtlas@@@Z DD imagerel $LN8
	DD	imagerel $LN8+215
	DD	imagerel $unwind$?ImFontAtlasBuildInit@@YAXPEAUImFontAtlas@@@Z
pdata	ENDS
;	COMDAT pdata
pdata	SEGMENT
$pdata$?ImFontAtlasBuildSetupFont@@YAXPEAUImFontAtlas@@PEAUImFont@@PEAUImFontConfig@@MM@Z DD imagerel $LN4
	DD	imagerel $LN4+222
	DD	imagerel $unwind$?ImFontAtlasBuildSetupFont@@YAXPEAUImFontAtlas@@PEAUImFont@@PEAUImFontConfig@@MM@Z
pdata	ENDS
;	COMDAT pdata
pdata	SEGMENT
$pdata$?ImFontAtlasBuildPackCustomRects@@YAXPEAUImFontAtlas@@PEAX@Z DD imagerel $LN15
	DD	imagerel $LN15+863
	DD	imagerel $unwind$?ImFontAtlasBuildPackCustomRects@@YAXPEAUImFontAtlas@@PEAX@Z
pdata	ENDS
;	COMDAT pdata
pdata	SEGMENT
$pdata$?dtor$0@?0??ImFontAtlasBuildPackCustomRects@@YAXPEAUImFontAtlas@@PEAX@Z@4HA DD imagerel ?dtor$0@?0??ImFontAtlasBuildPackCustomRects@@YAXPEAUImFontAtlas@@PEAX@Z@4HA
	DD	imagerel ?dtor$0@?0??ImFontAtlasBuildPackCustomRects@@YAXPEAUImFontAtlas@@PEAX@Z@4HA+36
	DD	imagerel $unwind$?dtor$0@?0??ImFontAtlasBuildPackCustomRects@@YAXPEAUImFontAtlas@@PEAX@Z@4HA
pdata	ENDS
;	COMDAT pdata
pdata	SEGMENT
$pdata$?ImFontAtlasBuildFinish@@YAXPEAUImFontAtlas@@@Z DD imagerel $LN14
	DD	imagerel $LN14+734
	DD	imagerel $unwind$?ImFontAtlasBuildFinish@@YAXPEAUImFontAtlas@@@Z
pdata	ENDS
;	COMDAT pdata
pdata	SEGMENT
$pdata$?ImFontAtlasBuildRender8bppRectFromString@@YAXPEAUImFontAtlas@@HHHHPEBDDE@Z DD imagerel $LN15
	DD	imagerel $LN15+433
	DD	imagerel $unwind$?ImFontAtlasBuildRender8bppRectFromString@@YAXPEAUImFontAtlas@@HHHHPEBDDE@Z
pdata	ENDS
;	COMDAT pdata
pdata	SEGMENT
$pdata$?ImFontAtlasBuildRender32bppRectFromString@@YAXPEAUImFontAtlas@@HHHHPEBDDI@Z DD imagerel $LN15
	DD	imagerel $LN15+428
	DD	imagerel $unwind$?ImFontAtlasBuildRender32bppRectFromString@@YAXPEAUImFontAtlas@@HHHHPEBDDI@Z
pdata	ENDS
;	COMDAT pdata
pdata	SEGMENT
$pdata$?ImFontAtlasBuildMultiplyCalcLookupTable@@YAXQEAEM@Z DD imagerel $LN8
	DD	imagerel $LN8+154
	DD	imagerel $unwind$?ImFontAtlasBuildMultiplyCalcLookupTable@@YAXQEAEM@Z
pdata	ENDS
;	COMDAT pdata
pdata	SEGMENT
$pdata$?ImFontAtlasBuildMultiplyRectAlpha8@@YAXQEBEPEAEHHHHH@Z DD imagerel $LN9
	DD	imagerel $LN9+212
	DD	imagerel $unwind$?ImFontAtlasBuildMultiplyRectAlpha8@@YAXQEBEPEAEHHHHH@Z
pdata	ENDS
;	COMDAT pdata
pdata	SEGMENT
$pdata$stbrp_pack_rects DD imagerel stbrp_pack_rects
	DD	imagerel stbrp_pack_rects+722
	DD	imagerel $unwind$stbrp_pack_rects
pdata	ENDS
;	COMDAT pdata
pdata	SEGMENT
$pdata$stbrp_init_target DD imagerel stbrp_init_target
	DD	imagerel stbrp_init_target+540
	DD	imagerel $unwind$stbrp_init_target
pdata	ENDS
;	COMDAT pdata
pdata	SEGMENT
$pdata$stbrp_setup_allow_out_of_mem DD imagerel stbrp_setup_allow_out_of_mem
	DD	imagerel stbrp_setup_allow_out_of_mem+114
	DD	imagerel $unwind$stbrp_setup_allow_out_of_mem
pdata	ENDS
;	COMDAT pdata
pdata	SEGMENT
$pdata$?stbrp__skyline_find_min_y@@YAHPEAUstbrp_context@@PEAUstbrp_node@@HHPEAH@Z DD imagerel ?stbrp__skyline_find_min_y@@YAHPEAUstbrp_context@@PEAUstbrp_node@@HHPEAH@Z
	DD	imagerel ?stbrp__skyline_find_min_y@@YAHPEAUstbrp_context@@PEAUstbrp_node@@HHPEAH@Z+592
	DD	imagerel $unwind$?stbrp__skyline_find_min_y@@YAHPEAUstbrp_context@@PEAUstbrp_node@@HHPEAH@Z
pdata	ENDS
;	COMDAT pdata
pdata	SEGMENT
$pdata$?stbrp__skyline_find_best_pos@@YA?AUstbrp__findresult@@PEAUstbrp_context@@HH@Z DD imagerel ?stbrp__skyline_find_best_pos@@YA?AUstbrp__findresult@@PEAUstbrp_context@@HH@Z
	DD	imagerel ?stbrp__skyline_find_best_pos@@YA?AUstbrp__findresult@@PEAUstbrp_context@@HH@Z+1374
	DD	imagerel $unwind$?stbrp__skyline_find_best_pos@@YA?AUstbrp__findresult@@PEAUstbrp_context@@HH@Z
pdata	ENDS
;	COMDAT pdata
pdata	SEGMENT
$pdata$?stbrp__skyline_pack_rectangle@@YA?AUstbrp__findresult@@PEAUstbrp_context@@HH@Z DD imagerel ?stbrp__skyline_pack_rectangle@@YA?AUstbrp__findresult@@PEAUstbrp_context@@HH@Z
	DD	imagerel ?stbrp__skyline_pack_rectangle@@YA?AUstbrp__findresult@@PEAUstbrp_context@@HH@Z+892
	DD	imagerel $unwind$?stbrp__skyline_pack_rectangle@@YA?AUstbrp__findresult@@PEAUstbrp_context@@HH@Z
pdata	ENDS
;	COMDAT pdata
pdata	SEGMENT
$pdata$?rect_height_compare@@YAHPEBX0@Z DD imagerel ?rect_height_compare@@YAHPEBX0@Z
	DD	imagerel ?rect_height_compare@@YAHPEBX0@Z+214
	DD	imagerel $unwind$?rect_height_compare@@YAHPEBX0@Z
pdata	ENDS
;	COMDAT pdata
pdata	SEGMENT
$pdata$?rect_original_order@@YAHPEBX0@Z DD imagerel ?rect_original_order@@YAHPEBX0@Z
	DD	imagerel ?rect_original_order@@YAHPEBX0@Z+152
	DD	imagerel $unwind$?rect_original_order@@YAHPEBX0@Z
pdata	ENDS
;	COMDAT pdata
pdata	SEGMENT
$pdata$stbtt_PackBegin DD imagerel stbtt_PackBegin
	DD	imagerel stbtt_PackBegin+480
	DD	imagerel $unwind$stbtt_PackBegin
pdata	ENDS
;	COMDAT pdata
pdata	SEGMENT
$pdata$stbtt_PackEnd DD imagerel stbtt_PackEnd
	DD	imagerel stbtt_PackEnd+73
	DD	imagerel $unwind$stbtt_PackEnd
pdata	ENDS
;	COMDAT pdata
pdata	SEGMENT
$pdata$stbtt_GetPackedQuad DD imagerel stbtt_GetPackedQuad
	DD	imagerel stbtt_GetPackedQuad+631
	DD	imagerel $unwind$stbtt_GetPackedQuad
pdata	ENDS
;	COMDAT pdata
pdata	SEGMENT
$pdata$stbtt_PackFontRangesRenderIntoRects DD imagerel stbtt_PackFontRangesRenderIntoRects
	DD	imagerel stbtt_PackFontRangesRenderIntoRects+2054
	DD	imagerel $unwind$stbtt_PackFontRangesRenderIntoRects
pdata	ENDS
;	COMDAT pdata
pdata	SEGMENT
$pdata$stbtt_GetFontOffsetForIndex DD imagerel stbtt_GetFontOffsetForIndex
	DD	imagerel stbtt_GetFontOffsetForIndex+63
	DD	imagerel $unwind$stbtt_GetFontOffsetForIndex
pdata	ENDS
;	COMDAT pdata
pdata	SEGMENT
$pdata$stbtt_InitFont DD imagerel stbtt_InitFont
	DD	imagerel stbtt_InitFont+77
	DD	imagerel $unwind$stbtt_InitFont
pdata	ENDS
;	COMDAT pdata
pdata	SEGMENT
$pdata$stbtt_FindGlyphIndex DD imagerel stbtt_FindGlyphIndex
	DD	imagerel stbtt_FindGlyphIndex+1702
	DD	imagerel $unwind$stbtt_FindGlyphIndex
pdata	ENDS
;	COMDAT pdata
pdata	SEGMENT
$pdata$stbtt_ScaleForPixelHeight DD imagerel stbtt_ScaleForPixelHeight
	DD	imagerel stbtt_ScaleForPixelHeight+155
	DD	imagerel $unwind$stbtt_ScaleForPixelHeight
pdata	ENDS
;	COMDAT pdata
pdata	SEGMENT
$pdata$stbtt_ScaleForMappingEmToPixels DD imagerel stbtt_ScaleForMappingEmToPixels
	DD	imagerel stbtt_ScaleForMappingEmToPixels+108
	DD	imagerel $unwind$stbtt_ScaleForMappingEmToPixels
pdata	ENDS
;	COMDAT pdata
pdata	SEGMENT
$pdata$stbtt_GetFontVMetrics DD imagerel stbtt_GetFontVMetrics
	DD	imagerel stbtt_GetFontVMetrics+221
	DD	imagerel $unwind$stbtt_GetFontVMetrics
pdata	ENDS
;	COMDAT pdata
pdata	SEGMENT
$pdata$stbtt_GetGlyphHMetrics DD imagerel stbtt_GetGlyphHMetrics
	DD	imagerel stbtt_GetGlyphHMetrics+423
	DD	imagerel $unwind$stbtt_GetGlyphHMetrics
pdata	ENDS
;	COMDAT pdata
pdata	SEGMENT
$pdata$stbtt_GetGlyphBox DD imagerel stbtt_GetGlyphBox
	DD	imagerel stbtt_GetGlyphBox+360
	DD	imagerel $unwind$stbtt_GetGlyphBox
pdata	ENDS
;	COMDAT pdata
pdata	SEGMENT
$pdata$stbtt_GetGlyphShape DD imagerel stbtt_GetGlyphShape
	DD	imagerel stbtt_GetGlyphShape+117
	DD	imagerel $unwind$stbtt_GetGlyphShape
pdata	ENDS
;	COMDAT pdata
pdata	SEGMENT
$pdata$stbtt_MakeGlyphBitmapSubpixel DD imagerel stbtt_MakeGlyphBitmapSubpixel
	DD	imagerel stbtt_MakeGlyphBitmapSubpixel+454
	DD	imagerel $unwind$stbtt_MakeGlyphBitmapSubpixel
pdata	ENDS
;	COMDAT pdata
pdata	SEGMENT
$pdata$stbtt_GetGlyphBitmapBox DD imagerel stbtt_GetGlyphBitmapBox
	DD	imagerel stbtt_GetGlyphBitmapBox+157
	DD	imagerel $unwind$stbtt_GetGlyphBitmapBox
pdata	ENDS
;	COMDAT pdata
pdata	SEGMENT
$pdata$stbtt_GetGlyphBitmapBoxSubpixel DD imagerel stbtt_GetGlyphBitmapBoxSubpixel
	DD	imagerel stbtt_GetGlyphBitmapBoxSubpixel+493
	DD	imagerel $unwind$stbtt_GetGlyphBitmapBoxSubpixel
pdata	ENDS
;	COMDAT pdata
pdata	SEGMENT
$pdata$stbtt_Rasterize DD imagerel stbtt_Rasterize
	DD	imagerel stbtt_Rasterize+423
	DD	imagerel $unwind$stbtt_Rasterize
pdata	ENDS
;	COMDAT pdata
pdata	SEGMENT
$pdata$?stbtt__buf_get8@@YAEPEAUstbtt__buf@@@Z DD imagerel ?stbtt__buf_get8@@YAEPEAUstbtt__buf@@@Z
	DD	imagerel ?stbtt__buf_get8@@YAEPEAUstbtt__buf@@@Z+127
	DD	imagerel $unwind$?stbtt__buf_get8@@YAEPEAUstbtt__buf@@@Z
pdata	ENDS
;	COMDAT pdata
pdata	SEGMENT
$pdata$?stbtt__buf_peek8@@YAEPEAUstbtt__buf@@@Z DD imagerel ?stbtt__buf_peek8@@YAEPEAUstbtt__buf@@@Z
	DD	imagerel ?stbtt__buf_peek8@@YAEPEAUstbtt__buf@@@Z+92
	DD	imagerel $unwind$?stbtt__buf_peek8@@YAEPEAUstbtt__buf@@@Z
pdata	ENDS
;	COMDAT pdata
pdata	SEGMENT
$pdata$?stbtt__buf_seek@@YAXPEAUstbtt__buf@@H@Z DD imagerel ?stbtt__buf_seek@@YAXPEAUstbtt__buf@@H@Z
	DD	imagerel ?stbtt__buf_seek@@YAXPEAUstbtt__buf@@H@Z+184
	DD	imagerel $unwind$?stbtt__buf_seek@@YAXPEAUstbtt__buf@@H@Z
pdata	ENDS
;	COMDAT pdata
pdata	SEGMENT
$pdata$?stbtt__buf_skip@@YAXPEAUstbtt__buf@@H@Z DD imagerel ?stbtt__buf_skip@@YAXPEAUstbtt__buf@@H@Z
	DD	imagerel ?stbtt__buf_skip@@YAXPEAUstbtt__buf@@H@Z+75
	DD	imagerel $unwind$?stbtt__buf_skip@@YAXPEAUstbtt__buf@@H@Z
pdata	ENDS
;	COMDAT pdata
pdata	SEGMENT
$pdata$?stbtt__buf_get@@YAIPEAUstbtt__buf@@H@Z DD imagerel ?stbtt__buf_get@@YAIPEAUstbtt__buf@@H@Z
	DD	imagerel ?stbtt__buf_get@@YAIPEAUstbtt__buf@@H@Z+183
	DD	imagerel $unwind$?stbtt__buf_get@@YAIPEAUstbtt__buf@@H@Z
pdata	ENDS
;	COMDAT pdata
pdata	SEGMENT
$pdata$?stbtt__new_buf@@YA?AUstbtt__buf@@PEBX_K@Z DD imagerel ?stbtt__new_buf@@YA?AUstbtt__buf@@PEBX_K@Z
	DD	imagerel ?stbtt__new_buf@@YA?AUstbtt__buf@@PEBX_K@Z+208
	DD	imagerel $unwind$?stbtt__new_buf@@YA?AUstbtt__buf@@PEBX_K@Z
pdata	ENDS
;	COMDAT pdata
pdata	SEGMENT
$pdata$?stbtt__buf_range@@YA?AUstbtt__buf@@PEBU1@HH@Z DD imagerel ?stbtt__buf_range@@YA?AUstbtt__buf@@PEBU1@HH@Z
	DD	imagerel ?stbtt__buf_range@@YA?AUstbtt__buf@@PEBU1@HH@Z+289
	DD	imagerel $unwind$?stbtt__buf_range@@YA?AUstbtt__buf@@PEBU1@HH@Z
pdata	ENDS
;	COMDAT pdata
pdata	SEGMENT
$pdata$?stbtt__cff_get_index@@YA?AUstbtt__buf@@PEAU1@@Z DD imagerel ?stbtt__cff_get_index@@YA?AUstbtt__buf@@PEAU1@@Z
	DD	imagerel ?stbtt__cff_get_index@@YA?AUstbtt__buf@@PEAU1@@Z+301
	DD	imagerel $unwind$?stbtt__cff_get_index@@YA?AUstbtt__buf@@PEAU1@@Z
pdata	ENDS
;	COMDAT pdata
pdata	SEGMENT
$pdata$?stbtt__cff_int@@YAIPEAUstbtt__buf@@@Z DD imagerel ?stbtt__cff_int@@YAIPEAUstbtt__buf@@@Z
	DD	imagerel ?stbtt__cff_int@@YAIPEAUstbtt__buf@@@Z+334
	DD	imagerel $unwind$?stbtt__cff_int@@YAIPEAUstbtt__buf@@@Z
pdata	ENDS
;	COMDAT pdata
pdata	SEGMENT
$pdata$?stbtt__cff_skip_operand@@YAXPEAUstbtt__buf@@@Z DD imagerel ?stbtt__cff_skip_operand@@YAXPEAUstbtt__buf@@@Z
	DD	imagerel ?stbtt__cff_skip_operand@@YAXPEAUstbtt__buf@@@Z+208
	DD	imagerel $unwind$?stbtt__cff_skip_operand@@YAXPEAUstbtt__buf@@@Z
pdata	ENDS
;	COMDAT pdata
pdata	SEGMENT
$pdata$?stbtt__dict_get@@YA?AUstbtt__buf@@PEAU1@H@Z DD imagerel ?stbtt__dict_get@@YA?AUstbtt__buf@@PEAU1@H@Z
	DD	imagerel ?stbtt__dict_get@@YA?AUstbtt__buf@@PEAU1@H@Z+380
	DD	imagerel $unwind$?stbtt__dict_get@@YA?AUstbtt__buf@@PEAU1@H@Z
pdata	ENDS
;	COMDAT pdata
pdata	SEGMENT
$pdata$?stbtt__dict_get_ints@@YAXPEAUstbtt__buf@@HHPEAI@Z DD imagerel ?stbtt__dict_get_ints@@YAXPEAUstbtt__buf@@HHPEAI@Z
	DD	imagerel ?stbtt__dict_get_ints@@YAXPEAUstbtt__buf@@HHPEAI@Z+234
	DD	imagerel $unwind$?stbtt__dict_get_ints@@YAXPEAUstbtt__buf@@HHPEAI@Z
pdata	ENDS
;	COMDAT pdata
pdata	SEGMENT
$pdata$?stbtt__cff_index_count@@YAHPEAUstbtt__buf@@@Z DD imagerel ?stbtt__cff_index_count@@YAHPEAUstbtt__buf@@@Z
	DD	imagerel ?stbtt__cff_index_count@@YAHPEAUstbtt__buf@@@Z+72
	DD	imagerel $unwind$?stbtt__cff_index_count@@YAHPEAUstbtt__buf@@@Z
pdata	ENDS
;	COMDAT pdata
pdata	SEGMENT
$pdata$?stbtt__cff_index_get@@YA?AUstbtt__buf@@U1@H@Z DD imagerel ?stbtt__cff_index_get@@YA?AUstbtt__buf@@U1@H@Z
	DD	imagerel ?stbtt__cff_index_get@@YA?AUstbtt__buf@@U1@H@Z+379
	DD	imagerel $unwind$?stbtt__cff_index_get@@YA?AUstbtt__buf@@U1@H@Z
pdata	ENDS
;	COMDAT pdata
pdata	SEGMENT
$pdata$?ttUSHORT@@YAGPEAE@Z DD imagerel ?ttUSHORT@@YAGPEAE@Z
	DD	imagerel ?ttUSHORT@@YAGPEAE@Z+89
	DD	imagerel $unwind$?ttUSHORT@@YAGPEAE@Z
pdata	ENDS
;	COMDAT pdata
pdata	SEGMENT
$pdata$?ttSHORT@@YAFPEAE@Z DD imagerel ?ttSHORT@@YAFPEAE@Z
	DD	imagerel ?ttSHORT@@YAFPEAE@Z+89
	DD	imagerel $unwind$?ttSHORT@@YAFPEAE@Z
pdata	ENDS
;	COMDAT pdata
pdata	SEGMENT
$pdata$?ttULONG@@YAIPEAE@Z DD imagerel ?ttULONG@@YAIPEAE@Z
	DD	imagerel ?ttULONG@@YAIPEAE@Z+136
	DD	imagerel $unwind$?ttULONG@@YAIPEAE@Z
pdata	ENDS
;	COMDAT pdata
pdata	SEGMENT
$pdata$?ttLONG@@YAHPEAE@Z DD imagerel ?ttLONG@@YAHPEAE@Z
	DD	imagerel ?ttLONG@@YAHPEAE@Z+136
	DD	imagerel $unwind$?ttLONG@@YAHPEAE@Z
pdata	ENDS
;	COMDAT pdata
pdata	SEGMENT
$pdata$?stbtt__isfont@@YAHPEAE@Z DD imagerel ?stbtt__isfont@@YAHPEAE@Z
	DD	imagerel ?stbtt__isfont@@YAHPEAE@Z+824
	DD	imagerel $unwind$?stbtt__isfont@@YAHPEAE@Z
pdata	ENDS
;	COMDAT pdata
pdata	SEGMENT
$pdata$?stbtt__find_table@@YAIPEAEIPEBD@Z DD imagerel ?stbtt__find_table@@YAIPEAEIPEBD@Z
	DD	imagerel ?stbtt__find_table@@YAIPEAEIPEBD@Z+389
	DD	imagerel $unwind$?stbtt__find_table@@YAIPEAEIPEBD@Z
pdata	ENDS
;	COMDAT pdata
pdata	SEGMENT
$pdata$?stbtt_GetFontOffsetForIndex_internal@@YAHPEAEH@Z DD imagerel ?stbtt_GetFontOffsetForIndex_internal@@YAHPEAEH@Z
	DD	imagerel ?stbtt_GetFontOffsetForIndex_internal@@YAHPEAEH@Z+421
	DD	imagerel $unwind$?stbtt_GetFontOffsetForIndex_internal@@YAHPEAEH@Z
pdata	ENDS
;	COMDAT pdata
pdata	SEGMENT
$pdata$?stbtt__get_subrs@@YA?AUstbtt__buf@@U1@0@Z DD imagerel ?stbtt__get_subrs@@YA?AUstbtt__buf@@U1@0@Z
	DD	imagerel ?stbtt__get_subrs@@YA?AUstbtt__buf@@U1@0@Z+576
	DD	imagerel $unwind$?stbtt__get_subrs@@YA?AUstbtt__buf@@U1@0@Z
pdata	ENDS
;	COMDAT pdata
pdata	SEGMENT
$pdata$?stbtt_InitFont_internal@@YAHPEAUstbtt_fontinfo@@PEAEH@Z DD imagerel ?stbtt_InitFont_internal@@YAHPEAUstbtt_fontinfo@@PEAEH@Z
	DD	imagerel ?stbtt_InitFont_internal@@YAHPEAUstbtt_fontinfo@@PEAEH@Z+2311
	DD	imagerel $unwind$?stbtt_InitFont_internal@@YAHPEAUstbtt_fontinfo@@PEAEH@Z
pdata	ENDS
;	COMDAT pdata
pdata	SEGMENT
$pdata$?stbtt_setvertex@@YAXPEAUstbtt_vertex@@EHHHH@Z DD imagerel ?stbtt_setvertex@@YAXPEAUstbtt_vertex@@EHHHH@Z
	DD	imagerel ?stbtt_setvertex@@YAXPEAUstbtt_vertex@@EHHHH@Z+143
	DD	imagerel $unwind$?stbtt_setvertex@@YAXPEAUstbtt_vertex@@EHHHH@Z
pdata	ENDS
;	COMDAT pdata
pdata	SEGMENT
$pdata$?stbtt__GetGlyfOffset@@YAHPEBUstbtt_fontinfo@@H@Z DD imagerel ?stbtt__GetGlyfOffset@@YAHPEBUstbtt_fontinfo@@H@Z
	DD	imagerel ?stbtt__GetGlyfOffset@@YAHPEBUstbtt_fontinfo@@H@Z+476
	DD	imagerel $unwind$?stbtt__GetGlyfOffset@@YAHPEBUstbtt_fontinfo@@H@Z
pdata	ENDS
;	COMDAT pdata
pdata	SEGMENT
$pdata$?stbtt__GetGlyphInfoT2@@YAHPEBUstbtt_fontinfo@@HPEAH111@Z DD imagerel ?stbtt__GetGlyphInfoT2@@YAHPEBUstbtt_fontinfo@@HPEAH111@Z
	DD	imagerel ?stbtt__GetGlyphInfoT2@@YAHPEBUstbtt_fontinfo@@HPEAH111@Z+487
	DD	imagerel $unwind$?stbtt__GetGlyphInfoT2@@YAHPEBUstbtt_fontinfo@@HPEAH111@Z
pdata	ENDS
;	COMDAT pdata
pdata	SEGMENT
$pdata$?stbtt__close_shape@@YAHPEAUstbtt_vertex@@HHHHHHHHH@Z DD imagerel ?stbtt__close_shape@@YAHPEAUstbtt_vertex@@HHHHHHHHH@Z
	DD	imagerel ?stbtt__close_shape@@YAHPEAUstbtt_vertex@@HHHHHHHHH@Z+495
	DD	imagerel $unwind$?stbtt__close_shape@@YAHPEAUstbtt_vertex@@HHHHHHHHH@Z
pdata	ENDS
;	COMDAT pdata
pdata	SEGMENT
$pdata$?stbtt__GetGlyphShapeTT@@YAHPEBUstbtt_fontinfo@@HPEAPEAUstbtt_vertex@@@Z DD imagerel ?stbtt__GetGlyphShapeTT@@YAHPEBUstbtt_fontinfo@@HPEAPEAUstbtt_vertex@@@Z
	DD	imagerel ?stbtt__GetGlyphShapeTT@@YAHPEBUstbtt_fontinfo@@HPEAPEAUstbtt_vertex@@@Z+5192
	DD	imagerel $unwind$?stbtt__GetGlyphShapeTT@@YAHPEBUstbtt_fontinfo@@HPEAPEAUstbtt_vertex@@@Z
pdata	ENDS
;	COMDAT pdata
pdata	SEGMENT
$pdata$?stbtt__track_vertex@@YAXPEAUstbtt__csctx@@HH@Z DD imagerel ?stbtt__track_vertex@@YAXPEAUstbtt__csctx@@HH@Z
	DD	imagerel ?stbtt__track_vertex@@YAXPEAUstbtt__csctx@@HH@Z+252
	DD	imagerel $unwind$?stbtt__track_vertex@@YAXPEAUstbtt__csctx@@HH@Z
pdata	ENDS
;	COMDAT pdata
pdata	SEGMENT
$pdata$?stbtt__csctx_v@@YAXPEAUstbtt__csctx@@EHHHHHH@Z DD imagerel ?stbtt__csctx_v@@YAXPEAUstbtt__csctx@@EHHHHHH@Z
	DD	imagerel ?stbtt__csctx_v@@YAXPEAUstbtt__csctx@@EHHHHHH@Z+332
	DD	imagerel $unwind$?stbtt__csctx_v@@YAXPEAUstbtt__csctx@@EHHHHHH@Z
pdata	ENDS
;	COMDAT pdata
pdata	SEGMENT
$pdata$?stbtt__csctx_close_shape@@YAXPEAUstbtt__csctx@@@Z DD imagerel ?stbtt__csctx_close_shape@@YAXPEAUstbtt__csctx@@@Z
	DD	imagerel ?stbtt__csctx_close_shape@@YAXPEAUstbtt__csctx@@@Z+171
	DD	imagerel $unwind$?stbtt__csctx_close_shape@@YAXPEAUstbtt__csctx@@@Z
pdata	ENDS
;	COMDAT pdata
pdata	SEGMENT
$pdata$?stbtt__csctx_rmove_to@@YAXPEAUstbtt__csctx@@MM@Z DD imagerel ?stbtt__csctx_rmove_to@@YAXPEAUstbtt__csctx@@MM@Z
	DD	imagerel ?stbtt__csctx_rmove_to@@YAXPEAUstbtt__csctx@@MM@Z+277
	DD	imagerel $unwind$?stbtt__csctx_rmove_to@@YAXPEAUstbtt__csctx@@MM@Z
pdata	ENDS
;	COMDAT pdata
pdata	SEGMENT
$pdata$?stbtt__csctx_rline_to@@YAXPEAUstbtt__csctx@@MM@Z DD imagerel ?stbtt__csctx_rline_to@@YAXPEAUstbtt__csctx@@MM@Z
	DD	imagerel ?stbtt__csctx_rline_to@@YAXPEAUstbtt__csctx@@MM@Z+193
	DD	imagerel $unwind$?stbtt__csctx_rline_to@@YAXPEAUstbtt__csctx@@MM@Z
pdata	ENDS
;	COMDAT pdata
pdata	SEGMENT
$pdata$?stbtt__csctx_rccurve_to@@YAXPEAUstbtt__csctx@@MMMMMM@Z DD imagerel ?stbtt__csctx_rccurve_to@@YAXPEAUstbtt__csctx@@MMMMMM@Z
	DD	imagerel ?stbtt__csctx_rccurve_to@@YAXPEAUstbtt__csctx@@MMMMMM@Z+276
	DD	imagerel $unwind$?stbtt__csctx_rccurve_to@@YAXPEAUstbtt__csctx@@MMMMMM@Z
pdata	ENDS
;	COMDAT pdata
pdata	SEGMENT
$pdata$?stbtt__get_subr@@YA?AUstbtt__buf@@U1@H@Z DD imagerel ?stbtt__get_subr@@YA?AUstbtt__buf@@U1@H@Z
	DD	imagerel ?stbtt__get_subr@@YA?AUstbtt__buf@@U1@H@Z+319
	DD	imagerel $unwind$?stbtt__get_subr@@YA?AUstbtt__buf@@U1@H@Z
pdata	ENDS
;	COMDAT pdata
pdata	SEGMENT
$pdata$?stbtt__cid_get_glyph_subrs@@YA?AUstbtt__buf@@PEBUstbtt_fontinfo@@H@Z DD imagerel ?stbtt__cid_get_glyph_subrs@@YA?AUstbtt__buf@@PEBUstbtt_fontinfo@@H@Z
	DD	imagerel ?stbtt__cid_get_glyph_subrs@@YA?AUstbtt__buf@@PEBUstbtt_fontinfo@@H@Z+664
	DD	imagerel $unwind$?stbtt__cid_get_glyph_subrs@@YA?AUstbtt__buf@@PEBUstbtt_fontinfo@@H@Z
pdata	ENDS
;	COMDAT pdata
pdata	SEGMENT
$pdata$?stbtt__run_charstring@@YAHPEBUstbtt_fontinfo@@HPEAUstbtt__csctx@@@Z DD imagerel ?stbtt__run_charstring@@YAHPEBUstbtt_fontinfo@@HPEAUstbtt__csctx@@@Z
	DD	imagerel ?stbtt__run_charstring@@YAHPEBUstbtt_fontinfo@@HPEAUstbtt__csctx@@@Z+5400
	DD	imagerel $unwind$?stbtt__run_charstring@@YAHPEBUstbtt_fontinfo@@HPEAUstbtt__csctx@@@Z
pdata	ENDS
;	COMDAT pdata
pdata	SEGMENT
$pdata$?stbtt__GetGlyphShapeT2@@YAHPEBUstbtt_fontinfo@@HPEAPEAUstbtt_vertex@@@Z DD imagerel ?stbtt__GetGlyphShapeT2@@YAHPEBUstbtt_fontinfo@@HPEAPEAUstbtt_vertex@@@Z
	DD	imagerel ?stbtt__GetGlyphShapeT2@@YAHPEBUstbtt_fontinfo@@HPEAPEAUstbtt_vertex@@@Z+487
	DD	imagerel $unwind$?stbtt__GetGlyphShapeT2@@YAHPEBUstbtt_fontinfo@@HPEAPEAUstbtt_vertex@@@Z
pdata	ENDS
;	COMDAT pdata
pdata	SEGMENT
$pdata$?stbtt__hheap_alloc@@YAPEAXPEAUstbtt__hheap@@_KPEAX@Z DD imagerel ?stbtt__hheap_alloc@@YAPEAXPEAUstbtt__hheap@@_KPEAX@Z
	DD	imagerel ?stbtt__hheap_alloc@@YAPEAXPEAUstbtt__hheap@@_KPEAX@Z+358
	DD	imagerel $unwind$?stbtt__hheap_alloc@@YAPEAXPEAUstbtt__hheap@@_KPEAX@Z
pdata	ENDS
;	COMDAT pdata
pdata	SEGMENT
$pdata$?stbtt__hheap_free@@YAXPEAUstbtt__hheap@@PEAX@Z DD imagerel ?stbtt__hheap_free@@YAXPEAUstbtt__hheap@@PEAX@Z
	DD	imagerel ?stbtt__hheap_free@@YAXPEAUstbtt__hheap@@PEAX@Z+85
	DD	imagerel $unwind$?stbtt__hheap_free@@YAXPEAUstbtt__hheap@@PEAX@Z
pdata	ENDS
;	COMDAT pdata
pdata	SEGMENT
$pdata$?stbtt__hheap_cleanup@@YAXPEAUstbtt__hheap@@PEAX@Z DD imagerel ?stbtt__hheap_cleanup@@YAXPEAUstbtt__hheap@@PEAX@Z
	DD	imagerel ?stbtt__hheap_cleanup@@YAXPEAUstbtt__hheap@@PEAX@Z+97
	DD	imagerel $unwind$?stbtt__hheap_cleanup@@YAXPEAUstbtt__hheap@@PEAX@Z
pdata	ENDS
;	COMDAT pdata
pdata	SEGMENT
$pdata$?stbtt__new_active@@YAPEAUstbtt__active_edge@@PEAUstbtt__hheap@@PEAUstbtt__edge@@HMPEAX@Z DD imagerel ?stbtt__new_active@@YAPEAUstbtt__active_edge@@PEAUstbtt__hheap@@PEAUstbtt__edge@@HMPEAX@Z
	DD	imagerel ?stbtt__new_active@@YAPEAUstbtt__active_edge@@PEAUstbtt__hheap@@PEAUstbtt__edge@@HMPEAX@Z+498
	DD	imagerel $unwind$?stbtt__new_active@@YAPEAUstbtt__active_edge@@PEAUstbtt__hheap@@PEAUstbtt__edge@@HMPEAX@Z
pdata	ENDS
;	COMDAT pdata
pdata	SEGMENT
$pdata$?stbtt__handle_clipped_edge@@YAXPEAMHPEAUstbtt__active_edge@@MMMM@Z DD imagerel ?stbtt__handle_clipped_edge@@YAXPEAMHPEAUstbtt__active_edge@@MMMM@Z
	DD	imagerel ?stbtt__handle_clipped_edge@@YAXPEAMHPEAUstbtt__active_edge@@MMMM@Z+1392
	DD	imagerel $unwind$?stbtt__handle_clipped_edge@@YAXPEAMHPEAUstbtt__active_edge@@MMMM@Z
pdata	ENDS
;	COMDAT pdata
pdata	SEGMENT
$pdata$?stbtt__fill_active_edges_new@@YAXPEAM0HPEAUstbtt__active_edge@@M@Z DD imagerel ?stbtt__fill_active_edges_new@@YAXPEAM0HPEAUstbtt__active_edge@@M@Z
	DD	imagerel ?stbtt__fill_active_edges_new@@YAXPEAM0HPEAUstbtt__active_edge@@M@Z+3933
	DD	imagerel $unwind$?stbtt__fill_active_edges_new@@YAXPEAM0HPEAUstbtt__active_edge@@M@Z
pdata	ENDS
;	COMDAT pdata
pdata	SEGMENT
$pdata$?stbtt__rasterize_sorted_edges@@YAXPEAUstbtt__bitmap@@PEAUstbtt__edge@@HHHHPEAX@Z DD imagerel ?stbtt__rasterize_sorted_edges@@YAXPEAUstbtt__bitmap@@PEAUstbtt__edge@@HHHHPEAX@Z
	DD	imagerel ?stbtt__rasterize_sorted_edges@@YAXPEAUstbtt__bitmap@@PEAUstbtt__edge@@HHHHPEAX@Z+1426
	DD	imagerel $unwind$?stbtt__rasterize_sorted_edges@@YAXPEAUstbtt__bitmap@@PEAUstbtt__edge@@HHHHPEAX@Z
pdata	ENDS
;	COMDAT pdata
pdata	SEGMENT
$pdata$?stbtt__sort_edges_ins_sort@@YAXPEAUstbtt__edge@@H@Z DD imagerel ?stbtt__sort_edges_ins_sort@@YAXPEAUstbtt__edge@@H@Z
	DD	imagerel ?stbtt__sort_edges_ins_sort@@YAXPEAUstbtt__edge@@H@Z+428
	DD	imagerel $unwind$?stbtt__sort_edges_ins_sort@@YAXPEAUstbtt__edge@@H@Z
pdata	ENDS
;	COMDAT pdata
pdata	SEGMENT
$pdata$?stbtt__sort_edges_quicksort@@YAXPEAUstbtt__edge@@H@Z DD imagerel ?stbtt__sort_edges_quicksort@@YAXPEAUstbtt__edge@@H@Z
	DD	imagerel ?stbtt__sort_edges_quicksort@@YAXPEAUstbtt__edge@@H@Z+1198
	DD	imagerel $unwind$?stbtt__sort_edges_quicksort@@YAXPEAUstbtt__edge@@H@Z
pdata	ENDS
;	COMDAT pdata
pdata	SEGMENT
$pdata$?stbtt__sort_edges@@YAXPEAUstbtt__edge@@H@Z DD imagerel ?stbtt__sort_edges@@YAXPEAUstbtt__edge@@H@Z
	DD	imagerel ?stbtt__sort_edges@@YAXPEAUstbtt__edge@@H@Z+81
	DD	imagerel $unwind$?stbtt__sort_edges@@YAXPEAUstbtt__edge@@H@Z
pdata	ENDS
;	COMDAT pdata
pdata	SEGMENT
$pdata$?stbtt__rasterize@@YAXPEAUstbtt__bitmap@@PEAUstbtt__point@@PEAHHMMMMHHHPEAX@Z DD imagerel ?stbtt__rasterize@@YAXPEAUstbtt__bitmap@@PEAUstbtt__point@@PEAHHMMMMHHHPEAX@Z
	DD	imagerel ?stbtt__rasterize@@YAXPEAUstbtt__bitmap@@PEAUstbtt__point@@PEAHHMMMMHHHPEAX@Z+1065
	DD	imagerel $unwind$?stbtt__rasterize@@YAXPEAUstbtt__bitmap@@PEAUstbtt__point@@PEAHHMMMMHHHPEAX@Z
pdata	ENDS
;	COMDAT pdata
pdata	SEGMENT
$pdata$?stbtt__add_point@@YAXPEAUstbtt__point@@HMM@Z DD imagerel ?stbtt__add_point@@YAXPEAUstbtt__point@@HMM@Z
	DD	imagerel ?stbtt__add_point@@YAXPEAUstbtt__point@@HMM@Z+124
	DD	imagerel $unwind$?stbtt__add_point@@YAXPEAUstbtt__point@@HMM@Z
pdata	ENDS
;	COMDAT pdata
pdata	SEGMENT
$pdata$?stbtt__tesselate_curve@@YAHPEAUstbtt__point@@PEAHMMMMMMMH@Z DD imagerel ?stbtt__tesselate_curve@@YAHPEAUstbtt__point@@PEAHMMMMMMMH@Z
	DD	imagerel ?stbtt__tesselate_curve@@YAHPEAUstbtt__point@@PEAHMMMMMMMH@Z+636
	DD	imagerel $unwind$?stbtt__tesselate_curve@@YAHPEAUstbtt__point@@PEAHMMMMMMMH@Z
pdata	ENDS
;	COMDAT pdata
pdata	SEGMENT
$pdata$?stbtt__tesselate_cubic@@YAXPEAUstbtt__point@@PEAHMMMMMMMMMH@Z DD imagerel ?stbtt__tesselate_cubic@@YAXPEAUstbtt__point@@PEAHMMMMMMMMMH@Z
	DD	imagerel ?stbtt__tesselate_cubic@@YAXPEAUstbtt__point@@PEAHMMMMMMMMMH@Z+1258
	DD	imagerel $unwind$?stbtt__tesselate_cubic@@YAXPEAUstbtt__point@@PEAHMMMMMMMMMH@Z
pdata	ENDS
;	COMDAT pdata
pdata	SEGMENT
$pdata$?stbtt_FlattenCurves@@YAPEAUstbtt__point@@PEAUstbtt_vertex@@HMPEAPEAHPEAHPEAX@Z DD imagerel ?stbtt_FlattenCurves@@YAPEAUstbtt__point@@PEAUstbtt_vertex@@HMPEAPEAHPEAHPEAX@Z
	DD	imagerel ?stbtt_FlattenCurves@@YAPEAUstbtt__point@@PEAUstbtt_vertex@@HMPEAPEAHPEAHPEAX@Z+1526
	DD	imagerel $unwind$?stbtt_FlattenCurves@@YAPEAUstbtt__point@@PEAUstbtt_vertex@@HMPEAPEAHPEAHPEAX@Z
pdata	ENDS
;	COMDAT pdata
pdata	SEGMENT
$pdata$?stbtt__h_prefilter@@YAXPEAEHHHI@Z DD imagerel ?stbtt__h_prefilter@@YAXPEAEHHHI@Z
	DD	imagerel ?stbtt__h_prefilter@@YAXPEAEHHHI@Z+1209
	DD	imagerel $unwind$?stbtt__h_prefilter@@YAXPEAEHHHI@Z
pdata	ENDS
;	COMDAT pdata
pdata	SEGMENT
$pdata$?stbtt__v_prefilter@@YAXPEAEHHHI@Z DD imagerel ?stbtt__v_prefilter@@YAXPEAEHHHI@Z
	DD	imagerel ?stbtt__v_prefilter@@YAXPEAEHHHI@Z+1365
	DD	imagerel $unwind$?stbtt__v_prefilter@@YAXPEAEHHHI@Z
pdata	ENDS
;	COMDAT pdata
pdata	SEGMENT
$pdata$?stbtt__oversample_shift@@YAMH@Z DD imagerel ?stbtt__oversample_shift@@YAMH@Z
	DD	imagerel ?stbtt__oversample_shift@@YAMH@Z+95
	DD	imagerel $unwind$?stbtt__oversample_shift@@YAMH@Z
pdata	ENDS
;	COMDAT pdata
pdata	SEGMENT
$pdata$??$ImClamp@H@@YAHHHH@Z DD imagerel ??$ImClamp@H@@YAHHHH@Z
	DD	imagerel ??$ImClamp@H@@YAHHHH@Z+135
	DD	imagerel $unwind$??$ImClamp@H@@YAHHHH@Z
pdata	ENDS
;	COMDAT pdata
pdata	SEGMENT
$pdata$??$ImMax@H@@YAHHH@Z DD imagerel ??$ImMax@H@@YAHHH@Z
	DD	imagerel ??$ImMax@H@@YAHHH@Z+90
	DD	imagerel $unwind$??$ImMax@H@@YAHHH@Z
pdata	ENDS
;	COMDAT pdata
pdata	SEGMENT
$pdata$?PathBezierCubicCurveToCasteljau@@YAXPEAU?$ImVector@UImVec2@@@@MMMMMMMMMH@Z DD imagerel ?PathBezierCubicCurveToCasteljau@@YAXPEAU?$ImVector@UImVec2@@@@MMMMMMMMMH@Z
	DD	imagerel ?PathBezierCubicCurveToCasteljau@@YAXPEAU?$ImVector@UImVec2@@@@MMMMMMMMMH@Z+1104
	DD	imagerel $unwind$?PathBezierCubicCurveToCasteljau@@YAXPEAU?$ImVector@UImVec2@@@@MMMMMMMMMH@Z
pdata	ENDS
;	COMDAT pdata
pdata	SEGMENT
$pdata$?PathBezierQuadraticCurveToCasteljau@@YAXPEAU?$ImVector@UImVec2@@@@MMMMMMMH@Z DD imagerel ?PathBezierQuadraticCurveToCasteljau@@YAXPEAU?$ImVector@UImVec2@@@@MMMMMMMH@Z
	DD	imagerel ?PathBezierQuadraticCurveToCasteljau@@YAXPEAU?$ImVector@UImVec2@@@@MMMMMMMH@Z+666
	DD	imagerel $unwind$?PathBezierQuadraticCurveToCasteljau@@YAXPEAU?$ImVector@UImVec2@@@@MMMMMMMH@Z
pdata	ENDS
;	COMDAT pdata
pdata	SEGMENT
$pdata$?FixRectCornerFlags@@YAHH@Z DD imagerel ?FixRectCornerFlags@@YAHH@Z
	DD	imagerel ?FixRectCornerFlags@@YAHH@Z+182
	DD	imagerel $unwind$?FixRectCornerFlags@@YAHH@Z
pdata	ENDS
;	COMDAT pdata
pdata	SEGMENT
$pdata$??$ImClamp@M@@YAMMMM@Z DD imagerel ??$ImClamp@M@@YAMMMM@Z
	DD	imagerel ??$ImClamp@M@@YAMMMM@Z+164
	DD	imagerel $unwind$??$ImClamp@M@@YAMMMM@Z
pdata	ENDS
;	COMDAT pdata
pdata	SEGMENT
$pdata$??__EFONT_ATLAS_DEFAULT_TEX_CURSOR_DATA@@YAXXZ DD imagerel ??__EFONT_ATLAS_DEFAULT_TEX_CURSOR_DATA@@YAXXZ
	DD	imagerel ??__EFONT_ATLAS_DEFAULT_TEX_CURSOR_DATA@@YAXXZ+689
	DD	imagerel $unwind$??__EFONT_ATLAS_DEFAULT_TEX_CURSOR_DATA@@YAXXZ
pdata	ENDS
;	COMDAT pdata
pdata	SEGMENT
$pdata$?stb_decompress_length@@YAIPEBE@Z DD imagerel ?stb_decompress_length@@YAIPEBE@Z
	DD	imagerel ?stb_decompress_length@@YAIPEBE@Z+136
	DD	imagerel $unwind$?stb_decompress_length@@YAIPEBE@Z
pdata	ENDS
;	COMDAT pdata
pdata	SEGMENT
$pdata$?stb_decompress@@YAIPEAEPEBEI@Z DD imagerel ?stb_decompress@@YAIPEAEPEBEI@Z
	DD	imagerel ?stb_decompress@@YAIPEAEPEBEI@Z+842
	DD	imagerel $unwind$?stb_decompress@@YAIPEAEPEBEI@Z
pdata	ENDS
;	COMDAT pdata
pdata	SEGMENT
$pdata$?GetDefaultCompressedFontDataTTFBase85@@YAPEBDXZ DD imagerel ?GetDefaultCompressedFontDataTTFBase85@@YAPEBDXZ
	DD	imagerel ?GetDefaultCompressedFontDataTTFBase85@@YAPEBDXZ+44
	DD	imagerel $unwind$?GetDefaultCompressedFontDataTTFBase85@@YAPEBDXZ
pdata	ENDS
;	COMDAT pdata
pdata	SEGMENT
$pdata$?Decode85Byte@@YAID@Z DD imagerel ?Decode85Byte@@YAID@Z
	DD	imagerel ?Decode85Byte@@YAID@Z+92
	DD	imagerel $unwind$?Decode85Byte@@YAID@Z
pdata	ENDS
;	COMDAT pdata
pdata	SEGMENT
$pdata$?Decode85@@YAXPEBEPEAE@Z DD imagerel ?Decode85@@YAXPEBEPEAE@Z
	DD	imagerel ?Decode85@@YAXPEBEPEAE@Z+426
	DD	imagerel $unwind$?Decode85@@YAXPEBEPEAE@Z
pdata	ENDS
;	COMDAT pdata
pdata	SEGMENT
$pdata$??1ImFontBuildSrcData@@QEAA@XZ DD imagerel $LN3
	DD	imagerel $LN3+71
	DD	imagerel $unwind$??1ImFontBuildSrcData@@QEAA@XZ
pdata	ENDS
;	COMDAT pdata
pdata	SEGMENT
$pdata$??_GImFontBuildSrcData@@QEAAPEAXI@Z DD imagerel $LN4
	DD	imagerel $LN4+82
	DD	imagerel $unwind$??_GImFontBuildSrcData@@QEAAPEAXI@Z
pdata	ENDS
;	COMDAT pdata
pdata	SEGMENT
$pdata$?UnpackBitVectorToFlatIndexList@@YAXPEBUImBitVector@@PEAU?$ImVector@H@@@Z DD imagerel ?UnpackBitVectorToFlatIndexList@@YAXPEBUImBitVector@@PEAU?$ImVector@H@@@Z
	DD	imagerel ?UnpackBitVectorToFlatIndexList@@YAXPEBUImBitVector@@PEAU?$ImVector@H@@@Z+276
	DD	imagerel $unwind$?UnpackBitVectorToFlatIndexList@@YAXPEBUImBitVector@@PEAU?$ImVector@H@@@Z
pdata	ENDS
;	COMDAT pdata
pdata	SEGMENT
$pdata$?ImFontAtlasBuildWithStbTruetype@@YA_NPEAUImFontAtlas@@@Z DD imagerel ?ImFontAtlasBuildWithStbTruetype@@YA_NPEAUImFontAtlas@@@Z
	DD	imagerel ?ImFontAtlasBuildWithStbTruetype@@YA_NPEAUImFontAtlas@@@Z+5933
	DD	imagerel $unwind$?ImFontAtlasBuildWithStbTruetype@@YA_NPEAUImFontAtlas@@@Z
pdata	ENDS
;	COMDAT pdata
pdata	SEGMENT
$pdata$?dtor$0@?0??ImFontAtlasBuildWithStbTruetype@@YA_NPEAUImFontAtlas@@@Z@4HA DD imagerel ?dtor$0@?0??ImFontAtlasBuildWithStbTruetype@@YA_NPEAUImFontAtlas@@@Z@4HA
	DD	imagerel ?dtor$0@?0??ImFontAtlasBuildWithStbTruetype@@YA_NPEAUImFontAtlas@@@Z@4HA+36
	DD	imagerel $unwind$?dtor$0@?0??ImFontAtlasBuildWithStbTruetype@@YA_NPEAUImFontAtlas@@@Z@4HA
pdata	ENDS
;	COMDAT pdata
pdata	SEGMENT
$pdata$?dtor$1@?0??ImFontAtlasBuildWithStbTruetype@@YA_NPEAUImFontAtlas@@@Z@4HA DD imagerel ?dtor$1@?0??ImFontAtlasBuildWithStbTruetype@@YA_NPEAUImFontAtlas@@@Z@4HA
	DD	imagerel ?dtor$1@?0??ImFontAtlasBuildWithStbTruetype@@YA_NPEAUImFontAtlas@@@Z@4HA+36
	DD	imagerel $unwind$?dtor$1@?0??ImFontAtlasBuildWithStbTruetype@@YA_NPEAUImFontAtlas@@@Z@4HA
pdata	ENDS
;	COMDAT pdata
pdata	SEGMENT
$pdata$?dtor$2@?0??ImFontAtlasBuildWithStbTruetype@@YA_NPEAUImFontAtlas@@@Z@4HA DD imagerel ?dtor$2@?0??ImFontAtlasBuildWithStbTruetype@@YA_NPEAUImFontAtlas@@@Z@4HA
	DD	imagerel ?dtor$2@?0??ImFontAtlasBuildWithStbTruetype@@YA_NPEAUImFontAtlas@@@Z@4HA+39
	DD	imagerel $unwind$?dtor$2@?0??ImFontAtlasBuildWithStbTruetype@@YA_NPEAUImFontAtlas@@@Z@4HA
pdata	ENDS
;	COMDAT pdata
pdata	SEGMENT
$pdata$?dtor$3@?0??ImFontAtlasBuildWithStbTruetype@@YA_NPEAUImFontAtlas@@@Z@4HA DD imagerel ?dtor$3@?0??ImFontAtlasBuildWithStbTruetype@@YA_NPEAUImFontAtlas@@@Z@4HA
	DD	imagerel ?dtor$3@?0??ImFontAtlasBuildWithStbTruetype@@YA_NPEAUImFontAtlas@@@Z@4HA+39
	DD	imagerel $unwind$?dtor$3@?0??ImFontAtlasBuildWithStbTruetype@@YA_NPEAUImFontAtlas@@@Z@4HA
pdata	ENDS
;	COMDAT pdata
pdata	SEGMENT
$pdata$??0?$ImVector@UImFontBuildSrcData@@@@QEAA@XZ DD imagerel $LN3
	DD	imagerel $LN3+90
	DD	imagerel $unwind$??0?$ImVector@UImFontBuildSrcData@@@@QEAA@XZ
pdata	ENDS
;	COMDAT pdata
pdata	SEGMENT
$pdata$??1?$ImVector@UImFontBuildSrcData@@@@QEAA@XZ DD imagerel $LN4
	DD	imagerel $LN4+72
	DD	imagerel $unwind$??1?$ImVector@UImFontBuildSrcData@@@@QEAA@XZ
pdata	ENDS
;	COMDAT pdata
pdata	SEGMENT
$pdata$?clear@?$ImVector@UImFontBuildSrcData@@@@QEAAXXZ DD imagerel $LN4
	DD	imagerel $LN4+113
	DD	imagerel $unwind$?clear@?$ImVector@UImFontBuildSrcData@@@@QEAAXXZ
pdata	ENDS
;	COMDAT pdata
pdata	SEGMENT
$pdata$?clear_destruct@?$ImVector@UImFontBuildSrcData@@@@QEAAXXZ DD imagerel $LN6
	DD	imagerel $LN6+129
	DD	imagerel $unwind$?clear_destruct@?$ImVector@UImFontBuildSrcData@@@@QEAAXXZ
pdata	ENDS
;	COMDAT pdata
pdata	SEGMENT
$pdata$?size_in_bytes@?$ImVector@UImFontBuildSrcData@@@@QEBAHXZ DD imagerel $LN3
	DD	imagerel $LN3+54
	DD	imagerel $unwind$?size_in_bytes@?$ImVector@UImFontBuildSrcData@@@@QEBAHXZ
pdata	ENDS
;	COMDAT pdata
pdata	SEGMENT
$pdata$??A?$ImVector@UImFontBuildSrcData@@@@QEAAAEAUImFontBuildSrcData@@H@Z DD imagerel $LN5
	DD	imagerel $LN5+124
	DD	imagerel $unwind$??A?$ImVector@UImFontBuildSrcData@@@@QEAAAEAUImFontBuildSrcData@@H@Z
pdata	ENDS
;	COMDAT pdata
pdata	SEGMENT
$pdata$?_grow_capacity@?$ImVector@UImFontBuildSrcData@@@@QEBAHH@Z DD imagerel $LN7
	DD	imagerel $LN7+150
	DD	imagerel $unwind$?_grow_capacity@?$ImVector@UImFontBuildSrcData@@@@QEBAHH@Z
pdata	ENDS
;	COMDAT pdata
pdata	SEGMENT
$pdata$?resize@?$ImVector@UImFontBuildSrcData@@@@QEAAXH@Z DD imagerel $LN4
	DD	imagerel $LN4+110
	DD	imagerel $unwind$?resize@?$ImVector@UImFontBuildSrcData@@@@QEAAXH@Z
pdata	ENDS
;	COMDAT pdata
pdata	SEGMENT
$pdata$?reserve@?$ImVector@UImFontBuildSrcData@@@@QEAAXH@Z DD imagerel $LN5
	DD	imagerel $LN5+191
	DD	imagerel $unwind$?reserve@?$ImVector@UImFontBuildSrcData@@@@QEAAXH@Z
pdata	ENDS
;	COMDAT pdata
pdata	SEGMENT
$pdata$??0?$ImVector@UImFontBuildDstData@@@@QEAA@XZ DD imagerel $LN3
	DD	imagerel $LN3+90
	DD	imagerel $unwind$??0?$ImVector@UImFontBuildDstData@@@@QEAA@XZ
pdata	ENDS
;	COMDAT pdata
pdata	SEGMENT
$pdata$??1?$ImVector@UImFontBuildDstData@@@@QEAA@XZ DD imagerel $LN4
	DD	imagerel $LN4+72
	DD	imagerel $unwind$??1?$ImVector@UImFontBuildDstData@@@@QEAA@XZ
pdata	ENDS
;	COMDAT pdata
pdata	SEGMENT
$pdata$?clear@?$ImVector@UImFontBuildDstData@@@@QEAAXXZ DD imagerel $LN4
	DD	imagerel $LN4+113
	DD	imagerel $unwind$?clear@?$ImVector@UImFontBuildDstData@@@@QEAAXXZ
pdata	ENDS
;	COMDAT pdata
pdata	SEGMENT
$pdata$?size_in_bytes@?$ImVector@UImFontBuildDstData@@@@QEBAHXZ DD imagerel $LN3
	DD	imagerel $LN3+51
	DD	imagerel $unwind$?size_in_bytes@?$ImVector@UImFontBuildDstData@@@@QEBAHXZ
pdata	ENDS
;	COMDAT pdata
pdata	SEGMENT
$pdata$??A?$ImVector@UImFontBuildDstData@@@@QEAAAEAUImFontBuildDstData@@H@Z DD imagerel $LN5
	DD	imagerel $LN5+121
	DD	imagerel $unwind$??A?$ImVector@UImFontBuildDstData@@@@QEAAAEAUImFontBuildDstData@@H@Z
pdata	ENDS
;	COMDAT pdata
pdata	SEGMENT
$pdata$?_grow_capacity@?$ImVector@UImFontBuildDstData@@@@QEBAHH@Z DD imagerel $LN7
	DD	imagerel $LN7+150
	DD	imagerel $unwind$?_grow_capacity@?$ImVector@UImFontBuildDstData@@@@QEBAHH@Z
pdata	ENDS
;	COMDAT pdata
pdata	SEGMENT
$pdata$?resize@?$ImVector@UImFontBuildDstData@@@@QEAAXH@Z DD imagerel $LN4
	DD	imagerel $LN4+110
	DD	imagerel $unwind$?resize@?$ImVector@UImFontBuildDstData@@@@QEAAXH@Z
pdata	ENDS
;	COMDAT pdata
pdata	SEGMENT
$pdata$?reserve@?$ImVector@UImFontBuildDstData@@@@QEAAXH@Z DD imagerel $LN5
	DD	imagerel $LN5+185
	DD	imagerel $unwind$?reserve@?$ImVector@UImFontBuildDstData@@@@QEAAXH@Z
pdata	ENDS
;	COMDAT pdata
pdata	SEGMENT
$pdata$??0?$ImVector@Ustbrp_rect@@@@QEAA@XZ DD imagerel $LN3
	DD	imagerel $LN3+90
	DD	imagerel $unwind$??0?$ImVector@Ustbrp_rect@@@@QEAA@XZ
pdata	ENDS
;	COMDAT pdata
pdata	SEGMENT
$pdata$??1?$ImVector@Ustbrp_rect@@@@QEAA@XZ DD imagerel $LN4
	DD	imagerel $LN4+72
	DD	imagerel $unwind$??1?$ImVector@Ustbrp_rect@@@@QEAA@XZ
pdata	ENDS
;	COMDAT pdata
pdata	SEGMENT
$pdata$?clear@?$ImVector@Ustbrp_rect@@@@QEAAXXZ DD imagerel $LN4
	DD	imagerel $LN4+113
	DD	imagerel $unwind$?clear@?$ImVector@Ustbrp_rect@@@@QEAAXXZ
pdata	ENDS
;	COMDAT pdata
pdata	SEGMENT
$pdata$?size_in_bytes@?$ImVector@Ustbrp_rect@@@@QEBAHXZ DD imagerel $LN3
	DD	imagerel $LN3+51
	DD	imagerel $unwind$?size_in_bytes@?$ImVector@Ustbrp_rect@@@@QEBAHXZ
pdata	ENDS
;	COMDAT pdata
pdata	SEGMENT
$pdata$??A?$ImVector@Ustbrp_rect@@@@QEAAAEAUstbrp_rect@@H@Z DD imagerel $LN5
	DD	imagerel $LN5+121
	DD	imagerel $unwind$??A?$ImVector@Ustbrp_rect@@@@QEAAAEAUstbrp_rect@@H@Z
pdata	ENDS
;	COMDAT pdata
pdata	SEGMENT
$pdata$?_grow_capacity@?$ImVector@Ustbrp_rect@@@@QEBAHH@Z DD imagerel $LN7
	DD	imagerel $LN7+150
	DD	imagerel $unwind$?_grow_capacity@?$ImVector@Ustbrp_rect@@@@QEBAHH@Z
pdata	ENDS
;	COMDAT pdata
pdata	SEGMENT
$pdata$?resize@?$ImVector@Ustbrp_rect@@@@QEAAXH@Z DD imagerel $LN4
	DD	imagerel $LN4+110
	DD	imagerel $unwind$?resize@?$ImVector@Ustbrp_rect@@@@QEAAXH@Z
pdata	ENDS
;	COMDAT pdata
pdata	SEGMENT
$pdata$?reserve@?$ImVector@Ustbrp_rect@@@@QEAAXH@Z DD imagerel $LN5
	DD	imagerel $LN5+185
	DD	imagerel $unwind$?reserve@?$ImVector@Ustbrp_rect@@@@QEAAXH@Z
pdata	ENDS
;	COMDAT pdata
pdata	SEGMENT
$pdata$??0?$ImVector@Ustbtt_packedchar@@@@QEAA@XZ DD imagerel $LN3
	DD	imagerel $LN3+90
	DD	imagerel $unwind$??0?$ImVector@Ustbtt_packedchar@@@@QEAA@XZ
pdata	ENDS
;	COMDAT pdata
pdata	SEGMENT
$pdata$??1?$ImVector@Ustbtt_packedchar@@@@QEAA@XZ DD imagerel $LN4
	DD	imagerel $LN4+72
	DD	imagerel $unwind$??1?$ImVector@Ustbtt_packedchar@@@@QEAA@XZ
pdata	ENDS
;	COMDAT pdata
pdata	SEGMENT
$pdata$?size_in_bytes@?$ImVector@Ustbtt_packedchar@@@@QEBAHXZ DD imagerel $LN3
	DD	imagerel $LN3+51
	DD	imagerel $unwind$?size_in_bytes@?$ImVector@Ustbtt_packedchar@@@@QEBAHXZ
pdata	ENDS
;	COMDAT pdata
pdata	SEGMENT
$pdata$??A?$ImVector@Ustbtt_packedchar@@@@QEAAAEAUstbtt_packedchar@@H@Z DD imagerel $LN5
	DD	imagerel $LN5+121
	DD	imagerel $unwind$??A?$ImVector@Ustbtt_packedchar@@@@QEAAAEAUstbtt_packedchar@@H@Z
pdata	ENDS
;	COMDAT pdata
pdata	SEGMENT
$pdata$?_grow_capacity@?$ImVector@Ustbtt_packedchar@@@@QEBAHH@Z DD imagerel $LN7
	DD	imagerel $LN7+150
	DD	imagerel $unwind$?_grow_capacity@?$ImVector@Ustbtt_packedchar@@@@QEBAHH@Z
pdata	ENDS
;	COMDAT pdata
pdata	SEGMENT
$pdata$?resize@?$ImVector@Ustbtt_packedchar@@@@QEAAXH@Z DD imagerel $LN4
	DD	imagerel $LN4+110
	DD	imagerel $unwind$?resize@?$ImVector@Ustbtt_packedchar@@@@QEAAXH@Z
pdata	ENDS
;	COMDAT pdata
pdata	SEGMENT
$pdata$?reserve@?$ImVector@Ustbtt_packedchar@@@@QEAAXH@Z DD imagerel $LN5
	DD	imagerel $LN5+185
	DD	imagerel $unwind$?reserve@?$ImVector@Ustbtt_packedchar@@@@QEAAXH@Z
pdata	ENDS
;	COMDAT pdata
pdata	SEGMENT
$pdata$?ImFontAtlasBuildRenderDefaultTexData@@YAXPEAUImFontAtlas@@@Z DD imagerel ?ImFontAtlasBuildRenderDefaultTexData@@YAXPEAUImFontAtlas@@@Z
	DD	imagerel ?ImFontAtlasBuildRenderDefaultTexData@@YAXPEAUImFontAtlas@@@Z+943
	DD	imagerel $unwind$?ImFontAtlasBuildRenderDefaultTexData@@YAXPEAUImFontAtlas@@@Z
pdata	ENDS
;	COMDAT pdata
pdata	SEGMENT
$pdata$?ImFontAtlasBuildRenderLinesTexData@@YAXPEAUImFontAtlas@@@Z DD imagerel ?ImFontAtlasBuildRenderLinesTexData@@YAXPEAUImFontAtlas@@@Z
	DD	imagerel ?ImFontAtlasBuildRenderLinesTexData@@YAXPEAUImFontAtlas@@@Z+1261
	DD	imagerel $unwind$?ImFontAtlasBuildRenderLinesTexData@@YAXPEAUImFontAtlas@@@Z
pdata	ENDS
;	COMDAT pdata
pdata	SEGMENT
$pdata$?UnpackAccumulativeOffsetsIntoRanges@@YAXHPEBFHPEAG@Z DD imagerel ?UnpackAccumulativeOffsetsIntoRanges@@YAXHPEBFHPEAG@Z
	DD	imagerel ?UnpackAccumulativeOffsetsIntoRanges@@YAXHPEBFHPEAG@Z+242
	DD	imagerel $unwind$?UnpackAccumulativeOffsetsIntoRanges@@YAXHPEBFHPEAG@Z
pdata	ENDS
;	COMDAT pdata
pdata	SEGMENT
$pdata$?FindFirstExistingGlyph@@YAGPEAUImFont@@PEBGH@Z DD imagerel ?FindFirstExistingGlyph@@YAGPEAUImFont@@PEBGH@Z
	DD	imagerel ?FindFirstExistingGlyph@@YAGPEAUImFont@@PEBGH@Z+135
	DD	imagerel $unwind$?FindFirstExistingGlyph@@YAGPEAUImFont@@PEBGH@Z
pdata	ENDS
;	COMDAT pdata
pdata	SEGMENT
$pdata$?ImAcos01@@YAMM@Z DD imagerel ?ImAcos01@@YAMM@Z
	DD	imagerel ?ImAcos01@@YAMM@Z+99
	DD	imagerel $unwind$?ImAcos01@@YAMM@Z
pdata	ENDS
;	COMDAT pdata
pdata	SEGMENT
$pdata$??$ImSwap@M@@YAXAEAM0@Z DD imagerel ??$ImSwap@M@@YAXAEAM0@Z
	DD	imagerel ??$ImSwap@M@@YAXAEAM0@Z+100
	DD	imagerel $unwind$??$ImSwap@M@@YAXAEAM0@Z
pdata	ENDS
;	COMDAT pdata
pdata	SEGMENT
$pdata$??$ImLerp@M@@YAMMMM@Z DD imagerel ??$ImLerp@M@@YAMMMM@Z
	DD	imagerel ??$ImLerp@M@@YAMMMM@Z+93
	DD	imagerel $unwind$??$ImLerp@M@@YAMMMM@Z
pdata	ENDS
;	COMDAT pdata
pdata	SEGMENT
$pdata$?stb__match@@YAXPEBEI@Z DD imagerel ?stb__match@@YAXPEBEI@Z
	DD	imagerel ?stb__match@@YAXPEBEI@Z+304
	DD	imagerel $unwind$?stb__match@@YAXPEBEI@Z
pdata	ENDS
;	COMDAT pdata
pdata	SEGMENT
$pdata$?stb__lit@@YAXPEBEI@Z DD imagerel ?stb__lit@@YAXPEBEI@Z
	DD	imagerel ?stb__lit@@YAXPEBEI@Z+249
	DD	imagerel $unwind$?stb__lit@@YAXPEBEI@Z
pdata	ENDS
;	COMDAT pdata
pdata	SEGMENT
$pdata$?stb_decompress_token@@YAPEBEPEBE@Z DD imagerel ?stb_decompress_token@@YAPEBEPEBE@Z
	DD	imagerel ?stb_decompress_token@@YAPEBEPEBE@Z+1419
	DD	imagerel $unwind$?stb_decompress_token@@YAPEBEPEBE@Z
pdata	ENDS
;	COMDAT pdata
pdata	SEGMENT
$pdata$?stb_adler32@@YAIIPEAEI@Z DD imagerel ?stb_adler32@@YAIIPEAEI@Z
	DD	imagerel ?stb_adler32@@YAIIPEAEI@Z+693
	DD	imagerel $unwind$?stb_adler32@@YAIIPEAEI@Z
pdata	ENDS
;	COMDAT pdata
pdata	SEGMENT
$pdata$??$IM_DELETE@UImFont@@@@YAXPEAUImFont@@@Z DD imagerel $LN4
	DD	imagerel $LN4+77
	DD	imagerel $unwind$??$IM_DELETE@UImFont@@@@YAXPEAUImFont@@@Z
pdata	ENDS
CRT$XCU	SEGMENT
?FONT_ATLAS_DEFAULT_TEX_CURSOR_DATA$initializer$@@3P6AXXZEA DQ FLAT:??__EFONT_ATLAS_DEFAULT_TEX_CURSOR_DATA@@YAXXZ ; FONT_ATLAS_DEFAULT_TEX_CURSOR_DATA$initializer$
CRT$XCU	ENDS
;	COMDAT __xmm@80000000800000008000000080000000
CONST	SEGMENT
__xmm@80000000800000008000000080000000 DB 00H, 00H, 00H, 080H, 00H, 00H, 00H
	DB	080H, 00H, 00H, 00H, 080H, 00H, 00H, 00H, 080H
CONST	ENDS
;	COMDAT __xmm@7fffffffffffffff7fffffffffffffff
CONST	SEGMENT
__xmm@7fffffffffffffff7fffffffffffffff DB 0ffH, 0ffH, 0ffH, 0ffH, 0ffH, 0ffH
	DB	0ffH, 07fH, 0ffH, 0ffH, 0ffH, 0ffH, 0ffH, 0ffH, 0ffH, 07fH
CONST	ENDS
;	COMDAT __real@bf800000
CONST	SEGMENT
__real@bf800000 DD 0bf800000r			; -1
CONST	ENDS
;	COMDAT __real@bf5db22d
CONST	SEGMENT
__real@bf5db22d DD 0bf5db22dr			; -0.866
CONST	ENDS
;	COMDAT __real@bf400000
CONST	SEGMENT
__real@bf400000 DD 0bf400000r			; -0.75
CONST	ENDS
;	COMDAT __real@7f7fffff
CONST	SEGMENT
__real@7f7fffff DD 07f7fffffr			; 3.40282e+38
CONST	ENDS
;	COMDAT __real@47800000
CONST	SEGMENT
__real@47800000 DD 047800000r			; 65536
CONST	ENDS
;	COMDAT __real@46800000
CONST	SEGMENT
__real@46800000 DD 046800000r			; 16384
CONST	ENDS
;	COMDAT __real@45333333
CONST	SEGMENT
__real@45333333 DD 045333333r			; 2867.2
CONST	ENDS
;	COMDAT __real@44b33333
CONST	SEGMENT
__real@44b33333 DD 044b33333r			; 1433.6
CONST	ENDS
;	COMDAT __real@44333333
CONST	SEGMENT
__real@44333333 DD 044333333r			; 716.8
CONST	ENDS
;	COMDAT __real@437f0000
CONST	SEGMENT
__real@437f0000 DD 0437f0000r			; 255
CONST	ENDS
;	COMDAT __real@42da0000
CONST	SEGMENT
__real@42da0000 DD 042da0000r			; 109
CONST	ENDS
;	COMDAT __real@42c80000
CONST	SEGMENT
__real@42c80000 DD 042c80000r			; 100
CONST	ENDS
;	COMDAT __real@42b60000
CONST	SEGMENT
__real@42b60000 DD 042b60000r			; 91
CONST	ENDS
;	COMDAT __real@42920000
CONST	SEGMENT
__real@42920000 DD 042920000r			; 73
CONST	ENDS
;	COMDAT __real@425c0000
CONST	SEGMENT
__real@425c0000 DD 0425c0000r			; 55
CONST	ENDS
;	COMDAT __real@42400000
CONST	SEGMENT
__real@42400000 DD 042400000r			; 48
CONST	ENDS
;	COMDAT __real@41f80000
CONST	SEGMENT
__real@41f80000 DD 041f80000r			; 31
CONST	ENDS
;	COMDAT __real@41b80000
CONST	SEGMENT
__real@41b80000 DD 041b80000r			; 23
CONST	ENDS
;	COMDAT __real@41b00000
CONST	SEGMENT
__real@41b00000 DD 041b00000r			; 22
CONST	ENDS
;	COMDAT __real@41a80000
CONST	SEGMENT
__real@41a80000 DD 041a80000r			; 21
CONST	ENDS
;	COMDAT __real@41980000
CONST	SEGMENT
__real@41980000 DD 041980000r			; 19
CONST	ENDS
;	COMDAT __real@41900000
CONST	SEGMENT
__real@41900000 DD 041900000r			; 18
CONST	ENDS
;	COMDAT __real@41880000
CONST	SEGMENT
__real@41880000 DD 041880000r			; 17
CONST	ENDS
;	COMDAT __real@41800000
CONST	SEGMENT
__real@41800000 DD 041800000r			; 16
CONST	ENDS
;	COMDAT __real@41500000
CONST	SEGMENT
__real@41500000 DD 041500000r			; 13
CONST	ENDS
;	COMDAT __real@41400000
CONST	SEGMENT
__real@41400000 DD 041400000r			; 12
CONST	ENDS
;	COMDAT __real@41300000
CONST	SEGMENT
__real@41300000 DD 041300000r			; 11
CONST	ENDS
;	COMDAT __real@41100000
CONST	SEGMENT
__real@41100000 DD 041100000r			; 9
CONST	ENDS
;	COMDAT __real@41000000
CONST	SEGMENT
__real@41000000 DD 041000000r			; 8
CONST	ENDS
;	COMDAT __real@40e00000
CONST	SEGMENT
__real@40e00000 DD 040e00000r			; 7
CONST	ENDS
;	COMDAT __real@40c90fdb
CONST	SEGMENT
__real@40c90fdb DD 040c90fdbr			; 6.28319
CONST	ENDS
;	COMDAT __real@40a00000
CONST	SEGMENT
__real@40a00000 DD 040a00000r			; 5
CONST	ENDS
;	COMDAT __real@40800000
CONST	SEGMENT
__real@40800000 DD 040800000r			; 4
CONST	ENDS
;	COMDAT __real@40490fdb
CONST	SEGMENT
__real@40490fdb DD 040490fdbr			; 3.14159
CONST	ENDS
;	COMDAT __real@40400000
CONST	SEGMENT
__real@40400000 DD 040400000r			; 3
CONST	ENDS
;	COMDAT __real@40000000
CONST	SEGMENT
__real@40000000 DD 040000000r			; 2
CONST	ENDS
;	COMDAT __real@3fc90fdb
CONST	SEGMENT
__real@3fc90fdb DD 03fc90fdbr			; 1.5708
CONST	ENDS
;	COMDAT __real@3f8147ae
CONST	SEGMENT
__real@3f8147ae DD 03f8147aer			; 1.01
CONST	ENDS
;	COMDAT __real@3f800000
CONST	SEGMENT
__real@3f800000 DD 03f800000r			; 1
CONST	ENDS
;	COMDAT __real@3f7fffef
CONST	SEGMENT
__real@3f7fffef DD 03f7fffefr			; 0.999999
CONST	ENDS
;	COMDAT __real@3f7d70a4
CONST	SEGMENT
__real@3f7d70a4 DD 03f7d70a4r			; 0.99
CONST	ENDS
;	COMDAT __real@3f7ae148
CONST	SEGMENT
__real@3f7ae148 DD 03f7ae148r			; 0.98
CONST	ENDS
;	COMDAT __real@3f75c28f
CONST	SEGMENT
__real@3f75c28f DD 03f75c28fr			; 0.96
CONST	ENDS
;	COMDAT __real@3f733333
CONST	SEGMENT
__real@3f733333 DD 03f733333r			; 0.95
CONST	ENDS
;	COMDAT __real@3f70a3d7
CONST	SEGMENT
__real@3f70a3d7 DD 03f70a3d7r			; 0.94
CONST	ENDS
;	COMDAT __real@3f6b851f
CONST	SEGMENT
__real@3f6b851f DD 03f6b851fr			; 0.92
CONST	ENDS
;	COMDAT __real@3f666666
CONST	SEGMENT
__real@3f666666 DD 03f666666r			; 0.9
CONST	ENDS
;	COMDAT __real@3f6147ae
CONST	SEGMENT
__real@3f6147ae DD 03f6147aer			; 0.88
CONST	ENDS
;	COMDAT __real@3f5eb852
CONST	SEGMENT
__real@3f5eb852 DD 03f5eb852r			; 0.87
CONST	ENDS
;	COMDAT __real@3f5db22d
CONST	SEGMENT
__real@3f5db22d DD 03f5db22dr			; 0.866
CONST	ENDS
;	COMDAT __real@3f5c28f6
CONST	SEGMENT
__real@3f5c28f6 DD 03f5c28f6r			; 0.86
CONST	ENDS
;	COMDAT __real@3f59999a
CONST	SEGMENT
__real@3f59999a DD 03f59999ar			; 0.85
CONST	ENDS
;	COMDAT __real@3f547ae1
CONST	SEGMENT
__real@3f547ae1 DD 03f547ae1r			; 0.83
CONST	ENDS
;	COMDAT __real@3f51eb85
CONST	SEGMENT
__real@3f51eb85 DD 03f51eb85r			; 0.82
CONST	ENDS
;	COMDAT __real@3f4ccccd
CONST	SEGMENT
__real@3f4ccccd DD 03f4ccccdr			; 0.8
CONST	ENDS
;	COMDAT __real@3f4a3d71
CONST	SEGMENT
__real@3f4a3d71 DD 03f4a3d71r			; 0.79
CONST	ENDS
;	COMDAT __real@3f47ae14
CONST	SEGMENT
__real@3f47ae14 DD 03f47ae14r			; 0.78
CONST	ENDS
;	COMDAT __real@3f400000
CONST	SEGMENT
__real@3f400000 DD 03f400000r			; 0.75
CONST	ENDS
;	COMDAT __real@3f3d70a4
CONST	SEGMENT
__real@3f3d70a4 DD 03f3d70a4r			; 0.74
CONST	ENDS
;	COMDAT __real@3f35c28f
CONST	SEGMENT
__real@3f35c28f DD 03f35c28fr			; 0.71
CONST	ENDS
;	COMDAT __real@3f333333
CONST	SEGMENT
__real@3f333333 DD 03f333333r			; 0.7
CONST	ENDS
;	COMDAT __real@3f30a3d7
CONST	SEGMENT
__real@3f30a3d7 DD 03f30a3d7r			; 0.69
CONST	ENDS
;	COMDAT __real@3f2e147b
CONST	SEGMENT
__real@3f2e147b DD 03f2e147br			; 0.68
CONST	ENDS
;	COMDAT __real@3f2b851f
CONST	SEGMENT
__real@3f2b851f DD 03f2b851fr			; 0.67
CONST	ENDS
;	COMDAT __real@3f23d70a
CONST	SEGMENT
__real@3f23d70a DD 03f23d70ar			; 0.64
CONST	ENDS
;	COMDAT __real@3f2147ae
CONST	SEGMENT
__real@3f2147ae DD 03f2147aer			; 0.63
CONST	ENDS
;	COMDAT __real@3f1eb852
CONST	SEGMENT
__real@3f1eb852 DD 03f1eb852r			; 0.62
CONST	ENDS
;	COMDAT __real@3f1c28f6
CONST	SEGMENT
__real@3f1c28f6 DD 03f1c28f6r			; 0.61
CONST	ENDS
;	COMDAT __real@3f19999a
CONST	SEGMENT
__real@3f19999a DD 03f19999ar			; 0.6
CONST	ENDS
;	COMDAT __real@3f170a3d
CONST	SEGMENT
__real@3f170a3d DD 03f170a3dr			; 0.59
CONST	ENDS
;	COMDAT __real@3f11eb85
CONST	SEGMENT
__real@3f11eb85 DD 03f11eb85r			; 0.57
CONST	ENDS
;	COMDAT __real@3f0ccccd
CONST	SEGMENT
__real@3f0ccccd DD 03f0ccccdr			; 0.55
CONST	ENDS
;	COMDAT __real@3f0a3d71
CONST	SEGMENT
__real@3f0a3d71 DD 03f0a3d71r			; 0.54
CONST	ENDS
;	COMDAT __real@3f07ae14
CONST	SEGMENT
__real@3f07ae14 DD 03f07ae14r			; 0.53
CONST	ENDS
;	COMDAT __real@3f051eb8
CONST	SEGMENT
__real@3f051eb8 DD 03f051eb8r			; 0.52
CONST	ENDS
;	COMDAT __real@3f028f5c
CONST	SEGMENT
__real@3f028f5c DD 03f028f5cr			; 0.51
CONST	ENDS
;	COMDAT __real@3f000000
CONST	SEGMENT
__real@3f000000 DD 03f000000r			; 0.5
CONST	ENDS
;	COMDAT __real@3efae148
CONST	SEGMENT
__real@3efae148 DD 03efae148r			; 0.49
CONST	ENDS
;	COMDAT __real@3ef5c28f
CONST	SEGMENT
__real@3ef5c28f DD 03ef5c28fr			; 0.48
CONST	ENDS
;	COMDAT __real@3ef0a3d7
CONST	SEGMENT
__real@3ef0a3d7 DD 03ef0a3d7r			; 0.47
CONST	ENDS
;	COMDAT __real@3eeb851f
CONST	SEGMENT
__real@3eeb851f DD 03eeb851fr			; 0.46
CONST	ENDS
;	COMDAT __real@3ee66666
CONST	SEGMENT
__real@3ee66666 DD 03ee66666r			; 0.45
CONST	ENDS
;	COMDAT __real@3ee147ae
CONST	SEGMENT
__real@3ee147ae DD 03ee147aer			; 0.44
CONST	ENDS
;	COMDAT __real@3edc28f6
CONST	SEGMENT
__real@3edc28f6 DD 03edc28f6r			; 0.43
CONST	ENDS
;	COMDAT __real@3ed70a3d
CONST	SEGMENT
__real@3ed70a3d DD 03ed70a3dr			; 0.42
CONST	ENDS
;	COMDAT __real@3ed1eb85
CONST	SEGMENT
__real@3ed1eb85 DD 03ed1eb85r			; 0.41
CONST	ENDS
;	COMDAT __real@3ecccccd
CONST	SEGMENT
__real@3ecccccd DD 03ecccccdr			; 0.4
CONST	ENDS
;	COMDAT __real@3ec7ae14
CONST	SEGMENT
__real@3ec7ae14 DD 03ec7ae14r			; 0.39
CONST	ENDS
;	COMDAT __real@3ec28f5c
CONST	SEGMENT
__real@3ec28f5c DD 03ec28f5cr			; 0.38
CONST	ENDS
;	COMDAT __real@3eb33333
CONST	SEGMENT
__real@3eb33333 DD 03eb33333r			; 0.35
CONST	ENDS
;	COMDAT __real@3ea3d70a
CONST	SEGMENT
__real@3ea3d70a DD 03ea3d70ar			; 0.32
CONST	ENDS
;	COMDAT __real@3e9eb852
CONST	SEGMENT
__real@3e9eb852 DD 03e9eb852r			; 0.31
CONST	ENDS
;	COMDAT __real@3e99999a
CONST	SEGMENT
__real@3e99999a DD 03e99999ar			; 0.3
CONST	ENDS
;	COMDAT __real@3e947ae1
CONST	SEGMENT
__real@3e947ae1 DD 03e947ae1r			; 0.29
CONST	ENDS
;	COMDAT __real@3e8f5c29
CONST	SEGMENT
__real@3e8f5c29 DD 03e8f5c29r			; 0.28
CONST	ENDS
;	COMDAT __real@3e8a3d71
CONST	SEGMENT
__real@3e8a3d71 DD 03e8a3d71r			; 0.27
CONST	ENDS
;	COMDAT __real@3e851eb8
CONST	SEGMENT
__real@3e851eb8 DD 03e851eb8r			; 0.26
CONST	ENDS
;	COMDAT __real@3e800000
CONST	SEGMENT
__real@3e800000 DD 03e800000r			; 0.25
CONST	ENDS
;	COMDAT __real@3e75c28f
CONST	SEGMENT
__real@3e75c28f DD 03e75c28fr			; 0.24
CONST	ENDS
;	COMDAT __real@3e6b851f
CONST	SEGMENT
__real@3e6b851f DD 03e6b851fr			; 0.23
CONST	ENDS
;	COMDAT __real@3e4ccccd
CONST	SEGMENT
__real@3e4ccccd DD 03e4ccccdr			; 0.2
CONST	ENDS
;	COMDAT __real@3e428f5c
CONST	SEGMENT
__real@3e428f5c DD 03e428f5cr			; 0.19
CONST	ENDS
;	COMDAT __real@3e2e147b
CONST	SEGMENT
__real@3e2e147b DD 03e2e147br			; 0.17
CONST	ENDS
;	COMDAT __real@3e23d70a
CONST	SEGMENT
__real@3e23d70a DD 03e23d70ar			; 0.16
CONST	ENDS
;	COMDAT __real@3e0f5c29
CONST	SEGMENT
__real@3e0f5c29 DD 03e0f5c29r			; 0.14
CONST	ENDS
;	COMDAT __real@3de147ae
CONST	SEGMENT
__real@3de147ae DD 03de147aer			; 0.11
CONST	ENDS
;	COMDAT __real@3dcccccd
CONST	SEGMENT
__real@3dcccccd DD 03dcccccdr			; 0.1
CONST	ENDS
;	COMDAT __real@3db851ec
CONST	SEGMENT
__real@3db851ec DD 03db851ecr			; 0.09
CONST	ENDS
;	COMDAT __real@3da3d70a
CONST	SEGMENT
__real@3da3d70a DD 03da3d70ar			; 0.08
CONST	ENDS
;	COMDAT __real@3d8f5c29
CONST	SEGMENT
__real@3d8f5c29 DD 03d8f5c29r			; 0.07
CONST	ENDS
;	COMDAT __real@3d75c28f
CONST	SEGMENT
__real@3d75c28f DD 03d75c28fr			; 0.06
CONST	ENDS
;	COMDAT __real@3d23d70a
CONST	SEGMENT
__real@3d23d70a DD 03d23d70ar			; 0.04
CONST	ENDS
;	COMDAT __real@3ca3d70a
CONST	SEGMENT
__real@3ca3d70a DD 03ca3d70ar			; 0.02
CONST	ENDS
;	COMDAT __real@3727c5ac
CONST	SEGMENT
__real@3727c5ac DD 03727c5acr			; 1e-05
CONST	ENDS
;	COMDAT __real@358637bd
CONST	SEGMENT
__real@358637bd DD 0358637bdr			; 1e-06
CONST	ENDS
;	COMDAT __real@00000000
CONST	SEGMENT
__real@00000000 DD 000000000r			; 0
CONST	ENDS
;	COMDAT rtc$TMZ
rtc$TMZ	SEGMENT
_RTC_Shutdown.rtc$TMZ DQ FLAT:_RTC_Shutdown
rtc$TMZ	ENDS
;	COMDAT rtc$IMZ
rtc$IMZ	SEGMENT
_RTC_InitBase.rtc$IMZ DQ FLAT:_RTC_InitBase
rtc$IMZ	ENDS
;	COMDAT ??_C@_1CC@BPLGCGDC@?$AAn?$AAe?$AAw?$AA_?$AAs?$AAi?$AAz?$AAe?$AA?5?$AA?$DM?$AA?$DN?$AA?5?$AAS?$AAi?$AAz@
CONST	SEGMENT
??_C@_1CC@BPLGCGDC@?$AAn?$AAe?$AAw?$AA_?$AAs?$AAi?$AAz?$AAe?$AA?5?$AA?$DM?$AA?$DN?$AA?5?$AAS?$AAi?$AAz@ DB 'n'
	DB	00H, 'e', 00H, 'w', 00H, '_', 00H, 's', 00H, 'i', 00H, 'z', 00H
	DB	'e', 00H, ' ', 00H, '<', 00H, '=', 00H, ' ', 00H, 'S', 00H, 'i'
	DB	00H, 'z', 00H, 'e', 00H, 00H, 00H		; `string'
CONST	ENDS
;	COMDAT ??_C@_1BC@KCECIPDP@?$AAS?$AAi?$AAz?$AAe?$AA?5?$AA?$DO?$AA?5?$AA0@
CONST	SEGMENT
??_C@_1BC@KCECIPDP@?$AAS?$AAi?$AAz?$AAe?$AA?5?$AA?$DO?$AA?5?$AA0@ DB 'S', 00H
	DB	'i', 00H, 'z', 00H, 'e', 00H, ' ', 00H, '>', 00H, ' ', 00H, '0'
	DB	00H, 00H, 00H				; `string'
CONST	ENDS
;	COMDAT ??_C@_1DO@NPHOAPAC@?$AAi?$AAt?$AA?5?$AA?$DO?$AA?$DN?$AA?5?$AAD?$AAa?$AAt?$AAa?$AA?5?$AA?$CG?$AA?$CG?$AA?5?$AAi@
CONST	SEGMENT
??_C@_1DO@NPHOAPAC@?$AAi?$AAt?$AA?5?$AA?$DO?$AA?$DN?$AA?5?$AAD?$AAa?$AAt?$AAa?$AA?5?$AA?$CG?$AA?$CG?$AA?5?$AAi@ DB 'i'
	DB	00H, 't', 00H, ' ', 00H, '>', 00H, '=', 00H, ' ', 00H, 'D', 00H
	DB	'a', 00H, 't', 00H, 'a', 00H, ' ', 00H, '&', 00H, '&', 00H, ' '
	DB	00H, 'i', 00H, 't', 00H, ' ', 00H, '<', 00H, ' ', 00H, 'D', 00H
	DB	'a', 00H, 't', 00H, 'a', 00H, ' ', 00H, '+', 00H, ' ', 00H, 'S'
	DB	00H, 'i', 00H, 'z', 00H, 'e', 00H, 00H, 00H	; `string'
CONST	ENDS
;	COMDAT ??_C@_1CG@GPMNJCJ@?$AAi?$AA?5?$AA?$DO?$AA?$DN?$AA?5?$AA0?$AA?5?$AA?$CG?$AA?$CG?$AA?5?$AAi?$AA?5?$AA?$DM?$AA?5?$AAS@
CONST	SEGMENT
??_C@_1CG@GPMNJCJ@?$AAi?$AA?5?$AA?$DO?$AA?$DN?$AA?5?$AA0?$AA?5?$AA?$CG?$AA?$CG?$AA?5?$AAi?$AA?5?$AA?$DM?$AA?5?$AAS@ DB 'i'
	DB	00H, ' ', 00H, '>', 00H, '=', 00H, ' ', 00H, '0', 00H, ' ', 00H
	DB	'&', 00H, '&', 00H, ' ', 00H, 'i', 00H, ' ', 00H, '<', 00H, ' '
	DB	00H, 'S', 00H, 'i', 00H, 'z', 00H, 'e', 00H, 00H, 00H ; `string'
CONST	ENDS
;	COMDAT ??_C@_1DG@EGIPGKEG@?$AAs?$AAt?$AAb?$AA_?$AA_?$AAd?$AAo?$AAu?$AAt?$AA?5?$AA?$DM?$AA?$DN?$AA?5?$AAo?$AAu@
CONST	SEGMENT
??_C@_1DG@EGIPGKEG@?$AAs?$AAt?$AAb?$AA_?$AA_?$AAd?$AAo?$AAu?$AAt?$AA?5?$AA?$DM?$AA?$DN?$AA?5?$AAo?$AAu@ DB 's'
	DB	00H, 't', 00H, 'b', 00H, '_', 00H, '_', 00H, 'd', 00H, 'o', 00H
	DB	'u', 00H, 't', 00H, ' ', 00H, '<', 00H, '=', 00H, ' ', 00H, 'o'
	DB	00H, 'u', 00H, 't', 00H, 'p', 00H, 'u', 00H, 't', 00H, ' ', 00H
	DB	'+', 00H, ' ', 00H, 'o', 00H, 'l', 00H, 'e', 00H, 'n', 00H, 00H
	DB	00H						; `string'
CONST	ENDS
;	COMDAT ??_C@_1DG@GCANDLHA@?$AAs?$AAt?$AAb?$AA_?$AA_?$AAd?$AAo?$AAu?$AAt?$AA?5?$AA?$DN?$AA?$DN?$AA?5?$AAo?$AAu@
CONST	SEGMENT
??_C@_1DG@GCANDLHA@?$AAs?$AAt?$AAb?$AA_?$AA_?$AAd?$AAo?$AAu?$AAt?$AA?5?$AA?$DN?$AA?$DN?$AA?5?$AAo?$AAu@ DB 's'
	DB	00H, 't', 00H, 'b', 00H, '_', 00H, '_', 00H, 'd', 00H, 'o', 00H
	DB	'u', 00H, 't', 00H, ' ', 00H, '=', 00H, '=', 00H, ' ', 00H, 'o'
	DB	00H, 'u', 00H, 't', 00H, 'p', 00H, 'u', 00H, 't', 00H, ' ', 00H
	DB	'+', 00H, ' ', 00H, 'o', 00H, 'l', 00H, 'e', 00H, 'n', 00H, 00H
	DB	00H						; `string'
CONST	ENDS
;	COMDAT ?__LINE__Var@?0??stb_decompress@@YAIPEAEPEBEI@Z@4JA
_DATA	SEGMENT
?__LINE__Var@?0??stb_decompress@@YAIPEAEPEBEI@Z@4JA DD 0fcdH ; `stb_decompress'::`1'::__LINE__Var
_DATA	ENDS
;	COMDAT ?__LINE__Var@?0??stb__lit@@YAXPEBEI@Z@4JA
_DATA	SEGMENT
?__LINE__Var@?0??stb__lit@@YAXPEBEI@Z@4JA DD 0f90H	; `stb__lit'::`1'::__LINE__Var
_DATA	ENDS
;	COMDAT ??_C@_1FC@IADGHEAH@?$AAs?$AAt?$AAb?$AA_?$AA_?$AAd?$AAo?$AAu?$AAt?$AA?5?$AA?$CL?$AA?5?$AAl?$AAe?$AAn@
CONST	SEGMENT
??_C@_1FC@IADGHEAH@?$AAs?$AAt?$AAb?$AA_?$AA_?$AAd?$AAo?$AAu?$AAt?$AA?5?$AA?$CL?$AA?5?$AAl?$AAe?$AAn@ DB 's'
	DB	00H, 't', 00H, 'b', 00H, '_', 00H, '_', 00H, 'd', 00H, 'o', 00H
	DB	'u', 00H, 't', 00H, ' ', 00H, '+', 00H, ' ', 00H, 'l', 00H, 'e'
	DB	00H, 'n', 00H, 'g', 00H, 't', 00H, 'h', 00H, ' ', 00H, '<', 00H
	DB	'=', 00H, ' ', 00H, 's', 00H, 't', 00H, 'b', 00H, '_', 00H, '_'
	DB	00H, 'b', 00H, 'a', 00H, 'r', 00H, 'r', 00H, 'i', 00H, 'e', 00H
	DB	'r', 00H, '_', 00H, 'o', 00H, 'u', 00H, 't', 00H, '_', 00H, 'e'
	DB	00H, 00H, 00H				; `string'
CONST	ENDS
;	COMDAT ?__LINE__Var@?0??stb__match@@YAXPEBEI@Z@4JA
_DATA	SEGMENT
?__LINE__Var@?0??stb__match@@YAXPEBEI@Z@4JA DD 0f87H	; `stb__match'::`1'::__LINE__Var
_DATA	ENDS
;	COMDAT ??_C@_1JM@LKKCKIOL@?$AAm?$AAo?$AAu?$AAs?$AAe?$AA_?$AAc?$AAu?$AAr?$AAs?$AAo?$AAr?$AA?5?$AA?$DO?$AA?5@
CONST	SEGMENT
??_C@_1JM@LKKCKIOL@?$AAm?$AAo?$AAu?$AAs?$AAe?$AA_?$AAc?$AAu?$AAr?$AAs?$AAo?$AAr?$AA?5?$AA?$DO?$AA?5@ DB 'm'
	DB	00H, 'o', 00H, 'u', 00H, 's', 00H, 'e', 00H, '_', 00H, 'c', 00H
	DB	'u', 00H, 'r', 00H, 's', 00H, 'o', 00H, 'r', 00H, ' ', 00H, '>'
	DB	00H, ' ', 00H, 'I', 00H, 'm', 00H, 'G', 00H, 'u', 00H, 'i', 00H
	DB	'M', 00H, 'o', 00H, 'u', 00H, 's', 00H, 'e', 00H, 'C', 00H, 'u'
	DB	00H, 'r', 00H, 's', 00H, 'o', 00H, 'r', 00H, '_', 00H, 'N', 00H
	DB	'o', 00H, 'n', 00H, 'e', 00H, ' ', 00H, '&', 00H, '&', 00H, ' '
	DB	00H, 'm', 00H, 'o', 00H, 'u', 00H, 's', 00H, 'e', 00H, '_', 00H
	DB	'c', 00H, 'u', 00H, 'r', 00H, 's', 00H, 'o', 00H, 'r', 00H, ' '
	DB	00H, '<', 00H, ' ', 00H, 'I', 00H, 'm', 00H, 'G', 00H, 'u', 00H
	DB	'i', 00H, 'M', 00H, 'o', 00H, 'u', 00H, 's', 00H, 'e', 00H, 'C'
	DB	00H, 'u', 00H, 'r', 00H, 's', 00H, 'o', 00H, 'r', 00H, '_', 00H
	DB	'C', 00H, 'O', 00H, 'U', 00H, 'N', 00H, 'T', 00H, 00H, 00H ; `string'
CONST	ENDS
;	COMDAT ?__LINE__Var@?0??RenderMouseCursor@ImGui@@YAXPEAUImDrawList@@UImVec2@@MHIII@Z@4JA
_DATA	SEGMENT
?__LINE__Var@?0??RenderMouseCursor@ImGui@@YAXPEAUImDrawList@@UImVec2@@MHIII@Z@4JA DD 0ed6H ; `ImGui::RenderMouseCursor'::`1'::__LINE__Var
_DATA	ENDS
;	COMDAT ?__LINE__Var@?0??RenderArrow@ImGui@@YAXPEAUImDrawList@@UImVec2@@IHM@Z@4JA
_DATA	SEGMENT
?__LINE__Var@?0??RenderArrow@ImGui@@YAXPEAUImDrawList@@UImVec2@@IHM@Z@4JA DD 0ea3H ; `ImGui::RenderArrow'::`1'::__LINE__Var
_DATA	ENDS
;	COMDAT ??_C@_1CK@OHOOGJPG@?$AAI?$AAn?$AAd?$AAe?$AAx?$AAL?$AAo?$AAo?$AAk?$AAu?$AAp?$AA?4?$AAS?$AAi?$AAz@
CONST	SEGMENT
??_C@_1CK@OHOOGJPG@?$AAI?$AAn?$AAd?$AAe?$AAx?$AAL?$AAo?$AAo?$AAk?$AAu?$AAp?$AA?4?$AAS?$AAi?$AAz@ DB 'I'
	DB	00H, 'n', 00H, 'd', 00H, 'e', 00H, 'x', 00H, 'L', 00H, 'o', 00H
	DB	'o', 00H, 'k', 00H, 'u', 00H, 'p', 00H, '.', 00H, 'S', 00H, 'i'
	DB	00H, 'z', 00H, 'e', 00H, ' ', 00H, '>', 00H, ' ', 00H, '0', 00H
	DB	00H, 00H					; `string'
CONST	ENDS
;	COMDAT ?__LINE__Var@?0??AddRemapChar@ImFont@@QEAAXGG_N@Z@4JA
_DATA	SEGMENT
?__LINE__Var@?0??AddRemapChar@ImFont@@QEAAXGG_N@Z@4JA DD 0cdfH ; `ImFont::AddRemapChar'::`1'::__LINE__Var
_DATA	ENDS
;	COMDAT ??_C@_1EO@HLFAHELG@?$AAI?$AAn?$AAd?$AAe?$AAx?$AAA?$AAd?$AAv?$AAa?$AAn?$AAc?$AAe?$AAX?$AA?4?$AAS@
CONST	SEGMENT
??_C@_1EO@HLFAHELG@?$AAI?$AAn?$AAd?$AAe?$AAx?$AAA?$AAd?$AAv?$AAa?$AAn?$AAc?$AAe?$AAX?$AA?4?$AAS@ DB 'I'
	DB	00H, 'n', 00H, 'd', 00H, 'e', 00H, 'x', 00H, 'A', 00H, 'd', 00H
	DB	'v', 00H, 'a', 00H, 'n', 00H, 'c', 00H, 'e', 00H, 'X', 00H, '.'
	DB	00H, 'S', 00H, 'i', 00H, 'z', 00H, 'e', 00H, ' ', 00H, '=', 00H
	DB	'=', 00H, ' ', 00H, 'I', 00H, 'n', 00H, 'd', 00H, 'e', 00H, 'x'
	DB	00H, 'L', 00H, 'o', 00H, 'o', 00H, 'k', 00H, 'u', 00H, 'p', 00H
	DB	'.', 00H, 'S', 00H, 'i', 00H, 'z', 00H, 'e', 00H, 00H, 00H ; `string'
CONST	ENDS
;	COMDAT ?__LINE__Var@?0??GrowIndex@ImFont@@QEAAXH@Z@4JA
_DATA	SEGMENT
?__LINE__Var@?0??GrowIndex@ImFont@@QEAAXH@Z@4JA DD 0ca7H ; `ImFont::GrowIndex'::`1'::__LINE__Var
_DATA	ENDS
;	COMDAT ??_C@_1CK@FHBHHKB@?$AAG?$AAl?$AAy?$AAp?$AAh?$AAs?$AA?4?$AAS?$AAi?$AAz?$AAe?$AA?5?$AA?$DM?$AA?5?$AA0@
CONST	SEGMENT
??_C@_1CK@FHBHHKB@?$AAG?$AAl?$AAy?$AAp?$AAh?$AAs?$AA?4?$AAS?$AAi?$AAz?$AAe?$AA?5?$AA?$DM?$AA?5?$AA0@ DB 'G'
	DB	00H, 'l', 00H, 'y', 00H, 'p', 00H, 'h', 00H, 's', 00H, '.', 00H
	DB	'S', 00H, 'i', 00H, 'z', 00H, 'e', 00H, ' ', 00H, '<', 00H, ' '
	DB	00H, '0', 00H, 'x', 00H, 'F', 00H, 'F', 00H, 'F', 00H, 'F', 00H
	DB	00H, 00H					; `string'
CONST	ENDS
;	COMDAT ?__LINE__Var@?0??BuildLookupTable@ImFont@@QEAAXXZ@4JA
_DATA	SEGMENT
?__LINE__Var@?0??BuildLookupTable@ImFont@@QEAAXXZ@4JA DD 0c4cH ; `ImFont::BuildLookupTable'::`1'::__LINE__Var
_DATA	ENDS
_DATA	SEGMENT
?base_ranges@?1??GetGlyphRangesChineseSimplifiedCommon@ImFontAtlas@@QEAAPEBGXZ@4PAGA DW 020H ; `ImFontAtlas::GetGlyphRangesChineseSimplifiedCommon'::`2'::base_ranges
	DW	0ffH
	DW	02000H
	DW	0206fH
	DW	03000H
	DW	030ffH
	DW	031f0H
	DW	031ffH
	DW	0ff00H
	DW	0ffefH
	DW	0fffdH
	DW	0fffdH
?base_ranges@?1??GetGlyphRangesJapanese@ImFontAtlas@@QEAAPEBGXZ@4PAGA DW 020H ; `ImFontAtlas::GetGlyphRangesJapanese'::`2'::base_ranges
	DW	0ffH
	DW	03000H
	DW	030ffH
	DW	031f0H
	DW	031ffH
	DW	0ff00H
	DW	0ffefH
	DW	0fffdH
	DW	0fffdH
_DATA	ENDS
;	COMDAT ??_C@_1EC@BJJINGAO@?$AAr?$AA?9?$AA?$DO?$AAF?$AAo?$AAn?$AAt?$AA?9?$AA?$DO?$AAC?$AAo?$AAn?$AAt?$AAa?$AAi@
CONST	SEGMENT
??_C@_1EC@BJJINGAO@?$AAr?$AA?9?$AA?$DO?$AAF?$AAo?$AAn?$AAt?$AA?9?$AA?$DO?$AAC?$AAo?$AAn?$AAt?$AAa?$AAi@ DB 'r'
	DB	00H, '-', 00H, '>', 00H, 'F', 00H, 'o', 00H, 'n', 00H, 't', 00H
	DB	'-', 00H, '>', 00H, 'C', 00H, 'o', 00H, 'n', 00H, 't', 00H, 'a'
	DB	00H, 'i', 00H, 'n', 00H, 'e', 00H, 'r', 00H, 'A', 00H, 't', 00H
	DB	'l', 00H, 'a', 00H, 's', 00H, ' ', 00H, '=', 00H, '=', 00H, ' '
	DB	00H, 'a', 00H, 't', 00H, 'l', 00H, 'a', 00H, 's', 00H, 00H, 00H ; `string'
CONST	ENDS
;	COMDAT ??_C@_1HG@JLCPLJIF@?$AAa?$AAt?$AAl?$AAa?$AAs?$AA?9?$AA?$DO?$AAT?$AAe?$AAx?$AAP?$AAi?$AAx?$AAe?$AAl@
CONST	SEGMENT
??_C@_1HG@JLCPLJIF@?$AAa?$AAt?$AAl?$AAa?$AAs?$AA?9?$AA?$DO?$AAT?$AAe?$AAx?$AAP?$AAi?$AAx?$AAe?$AAl@ DB 'a'
	DB	00H, 't', 00H, 'l', 00H, 'a', 00H, 's', 00H, '-', 00H, '>', 00H
	DB	'T', 00H, 'e', 00H, 'x', 00H, 'P', 00H, 'i', 00H, 'x', 00H, 'e'
	DB	00H, 'l', 00H, 's', 00H, 'A', 00H, 'l', 00H, 'p', 00H, 'h', 00H
	DB	'a', 00H, '8', 00H, ' ', 00H, '!', 00H, '=', 00H, ' ', 00H, '0'
	DB	00H, ' ', 00H, '|', 00H, '|', 00H, ' ', 00H, 'a', 00H, 't', 00H
	DB	'l', 00H, 'a', 00H, 's', 00H, '-', 00H, '>', 00H, 'T', 00H, 'e'
	DB	00H, 'x', 00H, 'P', 00H, 'i', 00H, 'x', 00H, 'e', 00H, 'l', 00H
	DB	's', 00H, 'R', 00H, 'G', 00H, 'B', 00H, 'A', 00H, '3', 00H, '2'
	DB	00H, ' ', 00H, '!', 00H, '=', 00H, ' ', 00H, '0', 00H, 00H, 00H ; `string'
CONST	ENDS
;	COMDAT ?__LINE__Var@?0??ImFontAtlasBuildFinish@@YAXPEAUImFontAtlas@@@Z@4JA
_DATA	SEGMENT
?__LINE__Var@?0??ImFontAtlasBuildFinish@@YAXPEAUImFontAtlas@@@Z@4JA DD 0adaH ; `ImFontAtlasBuildFinish'::`1'::__LINE__Var
_DATA	ENDS
;	COMDAT ??_C@_1HO@DLMJCKJA@?$AAp?$AAa?$AAd?$AA_?$AAl?$AAe?$AAf?$AAt?$AA?5?$AA?$CL?$AA?5?$AAl?$AAi?$AAn?$AAe@
CONST	SEGMENT
??_C@_1HO@DLMJCKJA@?$AAp?$AAa?$AAd?$AA_?$AAl?$AAe?$AAf?$AAt?$AA?5?$AA?$CL?$AA?5?$AAl?$AAi?$AAn?$AAe@ DB 'p'
	DB	00H, 'a', 00H, 'd', 00H, '_', 00H, 'l', 00H, 'e', 00H, 'f', 00H
	DB	't', 00H, ' ', 00H, '+', 00H, ' ', 00H, 'l', 00H, 'i', 00H, 'n'
	DB	00H, 'e', 00H, '_', 00H, 'w', 00H, 'i', 00H, 'd', 00H, 't', 00H
	DB	'h', 00H, ' ', 00H, '+', 00H, ' ', 00H, 'p', 00H, 'a', 00H, 'd'
	DB	00H, '_', 00H, 'r', 00H, 'i', 00H, 'g', 00H, 'h', 00H, 't', 00H
	DB	' ', 00H, '=', 00H, '=', 00H, ' ', 00H, 'r', 00H, '-', 00H, '>'
	DB	00H, 'W', 00H, 'i', 00H, 'd', 00H, 't', 00H, 'h', 00H, ' ', 00H
	DB	'&', 00H, '&', 00H, ' ', 00H, 'y', 00H, ' ', 00H, '<', 00H, ' '
	DB	00H, 'r', 00H, '-', 00H, '>', 00H, 'H', 00H, 'e', 00H, 'i', 00H
	DB	'g', 00H, 'h', 00H, 't', 00H, 00H, 00H	; `string'
CONST	ENDS
;	COMDAT ?__LINE__Var@?0??ImFontAtlasBuildRenderLinesTexData@@YAXPEAUImFontAtlas@@@Z@4JA
_DATA	SEGMENT
?__LINE__Var@?0??ImFontAtlasBuildRenderLinesTexData@@YAXPEAUImFontAtlas@@@Z@4JA DD 0a91H ; `ImFontAtlasBuildRenderLinesTexData'::`1'::__LINE__Var
_DATA	ENDS
;	COMDAT ??_C@_1EA@DBHHBIED@?$AAr?$AA?9?$AA?$DO?$AAW?$AAi?$AAd?$AAt?$AAh?$AA?5?$AA?$DN?$AA?$DN?$AA?5?$AA2?$AA?5?$AA?$CG@
CONST	SEGMENT
??_C@_1EA@DBHHBIED@?$AAr?$AA?9?$AA?$DO?$AAW?$AAi?$AAd?$AAt?$AAh?$AA?5?$AA?$DN?$AA?$DN?$AA?5?$AA2?$AA?5?$AA?$CG@ DB 'r'
	DB	00H, '-', 00H, '>', 00H, 'W', 00H, 'i', 00H, 'd', 00H, 't', 00H
	DB	'h', 00H, ' ', 00H, '=', 00H, '=', 00H, ' ', 00H, '2', 00H, ' '
	DB	00H, '&', 00H, '&', 00H, ' ', 00H, 'r', 00H, '-', 00H, '>', 00H
	DB	'H', 00H, 'e', 00H, 'i', 00H, 'g', 00H, 'h', 00H, 't', 00H, ' '
	DB	00H, '=', 00H, '=', 00H, ' ', 00H, '2', 00H, 00H, 00H ; `string'
CONST	ENDS
;	COMDAT ??_C@_1MA@PDHEAINP@?$AAr?$AA?9?$AA?$DO?$AAW?$AAi?$AAd?$AAt?$AAh?$AA?5?$AA?$DN?$AA?$DN?$AA?5?$AAF?$AAO?$AAN@
CONST	SEGMENT
??_C@_1MA@PDHEAINP@?$AAr?$AA?9?$AA?$DO?$AAW?$AAi?$AAd?$AAt?$AAh?$AA?5?$AA?$DN?$AA?$DN?$AA?5?$AAF?$AAO?$AAN@ DB 'r'
	DB	00H, '-', 00H, '>', 00H, 'W', 00H, 'i', 00H, 'd', 00H, 't', 00H
	DB	'h', 00H, ' ', 00H, '=', 00H, '=', 00H, ' ', 00H, 'F', 00H, 'O'
	DB	00H, 'N', 00H, 'T', 00H, '_', 00H, 'A', 00H, 'T', 00H, 'L', 00H
	DB	'A', 00H, 'S', 00H, '_', 00H, 'D', 00H, 'E', 00H, 'F', 00H, 'A'
	DB	00H, 'U', 00H, 'L', 00H, 'T', 00H, '_', 00H, 'T', 00H, 'E', 00H
	DB	'X', 00H, '_', 00H, 'D', 00H, 'A', 00H, 'T', 00H, 'A', 00H, '_'
	DB	00H, 'W', 00H, ' ', 00H, '*', 00H, ' ', 00H, '2', 00H, ' ', 00H
	DB	'+', 00H, ' ', 00H, '1', 00H, ' ', 00H, '&', 00H, '&', 00H, ' '
	DB	00H, 'r', 00H, '-', 00H, '>', 00H, 'H', 00H, 'e', 00H, 'i', 00H
	DB	'g', 00H, 'h', 00H, 't', 00H, ' ', 00H, '=', 00H, '=', 00H, ' '
	DB	00H, 'F', 00H, 'O', 00H, 'N', 00H, 'T', 00H, '_', 00H, 'A', 00H
	DB	'T', 00H, 'L', 00H, 'A', 00H, 'S', 00H, '_', 00H, 'D', 00H, 'E'
	DB	00H, 'F', 00H, 'A', 00H, 'U', 00H, 'L', 00H, 'T', 00H, '_', 00H
	DB	'T', 00H, 'E', 00H, 'X', 00H, '_', 00H, 'D', 00H, 'A', 00H, 'T'
	DB	00H, 'A', 00H, '_', 00H, 'H', 00H, 00H, 00H	; `string'
CONST	ENDS
;	COMDAT ??_C@_1BM@DDBMCGAE@?$AAr?$AA?9?$AA?$DO?$AAI?$AAs?$AAP?$AAa?$AAc?$AAk?$AAe?$AAd?$AA?$CI?$AA?$CJ@
CONST	SEGMENT
??_C@_1BM@DDBMCGAE@?$AAr?$AA?9?$AA?$DO?$AAI?$AAs?$AAP?$AAa?$AAc?$AAk?$AAe?$AAd?$AA?$CI?$AA?$CJ@ DB 'r'
	DB	00H, '-', 00H, '>', 00H, 'I', 00H, 's', 00H, 'P', 00H, 'a', 00H
	DB	'c', 00H, 'k', 00H, 'e', 00H, 'd', 00H, '(', 00H, ')', 00H, 00H
	DB	00H						; `string'
CONST	ENDS
;	COMDAT ?__LINE__Var@?0??ImFontAtlasBuildRenderDefaultTexData@@YAXPEAUImFontAtlas@@@Z@4JA
_DATA	SEGMENT
?__LINE__Var@?0??ImFontAtlasBuildRenderDefaultTexData@@YAXPEAUImFontAtlas@@@Z@4JA DD 0a69H ; `ImFontAtlasBuildRenderDefaultTexData'::`1'::__LINE__Var
_DATA	ENDS
;	COMDAT ?__LINE__Var@?0??ImFontAtlasBuildRender32bppRectFromString@@YAXPEAUImFontAtlas@@HHHHPEBDDI@Z@4JA
_DATA	SEGMENT
?__LINE__Var@?0??ImFontAtlasBuildRender32bppRectFromString@@YAXPEAUImFontAtlas@@HHHHPEBDDI@Z@4JA DD 0a5fH ; `ImFontAtlasBuildRender32bppRectFromString'::`1'::__LINE__Var
_DATA	ENDS
;	COMDAT ??_C@_1EI@CHFOHLGN@?$AAy?$AA?5?$AA?$DO?$AA?$DN?$AA?5?$AA0?$AA?5?$AA?$CG?$AA?$CG?$AA?5?$AAy?$AA?5?$AA?$CL?$AA?5?$AAh@
CONST	SEGMENT
??_C@_1EI@CHFOHLGN@?$AAy?$AA?5?$AA?$DO?$AA?$DN?$AA?5?$AA0?$AA?5?$AA?$CG?$AA?$CG?$AA?5?$AAy?$AA?5?$AA?$CL?$AA?5?$AAh@ DB 'y'
	DB	00H, ' ', 00H, '>', 00H, '=', 00H, ' ', 00H, '0', 00H, ' ', 00H
	DB	'&', 00H, '&', 00H, ' ', 00H, 'y', 00H, ' ', 00H, '+', 00H, ' '
	DB	00H, 'h', 00H, ' ', 00H, '<', 00H, '=', 00H, ' ', 00H, 'a', 00H
	DB	't', 00H, 'l', 00H, 'a', 00H, 's', 00H, '-', 00H, '>', 00H, 'T'
	DB	00H, 'e', 00H, 'x', 00H, 'H', 00H, 'e', 00H, 'i', 00H, 'g', 00H
	DB	'h', 00H, 't', 00H, 00H, 00H			; `string'
CONST	ENDS
;	COMDAT ??_C@_1EG@KOLNNAOF@?$AAx?$AA?5?$AA?$DO?$AA?$DN?$AA?5?$AA0?$AA?5?$AA?$CG?$AA?$CG?$AA?5?$AAx?$AA?5?$AA?$CL?$AA?5?$AAw@
CONST	SEGMENT
??_C@_1EG@KOLNNAOF@?$AAx?$AA?5?$AA?$DO?$AA?$DN?$AA?5?$AA0?$AA?5?$AA?$CG?$AA?$CG?$AA?5?$AAx?$AA?5?$AA?$CL?$AA?5?$AAw@ DB 'x'
	DB	00H, ' ', 00H, '>', 00H, '=', 00H, ' ', 00H, '0', 00H, ' ', 00H
	DB	'&', 00H, '&', 00H, ' ', 00H, 'x', 00H, ' ', 00H, '+', 00H, ' '
	DB	00H, 'w', 00H, ' ', 00H, '<', 00H, '=', 00H, ' ', 00H, 'a', 00H
	DB	't', 00H, 'l', 00H, 'a', 00H, 's', 00H, '-', 00H, '>', 00H, 'T'
	DB	00H, 'e', 00H, 'x', 00H, 'W', 00H, 'i', 00H, 'd', 00H, 't', 00H
	DB	'h', 00H, 00H, 00H				; `string'
CONST	ENDS
;	COMDAT ?__LINE__Var@?0??ImFontAtlasBuildRender8bppRectFromString@@YAXPEAUImFontAtlas@@HHHHPEBDDE@Z@4JA
_DATA	SEGMENT
?__LINE__Var@?0??ImFontAtlasBuildRender8bppRectFromString@@YAXPEAUImFontAtlas@@HHHHPEBDDE@Z@4JA DD 0a55H ; `ImFontAtlasBuildRender8bppRectFromString'::`1'::__LINE__Var
_DATA	ENDS
;	COMDAT ??_C@_1KE@CBAIECN@?$AAp?$AAa?$AAc?$AAk?$AA_?$AAr?$AAe?$AAc?$AAt?$AAs?$AA?$FL?$AAi?$AA?$FN?$AA?4?$AAw@
CONST	SEGMENT
??_C@_1KE@CBAIECN@?$AAp?$AAa?$AAc?$AAk?$AA_?$AAr?$AAe?$AAc?$AAt?$AAs?$AA?$FL?$AAi?$AA?$FN?$AA?4?$AAw@ DB 'p'
	DB	00H, 'a', 00H, 'c', 00H, 'k', 00H, '_', 00H, 'r', 00H, 'e', 00H
	DB	'c', 00H, 't', 00H, 's', 00H, '[', 00H, 'i', 00H, ']', 00H, '.'
	DB	00H, 'w', 00H, ' ', 00H, '=', 00H, '=', 00H, ' ', 00H, 'u', 00H
	DB	's', 00H, 'e', 00H, 'r', 00H, '_', 00H, 'r', 00H, 'e', 00H, 'c'
	DB	00H, 't', 00H, 's', 00H, '[', 00H, 'i', 00H, ']', 00H, '.', 00H
	DB	'W', 00H, 'i', 00H, 'd', 00H, 't', 00H, 'h', 00H, ' ', 00H, '&'
	DB	00H, '&', 00H, ' ', 00H, 'p', 00H, 'a', 00H, 'c', 00H, 'k', 00H
	DB	'_', 00H, 'r', 00H, 'e', 00H, 'c', 00H, 't', 00H, 's', 00H, '['
	DB	00H, 'i', 00H, ']', 00H, '.', 00H, 'h', 00H, ' ', 00H, '=', 00H
	DB	'=', 00H, ' ', 00H, 'u', 00H, 's', 00H, 'e', 00H, 'r', 00H, '_'
	DB	00H, 'r', 00H, 'e', 00H, 'c', 00H, 't', 00H, 's', 00H, '[', 00H
	DB	'i', 00H, ']', 00H, '.', 00H, 'H', 00H, 'e', 00H, 'i', 00H, 'g'
	DB	00H, 'h', 00H, 't', 00H, 00H, 00H		; `string'
CONST	ENDS
;	COMDAT ??_C@_1CK@POMOOFJC@?$AAu?$AAs?$AAe?$AAr?$AA_?$AAr?$AAe?$AAc?$AAt?$AAs?$AA?4?$AAS?$AAi?$AAz?$AAe@
CONST	SEGMENT
??_C@_1CK@POMOOFJC@?$AAu?$AAs?$AAe?$AAr?$AA_?$AAr?$AAe?$AAc?$AAt?$AAs?$AA?4?$AAS?$AAi?$AAz?$AAe@ DB 'u'
	DB	00H, 's', 00H, 'e', 00H, 'r', 00H, '_', 00H, 'r', 00H, 'e', 00H
	DB	'c', 00H, 't', 00H, 's', 00H, '.', 00H, 'S', 00H, 'i', 00H, 'z'
	DB	00H, 'e', 00H, ' ', 00H, '>', 00H, '=', 00H, ' ', 00H, '1', 00H
	DB	00H, 00H					; `string'
CONST	ENDS
;	COMDAT ??_C@_1CE@FMMHMDCM@?$AAp?$AAa?$AAc?$AAk?$AA_?$AAc?$AAo?$AAn?$AAt?$AAe?$AAx?$AAt?$AA?5?$AA?$CB?$AA?$DN@
CONST	SEGMENT
??_C@_1CE@FMMHMDCM@?$AAp?$AAa?$AAc?$AAk?$AA_?$AAc?$AAo?$AAn?$AAt?$AAe?$AAx?$AAt?$AA?5?$AA?$CB?$AA?$DN@ DB 'p'
	DB	00H, 'a', 00H, 'c', 00H, 'k', 00H, '_', 00H, 'c', 00H, 'o', 00H
	DB	'n', 00H, 't', 00H, 'e', 00H, 'x', 00H, 't', 00H, ' ', 00H, '!'
	DB	00H, '=', 00H, ' ', 00H, '0', 00H, 00H, 00H	; `string'
CONST	ENDS
;	COMDAT ?__LINE__Var@?0??ImFontAtlasBuildPackCustomRects@@YAXPEAUImFontAtlas@@PEAX@Z@4JA
_DATA	SEGMENT
?__LINE__Var@?0??ImFontAtlasBuildPackCustomRects@@YAXPEAUImFontAtlas@@PEAX@Z@4JA DD 0a3aH ; `ImFontAtlasBuildPackCustomRects'::`1'::__LINE__Var
_DATA	ENDS
;	COMDAT ??_C@_1DC@ENBGOGEF@?$AAg?$AAl?$AAy?$AAp?$AAh?$AA_?$AAi?$AAn?$AAd?$AAe?$AAx?$AA_?$AAi?$AAn?$AA_@
CONST	SEGMENT
??_C@_1DC@ENBGOGEF@?$AAg?$AAl?$AAy?$AAp?$AAh?$AA_?$AAi?$AAn?$AAd?$AAe?$AAx?$AA_?$AAi?$AAn?$AA_@ DB 'g'
	DB	00H, 'l', 00H, 'y', 00H, 'p', 00H, 'h', 00H, '_', 00H, 'i', 00H
	DB	'n', 00H, 'd', 00H, 'e', 00H, 'x', 00H, '_', 00H, 'i', 00H, 'n'
	DB	00H, '_', 00H, 'f', 00H, 'o', 00H, 'n', 00H, 't', 00H, ' ', 00H
	DB	'!', 00H, '=', 00H, ' ', 00H, '0', 00H, 00H, 00H ; `string'
CONST	ENDS
;	COMDAT ??_C@_1FO@GJGKHCEN@?$AAs?$AAr?$AAc?$AA_?$AAt?$AAm?$AAp?$AA?4?$AAG?$AAl?$AAy?$AAp?$AAh?$AAs?$AAL@
CONST	SEGMENT
??_C@_1FO@GJGKHCEN@?$AAs?$AAr?$AAc?$AA_?$AAt?$AAm?$AAp?$AA?4?$AAG?$AAl?$AAy?$AAp?$AAh?$AAs?$AAL@ DB 's'
	DB	00H, 'r', 00H, 'c', 00H, '_', 00H, 't', 00H, 'm', 00H, 'p', 00H
	DB	'.', 00H, 'G', 00H, 'l', 00H, 'y', 00H, 'p', 00H, 'h', 00H, 's'
	DB	00H, 'L', 00H, 'i', 00H, 's', 00H, 't', 00H, '.', 00H, 'S', 00H
	DB	'i', 00H, 'z', 00H, 'e', 00H, ' ', 00H, '=', 00H, '=', 00H, ' '
	DB	00H, 's', 00H, 'r', 00H, 'c', 00H, '_', 00H, 't', 00H, 'm', 00H
	DB	'p', 00H, '.', 00H, 'G', 00H, 'l', 00H, 'y', 00H, 'p', 00H, 'h'
	DB	00H, 's', 00H, 'C', 00H, 'o', 00H, 'u', 00H, 'n', 00H, 't', 00H
	DB	00H, 00H					; `string'
CONST	ENDS
;	COMDAT ??_C@_1JA@MENENCJI@?$AAf?$AAo?$AAn?$AAt?$AA_?$AAo?$AAf?$AAf?$AAs?$AAe?$AAt?$AA?5?$AA?$DO?$AA?$DN?$AA?5@
CONST	SEGMENT
??_C@_1JA@MENENCJI@?$AAf?$AAo?$AAn?$AAt?$AA_?$AAo?$AAf?$AAf?$AAs?$AAe?$AAt?$AA?5?$AA?$DO?$AA?$DN?$AA?5@ DB 'f'
	DB	00H, 'o', 00H, 'n', 00H, 't', 00H, '_', 00H, 'o', 00H, 'f', 00H
	DB	'f', 00H, 's', 00H, 'e', 00H, 't', 00H, ' ', 00H, '>', 00H, '='
	DB	00H, ' ', 00H, '0', 00H, ' ', 00H, '&', 00H, '&', 00H, ' ', 00H
	DB	'"', 00H, 'F', 00H, 'o', 00H, 'n', 00H, 't', 00H, 'D', 00H, 'a'
	DB	00H, 't', 00H, 'a', 00H, ' ', 00H, 'i', 00H, 's', 00H, ' ', 00H
	DB	'i', 00H, 'n', 00H, 'c', 00H, 'o', 00H, 'r', 00H, 'r', 00H, 'e'
	DB	00H, 'c', 00H, 't', 00H, ',', 00H, ' ', 00H, 'o', 00H, 'r', 00H
	DB	' ', 00H, 'F', 00H, 'o', 00H, 'n', 00H, 't', 00H, 'N', 00H, 'o'
	DB	00H, ' ', 00H, 'c', 00H, 'a', 00H, 'n', 00H, 'n', 00H, 'o', 00H
	DB	't', 00H, ' ', 00H, 'b', 00H, 'e', 00H, ' ', 00H, 'f', 00H, 'o'
	DB	00H, 'u', 00H, 'n', 00H, 'd', 00H, '.', 00H, '"', 00H, 00H, 00H ; `string'
CONST	ENDS
;	COMDAT ??_C@_0DC@IFELKFNN@FontData?5is?5incorrect?0?5or?5FontN@
CONST	SEGMENT
??_C@_0DC@IFELKFNN@FontData?5is?5incorrect?0?5or?5FontN@ DB 'FontData is '
	DB	'incorrect, or FontNo cannot be found.', 00H	; `string'
CONST	ENDS
