; Listing generated by Microsoft (R) Optimizing Compiler Version 19.33.31630.0 

include listing.inc

INCLUDELIB MSVCRTD
INCLUDELIB OLDNAMES

msvcjmc	SEGMENT
__A52B8F80_imconfig@h DB 01H
__529D0EAA_concurrencysal@h DB 01H
__7EC34687_sal@h DB 01H
__35A2D2DF_vadefs@h DB 01H
__5F022EB5_vcruntime@h DB 01H
__1B0272D9_corecrt@h DB 01H
__B9985323_float@h DB 01H
__79700276_stdarg@h DB 01H
__13F5961F_stddef@h DB 01H
__61CC25A1_errno@h DB 01H
__74AC4223_vcruntime_string@h DB 01H
__E4C945B4_corecrt_memcpy_s@h DB 01H
__8EAFF484_corecrt_memory@h DB 01H
__6490AEC5_corecrt_wstring@h DB 01H
__E8295E1E_string@h DB 01H
__19139D6C_assert@h DB 01H
__21D911DF_imgui@h DB 01H
__60175028_imgui_impl_opengl3@h DB 01H
__44420885_corecrt_stdio_config@h DB 01H
__AB601D8D_corecrt_wstdio@h DB 01H
__C1EC35D3_stdio@h DB 01H
__4DAFBCB9_stdint@h DB 01H
__3E21C180_khrplatform@h DB 01H
__6F297E97_glad@h DB 01H
__45597862_imgui_impl_opengl3@cpp DB 01H
msvcjmc	ENDS
PUBLIC	??0ImVec4@@QEAA@XZ				; ImVec4::ImVec4
PUBLIC	??2@YAPEAX_KUImNewWrapper@@PEAX@Z		; operator new
PUBLIC	??3@YAXPEAXUImNewWrapper@@0@Z			; operator delete
PUBLIC	??0?$ImVector@D@@QEAA@XZ			; ImVector<char>::ImVector<char>
PUBLIC	??1?$ImVector@D@@QEAA@XZ			; ImVector<char>::~ImVector<char>
PUBLIC	?begin@?$ImVector@D@@QEAAPEADXZ			; ImVector<char>::begin
PUBLIC	?_grow_capacity@?$ImVector@D@@QEBAHH@Z		; ImVector<char>::_grow_capacity
PUBLIC	?resize@?$ImVector@D@@QEAAXH@Z			; ImVector<char>::resize
PUBLIC	?reserve@?$ImVector@D@@QEAAXH@Z			; ImVector<char>::reserve
PUBLIC	?GetTexID@ImDrawCmd@@QEBAPEAXXZ			; ImDrawCmd::GetTexID
PUBLIC	??A?$ImVector@UImDrawCmd@@@@QEBAAEBUImDrawCmd@@H@Z ; ImVector<ImDrawCmd>::operator[]
PUBLIC	?SetTexID@ImFontAtlas@@QEAAXPEAX@Z		; ImFontAtlas::SetTexID
PUBLIC	?ImGui_ImplOpenGL3_Init@@YA_NPEBD@Z		; ImGui_ImplOpenGL3_Init
PUBLIC	?ImGui_ImplOpenGL3_Shutdown@@YAXXZ		; ImGui_ImplOpenGL3_Shutdown
PUBLIC	?ImGui_ImplOpenGL3_NewFrame@@YAXXZ		; ImGui_ImplOpenGL3_NewFrame
PUBLIC	?ImGui_ImplOpenGL3_RenderDrawData@@YAXPEAUImDrawData@@@Z ; ImGui_ImplOpenGL3_RenderDrawData
PUBLIC	?ImGui_ImplOpenGL3_CreateFontsTexture@@YA_NXZ	; ImGui_ImplOpenGL3_CreateFontsTexture
PUBLIC	?ImGui_ImplOpenGL3_DestroyFontsTexture@@YAXXZ	; ImGui_ImplOpenGL3_DestroyFontsTexture
PUBLIC	?ImGui_ImplOpenGL3_CreateDeviceObjects@@YA_NXZ	; ImGui_ImplOpenGL3_CreateDeviceObjects
PUBLIC	?ImGui_ImplOpenGL3_DestroyDeviceObjects@@YAXXZ	; ImGui_ImplOpenGL3_DestroyDeviceObjects
PUBLIC	__local_stdio_printf_options
PUBLIC	__local_stdio_scanf_options
PUBLIC	_vfprintf_l
PUBLIC	fprintf
PUBLIC	_vsscanf_l
PUBLIC	sscanf
PUBLIC	??0ImGui_ImplOpenGL3_Data@@QEAA@XZ		; ImGui_ImplOpenGL3_Data::ImGui_ImplOpenGL3_Data
PUBLIC	??$IM_DELETE@UImGui_ImplOpenGL3_Data@@@@YAXPEAUImGui_ImplOpenGL3_Data@@@Z ; IM_DELETE<ImGui_ImplOpenGL3_Data>
PUBLIC	__JustMyCode_Default
PUBLIC	??_C@_1FM@JNPAKPFE@?$AAC?$AA?3?$AA?2?$AAd?$AAe?$AAv?$AA?2?$AAR?$AAa?$AAi?$AAs?$AAi?$AAn?$AA?2?$AAR@ ; `string'
PUBLIC	?_OptionsStorage@?1??__local_stdio_printf_options@@9@4_KA ; `__local_stdio_printf_options'::`2'::_OptionsStorage
PUBLIC	?_OptionsStorage@?1??__local_stdio_scanf_options@@9@4_KA ; `__local_stdio_scanf_options'::`2'::_OptionsStorage
PUBLIC	?__LINE__Var@?0??ImGui_ImplOpenGL3_Init@@YA_NPEBD@Z@4JA ; `ImGui_ImplOpenGL3_Init'::`1'::__LINE__Var
PUBLIC	??_C@_0CI@KPONPGNP@Already?5initialized?5a?5renderer?5@ ; `string'
PUBLIC	??_C@_1HK@EBHKHIMJ@?$AAC?$AA?3?$AA?2?$AAd?$AAe?$AAv?$AA?2?$AAR?$AAa?$AAi?$AAs?$AAi?$AAn?$AA?2?$AAR@ ; `string'
PUBLIC	??_C@_1JK@LNFGNECA@?$AAi?$AAo?$AA?4?$AAB?$AAa?$AAc?$AAk?$AAe?$AAn?$AAd?$AAR?$AAe?$AAn?$AAd?$AAe@ ; `string'
PUBLIC	??_C@_0BD@BIIFHGKK@imgui_impl_opengl3@		; `string'
PUBLIC	??_C@_05KBEOJPB@?$CFd?4?$CFd@			; `string'
PUBLIC	??_C@_0N@NPMABONB@?$CDversion?5130@		; `string'
PUBLIC	??_C@_1NE@OBNLJLDF@?$AA?$CI?$AAi?$AAn?$AAt?$AA?$CJ?$AAs?$AAt?$AAr?$AAl?$AAe?$AAn?$AA?$CI?$AAg?$AAl?$AAs@ ; `string'
PUBLIC	??_C@_01EEMJAFIK@?6@				; `string'
PUBLIC	??_C@_07NBCGADJA@Unknown@			; `string'
PUBLIC	??_C@_04OHIBAGMI@GLAD@				; `string'
PUBLIC	??_C@_0BE@NFGEKHNE@GL_ARB_clip_control@		; `string'
PUBLIC	?__LINE__Var@?0??ImGui_ImplOpenGL3_NewFrame@@YAXXZ@4JA ; `ImGui_ImplOpenGL3_NewFrame'::`1'::__LINE__Var
PUBLIC	??_C@_0CH@LNNMCBEI@Did?5you?5call?5ImGui_ImplOpenGL3_@ ; `string'
PUBLIC	??_C@_1GI@EAEPOMMM@?$AAb?$AAd?$AA?5?$AA?$CB?$AA?$DN?$AA?5?$AA0?$AA?5?$AA?$CG?$AA?$CG?$AA?5?$AA?$CC?$AAD?$AAi?$AAd@ ; `string'
PUBLIC	??_C@_0FD@CCPHEBOI@ERROR?3?5ImGui_ImplOpenGL3_Create@ ; `string'
PUBLIC	??_C@_03OFAPEBGM@?$CFs?6@			; `string'
PUBLIC	??_C@_0EP@EPOJCDAM@ERROR?3?5ImGui_ImplOpenGL3_Create@ ; `string'
PUBLIC	??_C@_0M@GIPNOCDP@?$CDversion?5?$CFd@		; `string'
PUBLIC	??_C@_0PF@HLCKEEPJ@uniform?5mat4?5ProjMtx?$DL?6attribute@ ; `string'
PUBLIC	??_C@_0NI@FNJCCLKC@uniform?5mat4?5ProjMtx?$DL?6in?5vec2?5P@ ; `string'
PUBLIC	??_C@_0BDD@JFKDKIGE@precision?5mediump?5float?$DL?6layout@ ; `string'
PUBLIC	??_C@_0BBK@IIAKMGPG@layout?5?$CIlocation?5?$DN?50?$CJ?5in?5vec2?5P@ ; `string'
PUBLIC	??_C@_0MM@DPJDGIBF@?$CDifdef?5GL_ES?6?5?5?5?5precision?5medi@ ; `string'
PUBLIC	??_C@_0KA@HKFHPDID@uniform?5sampler2D?5Texture?$DL?6in?5v@ ; `string'
PUBLIC	??_C@_0MP@NIPCIBOH@precision?5mediump?5float?$DL?6unifor@ ; `string'
PUBLIC	??_C@_0LG@KGGNFOLP@in?5vec2?5Frag_UV?$DL?6in?5vec4?5Frag_C@ ; `string'
PUBLIC	??_C@_0O@FGFIIOKE@vertex?5shader@		; `string'
PUBLIC	??_C@_0BA@MDFBHBOK@fragment?5shader@		; `string'
PUBLIC	??_C@_0P@HEBBPOKI@shader?5program@		; `string'
PUBLIC	??_C@_07GKACAEDJ@Texture@			; `string'
PUBLIC	??_C@_07EDEMHDKD@ProjMtx@			; `string'
PUBLIC	??_C@_08GCJNLIKG@Position@			; `string'
PUBLIC	??_C@_02IGCIDAGE@UV@				; `string'
PUBLIC	??_C@_05PDOBBJNA@Color@				; `string'
PUBLIC	??_C@_1CG@GPMNJCJ@?$AAi?$AA?5?$AA?$DO?$AA?$DN?$AA?5?$AA0?$AA?5?$AA?$CG?$AA?$CG?$AA?5?$AAi?$AA?5?$AA?$DM?$AA?5?$AAS@ ; `string'
PUBLIC	__real@00000000
PUBLIC	__real@3f800000
PUBLIC	__real@40000000
PUBLIC	__real@bf800000
EXTRN	__imp__wassert:PROC
EXTRN	?GetCurrentContext@ImGui@@YAPEAUImGuiContext@@XZ:PROC ; ImGui::GetCurrentContext
EXTRN	?GetIO@ImGui@@YAAEAUImGuiIO@@XZ:PROC		; ImGui::GetIO
EXTRN	?MemAlloc@ImGui@@YAPEAX_K@Z:PROC		; ImGui::MemAlloc
EXTRN	?MemFree@ImGui@@YAXPEAX@Z:PROC			; ImGui::MemFree
EXTRN	?GetTexDataAsRGBA32@ImFontAtlas@@QEAAXPEAPEAEPEAH11@Z:PROC ; ImFontAtlas::GetTexDataAsRGBA32
EXTRN	__imp___acrt_iob_func:PROC
EXTRN	__imp___stdio_common_vfprintf:PROC
EXTRN	__imp___stdio_common_vsscanf:PROC
EXTRN	_RTC_CheckStackVars:PROC
EXTRN	_RTC_InitBase:PROC
EXTRN	_RTC_Shutdown:PROC
EXTRN	__CheckForDebuggerJustMyCode:PROC
EXTRN	__CxxFrameHandler4:PROC
EXTRN	__GSHandlerCheck:PROC
EXTRN	__GSHandlerCheck_EH4:PROC
EXTRN	__security_check_cookie:PROC
EXTRN	glad_glPolygonMode:QWORD
EXTRN	glad_glScissor:QWORD
EXTRN	glad_glTexParameteri:QWORD
EXTRN	glad_glTexImage2D:QWORD
EXTRN	glad_glDisable:QWORD
EXTRN	glad_glEnable:QWORD
EXTRN	glad_glPixelStorei:QWORD
EXTRN	glad_glGetIntegerv:QWORD
EXTRN	glad_glGetString:QWORD
EXTRN	glad_glIsEnabled:QWORD
EXTRN	glad_glViewport:QWORD
EXTRN	glad_glDrawElements:QWORD
EXTRN	glad_glBindTexture:QWORD
EXTRN	glad_glDeleteTextures:QWORD
EXTRN	glad_glGenTextures:QWORD
EXTRN	glad_glActiveTexture:QWORD
EXTRN	glad_glBlendFuncSeparate:QWORD
EXTRN	glad_glBlendEquation:QWORD
EXTRN	glad_glBindBuffer:QWORD
EXTRN	glad_glDeleteBuffers:QWORD
EXTRN	glad_glGenBuffers:QWORD
EXTRN	glad_glBufferData:QWORD
EXTRN	glad_glBlendEquationSeparate:QWORD
EXTRN	glad_glAttachShader:QWORD
EXTRN	glad_glCompileShader:QWORD
EXTRN	glad_glCreateProgram:QWORD
EXTRN	glad_glCreateShader:QWORD
EXTRN	glad_glDeleteProgram:QWORD
EXTRN	glad_glDeleteShader:QWORD
EXTRN	glad_glDetachShader:QWORD
EXTRN	glad_glEnableVertexAttribArray:QWORD
EXTRN	glad_glGetAttribLocation:QWORD
EXTRN	glad_glGetProgramiv:QWORD
EXTRN	glad_glGetProgramInfoLog:QWORD
EXTRN	glad_glGetShaderiv:QWORD
EXTRN	glad_glGetShaderInfoLog:QWORD
EXTRN	glad_glGetUniformLocation:QWORD
EXTRN	glad_glLinkProgram:QWORD
EXTRN	glad_glShaderSource:QWORD
EXTRN	glad_glUseProgram:QWORD
EXTRN	glad_glUniform1i:QWORD
EXTRN	glad_glUniformMatrix4fv:QWORD
EXTRN	glad_glVertexAttribPointer:QWORD
EXTRN	glad_glGetStringi:QWORD
EXTRN	glad_glBindVertexArray:QWORD
EXTRN	glad_glDeleteVertexArrays:QWORD
EXTRN	glad_glGenVertexArrays:QWORD
EXTRN	glad_glDrawElementsBaseVertex:QWORD
EXTRN	glad_glBindSampler:QWORD
EXTRN	__security_cookie:QWORD
EXTRN	_fltused:DWORD
;	COMDAT ?_OptionsStorage@?1??__local_stdio_printf_options@@9@4_KA
_BSS	SEGMENT
?_OptionsStorage@?1??__local_stdio_printf_options@@9@4_KA DQ 01H DUP (?) ; `__local_stdio_printf_options'::`2'::_OptionsStorage
_BSS	ENDS
;	COMDAT ?_OptionsStorage@?1??__local_stdio_scanf_options@@9@4_KA
_BSS	SEGMENT
?_OptionsStorage@?1??__local_stdio_scanf_options@@9@4_KA DQ 01H DUP (?) ; `__local_stdio_scanf_options'::`2'::_OptionsStorage
_BSS	ENDS
;	COMDAT pdata
pdata	SEGMENT
$pdata$??0ImVec4@@QEAA@XZ DD imagerel $LN3
	DD	imagerel $LN3+84
	DD	imagerel $unwind$??0ImVec4@@QEAA@XZ
pdata	ENDS
;	COMDAT pdata
pdata	SEGMENT
$pdata$??2@YAPEAX_KUImNewWrapper@@PEAX@Z DD imagerel $LN3
	DD	imagerel $LN3+57
	DD	imagerel $unwind$??2@YAPEAX_KUImNewWrapper@@PEAX@Z
pdata	ENDS
;	COMDAT pdata
pdata	SEGMENT
$pdata$??3@YAXPEAXUImNewWrapper@@0@Z DD imagerel $LN3
	DD	imagerel $LN3+50
	DD	imagerel $unwind$??3@YAXPEAXUImNewWrapper@@0@Z
pdata	ENDS
;	COMDAT pdata
pdata	SEGMENT
$pdata$??0?$ImVector@D@@QEAA@XZ DD imagerel $LN3
	DD	imagerel $LN3+90
	DD	imagerel $unwind$??0?$ImVector@D@@QEAA@XZ
pdata	ENDS
;	COMDAT pdata
pdata	SEGMENT
$pdata$??1?$ImVector@D@@QEAA@XZ DD imagerel $LN4
	DD	imagerel $LN4+72
	DD	imagerel $unwind$??1?$ImVector@D@@QEAA@XZ
pdata	ENDS
;	COMDAT pdata
pdata	SEGMENT
$pdata$?begin@?$ImVector@D@@QEAAPEADXZ DD imagerel $LN3
	DD	imagerel $LN3+52
	DD	imagerel $unwind$?begin@?$ImVector@D@@QEAAPEADXZ
pdata	ENDS
;	COMDAT pdata
pdata	SEGMENT
$pdata$?_grow_capacity@?$ImVector@D@@QEBAHH@Z DD imagerel $LN7
	DD	imagerel $LN7+150
	DD	imagerel $unwind$?_grow_capacity@?$ImVector@D@@QEBAHH@Z
pdata	ENDS
;	COMDAT pdata
pdata	SEGMENT
$pdata$?resize@?$ImVector@D@@QEAAXH@Z DD imagerel $LN4
	DD	imagerel $LN4+110
	DD	imagerel $unwind$?resize@?$ImVector@D@@QEAAXH@Z
pdata	ENDS
;	COMDAT pdata
pdata	SEGMENT
$pdata$?reserve@?$ImVector@D@@QEAAXH@Z DD imagerel $LN5
	DD	imagerel $LN5+177
	DD	imagerel $unwind$?reserve@?$ImVector@D@@QEAAXH@Z
pdata	ENDS
;	COMDAT pdata
pdata	SEGMENT
$pdata$?GetTexID@ImDrawCmd@@QEBAPEAXXZ DD imagerel $LN3
	DD	imagerel $LN3+52
	DD	imagerel $unwind$?GetTexID@ImDrawCmd@@QEBAPEAXXZ
pdata	ENDS
;	COMDAT pdata
pdata	SEGMENT
$pdata$??A?$ImVector@UImDrawCmd@@@@QEBAAEBUImDrawCmd@@H@Z DD imagerel $LN5
	DD	imagerel $LN5+121
	DD	imagerel $unwind$??A?$ImVector@UImDrawCmd@@@@QEBAAEBUImDrawCmd@@H@Z
pdata	ENDS
;	COMDAT pdata
pdata	SEGMENT
$pdata$?SetTexID@ImFontAtlas@@QEAAXPEAX@Z DD imagerel $LN3
	DD	imagerel $LN3+64
	DD	imagerel $unwind$?SetTexID@ImFontAtlas@@QEAAXPEAX@Z
pdata	ENDS
;	COMDAT pdata
pdata	SEGMENT
$pdata$?ImGui_ImplOpenGL3_Init@@YA_NPEBD@Z DD imagerel $LN24
	DD	imagerel $LN24+1153
	DD	imagerel $unwind$?ImGui_ImplOpenGL3_Init@@YA_NPEBD@Z
pdata	ENDS
;	COMDAT pdata
pdata	SEGMENT
$pdata$?dtor$0@?0??ImGui_ImplOpenGL3_Init@@YA_NPEBD@Z@4HA DD imagerel ?dtor$0@?0??ImGui_ImplOpenGL3_Init@@YA_NPEBD@Z@4HA
	DD	imagerel ?dtor$0@?0??ImGui_ImplOpenGL3_Init@@YA_NPEBD@Z@4HA+56
	DD	imagerel $unwind$?dtor$0@?0??ImGui_ImplOpenGL3_Init@@YA_NPEBD@Z@4HA
pdata	ENDS
;	COMDAT pdata
pdata	SEGMENT
$pdata$?ImGui_ImplOpenGL3_Shutdown@@YAXXZ DD imagerel $LN3
	DD	imagerel $LN3+99
	DD	imagerel $unwind$?ImGui_ImplOpenGL3_Shutdown@@YAXXZ
pdata	ENDS
;	COMDAT pdata
pdata	SEGMENT
$pdata$?ImGui_ImplOpenGL3_NewFrame@@YAXXZ DD imagerel $LN6
	DD	imagerel $LN6+114
	DD	imagerel $unwind$?ImGui_ImplOpenGL3_NewFrame@@YAXXZ
pdata	ENDS
;	COMDAT pdata
pdata	SEGMENT
$pdata$?ImGui_ImplOpenGL3_RenderDrawData@@YAXPEAUImDrawData@@@Z DD imagerel $LN36
	DD	imagerel $LN36+2890
	DD	imagerel $unwind$?ImGui_ImplOpenGL3_RenderDrawData@@YAXPEAUImDrawData@@@Z
pdata	ENDS
;	COMDAT pdata
pdata	SEGMENT
$pdata$?ImGui_ImplOpenGL3_CreateFontsTexture@@YA_NXZ DD imagerel $LN3
	DD	imagerel $LN3+531
	DD	imagerel $unwind$?ImGui_ImplOpenGL3_CreateFontsTexture@@YA_NXZ
pdata	ENDS
;	COMDAT pdata
pdata	SEGMENT
$pdata$?ImGui_ImplOpenGL3_DestroyFontsTexture@@YAXXZ DD imagerel $LN4
	DD	imagerel $LN4+144
	DD	imagerel $unwind$?ImGui_ImplOpenGL3_DestroyFontsTexture@@YAXXZ
pdata	ENDS
;	COMDAT pdata
pdata	SEGMENT
$pdata$?ImGui_ImplOpenGL3_CreateDeviceObjects@@YA_NXZ DD imagerel $LN9
	DD	imagerel $LN9+1428
	DD	imagerel $unwind$?ImGui_ImplOpenGL3_CreateDeviceObjects@@YA_NXZ
pdata	ENDS
;	COMDAT pdata
pdata	SEGMENT
$pdata$?ImGui_ImplOpenGL3_DestroyDeviceObjects@@YAXXZ DD imagerel $LN6
	DD	imagerel $LN6+213
	DD	imagerel $unwind$?ImGui_ImplOpenGL3_DestroyDeviceObjects@@YAXXZ
pdata	ENDS
;	COMDAT pdata
pdata	SEGMENT
$pdata$__local_stdio_printf_options DD imagerel $LN3
	DD	imagerel $LN3+44
	DD	imagerel $unwind$__local_stdio_printf_options
pdata	ENDS
;	COMDAT pdata
pdata	SEGMENT
$pdata$__local_stdio_scanf_options DD imagerel $LN3
	DD	imagerel $LN3+44
	DD	imagerel $unwind$__local_stdio_scanf_options
pdata	ENDS
;	COMDAT pdata
pdata	SEGMENT
$pdata$_vfprintf_l DD imagerel $LN3
	DD	imagerel $LN3+103
	DD	imagerel $unwind$_vfprintf_l
pdata	ENDS
;	COMDAT pdata
pdata	SEGMENT
$pdata$fprintf DD imagerel $LN3
	DD	imagerel $LN3+184
	DD	imagerel $unwind$fprintf
pdata	ENDS
;	COMDAT pdata
pdata	SEGMENT
$pdata$_vsscanf_l DD imagerel $LN3
	DD	imagerel $LN3+115
	DD	imagerel $unwind$_vsscanf_l
pdata	ENDS
;	COMDAT pdata
pdata	SEGMENT
$pdata$sscanf DD imagerel $LN3
	DD	imagerel $LN3+184
	DD	imagerel $unwind$sscanf
pdata	ENDS
;	COMDAT pdata
pdata	SEGMENT
$pdata$??0ImGui_ImplOpenGL3_Data@@QEAA@XZ DD imagerel $LN3
	DD	imagerel $LN3+64
	DD	imagerel $unwind$??0ImGui_ImplOpenGL3_Data@@QEAA@XZ
pdata	ENDS
;	COMDAT pdata
pdata	SEGMENT
$pdata$?ImGui_ImplOpenGL3_GetBackendData@@YAPEAUImGui_ImplOpenGL3_Data@@XZ DD imagerel ?ImGui_ImplOpenGL3_GetBackendData@@YAPEAUImGui_ImplOpenGL3_Data@@XZ
	DD	imagerel ?ImGui_ImplOpenGL3_GetBackendData@@YAPEAUImGui_ImplOpenGL3_Data@@XZ+86
	DD	imagerel $unwind$?ImGui_ImplOpenGL3_GetBackendData@@YAPEAUImGui_ImplOpenGL3_Data@@XZ
pdata	ENDS
;	COMDAT pdata
pdata	SEGMENT
$pdata$??$IM_DELETE@UImGui_ImplOpenGL3_Data@@@@YAXPEAUImGui_ImplOpenGL3_Data@@@Z DD imagerel $LN4
	DD	imagerel $LN4+63
	DD	imagerel $unwind$??$IM_DELETE@UImGui_ImplOpenGL3_Data@@@@YAXPEAUImGui_ImplOpenGL3_Data@@@Z
pdata	ENDS
;	COMDAT pdata
pdata	SEGMENT
$pdata$?ImGui_ImplOpenGL3_SetupRenderState@@YAXPEAUImDrawData@@HHI@Z DD imagerel ?ImGui_ImplOpenGL3_SetupRenderState@@YAXPEAUImDrawData@@HHI@Z
	DD	imagerel ?ImGui_ImplOpenGL3_SetupRenderState@@YAXPEAUImDrawData@@HHI@Z+1459
	DD	imagerel $unwind$?ImGui_ImplOpenGL3_SetupRenderState@@YAXPEAUImDrawData@@HHI@Z
pdata	ENDS
;	COMDAT pdata
pdata	SEGMENT
$pdata$?CheckShader@@YA_NIPEBD@Z DD imagerel ?CheckShader@@YA_NIPEBD@Z
	DD	imagerel ?CheckShader@@YA_NIPEBD@Z+491
	DD	imagerel $unwind$?CheckShader@@YA_NIPEBD@Z
pdata	ENDS
;	COMDAT pdata
pdata	SEGMENT
$pdata$?dtor$0@?0??CheckShader@@YA_NIPEBD@Z@4HA DD imagerel ?dtor$0@?0??CheckShader@@YA_NIPEBD@Z@4HA
	DD	imagerel ?dtor$0@?0??CheckShader@@YA_NIPEBD@Z@4HA+36
	DD	imagerel $unwind$?dtor$0@?0??CheckShader@@YA_NIPEBD@Z@4HA
pdata	ENDS
;	COMDAT pdata
pdata	SEGMENT
$pdata$?CheckProgram@@YA_NIPEBD@Z DD imagerel ?CheckProgram@@YA_NIPEBD@Z
	DD	imagerel ?CheckProgram@@YA_NIPEBD@Z+491
	DD	imagerel $unwind$?CheckProgram@@YA_NIPEBD@Z
pdata	ENDS
;	COMDAT pdata
pdata	SEGMENT
$pdata$?dtor$0@?0??CheckProgram@@YA_NIPEBD@Z@4HA DD imagerel ?dtor$0@?0??CheckProgram@@YA_NIPEBD@Z@4HA
	DD	imagerel ?dtor$0@?0??CheckProgram@@YA_NIPEBD@Z@4HA+36
	DD	imagerel $unwind$?dtor$0@?0??CheckProgram@@YA_NIPEBD@Z@4HA
pdata	ENDS
;	COMDAT __real@bf800000
CONST	SEGMENT
__real@bf800000 DD 0bf800000r			; -1
CONST	ENDS
;	COMDAT __real@40000000
CONST	SEGMENT
__real@40000000 DD 040000000r			; 2
CONST	ENDS
;	COMDAT __real@3f800000
CONST	SEGMENT
__real@3f800000 DD 03f800000r			; 1
CONST	ENDS
;	COMDAT __real@00000000
CONST	SEGMENT
__real@00000000 DD 000000000r			; 0
CONST	ENDS
;	COMDAT rtc$TMZ
rtc$TMZ	SEGMENT
_RTC_Shutdown.rtc$TMZ DQ FLAT:_RTC_Shutdown
rtc$TMZ	ENDS
;	COMDAT rtc$IMZ
rtc$IMZ	SEGMENT
_RTC_InitBase.rtc$IMZ DQ FLAT:_RTC_InitBase
rtc$IMZ	ENDS
;	COMDAT ??_C@_1CG@GPMNJCJ@?$AAi?$AA?5?$AA?$DO?$AA?$DN?$AA?5?$AA0?$AA?5?$AA?$CG?$AA?$CG?$AA?5?$AAi?$AA?5?$AA?$DM?$AA?5?$AAS@
CONST	SEGMENT
??_C@_1CG@GPMNJCJ@?$AAi?$AA?5?$AA?$DO?$AA?$DN?$AA?5?$AA0?$AA?5?$AA?$CG?$AA?$CG?$AA?5?$AAi?$AA?5?$AA?$DM?$AA?5?$AAS@ DB 'i'
	DB	00H, ' ', 00H, '>', 00H, '=', 00H, ' ', 00H, '0', 00H, ' ', 00H
	DB	'&', 00H, '&', 00H, ' ', 00H, 'i', 00H, ' ', 00H, '<', 00H, ' '
	DB	00H, 'S', 00H, 'i', 00H, 'z', 00H, 'e', 00H, 00H, 00H ; `string'
CONST	ENDS
;	COMDAT ??_C@_05PDOBBJNA@Color@
CONST	SEGMENT
??_C@_05PDOBBJNA@Color@ DB 'Color', 00H			; `string'
CONST	ENDS
;	COMDAT ??_C@_02IGCIDAGE@UV@
CONST	SEGMENT
??_C@_02IGCIDAGE@UV@ DB 'UV', 00H			; `string'
CONST	ENDS
;	COMDAT ??_C@_08GCJNLIKG@Position@
CONST	SEGMENT
??_C@_08GCJNLIKG@Position@ DB 'Position', 00H		; `string'
CONST	ENDS
;	COMDAT ??_C@_07EDEMHDKD@ProjMtx@
CONST	SEGMENT
??_C@_07EDEMHDKD@ProjMtx@ DB 'ProjMtx', 00H		; `string'
CONST	ENDS
;	COMDAT ??_C@_07GKACAEDJ@Texture@
CONST	SEGMENT
??_C@_07GKACAEDJ@Texture@ DB 'Texture', 00H		; `string'
CONST	ENDS
;	COMDAT ??_C@_0P@HEBBPOKI@shader?5program@
CONST	SEGMENT
??_C@_0P@HEBBPOKI@shader?5program@ DB 'shader program', 00H ; `string'
CONST	ENDS
;	COMDAT ??_C@_0BA@MDFBHBOK@fragment?5shader@
CONST	SEGMENT
??_C@_0BA@MDFBHBOK@fragment?5shader@ DB 'fragment shader', 00H ; `string'
CONST	ENDS
;	COMDAT ??_C@_0O@FGFIIOKE@vertex?5shader@
CONST	SEGMENT
??_C@_0O@FGFIIOKE@vertex?5shader@ DB 'vertex shader', 00H ; `string'
CONST	ENDS
;	COMDAT ??_C@_0LG@KGGNFOLP@in?5vec2?5Frag_UV?$DL?6in?5vec4?5Frag_C@
CONST	SEGMENT
??_C@_0LG@KGGNFOLP@in?5vec2?5Frag_UV?$DL?6in?5vec4?5Frag_C@ DB 'in vec2 F'
	DB	'rag_UV;', 0aH, 'in vec4 Frag_Color;', 0aH, 'uniform sampler2D'
	DB	' Texture;', 0aH, 'layout (location = 0) out vec4 Out_Color;', 0aH
	DB	'void main()', 0aH, '{', 0aH, '    Out_Color = Frag_Color * te'
	DB	'xture(Texture, Frag_UV.st);', 0aH, '}', 0aH, 00H ; `string'
CONST	ENDS
;	COMDAT ??_C@_0MP@NIPCIBOH@precision?5mediump?5float?$DL?6unifor@
CONST	SEGMENT
??_C@_0MP@NIPCIBOH@precision?5mediump?5float?$DL?6unifor@ DB 'precision m'
	DB	'ediump float;', 0aH, 'uniform sampler2D Texture;', 0aH, 'in v'
	DB	'ec2 Frag_UV;', 0aH, 'in vec4 Frag_Color;', 0aH, 'layout (loca'
	DB	'tion = 0) out vec4 Out_Color;', 0aH, 'void main()', 0aH, '{', 0aH
	DB	'    Out_Color = Frag_Color * texture(Texture, Frag_UV.st);', 0aH
	DB	'}', 0aH, 00H				; `string'
CONST	ENDS
;	COMDAT ??_C@_0KA@HKFHPDID@uniform?5sampler2D?5Texture?$DL?6in?5v@
CONST	SEGMENT
??_C@_0KA@HKFHPDID@uniform?5sampler2D?5Texture?$DL?6in?5v@ DB 'uniform sa'
	DB	'mpler2D Texture;', 0aH, 'in vec2 Frag_UV;', 0aH, 'in vec4 Fra'
	DB	'g_Color;', 0aH, 'out vec4 Out_Color;', 0aH, 'void main()', 0aH
	DB	'{', 0aH, '    Out_Color = Frag_Color * texture(Texture, Frag_'
	DB	'UV.st);', 0aH, '}', 0aH, 00H		; `string'
CONST	ENDS
;	COMDAT ??_C@_0MM@DPJDGIBF@?$CDifdef?5GL_ES?6?5?5?5?5precision?5medi@
CONST	SEGMENT
??_C@_0MM@DPJDGIBF@?$CDifdef?5GL_ES?6?5?5?5?5precision?5medi@ DB '#ifdef '
	DB	'GL_ES', 0aH, '    precision mediump float;', 0aH, '#endif', 0aH
	DB	'uniform sampler2D Texture;', 0aH, 'varying vec2 Frag_UV;', 0aH
	DB	'varying vec4 Frag_Color;', 0aH, 'void main()', 0aH, '{', 0aH, ' '
	DB	'   gl_FragColor = Frag_Color * texture2D(Texture, Frag_UV.st)'
	DB	';', 0aH, '}', 0aH, 00H			; `string'
CONST	ENDS
;	COMDAT ??_C@_0BBK@IIAKMGPG@layout?5?$CIlocation?5?$DN?50?$CJ?5in?5vec2?5P@
CONST	SEGMENT
??_C@_0BBK@IIAKMGPG@layout?5?$CIlocation?5?$DN?50?$CJ?5in?5vec2?5P@ DB 'l'
	DB	'ayout (location = 0) in vec2 Position;', 0aH, 'layout (locati'
	DB	'on = 1) in vec2 UV;', 0aH, 'layout (location = 2) in vec4 Col'
	DB	'or;', 0aH, 'uniform mat4 ProjMtx;', 0aH, 'out vec2 Frag_UV;', 0aH
	DB	'out vec4 Frag_Color;', 0aH, 'void main()', 0aH, '{', 0aH, '  '
	DB	'  Frag_UV = UV;', 0aH, '    Frag_Color = Color;', 0aH, '    g'
	DB	'l_Position = ProjMtx * vec4(Position.xy,0,1);', 0aH, '}', 0aH
	DB	00H						; `string'
CONST	ENDS
;	COMDAT ??_C@_0BDD@JFKDKIGE@precision?5mediump?5float?$DL?6layout@
CONST	SEGMENT
??_C@_0BDD@JFKDKIGE@precision?5mediump?5float?$DL?6layout@ DB 'precision '
	DB	'mediump float;', 0aH, 'layout (location = 0) in vec2 Position'
	DB	';', 0aH, 'layout (location = 1) in vec2 UV;', 0aH, 'layout (l'
	DB	'ocation = 2) in vec4 Color;', 0aH, 'uniform mat4 ProjMtx;', 0aH
	DB	'out vec2 Frag_UV;', 0aH, 'out vec4 Frag_Color;', 0aH, 'void m'
	DB	'ain()', 0aH, '{', 0aH, '    Frag_UV = UV;', 0aH, '    Frag_Co'
	DB	'lor = Color;', 0aH, '    gl_Position = ProjMtx * vec4(Positio'
	DB	'n.xy,0,1);', 0aH, '}', 0aH, 00H		; `string'
CONST	ENDS
;	COMDAT ??_C@_0NI@FNJCCLKC@uniform?5mat4?5ProjMtx?$DL?6in?5vec2?5P@
CONST	SEGMENT
??_C@_0NI@FNJCCLKC@uniform?5mat4?5ProjMtx?$DL?6in?5vec2?5P@ DB 'uniform m'
	DB	'at4 ProjMtx;', 0aH, 'in vec2 Position;', 0aH, 'in vec2 UV;', 0aH
	DB	'in vec4 Color;', 0aH, 'out vec2 Frag_UV;', 0aH, 'out vec4 Fra'
	DB	'g_Color;', 0aH, 'void main()', 0aH, '{', 0aH, '    Frag_UV = '
	DB	'UV;', 0aH, '    Frag_Color = Color;', 0aH, '    gl_Position ='
	DB	' ProjMtx * vec4(Position.xy,0,1);', 0aH, '}', 0aH, 00H ; `string'
CONST	ENDS
;	COMDAT ??_C@_0PF@HLCKEEPJ@uniform?5mat4?5ProjMtx?$DL?6attribute@
CONST	SEGMENT
??_C@_0PF@HLCKEEPJ@uniform?5mat4?5ProjMtx?$DL?6attribute@ DB 'uniform mat'
	DB	'4 ProjMtx;', 0aH, 'attribute vec2 Position;', 0aH, 'attribute'
	DB	' vec2 UV;', 0aH, 'attribute vec4 Color;', 0aH, 'varying vec2 '
	DB	'Frag_UV;', 0aH, 'varying vec4 Frag_Color;', 0aH, 'void main()'
	DB	0aH, '{', 0aH, '    Frag_UV = UV;', 0aH, '    Frag_Color = Col'
	DB	'or;', 0aH, '    gl_Position = ProjMtx * vec4(Position.xy,0,1)'
	DB	';', 0aH, '}', 0aH, 00H			; `string'
CONST	ENDS
;	COMDAT ??_C@_0M@GIPNOCDP@?$CDversion?5?$CFd@
CONST	SEGMENT
??_C@_0M@GIPNOCDP@?$CDversion?5?$CFd@ DB '#version %d', 00H ; `string'
CONST	ENDS
;	COMDAT ??_C@_0EP@EPOJCDAM@ERROR?3?5ImGui_ImplOpenGL3_Create@
CONST	SEGMENT
??_C@_0EP@EPOJCDAM@ERROR?3?5ImGui_ImplOpenGL3_Create@ DB 'ERROR: ImGui_Im'
	DB	'plOpenGL3_CreateDeviceObjects: failed to link %s! With GLSL %'
	DB	's', 0aH, 00H				; `string'
CONST	ENDS
;	COMDAT ??_C@_03OFAPEBGM@?$CFs?6@
CONST	SEGMENT
??_C@_03OFAPEBGM@?$CFs?6@ DB '%s', 0aH, 00H		; `string'
CONST	ENDS
;	COMDAT ??_C@_0FD@CCPHEBOI@ERROR?3?5ImGui_ImplOpenGL3_Create@
CONST	SEGMENT
??_C@_0FD@CCPHEBOI@ERROR?3?5ImGui_ImplOpenGL3_Create@ DB 'ERROR: ImGui_Im'
	DB	'plOpenGL3_CreateDeviceObjects: failed to compile %s! With GLS'
	DB	'L: %s', 0aH, 00H				; `string'
CONST	ENDS
;	COMDAT ??_C@_1GI@EAEPOMMM@?$AAb?$AAd?$AA?5?$AA?$CB?$AA?$DN?$AA?5?$AA0?$AA?5?$AA?$CG?$AA?$CG?$AA?5?$AA?$CC?$AAD?$AAi?$AAd@
CONST	SEGMENT
??_C@_1GI@EAEPOMMM@?$AAb?$AAd?$AA?5?$AA?$CB?$AA?$DN?$AA?5?$AA0?$AA?5?$AA?$CG?$AA?$CG?$AA?5?$AA?$CC?$AAD?$AAi?$AAd@ DB 'b'
	DB	00H, 'd', 00H, ' ', 00H, '!', 00H, '=', 00H, ' ', 00H, '0', 00H
	DB	' ', 00H, '&', 00H, '&', 00H, ' ', 00H, '"', 00H, 'D', 00H, 'i'
	DB	00H, 'd', 00H, ' ', 00H, 'y', 00H, 'o', 00H, 'u', 00H, ' ', 00H
	DB	'c', 00H, 'a', 00H, 'l', 00H, 'l', 00H, ' ', 00H, 'I', 00H, 'm'
	DB	00H, 'G', 00H, 'u', 00H, 'i', 00H, '_', 00H, 'I', 00H, 'm', 00H
	DB	'p', 00H, 'l', 00H, 'O', 00H, 'p', 00H, 'e', 00H, 'n', 00H, 'G'
	DB	00H, 'L', 00H, '3', 00H, '_', 00H, 'I', 00H, 'n', 00H, 'i', 00H
	DB	't', 00H, '(', 00H, ')', 00H, '?', 00H, '"', 00H, 00H, 00H ; `string'
CONST	ENDS
;	COMDAT ??_C@_0CH@LNNMCBEI@Did?5you?5call?5ImGui_ImplOpenGL3_@
CONST	SEGMENT
??_C@_0CH@LNNMCBEI@Did?5you?5call?5ImGui_ImplOpenGL3_@ DB 'Did you call I'
	DB	'mGui_ImplOpenGL3_Init()?', 00H		; `string'
CONST	ENDS
;	COMDAT ?__LINE__Var@?0??ImGui_ImplOpenGL3_NewFrame@@YAXXZ@4JA
_DATA	SEGMENT
?__LINE__Var@?0??ImGui_ImplOpenGL3_NewFrame@@YAXXZ@4JA DD 0135H ; `ImGui_ImplOpenGL3_NewFrame'::`1'::__LINE__Var
_DATA	ENDS
;	COMDAT ??_C@_0BE@NFGEKHNE@GL_ARB_clip_control@
CONST	SEGMENT
??_C@_0BE@NFGEKHNE@GL_ARB_clip_control@ DB 'GL_ARB_clip_control', 00H ; `string'
CONST	ENDS
;	COMDAT ??_C@_04OHIBAGMI@GLAD@
CONST	SEGMENT
??_C@_04OHIBAGMI@GLAD@ DB 'GLAD', 00H			; `string'
CONST	ENDS
;	COMDAT ??_C@_07NBCGADJA@Unknown@
CONST	SEGMENT
??_C@_07NBCGADJA@Unknown@ DB 'Unknown', 00H		; `string'
CONST	ENDS
;	COMDAT ??_C@_01EEMJAFIK@?6@
CONST	SEGMENT
??_C@_01EEMJAFIK@?6@ DB 0aH, 00H			; `string'
CONST	ENDS
;	COMDAT ??_C@_1NE@OBNLJLDF@?$AA?$CI?$AAi?$AAn?$AAt?$AA?$CJ?$AAs?$AAt?$AAr?$AAl?$AAe?$AAn?$AA?$CI?$AAg?$AAl?$AAs@
CONST	SEGMENT
??_C@_1NE@OBNLJLDF@?$AA?$CI?$AAi?$AAn?$AAt?$AA?$CJ?$AAs?$AAt?$AAr?$AAl?$AAe?$AAn?$AA?$CI?$AAg?$AAl?$AAs@ DB '('
	DB	00H, 'i', 00H, 'n', 00H, 't', 00H, ')', 00H, 's', 00H, 't', 00H
	DB	'r', 00H, 'l', 00H, 'e', 00H, 'n', 00H, '(', 00H, 'g', 00H, 'l'
	DB	00H, 's', 00H, 'l', 00H, '_', 00H, 'v', 00H, 'e', 00H, 'r', 00H
	DB	's', 00H, 'i', 00H, 'o', 00H, 'n', 00H, ')', 00H, ' ', 00H, '+'
	DB	00H, ' ', 00H, '2', 00H, ' ', 00H, '<', 00H, ' ', 00H, '(', 00H
	DB	'(', 00H, 'i', 00H, 'n', 00H, 't', 00H, ')', 00H, '(', 00H, 's'
	DB	00H, 'i', 00H, 'z', 00H, 'e', 00H, 'o', 00H, 'f', 00H, '(', 00H
	DB	'b', 00H, 'd', 00H, '-', 00H, '>', 00H, 'G', 00H, 'l', 00H, 's'
	DB	00H, 'l', 00H, 'V', 00H, 'e', 00H, 'r', 00H, 's', 00H, 'i', 00H
	DB	'o', 00H, 'n', 00H, 'S', 00H, 't', 00H, 'r', 00H, 'i', 00H, 'n'
	DB	00H, 'g', 00H, ')', 00H, ' ', 00H, '/', 00H, ' ', 00H, 's', 00H
	DB	'i', 00H, 'z', 00H, 'e', 00H, 'o', 00H, 'f', 00H, '(', 00H, '*'
	DB	00H, '(', 00H, 'b', 00H, 'd', 00H, '-', 00H, '>', 00H, 'G', 00H
	DB	'l', 00H, 's', 00H, 'l', 00H, 'V', 00H, 'e', 00H, 'r', 00H, 's'
	DB	00H, 'i', 00H, 'o', 00H, 'n', 00H, 'S', 00H, 't', 00H, 'r', 00H
	DB	'i', 00H, 'n', 00H, 'g', 00H, ')', 00H, ')', 00H, ')', 00H, ')'
	DB	00H, 00H, 00H				; `string'
CONST	ENDS
;	COMDAT ??_C@_0N@NPMABONB@?$CDversion?5130@
CONST	SEGMENT
??_C@_0N@NPMABONB@?$CDversion?5130@ DB '#version 130', 00H ; `string'
CONST	ENDS
;	COMDAT ??_C@_05KBEOJPB@?$CFd?4?$CFd@
CONST	SEGMENT
??_C@_05KBEOJPB@?$CFd?4?$CFd@ DB '%d.%d', 00H		; `string'
CONST	ENDS
;	COMDAT ??_C@_0BD@BIIFHGKK@imgui_impl_opengl3@
CONST	SEGMENT
??_C@_0BD@BIIFHGKK@imgui_impl_opengl3@ DB 'imgui_impl_opengl3', 00H ; `string'
CONST	ENDS
;	COMDAT ??_C@_1JK@LNFGNECA@?$AAi?$AAo?$AA?4?$AAB?$AAa?$AAc?$AAk?$AAe?$AAn?$AAd?$AAR?$AAe?$AAn?$AAd?$AAe@
CONST	SEGMENT
??_C@_1JK@LNFGNECA@?$AAi?$AAo?$AA?4?$AAB?$AAa?$AAc?$AAk?$AAe?$AAn?$AAd?$AAR?$AAe?$AAn?$AAd?$AAe@ DB 'i'
	DB	00H, 'o', 00H, '.', 00H, 'B', 00H, 'a', 00H, 'c', 00H, 'k', 00H
	DB	'e', 00H, 'n', 00H, 'd', 00H, 'R', 00H, 'e', 00H, 'n', 00H, 'd'
	DB	00H, 'e', 00H, 'r', 00H, 'e', 00H, 'r', 00H, 'U', 00H, 's', 00H
	DB	'e', 00H, 'r', 00H, 'D', 00H, 'a', 00H, 't', 00H, 'a', 00H, ' '
	DB	00H, '=', 00H, '=', 00H, ' ', 00H, '0', 00H, ' ', 00H, '&', 00H
	DB	'&', 00H, ' ', 00H, '"', 00H, 'A', 00H, 'l', 00H, 'r', 00H, 'e'
	DB	00H, 'a', 00H, 'd', 00H, 'y', 00H, ' ', 00H, 'i', 00H, 'n', 00H
	DB	'i', 00H, 't', 00H, 'i', 00H, 'a', 00H, 'l', 00H, 'i', 00H, 'z'
	DB	00H, 'e', 00H, 'd', 00H, ' ', 00H, 'a', 00H, ' ', 00H, 'r', 00H
	DB	'e', 00H, 'n', 00H, 'd', 00H, 'e', 00H, 'r', 00H, 'e', 00H, 'r'
	DB	00H, ' ', 00H, 'b', 00H, 'a', 00H, 'c', 00H, 'k', 00H, 'e', 00H
	DB	'n', 00H, 'd', 00H, '!', 00H, '"', 00H, 00H, 00H ; `string'
CONST	ENDS
;	COMDAT ??_C@_1HK@EBHKHIMJ@?$AAC?$AA?3?$AA?2?$AAd?$AAe?$AAv?$AA?2?$AAR?$AAa?$AAi?$AAs?$AAi?$AAn?$AA?2?$AAR@
CONST	SEGMENT
??_C@_1HK@EBHKHIMJ@?$AAC?$AA?3?$AA?2?$AAd?$AAe?$AAv?$AA?2?$AAR?$AAa?$AAi?$AAs?$AAi?$AAn?$AA?2?$AAR@ DB 'C'
	DB	00H, ':', 00H, '\', 00H, 'd', 00H, 'e', 00H, 'v', 00H, '\', 00H
	DB	'R', 00H, 'a', 00H, 'i', 00H, 's', 00H, 'i', 00H, 'n', 00H, '\'
	DB	00H, 'R', 00H, 'a', 00H, 'i', 00H, 's', 00H, 'i', 00H, 'n', 00H
	DB	'\', 00H, 's', 00H, 'r', 00H, 'c', 00H, '\', 00H, 'R', 00H, 'a'
	DB	00H, 'i', 00H, 's', 00H, 'i', 00H, 'n', 00H, '\', 00H, 'i', 00H
	DB	'm', 00H, 'g', 00H, 'u', 00H, 'i', 00H, '\', 00H, 'i', 00H, 'm'
	DB	00H, 'g', 00H, 'u', 00H, 'i', 00H, '_', 00H, 'i', 00H, 'm', 00H
	DB	'p', 00H, 'l', 00H, '_', 00H, 'o', 00H, 'p', 00H, 'e', 00H, 'n'
	DB	00H, 'g', 00H, 'l', 00H, '3', 00H, '.', 00H, 'c', 00H, 'p', 00H
	DB	'p', 00H, 00H, 00H				; `string'
CONST	ENDS
;	COMDAT ??_C@_0CI@KPONPGNP@Already?5initialized?5a?5renderer?5@
CONST	SEGMENT
??_C@_0CI@KPONPGNP@Already?5initialized?5a?5renderer?5@ DB 'Already initi'
	DB	'alized a renderer backend!', 00H		; `string'
CONST	ENDS
;	COMDAT ?__LINE__Var@?0??ImGui_ImplOpenGL3_Init@@YA_NPEBD@Z@4JA
_DATA	SEGMENT
?__LINE__Var@?0??ImGui_ImplOpenGL3_Init@@YA_NPEBD@Z@4JA DD 0c9H ; `ImGui_ImplOpenGL3_Init'::`1'::__LINE__Var
_DATA	ENDS
;	COMDAT ??_C@_1FM@JNPAKPFE@?$AAC?$AA?3?$AA?2?$AAd?$AAe?$AAv?$AA?2?$AAR?$AAa?$AAi?$AAs?$AAi?$AAn?$AA?2?$AAR@
CONST	SEGMENT
??_C@_1FM@JNPAKPFE@?$AAC?$AA?3?$AA?2?$AAd?$AAe?$AAv?$AA?2?$AAR?$AAa?$AAi?$AAs?$AAi?$AAn?$AA?2?$AAR@ DB 'C'
	DB	00H, ':', 00H, '\', 00H, 'd', 00H, 'e', 00H, 'v', 00H, '\', 00H
	DB	'R', 00H, 'a', 00H, 'i', 00H, 's', 00H, 'i', 00H, 'n', 00H, '\'
	DB	00H, 'R', 00H, 'a', 00H, 'i', 00H, 's', 00H, 'i', 00H, 'n', 00H
	DB	'\', 00H, 's', 00H, 'r', 00H, 'c', 00H, '\', 00H, 'R', 00H, 'a'
	DB	00H, 'i', 00H, 's', 00H, 'i', 00H, 'n', 00H, '\', 00H, 'i', 00H
	DB	'm', 00H, 'g', 00H, 'u', 00H, 'i', 00H, '\', 00H, 'i', 00H, 'm'
	DB	00H, 'g', 00H, 'u', 00H, 'i', 00H, '.', 00H, 'h', 00H, 00H, 00H ; `string'
CONST	ENDS
;	COMDAT voltbl
voltbl	SEGMENT
_volmd	DB	00H
	DB	05H
voltbl	ENDS
;	COMDAT voltbl
voltbl	SEGMENT
_volmd	DW	039H
	DW	01d2H
voltbl	ENDS
;	COMDAT xdata
xdata	SEGMENT
$unwind$?dtor$0@?0??CheckProgram@@YA_NIPEBD@Z@4HA DD 031001H
	DD	0700c4210H
	DD	0500bH
xdata	ENDS
;	COMDAT xdata
xdata	SEGMENT
$ip2state$?CheckProgram@@YA_NIPEBD@Z DB 06H
	DB	00H
	DB	00H
	DB	0fdH, 03H
	DB	02H
	DB	'A', 02H
	DB	00H
xdata	ENDS
;	COMDAT xdata
xdata	SEGMENT
$stateUnwindMap$?CheckProgram@@YA_NIPEBD@Z DB 02H
	DB	0eH
	DD	imagerel ?dtor$0@?0??CheckProgram@@YA_NIPEBD@Z@4HA
xdata	ENDS
;	COMDAT xdata
xdata	SEGMENT
$cppxdata$?CheckProgram@@YA_NIPEBD@Z DB 028H
	DD	imagerel $stateUnwindMap$?CheckProgram@@YA_NIPEBD@Z
	DD	imagerel $ip2state$?CheckProgram@@YA_NIPEBD@Z
xdata	ENDS
;	COMDAT xdata
xdata	SEGMENT
$unwind$?CheckProgram@@YA_NIPEBD@Z DD 025054019H
	DD	01122317H
	DD	0700b0033H
	DD	0500aH
	DD	imagerel __GSHandlerCheck_EH4
	DD	imagerel $cppxdata$?CheckProgram@@YA_NIPEBD@Z
	DD	0182H
xdata	ENDS
;	COMDAT CONST
CONST	SEGMENT
?CheckProgram@@YA_NIPEBD@Z$rtcName$0 DB 073H		; CheckProgram
	DB	074H
	DB	061H
	DB	074H
	DB	075H
	DB	073H
	DB	00H
	ORG $+1
?CheckProgram@@YA_NIPEBD@Z$rtcName$1 DB 06cH		; CheckProgram
	DB	06fH
	DB	067H
	DB	05fH
	DB	06cH
	DB	065H
	DB	06eH
	DB	067H
	DB	074H
	DB	068H
	DB	00H
	ORG $+1
?CheckProgram@@YA_NIPEBD@Z$rtcName$2 DB 062H		; CheckProgram
	DB	075H
	DB	066H
	DB	00H
	ORG $+8
?CheckProgram@@YA_NIPEBD@Z$rtcVarDesc DD 088H		; CheckProgram
	DD	010H
	DQ	FLAT:?CheckProgram@@YA_NIPEBD@Z$rtcName$2
	DD	064H
	DD	04H
	DQ	FLAT:?CheckProgram@@YA_NIPEBD@Z$rtcName$1
	DD	044H
	DD	04H
	DQ	FLAT:?CheckProgram@@YA_NIPEBD@Z$rtcName$0
	ORG $+144
?CheckProgram@@YA_NIPEBD@Z$rtcFrameData DD 03H		; CheckProgram
	DD	00H
	DQ	FLAT:?CheckProgram@@YA_NIPEBD@Z$rtcVarDesc
CONST	ENDS
;	COMDAT voltbl
voltbl	SEGMENT
_volmd	DB	00H
	DB	05H
voltbl	ENDS
;	COMDAT voltbl
voltbl	SEGMENT
_volmd	DW	039H
	DW	01d2H
voltbl	ENDS
;	COMDAT xdata
xdata	SEGMENT
$unwind$?dtor$0@?0??CheckShader@@YA_NIPEBD@Z@4HA DD 031001H
	DD	0700c4210H
	DD	0500bH
xdata	ENDS
;	COMDAT xdata
xdata	SEGMENT
$ip2state$?CheckShader@@YA_NIPEBD@Z DB 06H
	DB	00H
	DB	00H
	DB	0fdH, 03H
	DB	02H
	DB	'A', 02H
	DB	00H
xdata	ENDS
;	COMDAT xdata
xdata	SEGMENT
$stateUnwindMap$?CheckShader@@YA_NIPEBD@Z DB 02H
	DB	0eH
	DD	imagerel ?dtor$0@?0??CheckShader@@YA_NIPEBD@Z@4HA
xdata	ENDS
;	COMDAT xdata
xdata	SEGMENT
$cppxdata$?CheckShader@@YA_NIPEBD@Z DB 028H
	DD	imagerel $stateUnwindMap$?CheckShader@@YA_NIPEBD@Z
	DD	imagerel $ip2state$?CheckShader@@YA_NIPEBD@Z
xdata	ENDS
;	COMDAT xdata
xdata	SEGMENT
$unwind$?CheckShader@@YA_NIPEBD@Z DD 025054019H
	DD	01122317H
	DD	0700b0033H
	DD	0500aH
	DD	imagerel __GSHandlerCheck_EH4
	DD	imagerel $cppxdata$?CheckShader@@YA_NIPEBD@Z
	DD	0182H
xdata	ENDS
;	COMDAT CONST
CONST	SEGMENT
?CheckShader@@YA_NIPEBD@Z$rtcName$0 DB 073H		; CheckShader
	DB	074H
	DB	061H
	DB	074H
	DB	075H
	DB	073H
	DB	00H
	ORG $+1
?CheckShader@@YA_NIPEBD@Z$rtcName$1 DB 06cH		; CheckShader
	DB	06fH
	DB	067H
	DB	05fH
	DB	06cH
	DB	065H
	DB	06eH
	DB	067H
	DB	074H
	DB	068H
	DB	00H
	ORG $+1
?CheckShader@@YA_NIPEBD@Z$rtcName$2 DB 062H		; CheckShader
	DB	075H
	DB	066H
	DB	00H
	ORG $+8
?CheckShader@@YA_NIPEBD@Z$rtcVarDesc DD 088H		; CheckShader
	DD	010H
	DQ	FLAT:?CheckShader@@YA_NIPEBD@Z$rtcName$2
	DD	064H
	DD	04H
	DQ	FLAT:?CheckShader@@YA_NIPEBD@Z$rtcName$1
	DD	044H
	DD	04H
	DQ	FLAT:?CheckShader@@YA_NIPEBD@Z$rtcName$0
	ORG $+144
?CheckShader@@YA_NIPEBD@Z$rtcFrameData DD 03H		; CheckShader
	DD	00H
	DQ	FLAT:?CheckShader@@YA_NIPEBD@Z$rtcVarDesc
CONST	ENDS
;	COMDAT voltbl
voltbl	SEGMENT
_volmd	DW	044H
	DW	059aH
voltbl	ENDS
;	COMDAT xdata
xdata	SEGMENT
$unwind$?ImGui_ImplOpenGL3_SetupRenderState@@YAXPEAUImDrawData@@HHI@Z DD 035054b19H
	DD	011c3321H
	DD	07015004dH
	DD	05014H
	DD	imagerel __GSHandlerCheck
	DD	0250H
xdata	ENDS
;	COMDAT CONST
CONST	SEGMENT
?ImGui_ImplOpenGL3_SetupRenderState@@YAXPEAUImDrawData@@HHI@Z$rtcName$0 DB 063H ; ImGui_ImplOpenGL3_SetupRenderState
	DB	075H
	DB	072H
	DB	072H
	DB	065H
	DB	06eH
	DB	074H
	DB	05fH
	DB	063H
	DB	06cH
	DB	069H
	DB	070H
	DB	05fH
	DB	06fH
	DB	072H
	DB	069H
	DB	067H
	DB	069H
	DB	06eH
	DB	00H
	ORG $+4
?ImGui_ImplOpenGL3_SetupRenderState@@YAXPEAUImDrawData@@HHI@Z$rtcName$1 DB 06fH ; ImGui_ImplOpenGL3_SetupRenderState
	DB	072H
	DB	074H
	DB	068H
	DB	06fH
	DB	05fH
	DB	070H
	DB	072H
	DB	06fH
	DB	06aH
	DB	065H
	DB	063H
	DB	074H
	DB	069H
	DB	06fH
	DB	06eH
	DB	00H
	ORG $+7
?ImGui_ImplOpenGL3_SetupRenderState@@YAXPEAUImDrawData@@HHI@Z$rtcVarDesc DD 0140H ; ImGui_ImplOpenGL3_SetupRenderState
	DD	040H
	DQ	FLAT:?ImGui_ImplOpenGL3_SetupRenderState@@YAXPEAUImDrawData@@HHI@Z$rtcName$1
	DD	074H
	DD	04H
	DQ	FLAT:?ImGui_ImplOpenGL3_SetupRenderState@@YAXPEAUImDrawData@@HHI@Z$rtcName$0
	ORG $+96
?ImGui_ImplOpenGL3_SetupRenderState@@YAXPEAUImDrawData@@HHI@Z$rtcFrameData DD 02H ; ImGui_ImplOpenGL3_SetupRenderState
	DD	00H
	DQ	FLAT:?ImGui_ImplOpenGL3_SetupRenderState@@YAXPEAUImDrawData@@HHI@Z$rtcVarDesc
CONST	ENDS
;	COMDAT xdata
xdata	SEGMENT
$unwind$??$IM_DELETE@UImGui_ImplOpenGL3_Data@@@@YAXPEAUImGui_ImplOpenGL3_Data@@@Z DD 025051301H
	DD	010e2313H
	DD	07007001dH
	DD	05006H
xdata	ENDS
;	COMDAT xdata
xdata	SEGMENT
$unwind$?ImGui_ImplOpenGL3_GetBackendData@@YAPEAUImGui_ImplOpenGL3_Data@@XZ DD 025050f01H
	DD	010a230fH
	DD	07003001fH
	DD	05002H
xdata	ENDS
;	COMDAT xdata
xdata	SEGMENT
$unwind$??0ImGui_ImplOpenGL3_Data@@QEAA@XZ DD 025051301H
	DD	010e2313H
	DD	07007001dH
	DD	05006H
xdata	ENDS
;	COMDAT voltbl
voltbl	SEGMENT
_volmd	DB	045H
	DB	09fH
voltbl	ENDS
;	COMDAT xdata
xdata	SEGMENT
$unwind$sscanf DD 025054c19H
	DD	011d2322H
	DD	070160029H
	DD	05015H
	DD	imagerel __GSHandlerCheck
	DD	0138H
xdata	ENDS
;	COMDAT CONST
CONST	SEGMENT
sscanf$rtcName$0 DB 05fH
	DB	041H
	DB	072H
	DB	067H
	DB	04cH
	DB	069H
	DB	073H
	DB	074H
	DB	00H
	ORG $+7
sscanf$rtcVarDesc DD 048H
	DD	08H
	DQ	FLAT:sscanf$rtcName$0
	ORG $+48
sscanf$rtcFrameData DD 01H
	DD	00H
	DQ	FLAT:sscanf$rtcVarDesc
CONST	ENDS
;	COMDAT xdata
xdata	SEGMENT
$unwind$_vsscanf_l DD 035052201H
	DD	011d3322H
	DD	07016001fH
	DD	05015H
xdata	ENDS
;	COMDAT voltbl
voltbl	SEGMENT
_volmd	DB	045H
	DB	09fH
voltbl	ENDS
;	COMDAT xdata
xdata	SEGMENT
$unwind$fprintf DD 025054c19H
	DD	011d2322H
	DD	070160029H
	DD	05015H
	DD	imagerel __GSHandlerCheck
	DD	0138H
xdata	ENDS
;	COMDAT CONST
CONST	SEGMENT
fprintf$rtcName$0 DB 05fH
	DB	041H
	DB	072H
	DB	067H
	DB	04cH
	DB	069H
	DB	073H
	DB	074H
	DB	00H
	ORG $+7
fprintf$rtcVarDesc DD 048H
	DD	08H
	DQ	FLAT:fprintf$rtcName$0
	ORG $+48
fprintf$rtcFrameData DD 01H
	DD	00H
	DQ	FLAT:fprintf$rtcVarDesc
CONST	ENDS
;	COMDAT xdata
xdata	SEGMENT
$unwind$_vfprintf_l DD 035052201H
	DD	011d3322H
	DD	07016001fH
	DD	05015H
xdata	ENDS
;	COMDAT xdata
xdata	SEGMENT
$unwind$__local_stdio_scanf_options DD 025050f01H
	DD	010a230fH
	DD	07003001dH
	DD	05002H
xdata	ENDS
;	COMDAT xdata
xdata	SEGMENT
$unwind$__local_stdio_printf_options DD 025050f01H
	DD	010a230fH
	DD	07003001dH
	DD	05002H
xdata	ENDS
;	COMDAT xdata
xdata	SEGMENT
$unwind$?ImGui_ImplOpenGL3_DestroyDeviceObjects@@YAXXZ DD 025050f01H
	DD	010a230fH
	DD	070030021H
	DD	05002H
xdata	ENDS
;	COMDAT voltbl
voltbl	SEGMENT
_volmd	DW	02aH
	DW	057bH
voltbl	ENDS
;	COMDAT xdata
xdata	SEGMENT
$unwind$?ImGui_ImplOpenGL3_CreateDeviceObjects@@YA_NXZ DD 025053119H
	DD	010a230fH
	DD	070030087H
	DD	05002H
	DD	imagerel __GSHandlerCheck
	DD	0420H
xdata	ENDS
;	COMDAT CONST
CONST	SEGMENT
?ImGui_ImplOpenGL3_CreateDeviceObjects@@YA_NXZ$rtcName$0 DB 06cH ; ImGui_ImplOpenGL3_CreateDeviceObjects
	DB	061H
	DB	073H
	DB	074H
	DB	05fH
	DB	074H
	DB	065H
	DB	078H
	DB	074H
	DB	075H
	DB	072H
	DB	065H
	DB	00H
	ORG $+3
?ImGui_ImplOpenGL3_CreateDeviceObjects@@YA_NXZ$rtcName$1 DB 06cH ; ImGui_ImplOpenGL3_CreateDeviceObjects
	DB	061H
	DB	073H
	DB	074H
	DB	05fH
	DB	061H
	DB	072H
	DB	072H
	DB	061H
	DB	079H
	DB	05fH
	DB	062H
	DB	075H
	DB	066H
	DB	066H
	DB	065H
	DB	072H
	DB	00H
	ORG $+6
?ImGui_ImplOpenGL3_CreateDeviceObjects@@YA_NXZ$rtcName$2 DB 06cH ; ImGui_ImplOpenGL3_CreateDeviceObjects
	DB	061H
	DB	073H
	DB	074H
	DB	05fH
	DB	076H
	DB	065H
	DB	072H
	DB	074H
	DB	065H
	DB	078H
	DB	05fH
	DB	061H
	DB	072H
	DB	072H
	DB	061H
	DB	079H
	DB	00H
	ORG $+6
?ImGui_ImplOpenGL3_CreateDeviceObjects@@YA_NXZ$rtcName$3 DB 067H ; ImGui_ImplOpenGL3_CreateDeviceObjects
	DB	06cH
	DB	073H
	DB	06cH
	DB	05fH
	DB	076H
	DB	065H
	DB	072H
	DB	073H
	DB	069H
	DB	06fH
	DB	06eH
	DB	00H
	ORG $+3
?ImGui_ImplOpenGL3_CreateDeviceObjects@@YA_NXZ$rtcName$4 DB 076H ; ImGui_ImplOpenGL3_CreateDeviceObjects
	DB	065H
	DB	072H
	DB	074H
	DB	065H
	DB	078H
	DB	05fH
	DB	073H
	DB	068H
	DB	061H
	DB	064H
	DB	065H
	DB	072H
	DB	05fH
	DB	077H
	DB	069H
	DB	074H
	DB	068H
	DB	05fH
	DB	076H
	DB	065H
	DB	072H
	DB	073H
	DB	069H
	DB	06fH
	DB	06eH
	DB	00H
	ORG $+5
?ImGui_ImplOpenGL3_CreateDeviceObjects@@YA_NXZ$rtcName$5 DB 066H ; ImGui_ImplOpenGL3_CreateDeviceObjects
	DB	072H
	DB	061H
	DB	067H
	DB	06dH
	DB	065H
	DB	06eH
	DB	074H
	DB	05fH
	DB	073H
	DB	068H
	DB	061H
	DB	064H
	DB	065H
	DB	072H
	DB	05fH
	DB	077H
	DB	069H
	DB	074H
	DB	068H
	DB	05fH
	DB	076H
	DB	065H
	DB	072H
	DB	073H
	DB	069H
	DB	06fH
	DB	06eH
	DB	00H
	ORG $+3
?ImGui_ImplOpenGL3_CreateDeviceObjects@@YA_NXZ$rtcVarDesc DD 0258H ; ImGui_ImplOpenGL3_CreateDeviceObjects
	DD	010H
	DQ	FLAT:?ImGui_ImplOpenGL3_CreateDeviceObjects@@YA_NXZ$rtcName$5
	DD	0208H
	DD	010H
	DQ	FLAT:?ImGui_ImplOpenGL3_CreateDeviceObjects@@YA_NXZ$rtcName$4
	DD	0a4H
	DD	04H
	DQ	FLAT:?ImGui_ImplOpenGL3_CreateDeviceObjects@@YA_NXZ$rtcName$3
	DD	084H
	DD	04H
	DQ	FLAT:?ImGui_ImplOpenGL3_CreateDeviceObjects@@YA_NXZ$rtcName$2
	DD	064H
	DD	04H
	DQ	FLAT:?ImGui_ImplOpenGL3_CreateDeviceObjects@@YA_NXZ$rtcName$1
	DD	044H
	DD	04H
	DQ	FLAT:?ImGui_ImplOpenGL3_CreateDeviceObjects@@YA_NXZ$rtcName$0
	ORG $+288
?ImGui_ImplOpenGL3_CreateDeviceObjects@@YA_NXZ$rtcFrameData DD 06H ; ImGui_ImplOpenGL3_CreateDeviceObjects
	DD	00H
	DQ	FLAT:?ImGui_ImplOpenGL3_CreateDeviceObjects@@YA_NXZ$rtcVarDesc
CONST	ENDS
;	COMDAT xdata
xdata	SEGMENT
$unwind$?ImGui_ImplOpenGL3_DestroyFontsTexture@@YAXXZ DD 025050f01H
	DD	010a230fH
	DD	070030025H
	DD	05002H
xdata	ENDS
;	COMDAT voltbl
voltbl	SEGMENT
_volmd	DW	02aH
	DW	01faH
voltbl	ENDS
;	COMDAT xdata
xdata	SEGMENT
$unwind$?ImGui_ImplOpenGL3_CreateFontsTexture@@YA_NXZ DD 055053119H
	DD	010a530fH
	DD	07003003dH
	DD	05002H
	DD	imagerel __GSHandlerCheck
	DD	01d0H
xdata	ENDS
;	COMDAT CONST
CONST	SEGMENT
?ImGui_ImplOpenGL3_CreateFontsTexture@@YA_NXZ$rtcName$0 DB 070H ; ImGui_ImplOpenGL3_CreateFontsTexture
	DB	069H
	DB	078H
	DB	065H
	DB	06cH
	DB	073H
	DB	00H
	ORG $+1
?ImGui_ImplOpenGL3_CreateFontsTexture@@YA_NXZ$rtcName$1 DB 077H ; ImGui_ImplOpenGL3_CreateFontsTexture
	DB	069H
	DB	064H
	DB	074H
	DB	068H
	DB	00H
	ORG $+2
?ImGui_ImplOpenGL3_CreateFontsTexture@@YA_NXZ$rtcName$2 DB 068H ; ImGui_ImplOpenGL3_CreateFontsTexture
	DB	065H
	DB	069H
	DB	067H
	DB	068H
	DB	074H
	DB	00H
	ORG $+1
?ImGui_ImplOpenGL3_CreateFontsTexture@@YA_NXZ$rtcName$3 DB 06cH ; ImGui_ImplOpenGL3_CreateFontsTexture
	DB	061H
	DB	073H
	DB	074H
	DB	05fH
	DB	074H
	DB	065H
	DB	078H
	DB	074H
	DB	075H
	DB	072H
	DB	065H
	DB	00H
	ORG $+3
?ImGui_ImplOpenGL3_CreateFontsTexture@@YA_NXZ$rtcFrameData DD 04H ; ImGui_ImplOpenGL3_CreateFontsTexture
	DD	00H
	DQ	FLAT:?ImGui_ImplOpenGL3_CreateFontsTexture@@YA_NXZ$rtcVarDesc
	ORG $+8
?ImGui_ImplOpenGL3_CreateFontsTexture@@YA_NXZ$rtcVarDesc DD 0f4H ; ImGui_ImplOpenGL3_CreateFontsTexture
	DD	04H
	DQ	FLAT:?ImGui_ImplOpenGL3_CreateFontsTexture@@YA_NXZ$rtcName$3
	DD	0d4H
	DD	04H
	DQ	FLAT:?ImGui_ImplOpenGL3_CreateFontsTexture@@YA_NXZ$rtcName$2
	DD	0b4H
	DD	04H
	DQ	FLAT:?ImGui_ImplOpenGL3_CreateFontsTexture@@YA_NXZ$rtcName$1
	DD	098H
	DD	08H
	DQ	FLAT:?ImGui_ImplOpenGL3_CreateFontsTexture@@YA_NXZ$rtcName$0
CONST	ENDS
;	COMDAT voltbl
voltbl	SEGMENT
_volmd	DW	036H
	DW	0b31H
voltbl	ENDS
;	COMDAT xdata
xdata	SEGMENT
$unwind$?ImGui_ImplOpenGL3_RenderDrawData@@YAXPEAUImDrawData@@@Z DD 035053d19H
	DD	010e3313H
	DD	0700700d7H
	DD	05006H
	DD	imagerel __GSHandlerCheck
	DD	06a8H
xdata	ENDS
;	COMDAT CONST
CONST	SEGMENT
?ImGui_ImplOpenGL3_RenderDrawData@@YAXPEAUImDrawData@@@Z$rtcName$0 DB 06cH ; ImGui_ImplOpenGL3_RenderDrawData
	DB	061H
	DB	073H
	DB	074H
	DB	05fH
	DB	061H
	DB	063H
	DB	074H
	DB	069H
	DB	076H
	DB	065H
	DB	05fH
	DB	074H
	DB	065H
	DB	078H
	DB	074H
	DB	075H
	DB	072H
	DB	065H
	DB	00H
	ORG $+4
?ImGui_ImplOpenGL3_RenderDrawData@@YAXPEAUImDrawData@@@Z$rtcName$1 DB 06cH ; ImGui_ImplOpenGL3_RenderDrawData
	DB	061H
	DB	073H
	DB	074H
	DB	05fH
	DB	070H
	DB	072H
	DB	06fH
	DB	067H
	DB	072H
	DB	061H
	DB	06dH
	DB	00H
	ORG $+3
?ImGui_ImplOpenGL3_RenderDrawData@@YAXPEAUImDrawData@@@Z$rtcName$2 DB 06cH ; ImGui_ImplOpenGL3_RenderDrawData
	DB	061H
	DB	073H
	DB	074H
	DB	05fH
	DB	074H
	DB	065H
	DB	078H
	DB	074H
	DB	075H
	DB	072H
	DB	065H
	DB	00H
	ORG $+3
?ImGui_ImplOpenGL3_RenderDrawData@@YAXPEAUImDrawData@@@Z$rtcName$3 DB 06cH ; ImGui_ImplOpenGL3_RenderDrawData
	DB	061H
	DB	073H
	DB	074H
	DB	05fH
	DB	073H
	DB	061H
	DB	06dH
	DB	070H
	DB	06cH
	DB	065H
	DB	072H
	DB	00H
	ORG $+3
?ImGui_ImplOpenGL3_RenderDrawData@@YAXPEAUImDrawData@@@Z$rtcName$4 DB 06cH ; ImGui_ImplOpenGL3_RenderDrawData
	DB	061H
	DB	073H
	DB	074H
	DB	05fH
	DB	061H
	DB	072H
	DB	072H
	DB	061H
	DB	079H
	DB	05fH
	DB	062H
	DB	075H
	DB	066H
	DB	066H
	DB	065H
	DB	072H
	DB	00H
	ORG $+6
?ImGui_ImplOpenGL3_RenderDrawData@@YAXPEAUImDrawData@@@Z$rtcName$5 DB 06cH ; ImGui_ImplOpenGL3_RenderDrawData
	DB	061H
	DB	073H
	DB	074H
	DB	05fH
	DB	076H
	DB	065H
	DB	072H
	DB	074H
	DB	065H
	DB	078H
	DB	05fH
	DB	061H
	DB	072H
	DB	072H
	DB	061H
	DB	079H
	DB	05fH
	DB	06fH
	DB	062H
	DB	06aH
	DB	065H
	DB	063H
	DB	074H
	DB	00H
	ORG $+7
?ImGui_ImplOpenGL3_RenderDrawData@@YAXPEAUImDrawData@@@Z$rtcName$6 DB 06cH ; ImGui_ImplOpenGL3_RenderDrawData
	DB	061H
	DB	073H
	DB	074H
	DB	05fH
	DB	070H
	DB	06fH
	DB	06cH
	DB	079H
	DB	067H
	DB	06fH
	DB	06eH
	DB	05fH
	DB	06dH
	DB	06fH
	DB	064H
	DB	065H
	DB	00H
	ORG $+6
?ImGui_ImplOpenGL3_RenderDrawData@@YAXPEAUImDrawData@@@Z$rtcName$7 DB 06cH ; ImGui_ImplOpenGL3_RenderDrawData
	DB	061H
	DB	073H
	DB	074H
	DB	05fH
	DB	076H
	DB	069H
	DB	065H
	DB	077H
	DB	070H
	DB	06fH
	DB	072H
	DB	074H
	DB	00H
	ORG $+2
?ImGui_ImplOpenGL3_RenderDrawData@@YAXPEAUImDrawData@@@Z$rtcName$8 DB 06cH ; ImGui_ImplOpenGL3_RenderDrawData
	DB	061H
	DB	073H
	DB	074H
	DB	05fH
	DB	073H
	DB	063H
	DB	069H
	DB	073H
	DB	073H
	DB	06fH
	DB	072H
	DB	05fH
	DB	062H
	DB	06fH
	DB	078H
	DB	00H
	ORG $+7
?ImGui_ImplOpenGL3_RenderDrawData@@YAXPEAUImDrawData@@@Z$rtcName$9 DB 06cH ; ImGui_ImplOpenGL3_RenderDrawData
	DB	061H
	DB	073H
	DB	074H
	DB	05fH
	DB	062H
	DB	06cH
	DB	065H
	DB	06eH
	DB	064H
	DB	05fH
	DB	073H
	DB	072H
	DB	063H
	DB	05fH
	DB	072H
	DB	067H
	DB	062H
	DB	00H
	ORG $+5
?ImGui_ImplOpenGL3_RenderDrawData@@YAXPEAUImDrawData@@@Z$rtcName$10 DB 06cH ; ImGui_ImplOpenGL3_RenderDrawData
	DB	061H
	DB	073H
	DB	074H
	DB	05fH
	DB	062H
	DB	06cH
	DB	065H
	DB	06eH
	DB	064H
	DB	05fH
	DB	064H
	DB	073H
	DB	074H
	DB	05fH
	DB	072H
	DB	067H
	DB	062H
	DB	00H
	ORG $+5
?ImGui_ImplOpenGL3_RenderDrawData@@YAXPEAUImDrawData@@@Z$rtcName$11 DB 06cH ; ImGui_ImplOpenGL3_RenderDrawData
	DB	061H
	DB	073H
	DB	074H
	DB	05fH
	DB	062H
	DB	06cH
	DB	065H
	DB	06eH
	DB	064H
	DB	05fH
	DB	073H
	DB	072H
	DB	063H
	DB	05fH
	DB	061H
	DB	06cH
	DB	070H
	DB	068H
	DB	061H
	DB	00H
	ORG $+3
?ImGui_ImplOpenGL3_RenderDrawData@@YAXPEAUImDrawData@@@Z$rtcName$12 DB 06cH ; ImGui_ImplOpenGL3_RenderDrawData
	DB	061H
	DB	073H
	DB	074H
	DB	05fH
	DB	062H
	DB	06cH
	DB	065H
	DB	06eH
	DB	064H
	DB	05fH
	DB	064H
	DB	073H
	DB	074H
	DB	05fH
	DB	061H
	DB	06cH
	DB	070H
	DB	068H
	DB	061H
	DB	00H
	ORG $+3
?ImGui_ImplOpenGL3_RenderDrawData@@YAXPEAUImDrawData@@@Z$rtcName$13 DB 06cH ; ImGui_ImplOpenGL3_RenderDrawData
	DB	061H
	DB	073H
	DB	074H
	DB	05fH
	DB	062H
	DB	06cH
	DB	065H
	DB	06eH
	DB	064H
	DB	05fH
	DB	065H
	DB	071H
	DB	075H
	DB	061H
	DB	074H
	DB	069H
	DB	06fH
	DB	06eH
	DB	05fH
	DB	072H
	DB	067H
	DB	062H
	DB	00H
?ImGui_ImplOpenGL3_RenderDrawData@@YAXPEAUImDrawData@@@Z$rtcName$14 DB 06cH ; ImGui_ImplOpenGL3_RenderDrawData
	DB	061H
	DB	073H
	DB	074H
	DB	05fH
	DB	062H
	DB	06cH
	DB	065H
	DB	06eH
	DB	064H
	DB	05fH
	DB	065H
	DB	071H
	DB	075H
	DB	061H
	DB	074H
	DB	069H
	DB	06fH
	DB	06eH
	DB	05fH
	DB	061H
	DB	06cH
	DB	070H
	DB	068H
	DB	061H
	DB	00H
	ORG $+6
?ImGui_ImplOpenGL3_RenderDrawData@@YAXPEAUImDrawData@@@Z$rtcName$15 DB 076H ; ImGui_ImplOpenGL3_RenderDrawData
	DB	065H
	DB	072H
	DB	074H
	DB	065H
	DB	078H
	DB	05fH
	DB	061H
	DB	072H
	DB	072H
	DB	061H
	DB	079H
	DB	05fH
	DB	06fH
	DB	062H
	DB	06aH
	DB	065H
	DB	063H
	DB	074H
	DB	00H
	ORG $+4
?ImGui_ImplOpenGL3_RenderDrawData@@YAXPEAUImDrawData@@@Z$rtcName$16 DB 063H ; ImGui_ImplOpenGL3_RenderDrawData
	DB	06cH
	DB	069H
	DB	070H
	DB	05fH
	DB	06fH
	DB	066H
	DB	066H
	DB	00H
	ORG $+7
?ImGui_ImplOpenGL3_RenderDrawData@@YAXPEAUImDrawData@@@Z$rtcName$17 DB 063H ; ImGui_ImplOpenGL3_RenderDrawData
	DB	06cH
	DB	069H
	DB	070H
	DB	05fH
	DB	073H
	DB	063H
	DB	061H
	DB	06cH
	DB	065H
	DB	00H
	ORG $+5
?ImGui_ImplOpenGL3_RenderDrawData@@YAXPEAUImDrawData@@@Z$rtcName$18 DB 063H ; ImGui_ImplOpenGL3_RenderDrawData
	DB	06cH
	DB	069H
	DB	070H
	DB	05fH
	DB	072H
	DB	065H
	DB	063H
	DB	074H
	DB	00H
	ORG $+6
?ImGui_ImplOpenGL3_RenderDrawData@@YAXPEAUImDrawData@@@Z$rtcVarDesc DD 0438H ; ImGui_ImplOpenGL3_RenderDrawData
	DD	010H
	DQ	FLAT:?ImGui_ImplOpenGL3_RenderDrawData@@YAXPEAUImDrawData@@@Z$rtcName$18
	DD	0398H
	DD	08H
	DQ	FLAT:?ImGui_ImplOpenGL3_RenderDrawData@@YAXPEAUImDrawData@@@Z$rtcName$17
	DD	0378H
	DD	08H
	DQ	FLAT:?ImGui_ImplOpenGL3_RenderDrawData@@YAXPEAUImDrawData@@@Z$rtcName$16
	DD	0354H
	DD	04H
	DQ	FLAT:?ImGui_ImplOpenGL3_RenderDrawData@@YAXPEAUImDrawData@@@Z$rtcName$15
	DD	0274H
	DD	04H
	DQ	FLAT:?ImGui_ImplOpenGL3_RenderDrawData@@YAXPEAUImDrawData@@@Z$rtcName$14
	DD	0254H
	DD	04H
	DQ	FLAT:?ImGui_ImplOpenGL3_RenderDrawData@@YAXPEAUImDrawData@@@Z$rtcName$13
	DD	0234H
	DD	04H
	DQ	FLAT:?ImGui_ImplOpenGL3_RenderDrawData@@YAXPEAUImDrawData@@@Z$rtcName$12
	DD	0214H
	DD	04H
	DQ	FLAT:?ImGui_ImplOpenGL3_RenderDrawData@@YAXPEAUImDrawData@@@Z$rtcName$11
	DD	01f4H
	DD	04H
	DQ	FLAT:?ImGui_ImplOpenGL3_RenderDrawData@@YAXPEAUImDrawData@@@Z$rtcName$10
	DD	01d4H
	DD	04H
	DQ	FLAT:?ImGui_ImplOpenGL3_RenderDrawData@@YAXPEAUImDrawData@@@Z$rtcName$9
	DD	01a8H
	DD	010H
	DQ	FLAT:?ImGui_ImplOpenGL3_RenderDrawData@@YAXPEAUImDrawData@@@Z$rtcName$8
	DD	0178H
	DD	010H
	DQ	FLAT:?ImGui_ImplOpenGL3_RenderDrawData@@YAXPEAUImDrawData@@@Z$rtcName$7
	DD	0158H
	DD	08H
	DQ	FLAT:?ImGui_ImplOpenGL3_RenderDrawData@@YAXPEAUImDrawData@@@Z$rtcName$6
	DD	0134H
	DD	04H
	DQ	FLAT:?ImGui_ImplOpenGL3_RenderDrawData@@YAXPEAUImDrawData@@@Z$rtcName$5
	DD	0114H
	DD	04H
	DQ	FLAT:?ImGui_ImplOpenGL3_RenderDrawData@@YAXPEAUImDrawData@@@Z$rtcName$4
	DD	0f4H
	DD	04H
	DQ	FLAT:?ImGui_ImplOpenGL3_RenderDrawData@@YAXPEAUImDrawData@@@Z$rtcName$3
	DD	0d4H
	DD	04H
	DQ	FLAT:?ImGui_ImplOpenGL3_RenderDrawData@@YAXPEAUImDrawData@@@Z$rtcName$2
	DD	0b4H
	DD	04H
	DQ	FLAT:?ImGui_ImplOpenGL3_RenderDrawData@@YAXPEAUImDrawData@@@Z$rtcName$1
	DD	094H
	DD	04H
	DQ	FLAT:?ImGui_ImplOpenGL3_RenderDrawData@@YAXPEAUImDrawData@@@Z$rtcName$0
	ORG $+912
?ImGui_ImplOpenGL3_RenderDrawData@@YAXPEAUImDrawData@@@Z$rtcFrameData DD 013H ; ImGui_ImplOpenGL3_RenderDrawData
	DD	00H
	DQ	FLAT:?ImGui_ImplOpenGL3_RenderDrawData@@YAXPEAUImDrawData@@@Z$rtcVarDesc
CONST	ENDS
;	COMDAT xdata
xdata	SEGMENT
$unwind$?ImGui_ImplOpenGL3_NewFrame@@YAXXZ DD 025050f01H
	DD	010a230fH
	DD	070030021H
	DD	05002H
xdata	ENDS
;	COMDAT xdata
xdata	SEGMENT
$unwind$?ImGui_ImplOpenGL3_Shutdown@@YAXXZ DD 025050f01H
	DD	010a230fH
	DD	070030025H
	DD	05002H
xdata	ENDS
;	COMDAT voltbl
voltbl	SEGMENT
_volmd	DB	00H
	DB	05H
voltbl	ENDS
;	COMDAT voltbl
voltbl	SEGMENT
_volmd	DW	037H
	DW	0467H
voltbl	ENDS
;	COMDAT xdata
xdata	SEGMENT
$unwind$?dtor$0@?0??ImGui_ImplOpenGL3_Init@@YA_NPEBD@Z@4HA DD 031001H
	DD	0700c4210H
	DD	0500bH
xdata	ENDS
;	COMDAT xdata
xdata	SEGMENT
$ip2state$?ImGui_ImplOpenGL3_Init@@YA_NPEBD@Z DB 06H
	DB	00H
	DB	00H
	DB	'A', 03H
	DB	02H
	DB	'p'
	DB	00H
xdata	ENDS
;	COMDAT xdata
xdata	SEGMENT
$stateUnwindMap$?ImGui_ImplOpenGL3_Init@@YA_NPEBD@Z DB 02H
	DB	0eH
	DD	imagerel ?dtor$0@?0??ImGui_ImplOpenGL3_Init@@YA_NPEBD@Z@4HA
xdata	ENDS
;	COMDAT xdata
xdata	SEGMENT
$cppxdata$?ImGui_ImplOpenGL3_Init@@YA_NPEBD@Z DB 028H
	DD	imagerel $stateUnwindMap$?ImGui_ImplOpenGL3_Init@@YA_NPEBD@Z
	DD	imagerel $ip2state$?ImGui_ImplOpenGL3_Init@@YA_NPEBD@Z
xdata	ENDS
;	COMDAT xdata
xdata	SEGMENT
$unwind$?ImGui_ImplOpenGL3_Init@@YA_NPEBD@Z DD 025063e19H
	DD	010f2314H
	DD	07008005cH
	DD	050066007H
	DD	imagerel __GSHandlerCheck_EH4
	DD	imagerel $cppxdata$?ImGui_ImplOpenGL3_Init@@YA_NPEBD@Z
	DD	02daH
xdata	ENDS
;	COMDAT CONST
CONST	SEGMENT
?ImGui_ImplOpenGL3_Init@@YA_NPEBD@Z$rtcName$0 DB 06dH	; ImGui_ImplOpenGL3_Init
	DB	061H
	DB	06aH
	DB	06fH
	DB	072H
	DB	00H
	ORG $+2
?ImGui_ImplOpenGL3_Init@@YA_NPEBD@Z$rtcName$1 DB 06dH	; ImGui_ImplOpenGL3_Init
	DB	069H
	DB	06eH
	DB	06fH
	DB	072H
	DB	00H
	ORG $+2
?ImGui_ImplOpenGL3_Init@@YA_NPEBD@Z$rtcName$2 DB 063H	; ImGui_ImplOpenGL3_Init
	DB	075H
	DB	072H
	DB	072H
	DB	065H
	DB	06eH
	DB	074H
	DB	05fH
	DB	074H
	DB	065H
	DB	078H
	DB	074H
	DB	075H
	DB	072H
	DB	065H
	DB	00H
?ImGui_ImplOpenGL3_Init@@YA_NPEBD@Z$rtcName$3 DB 06eH	; ImGui_ImplOpenGL3_Init
	DB	075H
	DB	06dH
	DB	05fH
	DB	065H
	DB	078H
	DB	074H
	DB	065H
	DB	06eH
	DB	073H
	DB	069H
	DB	06fH
	DB	06eH
	DB	073H
	DB	00H
	ORG $+1
?ImGui_ImplOpenGL3_Init@@YA_NPEBD@Z$rtcVarDesc DD 0104H	; ImGui_ImplOpenGL3_Init
	DD	04H
	DQ	FLAT:?ImGui_ImplOpenGL3_Init@@YA_NPEBD@Z$rtcName$3
	DD	0e4H
	DD	04H
	DQ	FLAT:?ImGui_ImplOpenGL3_Init@@YA_NPEBD@Z$rtcName$2
	DD	084H
	DD	04H
	DQ	FLAT:?ImGui_ImplOpenGL3_Init@@YA_NPEBD@Z$rtcName$1
	DD	064H
	DD	04H
	DQ	FLAT:?ImGui_ImplOpenGL3_Init@@YA_NPEBD@Z$rtcName$0
	ORG $+192
?ImGui_ImplOpenGL3_Init@@YA_NPEBD@Z$rtcFrameData DD 04H	; ImGui_ImplOpenGL3_Init
	DD	00H
	DQ	FLAT:?ImGui_ImplOpenGL3_Init@@YA_NPEBD@Z$rtcVarDesc
CONST	ENDS
;	COMDAT xdata
xdata	SEGMENT
$unwind$?SetTexID@ImFontAtlas@@QEAAXPEAX@Z DD 025051801H
	DD	01132318H
	DD	0700c001dH
	DD	0500bH
xdata	ENDS
;	COMDAT xdata
xdata	SEGMENT
$unwind$??A?$ImVector@UImDrawCmd@@@@QEBAAEBUImDrawCmd@@H@Z DD 025051701H
	DD	01122317H
	DD	0700b001dH
	DD	0500aH
xdata	ENDS
;	COMDAT xdata
xdata	SEGMENT
$unwind$?GetTexID@ImDrawCmd@@QEBAPEAXXZ DD 025051301H
	DD	010e2313H
	DD	07007001dH
	DD	05006H
xdata	ENDS
;	COMDAT xdata
xdata	SEGMENT
$unwind$?reserve@?$ImVector@D@@QEAAXH@Z DD 025061801H
	DD	01132318H
	DD	0700c0020H
	DD	0500a600bH
xdata	ENDS
;	COMDAT xdata
xdata	SEGMENT
$unwind$?resize@?$ImVector@D@@QEAAXH@Z DD 025051701H
	DD	01122317H
	DD	0700b001dH
	DD	0500aH
xdata	ENDS
;	COMDAT xdata
xdata	SEGMENT
$unwind$?_grow_capacity@?$ImVector@D@@QEBAHH@Z DD 025051701H
	DD	01122317H
	DD	0700b0021H
	DD	0500aH
xdata	ENDS
;	COMDAT xdata
xdata	SEGMENT
$unwind$?begin@?$ImVector@D@@QEAAPEADXZ DD 025051301H
	DD	010e2313H
	DD	07007001dH
	DD	05006H
xdata	ENDS
;	COMDAT xdata
xdata	SEGMENT
$ip2state$??1?$ImVector@D@@QEAA@XZ DB 02H
	DB	00H
	DB	00H
xdata	ENDS
;	COMDAT xdata
xdata	SEGMENT
$cppxdata$??1?$ImVector@D@@QEAA@XZ DB 060H
	DD	imagerel $ip2state$??1?$ImVector@D@@QEAA@XZ
xdata	ENDS
;	COMDAT xdata
xdata	SEGMENT
$unwind$??1?$ImVector@D@@QEAA@XZ DD 025051319H
	DD	010e2313H
	DD	07007001dH
	DD	05006H
	DD	imagerel __CxxFrameHandler4
	DD	imagerel $cppxdata$??1?$ImVector@D@@QEAA@XZ
xdata	ENDS
;	COMDAT xdata
xdata	SEGMENT
$unwind$??0?$ImVector@D@@QEAA@XZ DD 025051301H
	DD	010e2313H
	DD	07007001dH
	DD	05006H
xdata	ENDS
;	COMDAT xdata
xdata	SEGMENT
$unwind$??3@YAXPEAXUImNewWrapper@@0@Z DD 025051c01H
	DD	0117231cH
	DD	07010001dH
	DD	0500fH
xdata	ENDS
;	COMDAT xdata
xdata	SEGMENT
$unwind$??2@YAPEAX_KUImNewWrapper@@PEAX@Z DD 025051c01H
	DD	0117231cH
	DD	07010001dH
	DD	0500fH
xdata	ENDS
;	COMDAT xdata
xdata	SEGMENT
$unwind$??0ImVec4@@QEAA@XZ DD 025030f01H
	DD	0b20a230fH
	DD	05006H
xdata	ENDS
; Function compile flags: /Odt
;	COMDAT __JustMyCode_Default
_TEXT	SEGMENT
__JustMyCode_Default PROC				; COMDAT
	ret	0
__JustMyCode_Default ENDP
_TEXT	ENDS
; Function compile flags: /Odtp /RTCsu /ZI
;	COMDAT ?CheckProgram@@YA_NIPEBD@Z
_TEXT	SEGMENT
bd$ = 8
status$ = 36
log_length$ = 68
buf$6 = 104
tv148 = 324
tv146 = 328
tv134 = 328
tv78 = 328
tv74 = 328
tv69 = 328
tv144 = 336
tv132 = 336
tv130 = 344
__$ArrayPad$ = 352
handle$ = 400
desc$ = 408
?CheckProgram@@YA_NIPEBD@Z PROC				; CheckProgram, COMDAT
; File C:\dev\Raisin\Raisin\src\Raisin\imgui\imgui_impl_opengl3.cpp
; Line 595
	mov	QWORD PTR [rsp+16], rdx
	mov	DWORD PTR [rsp+8], ecx
	push	rbp
	push	rdi
	sub	rsp, 408				; 00000198H
	lea	rbp, QWORD PTR [rsp+32]
	lea	rdi, QWORD PTR [rsp+32]
	mov	ecx, 46					; 0000002eH
	mov	eax, -858993460				; ccccccccH
	rep stosd
	mov	ecx, DWORD PTR [rsp+440]
	mov	rax, QWORD PTR __security_cookie
	xor	rax, rbp
	mov	QWORD PTR __$ArrayPad$[rbp], rax
	lea	rcx, OFFSET FLAT:__45597862_imgui_impl_opengl3@cpp
	call	__CheckForDebuggerJustMyCode
; Line 596
	call	?ImGui_ImplOpenGL3_GetBackendData@@YAPEAUImGui_ImplOpenGL3_Data@@XZ ; ImGui_ImplOpenGL3_GetBackendData
	mov	QWORD PTR bd$[rbp], rax
; Line 597
	mov	DWORD PTR status$[rbp], 0
	mov	DWORD PTR log_length$[rbp], 0
; Line 598
	mov	rax, QWORD PTR glad_glGetProgramiv
	mov	QWORD PTR tv69[rbp], rax
	lea	r8, QWORD PTR status$[rbp]
	mov	edx, 35714				; 00008b82H
	mov	ecx, DWORD PTR handle$[rbp]
	call	QWORD PTR tv69[rbp]
; Line 599
	mov	rax, QWORD PTR glad_glGetProgramiv
	mov	QWORD PTR tv74[rbp], rax
	lea	r8, QWORD PTR log_length$[rbp]
	mov	edx, 35716				; 00008b84H
	mov	ecx, DWORD PTR handle$[rbp]
	call	QWORD PTR tv74[rbp]
; Line 600
	movzx	eax, BYTE PTR status$[rbp]
	test	eax, eax
	jne	SHORT $LN2@CheckProgr
; Line 601
	mov	rax, QWORD PTR bd$[rbp]
	add	rax, 4
	mov	QWORD PTR tv78[rbp], rax
	mov	ecx, 2
	call	QWORD PTR __imp___acrt_iob_func
	mov	rcx, QWORD PTR tv78[rbp]
	mov	r9, rcx
	mov	r8, QWORD PTR desc$[rbp]
	lea	rdx, OFFSET FLAT:??_C@_0EP@EPOJCDAM@ERROR?3?5ImGui_ImplOpenGL3_Create@
	mov	rcx, rax
	call	fprintf
$LN2@CheckProgr:
; Line 602
	cmp	DWORD PTR log_length$[rbp], 1
	jle	$LN3@CheckProgr
; Line 604
	lea	rcx, QWORD PTR buf$6[rbp]
	call	??0?$ImVector@D@@QEAA@XZ		; ImVector<char>::ImVector<char>
	npad	1
; Line 605
	mov	eax, DWORD PTR log_length$[rbp]
	inc	eax
	mov	edx, eax
	lea	rcx, QWORD PTR buf$6[rbp]
	call	?resize@?$ImVector@D@@QEAAXH@Z		; ImVector<char>::resize
; Line 606
	mov	rax, QWORD PTR glad_glGetProgramInfoLog
	mov	QWORD PTR tv134[rbp], rax
	lea	rcx, QWORD PTR buf$6[rbp]
	call	?begin@?$ImVector@D@@QEAAPEADXZ		; ImVector<char>::begin
	mov	QWORD PTR tv132[rbp], rax
	mov	eax, DWORD PTR log_length$[rbp]
	mov	DWORD PTR tv130[rbp], eax
	mov	r9, QWORD PTR tv132[rbp]
	xor	r8d, r8d
	mov	edx, DWORD PTR tv130[rbp]
	mov	ecx, DWORD PTR handle$[rbp]
	call	QWORD PTR tv134[rbp]
; Line 607
	lea	rcx, QWORD PTR buf$6[rbp]
	call	?begin@?$ImVector@D@@QEAAPEADXZ		; ImVector<char>::begin
	mov	QWORD PTR tv146[rbp], rax
	mov	ecx, 2
	call	QWORD PTR __imp___acrt_iob_func
	mov	QWORD PTR tv144[rbp], rax
	mov	r8, QWORD PTR tv146[rbp]
	lea	rdx, OFFSET FLAT:??_C@_03OFAPEBGM@?$CFs?6@
	mov	rcx, QWORD PTR tv144[rbp]
	call	fprintf
	npad	1
; Line 608
	lea	rcx, QWORD PTR buf$6[rbp]
	call	??1?$ImVector@D@@QEAA@XZ		; ImVector<char>::~ImVector<char>
$LN3@CheckProgr:
; Line 609
	movzx	eax, BYTE PTR status$[rbp]
	cmp	eax, 1
	jne	SHORT $LN5@CheckProgr
	mov	DWORD PTR tv148[rbp], 1
	jmp	SHORT $LN6@CheckProgr
$LN5@CheckProgr:
	mov	DWORD PTR tv148[rbp], 0
$LN6@CheckProgr:
	movzx	eax, BYTE PTR tv148[rbp]
; Line 610
	mov	edi, eax
	lea	rcx, QWORD PTR [rbp-32]
	lea	rdx, OFFSET FLAT:?CheckProgram@@YA_NIPEBD@Z$rtcFrameData
	call	_RTC_CheckStackVars
	mov	eax, edi
	mov	rcx, QWORD PTR __$ArrayPad$[rbp]
	xor	rcx, rbp
	call	__security_check_cookie
	lea	rsp, QWORD PTR [rbp+376]
	pop	rdi
	pop	rbp
	ret	0
?CheckProgram@@YA_NIPEBD@Z ENDP				; CheckProgram
_TEXT	ENDS
; Function compile flags: /Odtp /RTCsu /ZI
;	COMDAT text$x
text$x	SEGMENT
bd$ = 8
status$ = 36
log_length$ = 68
buf$6 = 104
tv148 = 324
tv146 = 328
tv134 = 328
tv78 = 328
tv74 = 328
tv69 = 328
tv144 = 336
tv132 = 336
tv130 = 344
__$ArrayPad$ = 352
handle$ = 400
desc$ = 408
?dtor$0@?0??CheckProgram@@YA_NIPEBD@Z@4HA PROC		; `CheckProgram'::`1'::dtor$0
	mov	QWORD PTR [rsp+8], rcx
	mov	QWORD PTR [rsp+16], rdx
	push	rbp
	push	rdi
	sub	rsp, 40					; 00000028H
	lea	rbp, QWORD PTR [rdx+32]
	lea	rcx, QWORD PTR buf$6[rbp]
	call	??1?$ImVector@D@@QEAA@XZ		; ImVector<char>::~ImVector<char>
	add	rsp, 40					; 00000028H
	pop	rdi
	pop	rbp
	ret	0
?dtor$0@?0??CheckProgram@@YA_NIPEBD@Z@4HA ENDP		; `CheckProgram'::`1'::dtor$0
text$x	ENDS
; Function compile flags: /Odtp /RTCsu /ZI
;	COMDAT ?CheckShader@@YA_NIPEBD@Z
_TEXT	SEGMENT
bd$ = 8
status$ = 36
log_length$ = 68
buf$6 = 104
tv148 = 324
tv146 = 328
tv134 = 328
tv78 = 328
tv74 = 328
tv69 = 328
tv144 = 336
tv132 = 336
tv130 = 344
__$ArrayPad$ = 352
handle$ = 400
desc$ = 408
?CheckShader@@YA_NIPEBD@Z PROC				; CheckShader, COMDAT
; File C:\dev\Raisin\Raisin\src\Raisin\imgui\imgui_impl_opengl3.cpp
; Line 576
	mov	QWORD PTR [rsp+16], rdx
	mov	DWORD PTR [rsp+8], ecx
	push	rbp
	push	rdi
	sub	rsp, 408				; 00000198H
	lea	rbp, QWORD PTR [rsp+32]
	lea	rdi, QWORD PTR [rsp+32]
	mov	ecx, 46					; 0000002eH
	mov	eax, -858993460				; ccccccccH
	rep stosd
	mov	ecx, DWORD PTR [rsp+440]
	mov	rax, QWORD PTR __security_cookie
	xor	rax, rbp
	mov	QWORD PTR __$ArrayPad$[rbp], rax
	lea	rcx, OFFSET FLAT:__45597862_imgui_impl_opengl3@cpp
	call	__CheckForDebuggerJustMyCode
; Line 577
	call	?ImGui_ImplOpenGL3_GetBackendData@@YAPEAUImGui_ImplOpenGL3_Data@@XZ ; ImGui_ImplOpenGL3_GetBackendData
	mov	QWORD PTR bd$[rbp], rax
; Line 578
	mov	DWORD PTR status$[rbp], 0
	mov	DWORD PTR log_length$[rbp], 0
; Line 579
	mov	rax, QWORD PTR glad_glGetShaderiv
	mov	QWORD PTR tv69[rbp], rax
	lea	r8, QWORD PTR status$[rbp]
	mov	edx, 35713				; 00008b81H
	mov	ecx, DWORD PTR handle$[rbp]
	call	QWORD PTR tv69[rbp]
; Line 580
	mov	rax, QWORD PTR glad_glGetShaderiv
	mov	QWORD PTR tv74[rbp], rax
	lea	r8, QWORD PTR log_length$[rbp]
	mov	edx, 35716				; 00008b84H
	mov	ecx, DWORD PTR handle$[rbp]
	call	QWORD PTR tv74[rbp]
; Line 581
	movzx	eax, BYTE PTR status$[rbp]
	test	eax, eax
	jne	SHORT $LN2@CheckShade
; Line 582
	mov	rax, QWORD PTR bd$[rbp]
	add	rax, 4
	mov	QWORD PTR tv78[rbp], rax
	mov	ecx, 2
	call	QWORD PTR __imp___acrt_iob_func
	mov	rcx, QWORD PTR tv78[rbp]
	mov	r9, rcx
	mov	r8, QWORD PTR desc$[rbp]
	lea	rdx, OFFSET FLAT:??_C@_0FD@CCPHEBOI@ERROR?3?5ImGui_ImplOpenGL3_Create@
	mov	rcx, rax
	call	fprintf
$LN2@CheckShade:
; Line 583
	cmp	DWORD PTR log_length$[rbp], 1
	jle	$LN3@CheckShade
; Line 585
	lea	rcx, QWORD PTR buf$6[rbp]
	call	??0?$ImVector@D@@QEAA@XZ		; ImVector<char>::ImVector<char>
	npad	1
; Line 586
	mov	eax, DWORD PTR log_length$[rbp]
	inc	eax
	mov	edx, eax
	lea	rcx, QWORD PTR buf$6[rbp]
	call	?resize@?$ImVector@D@@QEAAXH@Z		; ImVector<char>::resize
; Line 587
	mov	rax, QWORD PTR glad_glGetShaderInfoLog
	mov	QWORD PTR tv134[rbp], rax
	lea	rcx, QWORD PTR buf$6[rbp]
	call	?begin@?$ImVector@D@@QEAAPEADXZ		; ImVector<char>::begin
	mov	QWORD PTR tv132[rbp], rax
	mov	eax, DWORD PTR log_length$[rbp]
	mov	DWORD PTR tv130[rbp], eax
	mov	r9, QWORD PTR tv132[rbp]
	xor	r8d, r8d
	mov	edx, DWORD PTR tv130[rbp]
	mov	ecx, DWORD PTR handle$[rbp]
	call	QWORD PTR tv134[rbp]
; Line 588
	lea	rcx, QWORD PTR buf$6[rbp]
	call	?begin@?$ImVector@D@@QEAAPEADXZ		; ImVector<char>::begin
	mov	QWORD PTR tv146[rbp], rax
	mov	ecx, 2
	call	QWORD PTR __imp___acrt_iob_func
	mov	QWORD PTR tv144[rbp], rax
	mov	r8, QWORD PTR tv146[rbp]
	lea	rdx, OFFSET FLAT:??_C@_03OFAPEBGM@?$CFs?6@
	mov	rcx, QWORD PTR tv144[rbp]
	call	fprintf
	npad	1
; Line 589
	lea	rcx, QWORD PTR buf$6[rbp]
	call	??1?$ImVector@D@@QEAA@XZ		; ImVector<char>::~ImVector<char>
$LN3@CheckShade:
; Line 590
	movzx	eax, BYTE PTR status$[rbp]
	cmp	eax, 1
	jne	SHORT $LN5@CheckShade
	mov	DWORD PTR tv148[rbp], 1
	jmp	SHORT $LN6@CheckShade
$LN5@CheckShade:
	mov	DWORD PTR tv148[rbp], 0
$LN6@CheckShade:
	movzx	eax, BYTE PTR tv148[rbp]
; Line 591
	mov	edi, eax
	lea	rcx, QWORD PTR [rbp-32]
	lea	rdx, OFFSET FLAT:?CheckShader@@YA_NIPEBD@Z$rtcFrameData
	call	_RTC_CheckStackVars
	mov	eax, edi
	mov	rcx, QWORD PTR __$ArrayPad$[rbp]
	xor	rcx, rbp
	call	__security_check_cookie
	lea	rsp, QWORD PTR [rbp+376]
	pop	rdi
	pop	rbp
	ret	0
?CheckShader@@YA_NIPEBD@Z ENDP				; CheckShader
_TEXT	ENDS
; Function compile flags: /Odtp /RTCsu /ZI
;	COMDAT text$x
text$x	SEGMENT
bd$ = 8
status$ = 36
log_length$ = 68
buf$6 = 104
tv148 = 324
tv146 = 328
tv134 = 328
tv78 = 328
tv74 = 328
tv69 = 328
tv144 = 336
tv132 = 336
tv130 = 344
__$ArrayPad$ = 352
handle$ = 400
desc$ = 408
?dtor$0@?0??CheckShader@@YA_NIPEBD@Z@4HA PROC		; `CheckShader'::`1'::dtor$0
	mov	QWORD PTR [rsp+8], rcx
	mov	QWORD PTR [rsp+16], rdx
	push	rbp
	push	rdi
	sub	rsp, 40					; 00000028H
	lea	rbp, QWORD PTR [rdx+32]
	lea	rcx, QWORD PTR buf$6[rbp]
	call	??1?$ImVector@D@@QEAA@XZ		; ImVector<char>::~ImVector<char>
	add	rsp, 40					; 00000028H
	pop	rdi
	pop	rbp
	ret	0
?dtor$0@?0??CheckShader@@YA_NIPEBD@Z@4HA ENDP		; `CheckShader'::`1'::dtor$0
text$x	ENDS
; Function compile flags: /Odtp /RTCsu /ZI
;	COMDAT ?ImGui_ImplOpenGL3_SetupRenderState@@YAXPEAUImDrawData@@HHI@Z
_TEXT	SEGMENT
bd$ = 8
clip_origin_lower_left$ = 36
current_clip_origin$5 = 68
L$ = 100
R$ = 132
T$ = 164
B$ = 196
tmp$6 = 228
ortho_projection$ = 272
tv279 = 536
tv270 = 536
tv261 = 536
tv252 = 536
tv248 = 536
tv244 = 536
tv240 = 536
tv235 = 536
tv230 = 536
tv227 = 536
tv189 = 536
tv178 = 536
tv173 = 536
tv143 = 536
tv136 = 536
tv129 = 536
tv93 = 536
tv88 = 536
tv85 = 536
tv82 = 536
tv79 = 536
tv76 = 536
tv70 = 536
tv67 = 536
__$ArrayPad$ = 544
draw_data$ = 592
fb_width$ = 600
fb_height$ = 608
vertex_array_object$ = 616
?ImGui_ImplOpenGL3_SetupRenderState@@YAXPEAUImDrawData@@HHI@Z PROC ; ImGui_ImplOpenGL3_SetupRenderState, COMDAT
; File C:\dev\Raisin\Raisin\src\Raisin\imgui\imgui_impl_opengl3.cpp
; Line 318
	mov	DWORD PTR [rsp+32], r9d
	mov	DWORD PTR [rsp+24], r8d
	mov	DWORD PTR [rsp+16], edx
	mov	QWORD PTR [rsp+8], rcx
	push	rbp
	push	rdi
	sub	rsp, 616				; 00000268H
	lea	rbp, QWORD PTR [rsp+48]
	lea	rdi, QWORD PTR [rsp+48]
	mov	ecx, 94					; 0000005eH
	mov	eax, -858993460				; ccccccccH
	rep stosd
	mov	rcx, QWORD PTR [rsp+648]
	mov	rax, QWORD PTR __security_cookie
	xor	rax, rbp
	mov	QWORD PTR __$ArrayPad$[rbp], rax
	lea	rcx, OFFSET FLAT:__45597862_imgui_impl_opengl3@cpp
	call	__CheckForDebuggerJustMyCode
; Line 319
	call	?ImGui_ImplOpenGL3_GetBackendData@@YAPEAUImGui_ImplOpenGL3_Data@@XZ ; ImGui_ImplOpenGL3_GetBackendData
	mov	QWORD PTR bd$[rbp], rax
; Line 322
	mov	rax, QWORD PTR glad_glEnable
	mov	QWORD PTR tv67[rbp], rax
	mov	ecx, 3042				; 00000be2H
	call	QWORD PTR tv67[rbp]
; Line 323
	mov	rax, QWORD PTR glad_glBlendEquation
	mov	QWORD PTR tv70[rbp], rax
	mov	ecx, 32774				; 00008006H
	call	QWORD PTR tv70[rbp]
; Line 324
	mov	rax, QWORD PTR glad_glBlendFuncSeparate
	mov	QWORD PTR tv76[rbp], rax
	mov	r9d, 771				; 00000303H
	mov	r8d, 1
	mov	edx, 771				; 00000303H
	mov	ecx, 770				; 00000302H
	call	QWORD PTR tv76[rbp]
; Line 325
	mov	rax, QWORD PTR glad_glDisable
	mov	QWORD PTR tv79[rbp], rax
	mov	ecx, 2884				; 00000b44H
	call	QWORD PTR tv79[rbp]
; Line 326
	mov	rax, QWORD PTR glad_glDisable
	mov	QWORD PTR tv82[rbp], rax
	mov	ecx, 2929				; 00000b71H
	call	QWORD PTR tv82[rbp]
; Line 327
	mov	rax, QWORD PTR glad_glDisable
	mov	QWORD PTR tv85[rbp], rax
	mov	ecx, 2960				; 00000b90H
	call	QWORD PTR tv85[rbp]
; Line 328
	mov	rax, QWORD PTR glad_glEnable
	mov	QWORD PTR tv88[rbp], rax
	mov	ecx, 3089				; 00000c11H
	call	QWORD PTR tv88[rbp]
; Line 330
	mov	rax, QWORD PTR bd$[rbp]
	cmp	DWORD PTR [rax], 310			; 00000136H
	jb	SHORT $LN2@ImGui_Impl
; Line 331
	mov	rax, QWORD PTR glad_glDisable
	mov	QWORD PTR tv93[rbp], rax
	mov	ecx, 36765				; 00008f9dH
	call	QWORD PTR tv93[rbp]
$LN2@ImGui_Impl:
; Line 334
	mov	rax, QWORD PTR glad_glPolygonMode
	mov	QWORD PTR tv129[rbp], rax
	mov	edx, 6914				; 00001b02H
	mov	ecx, 1032				; 00000408H
	call	QWORD PTR tv129[rbp]
; Line 339
	mov	BYTE PTR clip_origin_lower_left$[rbp], 1
; Line 340
	mov	rax, QWORD PTR bd$[rbp]
	movzx	eax, BYTE PTR [rax+72]
	test	eax, eax
	je	SHORT $LN3@ImGui_Impl
; Line 342
	mov	DWORD PTR current_clip_origin$5[rbp], 0
	mov	rax, QWORD PTR glad_glGetIntegerv
	mov	QWORD PTR tv136[rbp], rax
	lea	rdx, QWORD PTR current_clip_origin$5[rbp]
	mov	ecx, 37724				; 0000935cH
	call	QWORD PTR tv136[rbp]
; Line 343
	cmp	DWORD PTR current_clip_origin$5[rbp], 36002 ; 00008ca2H
	jne	SHORT $LN4@ImGui_Impl
; Line 344
	mov	BYTE PTR clip_origin_lower_left$[rbp], 0
$LN4@ImGui_Impl:
$LN3@ImGui_Impl:
; Line 350
	mov	rax, QWORD PTR glad_glViewport
	mov	QWORD PTR tv143[rbp], rax
	mov	r9d, DWORD PTR fb_height$[rbp]
	mov	r8d, DWORD PTR fb_width$[rbp]
	xor	edx, edx
	xor	ecx, ecx
	call	QWORD PTR tv143[rbp]
; Line 351
	mov	rax, QWORD PTR draw_data$[rbp]
	movss	xmm0, DWORD PTR [rax+24]
	movss	DWORD PTR L$[rbp], xmm0
; Line 352
	mov	rax, QWORD PTR draw_data$[rbp]
	mov	rcx, QWORD PTR draw_data$[rbp]
	movss	xmm0, DWORD PTR [rax+24]
	addss	xmm0, DWORD PTR [rcx+32]
	movss	DWORD PTR R$[rbp], xmm0
; Line 353
	mov	rax, QWORD PTR draw_data$[rbp]
	movss	xmm0, DWORD PTR [rax+28]
	movss	DWORD PTR T$[rbp], xmm0
; Line 354
	mov	rax, QWORD PTR draw_data$[rbp]
	mov	rcx, QWORD PTR draw_data$[rbp]
	movss	xmm0, DWORD PTR [rax+28]
	addss	xmm0, DWORD PTR [rcx+36]
	movss	DWORD PTR B$[rbp], xmm0
; Line 356
	movzx	eax, BYTE PTR clip_origin_lower_left$[rbp]
	test	eax, eax
	jne	SHORT $LN5@ImGui_Impl
	movss	xmm0, DWORD PTR T$[rbp]
	movss	DWORD PTR tmp$6[rbp], xmm0
	movss	xmm0, DWORD PTR B$[rbp]
	movss	DWORD PTR T$[rbp], xmm0
	movss	xmm0, DWORD PTR tmp$6[rbp]
	movss	DWORD PTR B$[rbp], xmm0
$LN5@ImGui_Impl:
; Line 360
	movss	xmm0, DWORD PTR R$[rbp]
	subss	xmm0, DWORD PTR L$[rbp]
	movss	xmm1, DWORD PTR __real@40000000
	divss	xmm1, xmm0
	movaps	xmm0, xmm1
	movss	DWORD PTR ortho_projection$[rbp], xmm0
	xorps	xmm0, xmm0
	movss	DWORD PTR ortho_projection$[rbp+4], xmm0
	xorps	xmm0, xmm0
	movss	DWORD PTR ortho_projection$[rbp+8], xmm0
	xorps	xmm0, xmm0
	movss	DWORD PTR ortho_projection$[rbp+12], xmm0
; Line 361
	xorps	xmm0, xmm0
	movss	DWORD PTR ortho_projection$[rbp+16], xmm0
	movss	xmm0, DWORD PTR T$[rbp]
	subss	xmm0, DWORD PTR B$[rbp]
	movss	xmm1, DWORD PTR __real@40000000
	divss	xmm1, xmm0
	movaps	xmm0, xmm1
	movss	DWORD PTR ortho_projection$[rbp+20], xmm0
	xorps	xmm0, xmm0
	movss	DWORD PTR ortho_projection$[rbp+24], xmm0
	xorps	xmm0, xmm0
	movss	DWORD PTR ortho_projection$[rbp+28], xmm0
; Line 362
	xorps	xmm0, xmm0
	movss	DWORD PTR ortho_projection$[rbp+32], xmm0
	xorps	xmm0, xmm0
	movss	DWORD PTR ortho_projection$[rbp+36], xmm0
	movss	xmm0, DWORD PTR __real@bf800000
	movss	DWORD PTR ortho_projection$[rbp+40], xmm0
	xorps	xmm0, xmm0
	movss	DWORD PTR ortho_projection$[rbp+44], xmm0
; Line 363
	movss	xmm0, DWORD PTR R$[rbp]
	addss	xmm0, DWORD PTR L$[rbp]
	movss	xmm1, DWORD PTR L$[rbp]
	subss	xmm1, DWORD PTR R$[rbp]
	divss	xmm0, xmm1
	movss	DWORD PTR ortho_projection$[rbp+48], xmm0
	movss	xmm0, DWORD PTR T$[rbp]
	addss	xmm0, DWORD PTR B$[rbp]
	movss	xmm1, DWORD PTR B$[rbp]
	subss	xmm1, DWORD PTR T$[rbp]
	divss	xmm0, xmm1
	movss	DWORD PTR ortho_projection$[rbp+52], xmm0
	xorps	xmm0, xmm0
	movss	DWORD PTR ortho_projection$[rbp+56], xmm0
	movss	xmm0, DWORD PTR __real@3f800000
	movss	DWORD PTR ortho_projection$[rbp+60], xmm0
; Line 365
	mov	rax, QWORD PTR glad_glUseProgram
	mov	QWORD PTR tv173[rbp], rax
	mov	rax, QWORD PTR bd$[rbp]
	mov	ecx, DWORD PTR [rax+40]
	call	QWORD PTR tv173[rbp]
; Line 366
	mov	rax, QWORD PTR glad_glUniform1i
	mov	QWORD PTR tv178[rbp], rax
	xor	edx, edx
	mov	rax, QWORD PTR bd$[rbp]
	mov	ecx, DWORD PTR [rax+44]
	call	QWORD PTR tv178[rbp]
; Line 367
	mov	rax, QWORD PTR glad_glUniformMatrix4fv
	mov	QWORD PTR tv189[rbp], rax
	mov	eax, 16
	imul	rax, rax, 0
	lea	rax, QWORD PTR ortho_projection$[rbp+rax]
	mov	ecx, 4
	imul	rcx, rcx, 0
	add	rax, rcx
	mov	r9, rax
	xor	r8d, r8d
	mov	edx, 1
	mov	rax, QWORD PTR bd$[rbp]
	mov	ecx, DWORD PTR [rax+48]
	call	QWORD PTR tv189[rbp]
; Line 370
	mov	rax, QWORD PTR bd$[rbp]
	cmp	DWORD PTR [rax], 330			; 0000014aH
	jb	SHORT $LN6@ImGui_Impl
; Line 371
	mov	rax, QWORD PTR glad_glBindSampler
	mov	QWORD PTR tv227[rbp], rax
	xor	edx, edx
	xor	ecx, ecx
	call	QWORD PTR tv227[rbp]
$LN6@ImGui_Impl:
; Line 376
	mov	rax, QWORD PTR glad_glBindVertexArray
	mov	QWORD PTR tv230[rbp], rax
	mov	ecx, DWORD PTR vertex_array_object$[rbp]
	call	QWORD PTR tv230[rbp]
; Line 380
	mov	rax, QWORD PTR glad_glBindBuffer
	mov	QWORD PTR tv235[rbp], rax
	mov	rax, QWORD PTR bd$[rbp]
	mov	edx, DWORD PTR [rax+64]
	mov	ecx, 34962				; 00008892H
	call	QWORD PTR tv235[rbp]
; Line 381
	mov	rax, QWORD PTR glad_glBindBuffer
	mov	QWORD PTR tv240[rbp], rax
	mov	rax, QWORD PTR bd$[rbp]
	mov	edx, DWORD PTR [rax+68]
	mov	ecx, 34963				; 00008893H
	call	QWORD PTR tv240[rbp]
; Line 382
	mov	rax, QWORD PTR glad_glEnableVertexAttribArray
	mov	QWORD PTR tv244[rbp], rax
	mov	rax, QWORD PTR bd$[rbp]
	mov	ecx, DWORD PTR [rax+52]
	call	QWORD PTR tv244[rbp]
; Line 383
	mov	rax, QWORD PTR glad_glEnableVertexAttribArray
	mov	QWORD PTR tv248[rbp], rax
	mov	rax, QWORD PTR bd$[rbp]
	mov	ecx, DWORD PTR [rax+56]
	call	QWORD PTR tv248[rbp]
; Line 384
	mov	rax, QWORD PTR glad_glEnableVertexAttribArray
	mov	QWORD PTR tv252[rbp], rax
	mov	rax, QWORD PTR bd$[rbp]
	mov	ecx, DWORD PTR [rax+60]
	call	QWORD PTR tv252[rbp]
; Line 385
	mov	rax, QWORD PTR glad_glVertexAttribPointer
	mov	QWORD PTR tv261[rbp], rax
	mov	QWORD PTR [rsp+40], 0
	mov	DWORD PTR [rsp+32], 20
	xor	r9d, r9d
	mov	r8d, 5126				; 00001406H
	mov	edx, 2
	mov	rax, QWORD PTR bd$[rbp]
	mov	ecx, DWORD PTR [rax+52]
	call	QWORD PTR tv261[rbp]
; Line 386
	mov	rax, QWORD PTR glad_glVertexAttribPointer
	mov	QWORD PTR tv270[rbp], rax
	mov	QWORD PTR [rsp+40], 8
	mov	DWORD PTR [rsp+32], 20
	xor	r9d, r9d
	mov	r8d, 5126				; 00001406H
	mov	edx, 2
	mov	rax, QWORD PTR bd$[rbp]
	mov	ecx, DWORD PTR [rax+56]
	call	QWORD PTR tv270[rbp]
; Line 387
	mov	rax, QWORD PTR glad_glVertexAttribPointer
	mov	QWORD PTR tv279[rbp], rax
	mov	QWORD PTR [rsp+40], 16
	mov	DWORD PTR [rsp+32], 20
	mov	r9b, 1
	mov	r8d, 5121				; 00001401H
	mov	edx, 4
	mov	rax, QWORD PTR bd$[rbp]
	mov	ecx, DWORD PTR [rax+60]
	call	QWORD PTR tv279[rbp]
; Line 388
	lea	rcx, QWORD PTR [rbp-48]
	lea	rdx, OFFSET FLAT:?ImGui_ImplOpenGL3_SetupRenderState@@YAXPEAUImDrawData@@HHI@Z$rtcFrameData
	call	_RTC_CheckStackVars
	mov	rcx, QWORD PTR __$ArrayPad$[rbp]
	xor	rcx, rbp
	call	__security_check_cookie
	lea	rsp, QWORD PTR [rbp+568]
	pop	rdi
	pop	rbp
	ret	0
?ImGui_ImplOpenGL3_SetupRenderState@@YAXPEAUImDrawData@@HHI@Z ENDP ; ImGui_ImplOpenGL3_SetupRenderState
_TEXT	ENDS
; Function compile flags: /Odtp /RTCsu /ZI
;	COMDAT ??$IM_DELETE@UImGui_ImplOpenGL3_Data@@@@YAXPEAUImGui_ImplOpenGL3_Data@@@Z
_TEXT	SEGMENT
p$ = 224
??$IM_DELETE@UImGui_ImplOpenGL3_Data@@@@YAXPEAUImGui_ImplOpenGL3_Data@@@Z PROC ; IM_DELETE<ImGui_ImplOpenGL3_Data>, COMDAT
; File C:\dev\Raisin\Raisin\src\Raisin\imgui\imgui.h
; Line 1653
$LN4:
	mov	QWORD PTR [rsp+8], rcx
	push	rbp
	push	rdi
	sub	rsp, 232				; 000000e8H
	lea	rbp, QWORD PTR [rsp+32]
	lea	rcx, OFFSET FLAT:__21D911DF_imgui@h
	call	__CheckForDebuggerJustMyCode
	cmp	QWORD PTR p$[rbp], 0
	je	SHORT $LN2@IM_DELETE
	mov	rcx, QWORD PTR p$[rbp]
	call	?MemFree@ImGui@@YAXPEAX@Z		; ImGui::MemFree
$LN2@IM_DELETE:
	lea	rsp, QWORD PTR [rbp+200]
	pop	rdi
	pop	rbp
	ret	0
??$IM_DELETE@UImGui_ImplOpenGL3_Data@@@@YAXPEAUImGui_ImplOpenGL3_Data@@@Z ENDP ; IM_DELETE<ImGui_ImplOpenGL3_Data>
_TEXT	ENDS
; Function compile flags: /Odtp /RTCsu /ZI
;	COMDAT ?ImGui_ImplOpenGL3_GetBackendData@@YAPEAUImGui_ImplOpenGL3_Data@@XZ
_TEXT	SEGMENT
tv68 = 192
?ImGui_ImplOpenGL3_GetBackendData@@YAPEAUImGui_ImplOpenGL3_Data@@XZ PROC ; ImGui_ImplOpenGL3_GetBackendData, COMDAT
; File C:\dev\Raisin\Raisin\src\Raisin\imgui\imgui_impl_opengl3.cpp
; Line 195
	push	rbp
	push	rdi
	sub	rsp, 248				; 000000f8H
	lea	rbp, QWORD PTR [rsp+32]
	lea	rcx, OFFSET FLAT:__45597862_imgui_impl_opengl3@cpp
	call	__CheckForDebuggerJustMyCode
; Line 196
	call	?GetCurrentContext@ImGui@@YAPEAUImGuiContext@@XZ ; ImGui::GetCurrentContext
	test	rax, rax
	je	SHORT $LN3@ImGui_Impl
	call	?GetIO@ImGui@@YAAEAUImGuiIO@@XZ		; ImGui::GetIO
	mov	rax, QWORD PTR [rax+232]
	mov	QWORD PTR tv68[rbp], rax
	jmp	SHORT $LN4@ImGui_Impl
$LN3@ImGui_Impl:
	mov	QWORD PTR tv68[rbp], 0
$LN4@ImGui_Impl:
	mov	rax, QWORD PTR tv68[rbp]
; Line 197
	lea	rsp, QWORD PTR [rbp+216]
	pop	rdi
	pop	rbp
	ret	0
?ImGui_ImplOpenGL3_GetBackendData@@YAPEAUImGui_ImplOpenGL3_Data@@XZ ENDP ; ImGui_ImplOpenGL3_GetBackendData
_TEXT	ENDS
; Function compile flags: /Odtp /RTCsu /ZI
;	COMDAT ??0ImGui_ImplOpenGL3_Data@@QEAA@XZ
_TEXT	SEGMENT
this$ = 224
??0ImGui_ImplOpenGL3_Data@@QEAA@XZ PROC			; ImGui_ImplOpenGL3_Data::ImGui_ImplOpenGL3_Data, COMDAT
; File C:\dev\Raisin\Raisin\src\Raisin\imgui\imgui_impl_opengl3.cpp
; Line 189
$LN3:
	mov	QWORD PTR [rsp+8], rcx
	push	rbp
	push	rdi
	sub	rsp, 232				; 000000e8H
	lea	rbp, QWORD PTR [rsp+32]
	lea	rcx, OFFSET FLAT:__45597862_imgui_impl_opengl3@cpp
	call	__CheckForDebuggerJustMyCode
	mov	rdi, QWORD PTR this$[rbp]
	xor	eax, eax
	mov	ecx, 76					; 0000004cH
	rep stosb
	mov	rax, QWORD PTR this$[rbp]
	lea	rsp, QWORD PTR [rbp+200]
	pop	rdi
	pop	rbp
	ret	0
??0ImGui_ImplOpenGL3_Data@@QEAA@XZ ENDP			; ImGui_ImplOpenGL3_Data::ImGui_ImplOpenGL3_Data
_TEXT	ENDS
; Function compile flags: /Odtp /RTCsu /ZI
;	COMDAT sscanf
_TEXT	SEGMENT
_Result$ = 4
_ArgList$ = 40
__$ArrayPad$ = 280
_Buffer$ = 320
_Format$ = 328
sscanf	PROC						; COMDAT
; File C:\Program Files (x86)\Windows Kits\10\Include\10.0.22621.0\ucrt\stdio.h
; Line 2247
$LN3:
	mov	QWORD PTR [rsp+16], rdx
	mov	QWORD PTR [rsp+8], rcx
	mov	QWORD PTR [rsp+24], r8
	mov	QWORD PTR [rsp+32], r9
	push	rbp
	push	rdi
	sub	rsp, 328				; 00000148H
	lea	rbp, QWORD PTR [rsp+32]
	lea	rdi, QWORD PTR [rsp+32]
	mov	ecx, 26
	mov	eax, -858993460				; ccccccccH
	rep stosd
	mov	rcx, QWORD PTR [rsp+360]
	mov	rax, QWORD PTR __security_cookie
	xor	rax, rbp
	mov	QWORD PTR __$ArrayPad$[rbp], rax
	lea	rcx, OFFSET FLAT:__C1EC35D3_stdio@h
	call	__CheckForDebuggerJustMyCode
; Line 2250
	lea	rax, QWORD PTR _Format$[rbp+8]
	mov	QWORD PTR _ArgList$[rbp], rax
; Line 2251
	mov	r9, QWORD PTR _ArgList$[rbp]
	xor	r8d, r8d
	mov	rdx, QWORD PTR _Format$[rbp]
	mov	rcx, QWORD PTR _Buffer$[rbp]
	call	_vsscanf_l
	mov	DWORD PTR _Result$[rbp], eax
; Line 2252
	mov	QWORD PTR _ArgList$[rbp], 0
; Line 2253
	mov	eax, DWORD PTR _Result$[rbp]
; Line 2254
	mov	edi, eax
	lea	rcx, QWORD PTR [rbp-32]
	lea	rdx, OFFSET FLAT:sscanf$rtcFrameData
	call	_RTC_CheckStackVars
	mov	eax, edi
	mov	rcx, QWORD PTR __$ArrayPad$[rbp]
	xor	rcx, rbp
	call	__security_check_cookie
	lea	rsp, QWORD PTR [rbp+296]
	pop	rdi
	pop	rbp
	ret	0
sscanf	ENDP
_TEXT	ENDS
; Function compile flags: /Odtp /RTCsu /ZI
;	COMDAT _vsscanf_l
_TEXT	SEGMENT
_Buffer$ = 224
_Format$ = 232
_Locale$ = 240
_ArgList$ = 248
_vsscanf_l PROC						; COMDAT
; File C:\Program Files (x86)\Windows Kits\10\Include\10.0.22621.0\ucrt\stdio.h
; Line 2152
$LN3:
	mov	QWORD PTR [rsp+32], r9
	mov	QWORD PTR [rsp+24], r8
	mov	QWORD PTR [rsp+16], rdx
	mov	QWORD PTR [rsp+8], rcx
	push	rbp
	push	rdi
	sub	rsp, 248				; 000000f8H
	lea	rbp, QWORD PTR [rsp+48]
	lea	rcx, OFFSET FLAT:__C1EC35D3_stdio@h
	call	__CheckForDebuggerJustMyCode
; Line 2153
	call	__local_stdio_scanf_options
	mov	rcx, QWORD PTR _ArgList$[rbp]
	mov	QWORD PTR [rsp+40], rcx
	mov	rcx, QWORD PTR _Locale$[rbp]
	mov	QWORD PTR [rsp+32], rcx
	mov	r9, QWORD PTR _Format$[rbp]
	mov	r8, -1
	mov	rdx, QWORD PTR _Buffer$[rbp]
	mov	rcx, QWORD PTR [rax]
	call	QWORD PTR __imp___stdio_common_vsscanf
; Line 2156
	lea	rsp, QWORD PTR [rbp+200]
	pop	rdi
	pop	rbp
	ret	0
_vsscanf_l ENDP
_TEXT	ENDS
; Function compile flags: /Odtp /RTCsu /ZI
;	COMDAT fprintf
_TEXT	SEGMENT
_Result$ = 4
_ArgList$ = 40
__$ArrayPad$ = 280
_Stream$ = 320
_Format$ = 328
fprintf	PROC						; COMDAT
; File C:\Program Files (x86)\Windows Kits\10\Include\10.0.22621.0\ucrt\stdio.h
; Line 837
$LN3:
	mov	QWORD PTR [rsp+16], rdx
	mov	QWORD PTR [rsp+8], rcx
	mov	QWORD PTR [rsp+24], r8
	mov	QWORD PTR [rsp+32], r9
	push	rbp
	push	rdi
	sub	rsp, 328				; 00000148H
	lea	rbp, QWORD PTR [rsp+32]
	lea	rdi, QWORD PTR [rsp+32]
	mov	ecx, 26
	mov	eax, -858993460				; ccccccccH
	rep stosd
	mov	rcx, QWORD PTR [rsp+360]
	mov	rax, QWORD PTR __security_cookie
	xor	rax, rbp
	mov	QWORD PTR __$ArrayPad$[rbp], rax
	lea	rcx, OFFSET FLAT:__C1EC35D3_stdio@h
	call	__CheckForDebuggerJustMyCode
; Line 840
	lea	rax, QWORD PTR _Format$[rbp+8]
	mov	QWORD PTR _ArgList$[rbp], rax
; Line 841
	mov	r9, QWORD PTR _ArgList$[rbp]
	xor	r8d, r8d
	mov	rdx, QWORD PTR _Format$[rbp]
	mov	rcx, QWORD PTR _Stream$[rbp]
	call	_vfprintf_l
	mov	DWORD PTR _Result$[rbp], eax
; Line 842
	mov	QWORD PTR _ArgList$[rbp], 0
; Line 843
	mov	eax, DWORD PTR _Result$[rbp]
; Line 844
	mov	edi, eax
	lea	rcx, QWORD PTR [rbp-32]
	lea	rdx, OFFSET FLAT:fprintf$rtcFrameData
	call	_RTC_CheckStackVars
	mov	eax, edi
	mov	rcx, QWORD PTR __$ArrayPad$[rbp]
	xor	rcx, rbp
	call	__security_check_cookie
	lea	rsp, QWORD PTR [rbp+296]
	pop	rdi
	pop	rbp
	ret	0
fprintf	ENDP
_TEXT	ENDS
; Function compile flags: /Odtp /RTCsu /ZI
;	COMDAT _vfprintf_l
_TEXT	SEGMENT
_Stream$ = 224
_Format$ = 232
_Locale$ = 240
_ArgList$ = 248
_vfprintf_l PROC					; COMDAT
; File C:\Program Files (x86)\Windows Kits\10\Include\10.0.22621.0\ucrt\stdio.h
; Line 644
$LN3:
	mov	QWORD PTR [rsp+32], r9
	mov	QWORD PTR [rsp+24], r8
	mov	QWORD PTR [rsp+16], rdx
	mov	QWORD PTR [rsp+8], rcx
	push	rbp
	push	rdi
	sub	rsp, 248				; 000000f8H
	lea	rbp, QWORD PTR [rsp+48]
	lea	rcx, OFFSET FLAT:__C1EC35D3_stdio@h
	call	__CheckForDebuggerJustMyCode
; Line 645
	call	__local_stdio_printf_options
	mov	rcx, QWORD PTR _ArgList$[rbp]
	mov	QWORD PTR [rsp+32], rcx
	mov	r9, QWORD PTR _Locale$[rbp]
	mov	r8, QWORD PTR _Format$[rbp]
	mov	rdx, QWORD PTR _Stream$[rbp]
	mov	rcx, QWORD PTR [rax]
	call	QWORD PTR __imp___stdio_common_vfprintf
; Line 646
	lea	rsp, QWORD PTR [rbp+200]
	pop	rdi
	pop	rbp
	ret	0
_vfprintf_l ENDP
_TEXT	ENDS
; Function compile flags: /Odtp /RTCsu /ZI
;	COMDAT __local_stdio_scanf_options
_TEXT	SEGMENT
__local_stdio_scanf_options PROC			; COMDAT
; File C:\Program Files (x86)\Windows Kits\10\Include\10.0.22621.0\ucrt\corecrt_stdio_config.h
; Line 100
$LN3:
	push	rbp
	push	rdi
	sub	rsp, 232				; 000000e8H
	lea	rbp, QWORD PTR [rsp+32]
	lea	rcx, OFFSET FLAT:__44420885_corecrt_stdio_config@h
	call	__CheckForDebuggerJustMyCode
; Line 102
	lea	rax, OFFSET FLAT:?_OptionsStorage@?1??__local_stdio_scanf_options@@9@4_KA ; `__local_stdio_scanf_options'::`2'::_OptionsStorage
; Line 103
	lea	rsp, QWORD PTR [rbp+200]
	pop	rdi
	pop	rbp
	ret	0
__local_stdio_scanf_options ENDP
_TEXT	ENDS
; Function compile flags: /Odtp /RTCsu /ZI
;	COMDAT __local_stdio_printf_options
_TEXT	SEGMENT
__local_stdio_printf_options PROC			; COMDAT
; File C:\Program Files (x86)\Windows Kits\10\Include\10.0.22621.0\ucrt\corecrt_stdio_config.h
; Line 90
$LN3:
	push	rbp
	push	rdi
	sub	rsp, 232				; 000000e8H
	lea	rbp, QWORD PTR [rsp+32]
	lea	rcx, OFFSET FLAT:__44420885_corecrt_stdio_config@h
	call	__CheckForDebuggerJustMyCode
; Line 92
	lea	rax, OFFSET FLAT:?_OptionsStorage@?1??__local_stdio_printf_options@@9@4_KA ; `__local_stdio_printf_options'::`2'::_OptionsStorage
; Line 93
	lea	rsp, QWORD PTR [rbp+200]
	pop	rdi
	pop	rbp
	ret	0
__local_stdio_printf_options ENDP
_TEXT	ENDS
; Function compile flags: /Odtp /RTCsu /ZI
;	COMDAT ?ImGui_ImplOpenGL3_DestroyDeviceObjects@@YAXXZ
_TEXT	SEGMENT
bd$ = 8
tv86 = 216
tv79 = 216
tv71 = 216
?ImGui_ImplOpenGL3_DestroyDeviceObjects@@YAXXZ PROC	; ImGui_ImplOpenGL3_DestroyDeviceObjects, COMDAT
; File C:\dev\Raisin\Raisin\src\Raisin\imgui\imgui_impl_opengl3.cpp
; Line 801
$LN6:
	push	rbp
	push	rdi
	sub	rsp, 264				; 00000108H
	lea	rbp, QWORD PTR [rsp+32]
	lea	rcx, OFFSET FLAT:__45597862_imgui_impl_opengl3@cpp
	call	__CheckForDebuggerJustMyCode
; Line 802
	call	?ImGui_ImplOpenGL3_GetBackendData@@YAPEAUImGui_ImplOpenGL3_Data@@XZ ; ImGui_ImplOpenGL3_GetBackendData
	mov	QWORD PTR bd$[rbp], rax
; Line 803
	mov	rax, QWORD PTR bd$[rbp]
	cmp	DWORD PTR [rax+64], 0
	je	SHORT $LN2@ImGui_Impl
	mov	rax, QWORD PTR glad_glDeleteBuffers
	mov	QWORD PTR tv71[rbp], rax
	mov	rax, QWORD PTR bd$[rbp]
	add	rax, 64					; 00000040H
	mov	rdx, rax
	mov	ecx, 1
	call	QWORD PTR tv71[rbp]
	mov	rax, QWORD PTR bd$[rbp]
	mov	DWORD PTR [rax+64], 0
$LN2@ImGui_Impl:
; Line 804
	mov	rax, QWORD PTR bd$[rbp]
	cmp	DWORD PTR [rax+68], 0
	je	SHORT $LN3@ImGui_Impl
	mov	rax, QWORD PTR glad_glDeleteBuffers
	mov	QWORD PTR tv79[rbp], rax
	mov	rax, QWORD PTR bd$[rbp]
	add	rax, 68					; 00000044H
	mov	rdx, rax
	mov	ecx, 1
	call	QWORD PTR tv79[rbp]
	mov	rax, QWORD PTR bd$[rbp]
	mov	DWORD PTR [rax+68], 0
$LN3@ImGui_Impl:
; Line 805
	mov	rax, QWORD PTR bd$[rbp]
	cmp	DWORD PTR [rax+40], 0
	je	SHORT $LN4@ImGui_Impl
	mov	rax, QWORD PTR glad_glDeleteProgram
	mov	QWORD PTR tv86[rbp], rax
	mov	rax, QWORD PTR bd$[rbp]
	mov	ecx, DWORD PTR [rax+40]
	call	QWORD PTR tv86[rbp]
	mov	rax, QWORD PTR bd$[rbp]
	mov	DWORD PTR [rax+40], 0
$LN4@ImGui_Impl:
; Line 806
	call	?ImGui_ImplOpenGL3_DestroyFontsTexture@@YAXXZ ; ImGui_ImplOpenGL3_DestroyFontsTexture
; Line 807
	lea	rsp, QWORD PTR [rbp+232]
	pop	rdi
	pop	rbp
	ret	0
?ImGui_ImplOpenGL3_DestroyDeviceObjects@@YAXXZ ENDP	; ImGui_ImplOpenGL3_DestroyDeviceObjects
_TEXT	ENDS
; Function compile flags: /Odtp /RTCsu /ZI
;	COMDAT ?ImGui_ImplOpenGL3_CreateDeviceObjects@@YA_NXZ
_TEXT	SEGMENT
bd$ = 8
last_texture$ = 36
last_array_buffer$ = 68
last_vertex_array$ = 100
glsl_version$ = 132
vertex_shader_glsl_120$ = 168
vertex_shader_glsl_130$ = 200
vertex_shader_glsl_300_es$ = 232
vertex_shader_glsl_410_core$ = 264
fragment_shader_glsl_120$ = 296
fragment_shader_glsl_130$ = 328
fragment_shader_glsl_300_es$ = 360
fragment_shader_glsl_410_core$ = 392
vertex_shader$ = 424
fragment_shader$ = 456
vertex_shader_with_version$ = 488
vert_handle$ = 532
fragment_shader_with_version$ = 568
frag_handle$ = 612
tv238 = 1016
tv235 = 1016
tv231 = 1016
tv227 = 1016
tv222 = 1016
tv217 = 1016
tv210 = 1016
tv203 = 1016
tv196 = 1016
tv189 = 1016
tv182 = 1016
tv179 = 1016
tv176 = 1016
tv171 = 1016
tv163 = 1016
tv159 = 1016
tv154 = 1016
tv145 = 1016
tv142 = 1016
tv136 = 1016
tv129 = 1016
tv94 = 1016
tv88 = 1016
tv76 = 1016
tv72 = 1016
tv68 = 1016
__$ArrayPad$ = 1024
?ImGui_ImplOpenGL3_CreateDeviceObjects@@YA_NXZ PROC	; ImGui_ImplOpenGL3_CreateDeviceObjects, COMDAT
; File C:\dev\Raisin\Raisin\src\Raisin\imgui\imgui_impl_opengl3.cpp
; Line 613
$LN9:
	push	rbp
	push	rdi
	sub	rsp, 1080				; 00000438H
	lea	rbp, QWORD PTR [rsp+32]
	lea	rdi, QWORD PTR [rsp+32]
	mov	ecx, 166				; 000000a6H
	mov	eax, -858993460				; ccccccccH
	rep stosd
	mov	rax, QWORD PTR __security_cookie
	xor	rax, rbp
	mov	QWORD PTR __$ArrayPad$[rbp], rax
	lea	rcx, OFFSET FLAT:__45597862_imgui_impl_opengl3@cpp
	call	__CheckForDebuggerJustMyCode
; Line 614
	call	?ImGui_ImplOpenGL3_GetBackendData@@YAPEAUImGui_ImplOpenGL3_Data@@XZ ; ImGui_ImplOpenGL3_GetBackendData
	mov	QWORD PTR bd$[rbp], rax
; Line 618
	mov	rax, QWORD PTR glad_glGetIntegerv
	mov	QWORD PTR tv68[rbp], rax
	lea	rdx, QWORD PTR last_texture$[rbp]
	mov	ecx, 32873				; 00008069H
	call	QWORD PTR tv68[rbp]
; Line 619
	mov	rax, QWORD PTR glad_glGetIntegerv
	mov	QWORD PTR tv72[rbp], rax
	lea	rdx, QWORD PTR last_array_buffer$[rbp]
	mov	ecx, 34964				; 00008894H
	call	QWORD PTR tv72[rbp]
; Line 622
	mov	rax, QWORD PTR glad_glGetIntegerv
	mov	QWORD PTR tv76[rbp], rax
	lea	rdx, QWORD PTR last_vertex_array$[rbp]
	mov	ecx, 34229				; 000085b5H
	call	QWORD PTR tv76[rbp]
; Line 626
	mov	DWORD PTR glsl_version$[rbp], 130	; 00000082H
; Line 627
	mov	rax, QWORD PTR bd$[rbp]
	add	rax, 4
	lea	r8, QWORD PTR glsl_version$[rbp]
	lea	rdx, OFFSET FLAT:??_C@_0M@GIPNOCDP@?$CDversion?5?$CFd@
	mov	rcx, rax
	call	sscanf
; Line 629
	lea	rax, OFFSET FLAT:??_C@_0PF@HLCKEEPJ@uniform?5mat4?5ProjMtx?$DL?6attribute@
	mov	QWORD PTR vertex_shader_glsl_120$[rbp], rax
; Line 643
	lea	rax, OFFSET FLAT:??_C@_0NI@FNJCCLKC@uniform?5mat4?5ProjMtx?$DL?6in?5vec2?5P@
	mov	QWORD PTR vertex_shader_glsl_130$[rbp], rax
; Line 657
	lea	rax, OFFSET FLAT:??_C@_0BDD@JFKDKIGE@precision?5mediump?5float?$DL?6layout@
	mov	QWORD PTR vertex_shader_glsl_300_es$[rbp], rax
; Line 672
	lea	rax, OFFSET FLAT:??_C@_0BBK@IIAKMGPG@layout?5?$CIlocation?5?$DN?50?$CJ?5in?5vec2?5P@
	mov	QWORD PTR vertex_shader_glsl_410_core$[rbp], rax
; Line 686
	lea	rax, OFFSET FLAT:??_C@_0MM@DPJDGIBF@?$CDifdef?5GL_ES?6?5?5?5?5precision?5medi@
	mov	QWORD PTR fragment_shader_glsl_120$[rbp], rax
; Line 698
	lea	rax, OFFSET FLAT:??_C@_0KA@HKFHPDID@uniform?5sampler2D?5Texture?$DL?6in?5v@
	mov	QWORD PTR fragment_shader_glsl_130$[rbp], rax
; Line 708
	lea	rax, OFFSET FLAT:??_C@_0MP@NIPCIBOH@precision?5mediump?5float?$DL?6unifor@
	mov	QWORD PTR fragment_shader_glsl_300_es$[rbp], rax
; Line 719
	lea	rax, OFFSET FLAT:??_C@_0LG@KGGNFOLP@in?5vec2?5Frag_UV?$DL?6in?5vec4?5Frag_C@
	mov	QWORD PTR fragment_shader_glsl_410_core$[rbp], rax
; Line 730
	mov	QWORD PTR vertex_shader$[rbp], 0
; Line 731
	mov	QWORD PTR fragment_shader$[rbp], 0
; Line 732
	cmp	DWORD PTR glsl_version$[rbp], 130	; 00000082H
	jge	SHORT $LN2@ImGui_Impl
; Line 734
	mov	rax, QWORD PTR vertex_shader_glsl_120$[rbp]
	mov	QWORD PTR vertex_shader$[rbp], rax
; Line 735
	mov	rax, QWORD PTR fragment_shader_glsl_120$[rbp]
	mov	QWORD PTR fragment_shader$[rbp], rax
; Line 736
	jmp	SHORT $LN3@ImGui_Impl
$LN2@ImGui_Impl:
; Line 737
	cmp	DWORD PTR glsl_version$[rbp], 410	; 0000019aH
	jl	SHORT $LN4@ImGui_Impl
; Line 739
	mov	rax, QWORD PTR vertex_shader_glsl_410_core$[rbp]
	mov	QWORD PTR vertex_shader$[rbp], rax
; Line 740
	mov	rax, QWORD PTR fragment_shader_glsl_410_core$[rbp]
	mov	QWORD PTR fragment_shader$[rbp], rax
; Line 741
	jmp	SHORT $LN5@ImGui_Impl
$LN4@ImGui_Impl:
; Line 742
	cmp	DWORD PTR glsl_version$[rbp], 300	; 0000012cH
	jne	SHORT $LN6@ImGui_Impl
; Line 744
	mov	rax, QWORD PTR vertex_shader_glsl_300_es$[rbp]
	mov	QWORD PTR vertex_shader$[rbp], rax
; Line 745
	mov	rax, QWORD PTR fragment_shader_glsl_300_es$[rbp]
	mov	QWORD PTR fragment_shader$[rbp], rax
; Line 746
	jmp	SHORT $LN7@ImGui_Impl
$LN6@ImGui_Impl:
; Line 749
	mov	rax, QWORD PTR vertex_shader_glsl_130$[rbp]
	mov	QWORD PTR vertex_shader$[rbp], rax
; Line 750
	mov	rax, QWORD PTR fragment_shader_glsl_130$[rbp]
	mov	QWORD PTR fragment_shader$[rbp], rax
$LN7@ImGui_Impl:
$LN5@ImGui_Impl:
$LN3@ImGui_Impl:
; Line 754
	mov	rax, QWORD PTR bd$[rbp]
	add	rax, 4
	mov	QWORD PTR vertex_shader_with_version$[rbp], rax
	mov	rax, QWORD PTR vertex_shader$[rbp]
	mov	QWORD PTR vertex_shader_with_version$[rbp+8], rax
; Line 755
	mov	rax, QWORD PTR glad_glCreateShader
	mov	QWORD PTR tv88[rbp], rax
	mov	ecx, 35633				; 00008b31H
	call	QWORD PTR tv88[rbp]
	mov	DWORD PTR vert_handle$[rbp], eax
; Line 756
	mov	rax, QWORD PTR glad_glShaderSource
	mov	QWORD PTR tv94[rbp], rax
	xor	r9d, r9d
	lea	r8, QWORD PTR vertex_shader_with_version$[rbp]
	mov	edx, 2
	mov	ecx, DWORD PTR vert_handle$[rbp]
	call	QWORD PTR tv94[rbp]
; Line 757
	mov	rax, QWORD PTR glad_glCompileShader
	mov	QWORD PTR tv129[rbp], rax
	mov	ecx, DWORD PTR vert_handle$[rbp]
	call	QWORD PTR tv129[rbp]
; Line 758
	lea	rdx, OFFSET FLAT:??_C@_0O@FGFIIOKE@vertex?5shader@
	mov	ecx, DWORD PTR vert_handle$[rbp]
	call	?CheckShader@@YA_NIPEBD@Z		; CheckShader
; Line 760
	mov	rax, QWORD PTR bd$[rbp]
	add	rax, 4
	mov	QWORD PTR fragment_shader_with_version$[rbp], rax
	mov	rax, QWORD PTR fragment_shader$[rbp]
	mov	QWORD PTR fragment_shader_with_version$[rbp+8], rax
; Line 761
	mov	rax, QWORD PTR glad_glCreateShader
	mov	QWORD PTR tv136[rbp], rax
	mov	ecx, 35632				; 00008b30H
	call	QWORD PTR tv136[rbp]
	mov	DWORD PTR frag_handle$[rbp], eax
; Line 762
	mov	rax, QWORD PTR glad_glShaderSource
	mov	QWORD PTR tv142[rbp], rax
	xor	r9d, r9d
	lea	r8, QWORD PTR fragment_shader_with_version$[rbp]
	mov	edx, 2
	mov	ecx, DWORD PTR frag_handle$[rbp]
	call	QWORD PTR tv142[rbp]
; Line 763
	mov	rax, QWORD PTR glad_glCompileShader
	mov	QWORD PTR tv145[rbp], rax
	mov	ecx, DWORD PTR frag_handle$[rbp]
	call	QWORD PTR tv145[rbp]
; Line 764
	lea	rdx, OFFSET FLAT:??_C@_0BA@MDFBHBOK@fragment?5shader@
	mov	ecx, DWORD PTR frag_handle$[rbp]
	call	?CheckShader@@YA_NIPEBD@Z		; CheckShader
; Line 767
	call	QWORD PTR glad_glCreateProgram
	mov	rcx, QWORD PTR bd$[rbp]
	mov	DWORD PTR [rcx+40], eax
; Line 768
	mov	rax, QWORD PTR glad_glAttachShader
	mov	QWORD PTR tv154[rbp], rax
	mov	edx, DWORD PTR vert_handle$[rbp]
	mov	rax, QWORD PTR bd$[rbp]
	mov	ecx, DWORD PTR [rax+40]
	call	QWORD PTR tv154[rbp]
; Line 769
	mov	rax, QWORD PTR glad_glAttachShader
	mov	QWORD PTR tv159[rbp], rax
	mov	edx, DWORD PTR frag_handle$[rbp]
	mov	rax, QWORD PTR bd$[rbp]
	mov	ecx, DWORD PTR [rax+40]
	call	QWORD PTR tv159[rbp]
; Line 770
	mov	rax, QWORD PTR glad_glLinkProgram
	mov	QWORD PTR tv163[rbp], rax
	mov	rax, QWORD PTR bd$[rbp]
	mov	ecx, DWORD PTR [rax+40]
	call	QWORD PTR tv163[rbp]
; Line 771
	lea	rdx, OFFSET FLAT:??_C@_0P@HEBBPOKI@shader?5program@
	mov	rax, QWORD PTR bd$[rbp]
	mov	ecx, DWORD PTR [rax+40]
	call	?CheckProgram@@YA_NIPEBD@Z		; CheckProgram
; Line 773
	mov	rax, QWORD PTR glad_glDetachShader
	mov	QWORD PTR tv171[rbp], rax
	mov	edx, DWORD PTR vert_handle$[rbp]
	mov	rax, QWORD PTR bd$[rbp]
	mov	ecx, DWORD PTR [rax+40]
	call	QWORD PTR tv171[rbp]
; Line 774
	mov	rax, QWORD PTR glad_glDetachShader
	mov	QWORD PTR tv176[rbp], rax
	mov	edx, DWORD PTR frag_handle$[rbp]
	mov	rax, QWORD PTR bd$[rbp]
	mov	ecx, DWORD PTR [rax+40]
	call	QWORD PTR tv176[rbp]
; Line 775
	mov	rax, QWORD PTR glad_glDeleteShader
	mov	QWORD PTR tv179[rbp], rax
	mov	ecx, DWORD PTR vert_handle$[rbp]
	call	QWORD PTR tv179[rbp]
; Line 776
	mov	rax, QWORD PTR glad_glDeleteShader
	mov	QWORD PTR tv182[rbp], rax
	mov	ecx, DWORD PTR frag_handle$[rbp]
	call	QWORD PTR tv182[rbp]
; Line 778
	mov	rax, QWORD PTR glad_glGetUniformLocation
	mov	QWORD PTR tv189[rbp], rax
	lea	rdx, OFFSET FLAT:??_C@_07GKACAEDJ@Texture@
	mov	rax, QWORD PTR bd$[rbp]
	mov	ecx, DWORD PTR [rax+40]
	call	QWORD PTR tv189[rbp]
	mov	rcx, QWORD PTR bd$[rbp]
	mov	DWORD PTR [rcx+44], eax
; Line 779
	mov	rax, QWORD PTR glad_glGetUniformLocation
	mov	QWORD PTR tv196[rbp], rax
	lea	rdx, OFFSET FLAT:??_C@_07EDEMHDKD@ProjMtx@
	mov	rax, QWORD PTR bd$[rbp]
	mov	ecx, DWORD PTR [rax+40]
	call	QWORD PTR tv196[rbp]
	mov	rcx, QWORD PTR bd$[rbp]
	mov	DWORD PTR [rcx+48], eax
; Line 780
	mov	rax, QWORD PTR glad_glGetAttribLocation
	mov	QWORD PTR tv203[rbp], rax
	lea	rdx, OFFSET FLAT:??_C@_08GCJNLIKG@Position@
	mov	rax, QWORD PTR bd$[rbp]
	mov	ecx, DWORD PTR [rax+40]
	call	QWORD PTR tv203[rbp]
	mov	rcx, QWORD PTR bd$[rbp]
	mov	DWORD PTR [rcx+52], eax
; Line 781
	mov	rax, QWORD PTR glad_glGetAttribLocation
	mov	QWORD PTR tv210[rbp], rax
	lea	rdx, OFFSET FLAT:??_C@_02IGCIDAGE@UV@
	mov	rax, QWORD PTR bd$[rbp]
	mov	ecx, DWORD PTR [rax+40]
	call	QWORD PTR tv210[rbp]
	mov	rcx, QWORD PTR bd$[rbp]
	mov	DWORD PTR [rcx+56], eax
; Line 782
	mov	rax, QWORD PTR glad_glGetAttribLocation
	mov	QWORD PTR tv217[rbp], rax
	lea	rdx, OFFSET FLAT:??_C@_05PDOBBJNA@Color@
	mov	rax, QWORD PTR bd$[rbp]
	mov	ecx, DWORD PTR [rax+40]
	call	QWORD PTR tv217[rbp]
	mov	rcx, QWORD PTR bd$[rbp]
	mov	DWORD PTR [rcx+60], eax
; Line 785
	mov	rax, QWORD PTR glad_glGenBuffers
	mov	QWORD PTR tv222[rbp], rax
	mov	rax, QWORD PTR bd$[rbp]
	add	rax, 64					; 00000040H
	mov	rdx, rax
	mov	ecx, 1
	call	QWORD PTR tv222[rbp]
; Line 786
	mov	rax, QWORD PTR glad_glGenBuffers
	mov	QWORD PTR tv227[rbp], rax
	mov	rax, QWORD PTR bd$[rbp]
	add	rax, 68					; 00000044H
	mov	rdx, rax
	mov	ecx, 1
	call	QWORD PTR tv227[rbp]
; Line 788
	call	?ImGui_ImplOpenGL3_CreateFontsTexture@@YA_NXZ ; ImGui_ImplOpenGL3_CreateFontsTexture
; Line 791
	mov	rax, QWORD PTR glad_glBindTexture
	mov	QWORD PTR tv231[rbp], rax
	mov	edx, DWORD PTR last_texture$[rbp]
	mov	ecx, 3553				; 00000de1H
	call	QWORD PTR tv231[rbp]
; Line 792
	mov	rax, QWORD PTR glad_glBindBuffer
	mov	QWORD PTR tv235[rbp], rax
	mov	edx, DWORD PTR last_array_buffer$[rbp]
	mov	ecx, 34962				; 00008892H
	call	QWORD PTR tv235[rbp]
; Line 794
	mov	rax, QWORD PTR glad_glBindVertexArray
	mov	QWORD PTR tv238[rbp], rax
	mov	ecx, DWORD PTR last_vertex_array$[rbp]
	call	QWORD PTR tv238[rbp]
; Line 797
	mov	al, 1
; Line 798
	mov	rdi, rax
	lea	rcx, QWORD PTR [rbp-32]
	lea	rdx, OFFSET FLAT:?ImGui_ImplOpenGL3_CreateDeviceObjects@@YA_NXZ$rtcFrameData
	call	_RTC_CheckStackVars
	mov	rax, rdi
	mov	rcx, QWORD PTR __$ArrayPad$[rbp]
	xor	rcx, rbp
	call	__security_check_cookie
	lea	rsp, QWORD PTR [rbp+1048]
	pop	rdi
	pop	rbp
	ret	0
?ImGui_ImplOpenGL3_CreateDeviceObjects@@YA_NXZ ENDP	; ImGui_ImplOpenGL3_CreateDeviceObjects
_TEXT	ENDS
; Function compile flags: /Odtp /RTCsu /ZI
;	COMDAT ?ImGui_ImplOpenGL3_DestroyFontsTexture@@YAXXZ
_TEXT	SEGMENT
io$ = 8
bd$ = 40
tv77 = 248
tv72 = 248
?ImGui_ImplOpenGL3_DestroyFontsTexture@@YAXXZ PROC	; ImGui_ImplOpenGL3_DestroyFontsTexture, COMDAT
; File C:\dev\Raisin\Raisin\src\Raisin\imgui\imgui_impl_opengl3.cpp
; Line 563
$LN4:
	push	rbp
	push	rdi
	sub	rsp, 296				; 00000128H
	lea	rbp, QWORD PTR [rsp+32]
	lea	rcx, OFFSET FLAT:__45597862_imgui_impl_opengl3@cpp
	call	__CheckForDebuggerJustMyCode
; Line 564
	call	?GetIO@ImGui@@YAAEAUImGuiIO@@XZ		; ImGui::GetIO
	mov	QWORD PTR io$[rbp], rax
; Line 565
	call	?ImGui_ImplOpenGL3_GetBackendData@@YAPEAUImGui_ImplOpenGL3_Data@@XZ ; ImGui_ImplOpenGL3_GetBackendData
	mov	QWORD PTR bd$[rbp], rax
; Line 566
	mov	rax, QWORD PTR bd$[rbp]
	cmp	DWORD PTR [rax+36], 0
	je	SHORT $LN2@ImGui_Impl
; Line 568
	mov	rax, QWORD PTR glad_glDeleteTextures
	mov	QWORD PTR tv72[rbp], rax
	mov	rax, QWORD PTR bd$[rbp]
	add	rax, 36					; 00000024H
	mov	rdx, rax
	mov	ecx, 1
	call	QWORD PTR tv72[rbp]
; Line 569
	mov	rax, QWORD PTR io$[rbp]
	mov	rax, QWORD PTR [rax+160]
	mov	QWORD PTR tv77[rbp], rax
	xor	edx, edx
	mov	rcx, QWORD PTR tv77[rbp]
	call	?SetTexID@ImFontAtlas@@QEAAXPEAX@Z	; ImFontAtlas::SetTexID
; Line 570
	mov	rax, QWORD PTR bd$[rbp]
	mov	DWORD PTR [rax+36], 0
$LN2@ImGui_Impl:
; Line 572
	lea	rsp, QWORD PTR [rbp+264]
	pop	rdi
	pop	rbp
	ret	0
?ImGui_ImplOpenGL3_DestroyFontsTexture@@YAXXZ ENDP	; ImGui_ImplOpenGL3_DestroyFontsTexture
_TEXT	ENDS
; Function compile flags: /Odtp /RTCsu /ZI
;	COMDAT ?ImGui_ImplOpenGL3_CreateFontsTexture@@YA_NXZ
_TEXT	SEGMENT
io$ = 8
bd$ = 40
pixels$ = 72
width$ = 100
height$ = 132
last_texture$ = 164
tv155 = 376
tv151 = 376
tv144 = 376
tv133 = 376
tv129 = 376
tv92 = 376
tv87 = 376
tv82 = 376
tv77 = 376
tv73 = 376
__$ArrayPad$ = 384
?ImGui_ImplOpenGL3_CreateFontsTexture@@YA_NXZ PROC	; ImGui_ImplOpenGL3_CreateFontsTexture, COMDAT
; File C:\dev\Raisin\Raisin\src\Raisin\imgui\imgui_impl_opengl3.cpp
; Line 532
$LN3:
	push	rbp
	push	rdi
	sub	rsp, 488				; 000001e8H
	lea	rbp, QWORD PTR [rsp+80]
	lea	rdi, QWORD PTR [rsp+80]
	mov	ecx, 54					; 00000036H
	mov	eax, -858993460				; ccccccccH
	rep stosd
	mov	rax, QWORD PTR __security_cookie
	xor	rax, rbp
	mov	QWORD PTR __$ArrayPad$[rbp], rax
	lea	rcx, OFFSET FLAT:__45597862_imgui_impl_opengl3@cpp
	call	__CheckForDebuggerJustMyCode
; Line 533
	call	?GetIO@ImGui@@YAAEAUImGuiIO@@XZ		; ImGui::GetIO
	mov	QWORD PTR io$[rbp], rax
; Line 534
	call	?ImGui_ImplOpenGL3_GetBackendData@@YAPEAUImGui_ImplOpenGL3_Data@@XZ ; ImGui_ImplOpenGL3_GetBackendData
	mov	QWORD PTR bd$[rbp], rax
; Line 539
	mov	rax, QWORD PTR io$[rbp]
	mov	rax, QWORD PTR [rax+160]
	mov	QWORD PTR tv73[rbp], rax
	mov	QWORD PTR [rsp+32], 0
	lea	r9, QWORD PTR height$[rbp]
	lea	r8, QWORD PTR width$[rbp]
	lea	rdx, QWORD PTR pixels$[rbp]
	mov	rcx, QWORD PTR tv73[rbp]
	call	?GetTexDataAsRGBA32@ImFontAtlas@@QEAAXPEAPEAEPEAH11@Z ; ImFontAtlas::GetTexDataAsRGBA32
; Line 543
	mov	rax, QWORD PTR glad_glGetIntegerv
	mov	QWORD PTR tv77[rbp], rax
	lea	rdx, QWORD PTR last_texture$[rbp]
	mov	ecx, 32873				; 00008069H
	call	QWORD PTR tv77[rbp]
; Line 544
	mov	rax, QWORD PTR glad_glGenTextures
	mov	QWORD PTR tv82[rbp], rax
	mov	rax, QWORD PTR bd$[rbp]
	add	rax, 36					; 00000024H
	mov	rdx, rax
	mov	ecx, 1
	call	QWORD PTR tv82[rbp]
; Line 545
	mov	rax, QWORD PTR glad_glBindTexture
	mov	QWORD PTR tv87[rbp], rax
	mov	rax, QWORD PTR bd$[rbp]
	mov	edx, DWORD PTR [rax+36]
	mov	ecx, 3553				; 00000de1H
	call	QWORD PTR tv87[rbp]
; Line 546
	mov	rax, QWORD PTR glad_glTexParameteri
	mov	QWORD PTR tv92[rbp], rax
	mov	r8d, 9729				; 00002601H
	mov	edx, 10241				; 00002801H
	mov	ecx, 3553				; 00000de1H
	call	QWORD PTR tv92[rbp]
; Line 547
	mov	rax, QWORD PTR glad_glTexParameteri
	mov	QWORD PTR tv129[rbp], rax
	mov	r8d, 9729				; 00002601H
	mov	edx, 10240				; 00002800H
	mov	ecx, 3553				; 00000de1H
	call	QWORD PTR tv129[rbp]
; Line 549
	mov	rax, QWORD PTR glad_glPixelStorei
	mov	QWORD PTR tv133[rbp], rax
	xor	edx, edx
	mov	ecx, 3314				; 00000cf2H
	call	QWORD PTR tv133[rbp]
; Line 551
	mov	rax, QWORD PTR glad_glTexImage2D
	mov	QWORD PTR tv144[rbp], rax
	mov	rax, QWORD PTR pixels$[rbp]
	mov	QWORD PTR [rsp+64], rax
	mov	DWORD PTR [rsp+56], 5121		; 00001401H
	mov	DWORD PTR [rsp+48], 6408		; 00001908H
	mov	DWORD PTR [rsp+40], 0
	mov	eax, DWORD PTR height$[rbp]
	mov	DWORD PTR [rsp+32], eax
	mov	r9d, DWORD PTR width$[rbp]
	mov	r8d, 6408				; 00001908H
	xor	edx, edx
	mov	ecx, 3553				; 00000de1H
	call	QWORD PTR tv144[rbp]
; Line 554
	mov	rax, QWORD PTR io$[rbp]
	mov	rax, QWORD PTR [rax+160]
	mov	QWORD PTR tv151[rbp], rax
	mov	rax, QWORD PTR bd$[rbp]
	mov	eax, DWORD PTR [rax+36]
	mov	edx, eax
	mov	rcx, QWORD PTR tv151[rbp]
	call	?SetTexID@ImFontAtlas@@QEAAXPEAX@Z	; ImFontAtlas::SetTexID
; Line 557
	mov	rax, QWORD PTR glad_glBindTexture
	mov	QWORD PTR tv155[rbp], rax
	mov	edx, DWORD PTR last_texture$[rbp]
	mov	ecx, 3553				; 00000de1H
	call	QWORD PTR tv155[rbp]
; Line 559
	mov	al, 1
; Line 560
	mov	rdi, rax
	lea	rcx, QWORD PTR [rbp-80]
	lea	rdx, OFFSET FLAT:?ImGui_ImplOpenGL3_CreateFontsTexture@@YA_NXZ$rtcFrameData
	call	_RTC_CheckStackVars
	mov	rax, rdi
	mov	rcx, QWORD PTR __$ArrayPad$[rbp]
	xor	rcx, rbp
	call	__security_check_cookie
	lea	rsp, QWORD PTR [rbp+408]
	pop	rdi
	pop	rbp
	ret	0
?ImGui_ImplOpenGL3_CreateFontsTexture@@YA_NXZ ENDP	; ImGui_ImplOpenGL3_CreateFontsTexture
_TEXT	ENDS
; Function compile flags: /Odtp /RTCsu /ZI
;	COMDAT ?ImGui_ImplOpenGL3_RenderDrawData@@YAXPEAUImDrawData@@@Z
_TEXT	SEGMENT
fb_width$ = 4
fb_height$ = 36
bd$ = 72
last_active_texture$ = 100
last_program$ = 132
last_texture$ = 164
last_sampler$ = 196
last_array_buffer$ = 228
last_vertex_array_object$ = 260
last_polygon_mode$ = 296
last_viewport$ = 328
last_scissor_box$ = 376
last_blend_src_rgb$ = 420
last_blend_dst_rgb$ = 452
last_blend_src_alpha$ = 484
last_blend_dst_alpha$ = 516
last_blend_equation_rgb$ = 548
last_blend_equation_alpha$ = 580
last_enable_blend$ = 612
last_enable_cull_face$ = 644
last_enable_depth_test$ = 676
last_enable_stencil_test$ = 708
last_enable_scissor_test$ = 740
last_enable_primitive_restart$ = 772
vertex_array_object$ = 804
clip_off$ = 840
clip_scale$ = 872
n$22 = 900
cmd_list$23 = 936
cmd_i$24 = 964
pcmd$25 = 1000
clip_rect$26 = 1032
tv496 = 1640
tv482 = 1640
tv468 = 1640
tv462 = 1640
tv459 = 1640
tv452 = 1640
tv449 = 1640
tv444 = 1640
tv441 = 1640
tv436 = 1640
tv433 = 1640
tv428 = 1640
tv425 = 1640
tv420 = 1640
tv417 = 1640
tv412 = 1640
tv406 = 1640
tv402 = 1640
tv398 = 1640
tv395 = 1640
tv392 = 1640
tv386 = 1640
tv382 = 1640
tv379 = 1640
tv375 = 1640
tv365 = 1640
tv351 = 1640
tv344 = 1640
tv304 = 1640
tv291 = 1640
tv249 = 1640
tv237 = 1640
tv210 = 1640
tv203 = 1640
tv197 = 1640
tv193 = 1640
tv189 = 1640
tv185 = 1640
tv181 = 1640
tv177 = 1640
tv173 = 1640
tv169 = 1640
tv165 = 1640
tv161 = 1640
tv157 = 1640
tv153 = 1640
tv149 = 1640
tv145 = 1640
tv141 = 1640
tv137 = 1640
tv133 = 1640
tv95 = 1640
tv91 = 1640
tv87 = 1640
tv84 = 1640
tv492 = 1648
tv478 = 1648
tv341 = 1648
tv205 = 1648
__$ArrayPad$ = 1656
draw_data$ = 1696
?ImGui_ImplOpenGL3_RenderDrawData@@YAXPEAUImDrawData@@@Z PROC ; ImGui_ImplOpenGL3_RenderDrawData, COMDAT
; File C:\dev\Raisin\Raisin\src\Raisin\imgui\imgui_impl_opengl3.cpp
; Line 394
$LN36:
	mov	QWORD PTR [rsp+8], rcx
	push	rbp
	push	rdi
	sub	rsp, 1720				; 000006b8H
	lea	rbp, QWORD PTR [rsp+48]
	lea	rdi, QWORD PTR [rsp+48]
	mov	ecx, 274				; 00000112H
	mov	eax, -858993460				; ccccccccH
	rep stosd
	mov	rcx, QWORD PTR [rsp+1752]
	mov	rax, QWORD PTR __security_cookie
	xor	rax, rbp
	mov	QWORD PTR __$ArrayPad$[rbp], rax
	lea	rcx, OFFSET FLAT:__45597862_imgui_impl_opengl3@cpp
	call	__CheckForDebuggerJustMyCode
; Line 396
	mov	rax, QWORD PTR draw_data$[rbp]
	mov	rcx, QWORD PTR draw_data$[rbp]
	movss	xmm0, DWORD PTR [rax+32]
	mulss	xmm0, DWORD PTR [rcx+40]
	cvttss2si eax, xmm0
	mov	DWORD PTR fb_width$[rbp], eax
; Line 397
	mov	rax, QWORD PTR draw_data$[rbp]
	mov	rcx, QWORD PTR draw_data$[rbp]
	movss	xmm0, DWORD PTR [rax+36]
	mulss	xmm0, DWORD PTR [rcx+44]
	cvttss2si eax, xmm0
	mov	DWORD PTR fb_height$[rbp], eax
; Line 398
	cmp	DWORD PTR fb_width$[rbp], 0
	jle	SHORT $LN9@ImGui_Impl
	cmp	DWORD PTR fb_height$[rbp], 0
	jg	SHORT $LN8@ImGui_Impl
$LN9@ImGui_Impl:
; Line 399
	jmp	$LN1@ImGui_Impl
$LN8@ImGui_Impl:
; Line 401
	call	?ImGui_ImplOpenGL3_GetBackendData@@YAPEAUImGui_ImplOpenGL3_Data@@XZ ; ImGui_ImplOpenGL3_GetBackendData
	mov	QWORD PTR bd$[rbp], rax
; Line 404
	mov	rax, QWORD PTR glad_glGetIntegerv
	mov	QWORD PTR tv84[rbp], rax
	lea	rdx, QWORD PTR last_active_texture$[rbp]
	mov	ecx, 34016				; 000084e0H
	call	QWORD PTR tv84[rbp]
; Line 405
	mov	rax, QWORD PTR glad_glActiveTexture
	mov	QWORD PTR tv87[rbp], rax
	mov	ecx, 33984				; 000084c0H
	call	QWORD PTR tv87[rbp]
; Line 406
	mov	rax, QWORD PTR glad_glGetIntegerv
	mov	QWORD PTR tv91[rbp], rax
	lea	rdx, QWORD PTR last_program$[rbp]
	mov	ecx, 35725				; 00008b8dH
	call	QWORD PTR tv91[rbp]
; Line 407
	mov	rax, QWORD PTR glad_glGetIntegerv
	mov	QWORD PTR tv95[rbp], rax
	lea	rdx, QWORD PTR last_texture$[rbp]
	mov	ecx, 32873				; 00008069H
	call	QWORD PTR tv95[rbp]
; Line 409
	mov	rax, QWORD PTR bd$[rbp]
	cmp	DWORD PTR [rax], 330			; 0000014aH
	jb	SHORT $LN10@ImGui_Impl
	mov	rax, QWORD PTR glad_glGetIntegerv
	mov	QWORD PTR tv133[rbp], rax
	lea	rdx, QWORD PTR last_sampler$[rbp]
	mov	ecx, 35097				; 00008919H
	call	QWORD PTR tv133[rbp]
	jmp	SHORT $LN11@ImGui_Impl
$LN10@ImGui_Impl:
	mov	DWORD PTR last_sampler$[rbp], 0
$LN11@ImGui_Impl:
; Line 411
	mov	rax, QWORD PTR glad_glGetIntegerv
	mov	QWORD PTR tv137[rbp], rax
	lea	rdx, QWORD PTR last_array_buffer$[rbp]
	mov	ecx, 34964				; 00008894H
	call	QWORD PTR tv137[rbp]
; Line 413
	mov	rax, QWORD PTR glad_glGetIntegerv
	mov	QWORD PTR tv141[rbp], rax
	lea	rdx, QWORD PTR last_vertex_array_object$[rbp]
	mov	ecx, 34229				; 000085b5H
	call	QWORD PTR tv141[rbp]
; Line 416
	mov	rax, QWORD PTR glad_glGetIntegerv
	mov	QWORD PTR tv145[rbp], rax
	lea	rdx, QWORD PTR last_polygon_mode$[rbp]
	mov	ecx, 2880				; 00000b40H
	call	QWORD PTR tv145[rbp]
; Line 418
	mov	rax, QWORD PTR glad_glGetIntegerv
	mov	QWORD PTR tv149[rbp], rax
	lea	rdx, QWORD PTR last_viewport$[rbp]
	mov	ecx, 2978				; 00000ba2H
	call	QWORD PTR tv149[rbp]
; Line 419
	mov	rax, QWORD PTR glad_glGetIntegerv
	mov	QWORD PTR tv153[rbp], rax
	lea	rdx, QWORD PTR last_scissor_box$[rbp]
	mov	ecx, 3088				; 00000c10H
	call	QWORD PTR tv153[rbp]
; Line 420
	mov	rax, QWORD PTR glad_glGetIntegerv
	mov	QWORD PTR tv157[rbp], rax
	lea	rdx, QWORD PTR last_blend_src_rgb$[rbp]
	mov	ecx, 32969				; 000080c9H
	call	QWORD PTR tv157[rbp]
; Line 421
	mov	rax, QWORD PTR glad_glGetIntegerv
	mov	QWORD PTR tv161[rbp], rax
	lea	rdx, QWORD PTR last_blend_dst_rgb$[rbp]
	mov	ecx, 32968				; 000080c8H
	call	QWORD PTR tv161[rbp]
; Line 422
	mov	rax, QWORD PTR glad_glGetIntegerv
	mov	QWORD PTR tv165[rbp], rax
	lea	rdx, QWORD PTR last_blend_src_alpha$[rbp]
	mov	ecx, 32971				; 000080cbH
	call	QWORD PTR tv165[rbp]
; Line 423
	mov	rax, QWORD PTR glad_glGetIntegerv
	mov	QWORD PTR tv169[rbp], rax
	lea	rdx, QWORD PTR last_blend_dst_alpha$[rbp]
	mov	ecx, 32970				; 000080caH
	call	QWORD PTR tv169[rbp]
; Line 424
	mov	rax, QWORD PTR glad_glGetIntegerv
	mov	QWORD PTR tv173[rbp], rax
	lea	rdx, QWORD PTR last_blend_equation_rgb$[rbp]
	mov	ecx, 32777				; 00008009H
	call	QWORD PTR tv173[rbp]
; Line 425
	mov	rax, QWORD PTR glad_glGetIntegerv
	mov	QWORD PTR tv177[rbp], rax
	lea	rdx, QWORD PTR last_blend_equation_alpha$[rbp]
	mov	ecx, 34877				; 0000883dH
	call	QWORD PTR tv177[rbp]
; Line 426
	mov	rax, QWORD PTR glad_glIsEnabled
	mov	QWORD PTR tv181[rbp], rax
	mov	ecx, 3042				; 00000be2H
	call	QWORD PTR tv181[rbp]
	mov	BYTE PTR last_enable_blend$[rbp], al
; Line 427
	mov	rax, QWORD PTR glad_glIsEnabled
	mov	QWORD PTR tv185[rbp], rax
	mov	ecx, 2884				; 00000b44H
	call	QWORD PTR tv185[rbp]
	mov	BYTE PTR last_enable_cull_face$[rbp], al
; Line 428
	mov	rax, QWORD PTR glad_glIsEnabled
	mov	QWORD PTR tv189[rbp], rax
	mov	ecx, 2929				; 00000b71H
	call	QWORD PTR tv189[rbp]
	mov	BYTE PTR last_enable_depth_test$[rbp], al
; Line 429
	mov	rax, QWORD PTR glad_glIsEnabled
	mov	QWORD PTR tv193[rbp], rax
	mov	ecx, 2960				; 00000b90H
	call	QWORD PTR tv193[rbp]
	mov	BYTE PTR last_enable_stencil_test$[rbp], al
; Line 430
	mov	rax, QWORD PTR glad_glIsEnabled
	mov	QWORD PTR tv197[rbp], rax
	mov	ecx, 3089				; 00000c11H
	call	QWORD PTR tv197[rbp]
	mov	BYTE PTR last_enable_scissor_test$[rbp], al
; Line 432
	mov	rax, QWORD PTR bd$[rbp]
	cmp	DWORD PTR [rax], 310			; 00000136H
	jb	SHORT $LN34@ImGui_Impl
	mov	rax, QWORD PTR glad_glIsEnabled
	mov	QWORD PTR tv203[rbp], rax
	mov	ecx, 36765				; 00008f9dH
	call	QWORD PTR tv203[rbp]
	movzx	eax, al
	mov	DWORD PTR tv205[rbp], eax
	jmp	SHORT $LN35@ImGui_Impl
$LN34@ImGui_Impl:
	mov	DWORD PTR tv205[rbp], 0
$LN35@ImGui_Impl:
	movzx	eax, BYTE PTR tv205[rbp]
	mov	BYTE PTR last_enable_primitive_restart$[rbp], al
; Line 438
	mov	DWORD PTR vertex_array_object$[rbp], 0
; Line 440
	mov	rax, QWORD PTR glad_glGenVertexArrays
	mov	QWORD PTR tv210[rbp], rax
	lea	rdx, QWORD PTR vertex_array_object$[rbp]
	mov	ecx, 1
	call	QWORD PTR tv210[rbp]
; Line 442
	mov	r9d, DWORD PTR vertex_array_object$[rbp]
	mov	r8d, DWORD PTR fb_height$[rbp]
	mov	edx, DWORD PTR fb_width$[rbp]
	mov	rcx, QWORD PTR draw_data$[rbp]
	call	?ImGui_ImplOpenGL3_SetupRenderState@@YAXPEAUImDrawData@@HHI@Z ; ImGui_ImplOpenGL3_SetupRenderState
; Line 445
	mov	rax, QWORD PTR draw_data$[rbp]
	mov	rax, QWORD PTR [rax+24]
	mov	QWORD PTR clip_off$[rbp], rax
; Line 446
	mov	rax, QWORD PTR draw_data$[rbp]
	mov	rax, QWORD PTR [rax+40]
	mov	QWORD PTR clip_scale$[rbp], rax
; Line 449
	mov	DWORD PTR n$22[rbp], 0
	jmp	SHORT $LN4@ImGui_Impl
$LN2@ImGui_Impl:
	mov	eax, DWORD PTR n$22[rbp]
	inc	eax
	mov	DWORD PTR n$22[rbp], eax
$LN4@ImGui_Impl:
	mov	rax, QWORD PTR draw_data$[rbp]
	mov	eax, DWORD PTR [rax+4]
	cmp	DWORD PTR n$22[rbp], eax
	jge	$LN3@ImGui_Impl
; Line 451
	movsxd	rax, DWORD PTR n$22[rbp]
	mov	rcx, QWORD PTR draw_data$[rbp]
	mov	rcx, QWORD PTR [rcx+16]
	mov	rax, QWORD PTR [rcx+rax*8]
	mov	QWORD PTR cmd_list$23[rbp], rax
; Line 454
	mov	rax, QWORD PTR glad_glBufferData
	mov	QWORD PTR tv237[rbp], rax
	mov	rax, QWORD PTR cmd_list$23[rbp]
	movsxd	rax, DWORD PTR [rax+32]
	imul	rax, rax, 20
	mov	r9d, 35040				; 000088e0H
	mov	rcx, QWORD PTR cmd_list$23[rbp]
	mov	r8, QWORD PTR [rcx+40]
	mov	rdx, rax
	mov	ecx, 34962				; 00008892H
	call	QWORD PTR tv237[rbp]
; Line 455
	mov	rax, QWORD PTR glad_glBufferData
	mov	QWORD PTR tv249[rbp], rax
	mov	rax, QWORD PTR cmd_list$23[rbp]
	movsxd	rax, DWORD PTR [rax+16]
	shl	rax, 1
	mov	r9d, 35040				; 000088e0H
	mov	rcx, QWORD PTR cmd_list$23[rbp]
	mov	r8, QWORD PTR [rcx+24]
	mov	rdx, rax
	mov	ecx, 34963				; 00008893H
	call	QWORD PTR tv249[rbp]
; Line 457
	mov	DWORD PTR cmd_i$24[rbp], 0
	jmp	SHORT $LN7@ImGui_Impl
$LN5@ImGui_Impl:
	mov	eax, DWORD PTR cmd_i$24[rbp]
	inc	eax
	mov	DWORD PTR cmd_i$24[rbp], eax
$LN7@ImGui_Impl:
	mov	rax, QWORD PTR cmd_list$23[rbp]
	mov	eax, DWORD PTR [rax]
	cmp	DWORD PTR cmd_i$24[rbp], eax
	jge	$LN6@ImGui_Impl
; Line 459
	mov	rax, QWORD PTR cmd_list$23[rbp]
	mov	QWORD PTR tv291[rbp], rax
	mov	edx, DWORD PTR cmd_i$24[rbp]
	mov	rcx, QWORD PTR tv291[rbp]
	call	??A?$ImVector@UImDrawCmd@@@@QEBAAEBUImDrawCmd@@H@Z ; ImVector<ImDrawCmd>::operator[]
	mov	QWORD PTR pcmd$25[rbp], rax
; Line 460
	mov	rax, QWORD PTR pcmd$25[rbp]
	cmp	QWORD PTR [rax+40], 0
	je	SHORT $LN12@ImGui_Impl
; Line 464
	mov	rax, QWORD PTR pcmd$25[rbp]
	cmp	QWORD PTR [rax+40], -1
	jne	SHORT $LN14@ImGui_Impl
; Line 465
	mov	r9d, DWORD PTR vertex_array_object$[rbp]
	mov	r8d, DWORD PTR fb_height$[rbp]
	mov	edx, DWORD PTR fb_width$[rbp]
	mov	rcx, QWORD PTR draw_data$[rbp]
	call	?ImGui_ImplOpenGL3_SetupRenderState@@YAXPEAUImDrawData@@HHI@Z ; ImGui_ImplOpenGL3_SetupRenderState
	jmp	SHORT $LN15@ImGui_Impl
$LN14@ImGui_Impl:
; Line 467
	mov	rax, QWORD PTR pcmd$25[rbp]
	mov	rax, QWORD PTR [rax+40]
	mov	QWORD PTR tv304[rbp], rax
	mov	rdx, QWORD PTR pcmd$25[rbp]
	mov	rcx, QWORD PTR cmd_list$23[rbp]
	call	QWORD PTR tv304[rbp]
$LN15@ImGui_Impl:
; Line 468
	jmp	$LN13@ImGui_Impl
$LN12@ImGui_Impl:
; Line 472
	lea	rcx, QWORD PTR clip_rect$26[rbp]
	call	??0ImVec4@@QEAA@XZ			; ImVec4::ImVec4
; Line 473
	mov	rax, QWORD PTR pcmd$25[rbp]
	movss	xmm0, DWORD PTR [rax]
	subss	xmm0, DWORD PTR clip_off$[rbp]
	mulss	xmm0, DWORD PTR clip_scale$[rbp]
	movss	DWORD PTR clip_rect$26[rbp], xmm0
; Line 474
	mov	rax, QWORD PTR pcmd$25[rbp]
	movss	xmm0, DWORD PTR [rax+4]
	subss	xmm0, DWORD PTR clip_off$[rbp+4]
	mulss	xmm0, DWORD PTR clip_scale$[rbp+4]
	movss	DWORD PTR clip_rect$26[rbp+4], xmm0
; Line 475
	mov	rax, QWORD PTR pcmd$25[rbp]
	movss	xmm0, DWORD PTR [rax+8]
	subss	xmm0, DWORD PTR clip_off$[rbp]
	mulss	xmm0, DWORD PTR clip_scale$[rbp]
	movss	DWORD PTR clip_rect$26[rbp+8], xmm0
; Line 476
	mov	rax, QWORD PTR pcmd$25[rbp]
	movss	xmm0, DWORD PTR [rax+12]
	subss	xmm0, DWORD PTR clip_off$[rbp+4]
	mulss	xmm0, DWORD PTR clip_scale$[rbp+4]
	movss	DWORD PTR clip_rect$26[rbp+12], xmm0
; Line 478
	cvtsi2ss xmm0, DWORD PTR fb_width$[rbp]
	comiss	xmm0, DWORD PTR clip_rect$26[rbp]
	jbe	$LN16@ImGui_Impl
	cvtsi2ss xmm0, DWORD PTR fb_height$[rbp]
	comiss	xmm0, DWORD PTR clip_rect$26[rbp+4]
	jbe	$LN16@ImGui_Impl
	movss	xmm0, DWORD PTR clip_rect$26[rbp+8]
	comiss	xmm0, DWORD PTR __real@00000000
	jb	$LN16@ImGui_Impl
	movss	xmm0, DWORD PTR clip_rect$26[rbp+12]
	comiss	xmm0, DWORD PTR __real@00000000
	jb	$LN16@ImGui_Impl
; Line 481
	mov	rax, QWORD PTR glad_glScissor
	mov	QWORD PTR tv344[rbp], rax
	movss	xmm0, DWORD PTR clip_rect$26[rbp+12]
	subss	xmm0, DWORD PTR clip_rect$26[rbp+4]
	cvttss2si eax, xmm0
	movss	xmm0, DWORD PTR clip_rect$26[rbp+8]
	subss	xmm0, DWORD PTR clip_rect$26[rbp]
	cvttss2si ecx, xmm0
	cvtsi2ss xmm0, DWORD PTR fb_height$[rbp]
	subss	xmm0, DWORD PTR clip_rect$26[rbp+12]
	cvttss2si edx, xmm0
	cvttss2si r8d, DWORD PTR clip_rect$26[rbp]
	mov	DWORD PTR tv341[rbp], r8d
	mov	r9d, eax
	mov	r8d, ecx
	mov	eax, DWORD PTR tv341[rbp]
	mov	ecx, eax
	call	QWORD PTR tv344[rbp]
; Line 484
	mov	rax, QWORD PTR glad_glBindTexture
	mov	QWORD PTR tv351[rbp], rax
	mov	rcx, QWORD PTR pcmd$25[rbp]
	call	?GetTexID@ImDrawCmd@@QEBAPEAXXZ		; ImDrawCmd::GetTexID
	mov	edx, eax
	mov	ecx, 3553				; 00000de1H
	call	QWORD PTR tv351[rbp]
; Line 486
	mov	rax, QWORD PTR bd$[rbp]
	cmp	DWORD PTR [rax], 320			; 00000140H
	jb	SHORT $LN17@ImGui_Impl
; Line 487
	mov	rax, QWORD PTR glad_glDrawElementsBaseVertex
	mov	QWORD PTR tv365[rbp], rax
	mov	rax, QWORD PTR pcmd$25[rbp]
	mov	eax, DWORD PTR [rax+28]
	shl	rax, 1
	mov	rcx, QWORD PTR pcmd$25[rbp]
	mov	ecx, DWORD PTR [rcx+24]
	mov	DWORD PTR [rsp+32], ecx
	mov	r9, rax
	mov	r8d, 5123				; 00001403H
	mov	rax, QWORD PTR pcmd$25[rbp]
	mov	edx, DWORD PTR [rax+32]
	mov	ecx, 4
	call	QWORD PTR tv365[rbp]
	jmp	SHORT $LN18@ImGui_Impl
$LN17@ImGui_Impl:
; Line 490
	mov	rax, QWORD PTR glad_glDrawElements
	mov	QWORD PTR tv375[rbp], rax
	mov	rax, QWORD PTR pcmd$25[rbp]
	mov	eax, DWORD PTR [rax+28]
	shl	rax, 1
	mov	r9, rax
	mov	r8d, 5123				; 00001403H
	mov	rax, QWORD PTR pcmd$25[rbp]
	mov	edx, DWORD PTR [rax+32]
	mov	ecx, 4
	call	QWORD PTR tv375[rbp]
$LN18@ImGui_Impl:
$LN16@ImGui_Impl:
$LN13@ImGui_Impl:
; Line 493
	jmp	$LN5@ImGui_Impl
$LN6@ImGui_Impl:
; Line 494
	jmp	$LN2@ImGui_Impl
$LN3@ImGui_Impl:
; Line 498
	mov	rax, QWORD PTR glad_glDeleteVertexArrays
	mov	QWORD PTR tv379[rbp], rax
	lea	rdx, QWORD PTR vertex_array_object$[rbp]
	mov	ecx, 1
	call	QWORD PTR tv379[rbp]
; Line 502
	mov	rax, QWORD PTR glad_glUseProgram
	mov	QWORD PTR tv382[rbp], rax
	mov	ecx, DWORD PTR last_program$[rbp]
	call	QWORD PTR tv382[rbp]
; Line 503
	mov	rax, QWORD PTR glad_glBindTexture
	mov	QWORD PTR tv386[rbp], rax
	mov	edx, DWORD PTR last_texture$[rbp]
	mov	ecx, 3553				; 00000de1H
	call	QWORD PTR tv386[rbp]
; Line 505
	mov	rax, QWORD PTR bd$[rbp]
	cmp	DWORD PTR [rax], 330			; 0000014aH
	jb	SHORT $LN19@ImGui_Impl
; Line 506
	mov	rax, QWORD PTR glad_glBindSampler
	mov	QWORD PTR tv392[rbp], rax
	mov	edx, DWORD PTR last_sampler$[rbp]
	xor	ecx, ecx
	call	QWORD PTR tv392[rbp]
$LN19@ImGui_Impl:
; Line 508
	mov	rax, QWORD PTR glad_glActiveTexture
	mov	QWORD PTR tv395[rbp], rax
	mov	ecx, DWORD PTR last_active_texture$[rbp]
	call	QWORD PTR tv395[rbp]
; Line 510
	mov	rax, QWORD PTR glad_glBindVertexArray
	mov	QWORD PTR tv398[rbp], rax
	mov	ecx, DWORD PTR last_vertex_array_object$[rbp]
	call	QWORD PTR tv398[rbp]
; Line 512
	mov	rax, QWORD PTR glad_glBindBuffer
	mov	QWORD PTR tv402[rbp], rax
	mov	edx, DWORD PTR last_array_buffer$[rbp]
	mov	ecx, 34962				; 00008892H
	call	QWORD PTR tv402[rbp]
; Line 513
	mov	rax, QWORD PTR glad_glBlendEquationSeparate
	mov	QWORD PTR tv406[rbp], rax
	mov	edx, DWORD PTR last_blend_equation_alpha$[rbp]
	mov	ecx, DWORD PTR last_blend_equation_rgb$[rbp]
	call	QWORD PTR tv406[rbp]
; Line 514
	mov	rax, QWORD PTR glad_glBlendFuncSeparate
	mov	QWORD PTR tv412[rbp], rax
	mov	r9d, DWORD PTR last_blend_dst_alpha$[rbp]
	mov	r8d, DWORD PTR last_blend_src_alpha$[rbp]
	mov	edx, DWORD PTR last_blend_dst_rgb$[rbp]
	mov	ecx, DWORD PTR last_blend_src_rgb$[rbp]
	call	QWORD PTR tv412[rbp]
; Line 515
	movzx	eax, BYTE PTR last_enable_blend$[rbp]
	test	eax, eax
	je	SHORT $LN20@ImGui_Impl
	mov	rax, QWORD PTR glad_glEnable
	mov	QWORD PTR tv417[rbp], rax
	mov	ecx, 3042				; 00000be2H
	call	QWORD PTR tv417[rbp]
	jmp	SHORT $LN21@ImGui_Impl
$LN20@ImGui_Impl:
	mov	rax, QWORD PTR glad_glDisable
	mov	QWORD PTR tv420[rbp], rax
	mov	ecx, 3042				; 00000be2H
	call	QWORD PTR tv420[rbp]
$LN21@ImGui_Impl:
; Line 516
	movzx	eax, BYTE PTR last_enable_cull_face$[rbp]
	test	eax, eax
	je	SHORT $LN22@ImGui_Impl
	mov	rax, QWORD PTR glad_glEnable
	mov	QWORD PTR tv425[rbp], rax
	mov	ecx, 2884				; 00000b44H
	call	QWORD PTR tv425[rbp]
	jmp	SHORT $LN23@ImGui_Impl
$LN22@ImGui_Impl:
	mov	rax, QWORD PTR glad_glDisable
	mov	QWORD PTR tv428[rbp], rax
	mov	ecx, 2884				; 00000b44H
	call	QWORD PTR tv428[rbp]
$LN23@ImGui_Impl:
; Line 517
	movzx	eax, BYTE PTR last_enable_depth_test$[rbp]
	test	eax, eax
	je	SHORT $LN24@ImGui_Impl
	mov	rax, QWORD PTR glad_glEnable
	mov	QWORD PTR tv433[rbp], rax
	mov	ecx, 2929				; 00000b71H
	call	QWORD PTR tv433[rbp]
	jmp	SHORT $LN25@ImGui_Impl
$LN24@ImGui_Impl:
	mov	rax, QWORD PTR glad_glDisable
	mov	QWORD PTR tv436[rbp], rax
	mov	ecx, 2929				; 00000b71H
	call	QWORD PTR tv436[rbp]
$LN25@ImGui_Impl:
; Line 518
	movzx	eax, BYTE PTR last_enable_stencil_test$[rbp]
	test	eax, eax
	je	SHORT $LN26@ImGui_Impl
	mov	rax, QWORD PTR glad_glEnable
	mov	QWORD PTR tv441[rbp], rax
	mov	ecx, 2960				; 00000b90H
	call	QWORD PTR tv441[rbp]
	jmp	SHORT $LN27@ImGui_Impl
$LN26@ImGui_Impl:
	mov	rax, QWORD PTR glad_glDisable
	mov	QWORD PTR tv444[rbp], rax
	mov	ecx, 2960				; 00000b90H
	call	QWORD PTR tv444[rbp]
$LN27@ImGui_Impl:
; Line 519
	movzx	eax, BYTE PTR last_enable_scissor_test$[rbp]
	test	eax, eax
	je	SHORT $LN28@ImGui_Impl
	mov	rax, QWORD PTR glad_glEnable
	mov	QWORD PTR tv449[rbp], rax
	mov	ecx, 3089				; 00000c11H
	call	QWORD PTR tv449[rbp]
	jmp	SHORT $LN29@ImGui_Impl
$LN28@ImGui_Impl:
	mov	rax, QWORD PTR glad_glDisable
	mov	QWORD PTR tv452[rbp], rax
	mov	ecx, 3089				; 00000c11H
	call	QWORD PTR tv452[rbp]
$LN29@ImGui_Impl:
; Line 521
	mov	rax, QWORD PTR bd$[rbp]
	cmp	DWORD PTR [rax], 310			; 00000136H
	jb	SHORT $LN30@ImGui_Impl
	movzx	eax, BYTE PTR last_enable_primitive_restart$[rbp]
	test	eax, eax
	je	SHORT $LN31@ImGui_Impl
	mov	rax, QWORD PTR glad_glEnable
	mov	QWORD PTR tv459[rbp], rax
	mov	ecx, 36765				; 00008f9dH
	call	QWORD PTR tv459[rbp]
	jmp	SHORT $LN32@ImGui_Impl
$LN31@ImGui_Impl:
	mov	rax, QWORD PTR glad_glDisable
	mov	QWORD PTR tv462[rbp], rax
	mov	ecx, 36765				; 00008f9dH
	call	QWORD PTR tv462[rbp]
$LN32@ImGui_Impl:
$LN30@ImGui_Impl:
; Line 525
	mov	rax, QWORD PTR glad_glPolygonMode
	mov	QWORD PTR tv468[rbp], rax
	mov	eax, 4
	imul	rax, rax, 0
	mov	edx, DWORD PTR last_polygon_mode$[rbp+rax]
	mov	ecx, 1032				; 00000408H
	call	QWORD PTR tv468[rbp]
; Line 527
	mov	rax, QWORD PTR glad_glViewport
	mov	QWORD PTR tv482[rbp], rax
	mov	eax, 4
	imul	rax, rax, 3
	mov	ecx, 4
	imul	rcx, rcx, 2
	mov	edx, 4
	imul	rdx, rdx, 1
	mov	r8d, 4
	imul	r8, r8, 0
	mov	QWORD PTR tv478[rbp], r8
	mov	r9d, DWORD PTR last_viewport$[rbp+rax]
	mov	r8d, DWORD PTR last_viewport$[rbp+rcx]
	mov	edx, DWORD PTR last_viewport$[rbp+rdx]
	mov	rax, QWORD PTR tv478[rbp]
	mov	ecx, DWORD PTR last_viewport$[rbp+rax]
	call	QWORD PTR tv482[rbp]
; Line 528
	mov	rax, QWORD PTR glad_glScissor
	mov	QWORD PTR tv496[rbp], rax
	mov	eax, 4
	imul	rax, rax, 3
	mov	ecx, 4
	imul	rcx, rcx, 2
	mov	edx, 4
	imul	rdx, rdx, 1
	mov	r8d, 4
	imul	r8, r8, 0
	mov	QWORD PTR tv492[rbp], r8
	mov	r9d, DWORD PTR last_scissor_box$[rbp+rax]
	mov	r8d, DWORD PTR last_scissor_box$[rbp+rcx]
	mov	edx, DWORD PTR last_scissor_box$[rbp+rdx]
	mov	rax, QWORD PTR tv492[rbp]
	mov	ecx, DWORD PTR last_scissor_box$[rbp+rax]
	call	QWORD PTR tv496[rbp]
$LN1@ImGui_Impl:
; Line 529
	lea	rcx, QWORD PTR [rbp-48]
	lea	rdx, OFFSET FLAT:?ImGui_ImplOpenGL3_RenderDrawData@@YAXPEAUImDrawData@@@Z$rtcFrameData
	call	_RTC_CheckStackVars
	mov	rcx, QWORD PTR __$ArrayPad$[rbp]
	xor	rcx, rbp
	call	__security_check_cookie
	lea	rsp, QWORD PTR [rbp+1672]
	pop	rdi
	pop	rbp
	ret	0
?ImGui_ImplOpenGL3_RenderDrawData@@YAXPEAUImDrawData@@@Z ENDP ; ImGui_ImplOpenGL3_RenderDrawData
_TEXT	ENDS
; Function compile flags: /Odtp /RTCsu /ZI
;	COMDAT ?ImGui_ImplOpenGL3_NewFrame@@YAXXZ
_TEXT	SEGMENT
bd$ = 8
?ImGui_ImplOpenGL3_NewFrame@@YAXXZ PROC			; ImGui_ImplOpenGL3_NewFrame, COMDAT
; File C:\dev\Raisin\Raisin\src\Raisin\imgui\imgui_impl_opengl3.cpp
; Line 309
$LN6:
	push	rbp
	push	rdi
	sub	rsp, 264				; 00000108H
	lea	rbp, QWORD PTR [rsp+32]
	lea	rcx, OFFSET FLAT:__45597862_imgui_impl_opengl3@cpp
	call	__CheckForDebuggerJustMyCode
; Line 310
	call	?ImGui_ImplOpenGL3_GetBackendData@@YAPEAUImGui_ImplOpenGL3_Data@@XZ ; ImGui_ImplOpenGL3_GetBackendData
	mov	QWORD PTR bd$[rbp], rax
; Line 311
	cmp	QWORD PTR bd$[rbp], 0
	je	SHORT $LN4@ImGui_Impl
	lea	rax, OFFSET FLAT:??_C@_0CH@LNNMCBEI@Did?5you?5call?5ImGui_ImplOpenGL3_@
	test	rax, rax
	jne	SHORT $LN5@ImGui_Impl
$LN4@ImGui_Impl:
	mov	eax, DWORD PTR ?__LINE__Var@?0??ImGui_ImplOpenGL3_NewFrame@@YAXXZ@4JA
	add	eax, 2
	mov	r8d, eax
	lea	rdx, OFFSET FLAT:??_C@_1HK@EBHKHIMJ@?$AAC?$AA?3?$AA?2?$AAd?$AAe?$AAv?$AA?2?$AAR?$AAa?$AAi?$AAs?$AAi?$AAn?$AA?2?$AAR@
	lea	rcx, OFFSET FLAT:??_C@_1GI@EAEPOMMM@?$AAb?$AAd?$AA?5?$AA?$CB?$AA?$DN?$AA?5?$AA0?$AA?5?$AA?$CG?$AA?$CG?$AA?5?$AA?$CC?$AAD?$AAi?$AAd@
	call	QWORD PTR __imp__wassert
	xor	eax, eax
$LN5@ImGui_Impl:
; Line 313
	mov	rax, QWORD PTR bd$[rbp]
	cmp	DWORD PTR [rax+40], 0
	jne	SHORT $LN2@ImGui_Impl
; Line 314
	call	?ImGui_ImplOpenGL3_CreateDeviceObjects@@YA_NXZ ; ImGui_ImplOpenGL3_CreateDeviceObjects
$LN2@ImGui_Impl:
; Line 315
	lea	rsp, QWORD PTR [rbp+232]
	pop	rdi
	pop	rbp
	ret	0
?ImGui_ImplOpenGL3_NewFrame@@YAXXZ ENDP			; ImGui_ImplOpenGL3_NewFrame
_TEXT	ENDS
; Function compile flags: /Odtp /RTCsu /ZI
;	COMDAT ?ImGui_ImplOpenGL3_Shutdown@@YAXXZ
_TEXT	SEGMENT
io$ = 8
bd$ = 40
?ImGui_ImplOpenGL3_Shutdown@@YAXXZ PROC			; ImGui_ImplOpenGL3_Shutdown, COMDAT
; File C:\dev\Raisin\Raisin\src\Raisin\imgui\imgui_impl_opengl3.cpp
; Line 298
$LN3:
	push	rbp
	push	rdi
	sub	rsp, 296				; 00000128H
	lea	rbp, QWORD PTR [rsp+32]
	lea	rcx, OFFSET FLAT:__45597862_imgui_impl_opengl3@cpp
	call	__CheckForDebuggerJustMyCode
; Line 299
	call	?GetIO@ImGui@@YAAEAUImGuiIO@@XZ		; ImGui::GetIO
	mov	QWORD PTR io$[rbp], rax
; Line 300
	call	?ImGui_ImplOpenGL3_GetBackendData@@YAPEAUImGui_ImplOpenGL3_Data@@XZ ; ImGui_ImplOpenGL3_GetBackendData
	mov	QWORD PTR bd$[rbp], rax
; Line 302
	call	?ImGui_ImplOpenGL3_DestroyDeviceObjects@@YAXXZ ; ImGui_ImplOpenGL3_DestroyDeviceObjects
; Line 303
	mov	rax, QWORD PTR io$[rbp]
	mov	QWORD PTR [rax+216], 0
; Line 304
	mov	rax, QWORD PTR io$[rbp]
	mov	QWORD PTR [rax+232], 0
; Line 305
	mov	rcx, QWORD PTR bd$[rbp]
	call	??$IM_DELETE@UImGui_ImplOpenGL3_Data@@@@YAXPEAUImGui_ImplOpenGL3_Data@@@Z ; IM_DELETE<ImGui_ImplOpenGL3_Data>
; Line 306
	lea	rsp, QWORD PTR [rbp+264]
	pop	rdi
	pop	rbp
	ret	0
?ImGui_ImplOpenGL3_Shutdown@@YAXXZ ENDP			; ImGui_ImplOpenGL3_Shutdown
_TEXT	ENDS
; Function compile flags: /Odtp /RTCsu /ZI
;	COMDAT ?ImGui_ImplOpenGL3_Init@@YA_NPEBD@Z
_TEXT	SEGMENT
io$ = 8
bd$ = 40
major$ = 68
minor$ = 100
gl_version$7 = 136
gl_loader$ = 168
current_texture$ = 196
num_extensions$ = 228
i$8 = 260
extension$9 = 296
$T10 = 520
$T11 = 552
$T12 = 584
$T13 = 616
$T14 = 644
tv180 = 660
tv220 = 664
tv215 = 664
tv192 = 664
tv185 = 664
tv176 = 664
tv162 = 664
tv136 = 664
tv130 = 664
tv94 = 664
tv89 = 664
tv221 = 672
tv164 = 672
tv165 = 680
tv166 = 688
__$ArrayPad$ = 696
glsl_version$ = 736
?ImGui_ImplOpenGL3_Init@@YA_NPEBD@Z PROC		; ImGui_ImplOpenGL3_Init, COMDAT
; File C:\dev\Raisin\Raisin\src\Raisin\imgui\imgui_impl_opengl3.cpp
; Line 201
$LN24:
	mov	QWORD PTR [rsp+8], rcx
	push	rbp
	push	rsi
	push	rdi
	sub	rsp, 736				; 000002e0H
	lea	rbp, QWORD PTR [rsp+32]
	lea	rdi, QWORD PTR [rsp+32]
	mov	ecx, 128				; 00000080H
	mov	eax, -858993460				; ccccccccH
	rep stosd
	mov	rcx, QWORD PTR [rsp+776]
	mov	rax, QWORD PTR __security_cookie
	xor	rax, rbp
	mov	QWORD PTR __$ArrayPad$[rbp], rax
	lea	rcx, OFFSET FLAT:__45597862_imgui_impl_opengl3@cpp
	call	__CheckForDebuggerJustMyCode
; Line 202
	call	?GetIO@ImGui@@YAAEAUImGuiIO@@XZ		; ImGui::GetIO
	mov	QWORD PTR io$[rbp], rax
; Line 203
	mov	rax, QWORD PTR io$[rbp]
	cmp	QWORD PTR [rax+232], 0
	jne	SHORT $LN10@ImGui_Impl
	lea	rax, OFFSET FLAT:??_C@_0CI@KPONPGNP@Already?5initialized?5a?5renderer?5@
	test	rax, rax
	jne	SHORT $LN11@ImGui_Impl
$LN10@ImGui_Impl:
	mov	eax, DWORD PTR ?__LINE__Var@?0??ImGui_ImplOpenGL3_Init@@YA_NPEBD@Z@4JA
	add	eax, 2
	mov	r8d, eax
	lea	rdx, OFFSET FLAT:??_C@_1HK@EBHKHIMJ@?$AAC?$AA?3?$AA?2?$AAd?$AAe?$AAv?$AA?2?$AAR?$AAa?$AAi?$AAs?$AAi?$AAn?$AA?2?$AAR@
	lea	rcx, OFFSET FLAT:??_C@_1JK@LNFGNECA@?$AAi?$AAo?$AA?4?$AAB?$AAa?$AAc?$AAk?$AAe?$AAn?$AAd?$AAR?$AAe?$AAn?$AAd?$AAe@
	call	QWORD PTR __imp__wassert
	xor	eax, eax
$LN11@ImGui_Impl:
; Line 206
	mov	ecx, 76					; 0000004cH
	call	?MemAlloc@ImGui@@YAPEAX_K@Z		; ImGui::MemAlloc
	mov	QWORD PTR $T12[rbp], rax
	lea	rax, QWORD PTR $T14[rbp]
	mov	QWORD PTR $T13[rbp], rax
	mov	r8, QWORD PTR $T12[rbp]
	mov	rax, QWORD PTR $T13[rbp]
	movzx	edx, BYTE PTR [rax]
	mov	ecx, 76					; 0000004cH
	call	??2@YAPEAX_KUImNewWrapper@@PEAX@Z	; operator new
	mov	QWORD PTR $T11[rbp], rax
	cmp	QWORD PTR $T11[rbp], 0
	je	SHORT $LN12@ImGui_Impl
	mov	rcx, QWORD PTR $T11[rbp]
	call	??0ImGui_ImplOpenGL3_Data@@QEAA@XZ	; ImGui_ImplOpenGL3_Data::ImGui_ImplOpenGL3_Data
	mov	QWORD PTR tv89[rbp], rax
	jmp	SHORT $LN13@ImGui_Impl
$LN12@ImGui_Impl:
	mov	QWORD PTR tv89[rbp], 0
$LN13@ImGui_Impl:
	mov	rax, QWORD PTR tv89[rbp]
	mov	QWORD PTR $T10[rbp], rax
	mov	rax, QWORD PTR $T10[rbp]
	mov	QWORD PTR bd$[rbp], rax
; Line 207
	mov	rax, QWORD PTR io$[rbp]
	mov	rcx, QWORD PTR bd$[rbp]
	mov	QWORD PTR [rax+232], rcx
; Line 208
	mov	rax, QWORD PTR io$[rbp]
	lea	rcx, OFFSET FLAT:??_C@_0BD@BIIFHGKK@imgui_impl_opengl3@
	mov	QWORD PTR [rax+216], rcx
; Line 212
	mov	DWORD PTR major$[rbp], 0
; Line 213
	mov	DWORD PTR minor$[rbp], 0
; Line 214
	mov	rax, QWORD PTR glad_glGetIntegerv
	mov	QWORD PTR tv94[rbp], rax
	lea	rdx, QWORD PTR major$[rbp]
	mov	ecx, 33307				; 0000821bH
	call	QWORD PTR tv94[rbp]
; Line 215
	mov	rax, QWORD PTR glad_glGetIntegerv
	mov	QWORD PTR tv130[rbp], rax
	lea	rdx, QWORD PTR minor$[rbp]
	mov	ecx, 33308				; 0000821cH
	call	QWORD PTR tv130[rbp]
; Line 216
	cmp	DWORD PTR major$[rbp], 0
	jne	SHORT $LN5@ImGui_Impl
	cmp	DWORD PTR minor$[rbp], 0
	jne	SHORT $LN5@ImGui_Impl
; Line 219
	mov	rax, QWORD PTR glad_glGetString
	mov	QWORD PTR tv136[rbp], rax
	mov	ecx, 7938				; 00001f02H
	call	QWORD PTR tv136[rbp]
	mov	QWORD PTR gl_version$7[rbp], rax
; Line 220
	lea	r9, QWORD PTR minor$[rbp]
	lea	r8, QWORD PTR major$[rbp]
	lea	rdx, OFFSET FLAT:??_C@_05KBEOJPB@?$CFd?4?$CFd@
	mov	rcx, QWORD PTR gl_version$7[rbp]
	call	sscanf
$LN5@ImGui_Impl:
; Line 222
	imul	eax, DWORD PTR major$[rbp], 100		; 00000064H
	imul	ecx, DWORD PTR minor$[rbp], 10
	add	eax, ecx
	mov	rcx, QWORD PTR bd$[rbp]
	mov	DWORD PTR [rcx], eax
; Line 228
	mov	rax, QWORD PTR bd$[rbp]
	cmp	DWORD PTR [rax], 320			; 00000140H
	jb	SHORT $LN6@ImGui_Impl
; Line 229
	mov	rax, QWORD PTR io$[rbp]
	mov	eax, DWORD PTR [rax+4]
	or	eax, 8
	mov	rcx, QWORD PTR io$[rbp]
	mov	DWORD PTR [rcx+4], eax
$LN6@ImGui_Impl:
; Line 234
	cmp	QWORD PTR glsl_version$[rbp], 0
	jne	SHORT $LN7@ImGui_Impl
; Line 243
	lea	rax, OFFSET FLAT:??_C@_0N@NPMABONB@?$CDversion?5130@
	mov	QWORD PTR glsl_version$[rbp], rax
$LN7@ImGui_Impl:
; Line 246
	mov	rax, QWORD PTR glsl_version$[rbp]
	mov	QWORD PTR tv220[rbp], rax
	mov	QWORD PTR tv221[rbp], -1
$LL23@ImGui_Impl:
	inc	QWORD PTR tv221[rbp]
	mov	rax, QWORD PTR tv220[rbp]
	mov	rcx, QWORD PTR tv221[rbp]
	cmp	BYTE PTR [rax+rcx], 0
	jne	SHORT $LL23@ImGui_Impl
	mov	rax, QWORD PTR tv221[rbp]
	add	eax, 2
	cmp	eax, 32					; 00000020H
	jl	SHORT $LN14@ImGui_Impl
	mov	eax, DWORD PTR ?__LINE__Var@?0??ImGui_ImplOpenGL3_Init@@YA_NPEBD@Z@4JA
	add	eax, 45					; 0000002dH
	mov	r8d, eax
	lea	rdx, OFFSET FLAT:??_C@_1HK@EBHKHIMJ@?$AAC?$AA?3?$AA?2?$AAd?$AAe?$AAv?$AA?2?$AAR?$AAa?$AAi?$AAs?$AAi?$AAn?$AA?2?$AAR@
	lea	rcx, OFFSET FLAT:??_C@_1NE@OBNLJLDF@?$AA?$CI?$AAi?$AAn?$AAt?$AA?$CJ?$AAs?$AAt?$AAr?$AAl?$AAe?$AAn?$AA?$CI?$AAg?$AAl?$AAs@
	call	QWORD PTR __imp__wassert
	xor	eax, eax
$LN14@ImGui_Impl:
; Line 247
	mov	rax, QWORD PTR glsl_version$[rbp]
	mov	QWORD PTR tv162[rbp], rax
	mov	rax, QWORD PTR bd$[rbp]
	add	rax, 4
	mov	QWORD PTR tv164[rbp], rax
	mov	rax, QWORD PTR tv164[rbp]
	mov	QWORD PTR tv165[rbp], rax
$LN15@ImGui_Impl:
	mov	rax, QWORD PTR tv162[rbp]
	movzx	eax, BYTE PTR [rax]
	mov	BYTE PTR tv166[rbp], al
	mov	rax, QWORD PTR tv164[rbp]
	movzx	ecx, BYTE PTR tv166[rbp]
	mov	BYTE PTR [rax], cl
	mov	rax, QWORD PTR tv162[rbp]
	inc	rax
	mov	QWORD PTR tv162[rbp], rax
	mov	rax, QWORD PTR tv164[rbp]
	inc	rax
	mov	QWORD PTR tv164[rbp], rax
	cmp	BYTE PTR tv166[rbp], 0
	jne	SHORT $LN15@ImGui_Impl
; Line 248
	mov	rax, QWORD PTR bd$[rbp]
	add	rax, 4
	mov	QWORD PTR tv215[rbp], rax
	dec	QWORD PTR tv215[rbp]
$LL22@ImGui_Impl:
	inc	QWORD PTR tv215[rbp]
	mov	rax, QWORD PTR tv215[rbp]
	cmp	BYTE PTR [rax], 0
	jne	SHORT $LL22@ImGui_Impl
	mov	rax, QWORD PTR tv215[rbp]
	lea	rcx, OFFSET FLAT:??_C@_01EEMJAFIK@?6@
	mov	rdi, rax
	mov	rsi, rcx
	mov	ecx, 2
	rep movsb
; Line 255
	lea	rax, OFFSET FLAT:??_C@_07NBCGADJA@Unknown@
	mov	QWORD PTR gl_loader$[rbp], rax
; Line 262
	lea	rax, OFFSET FLAT:??_C@_04OHIBAGMI@GLAD@
	mov	QWORD PTR gl_loader$[rbp], rax
; Line 279
	mov	rax, QWORD PTR glad_glGetIntegerv
	mov	QWORD PTR tv176[rbp], rax
	lea	rdx, QWORD PTR current_texture$[rbp]
	mov	ecx, 32873				; 00008069H
	call	QWORD PTR tv176[rbp]
; Line 282
	mov	rax, QWORD PTR bd$[rbp]
	cmp	DWORD PTR [rax], 450			; 000001c2H
	jb	SHORT $LN16@ImGui_Impl
	mov	DWORD PTR tv180[rbp], 1
	jmp	SHORT $LN17@ImGui_Impl
$LN16@ImGui_Impl:
	mov	DWORD PTR tv180[rbp], 0
$LN17@ImGui_Impl:
	mov	rax, QWORD PTR bd$[rbp]
	movzx	ecx, BYTE PTR tv180[rbp]
	mov	BYTE PTR [rax+72], cl
; Line 284
	mov	DWORD PTR num_extensions$[rbp], 0
; Line 285
	mov	rax, QWORD PTR glad_glGetIntegerv
	mov	QWORD PTR tv185[rbp], rax
	lea	rdx, QWORD PTR num_extensions$[rbp]
	mov	ecx, 33309				; 0000821dH
	call	QWORD PTR tv185[rbp]
; Line 286
	mov	DWORD PTR i$8[rbp], 0
	jmp	SHORT $LN4@ImGui_Impl
$LN2@ImGui_Impl:
	mov	eax, DWORD PTR i$8[rbp]
	inc	eax
	mov	DWORD PTR i$8[rbp], eax
$LN4@ImGui_Impl:
	mov	eax, DWORD PTR num_extensions$[rbp]
	cmp	DWORD PTR i$8[rbp], eax
	jge	SHORT $LN3@ImGui_Impl
; Line 288
	mov	rax, QWORD PTR glad_glGetStringi
	mov	QWORD PTR tv192[rbp], rax
	mov	edx, DWORD PTR i$8[rbp]
	mov	ecx, 7939				; 00001f03H
	call	QWORD PTR tv192[rbp]
	mov	QWORD PTR extension$9[rbp], rax
; Line 289
	cmp	QWORD PTR extension$9[rbp], 0
	je	SHORT $LN8@ImGui_Impl
	mov	rax, QWORD PTR extension$9[rbp]
	lea	rcx, OFFSET FLAT:??_C@_0BE@NFGEKHNE@GL_ARB_clip_control@
	sub	rcx, rax
$LL19@ImGui_Impl:
	movzx	edx, BYTE PTR [rax]
	cmp	dl, BYTE PTR [rax+rcx]
	jne	SHORT $LN21@ImGui_Impl
	inc	rax
	test	dl, dl
	jne	SHORT $LL19@ImGui_Impl
	xor	eax, eax
	jmp	SHORT $LN20@ImGui_Impl
$LN21@ImGui_Impl:
	sbb	eax, eax
	or	eax, 1
$LN20@ImGui_Impl:
	test	eax, eax
	jne	SHORT $LN8@ImGui_Impl
; Line 290
	mov	rax, QWORD PTR bd$[rbp]
	mov	BYTE PTR [rax+72], 1
$LN8@ImGui_Impl:
; Line 291
	jmp	$LN2@ImGui_Impl
$LN3@ImGui_Impl:
; Line 294
	mov	al, 1
; Line 295
	mov	rdi, rax
	lea	rcx, QWORD PTR [rbp-32]
	lea	rdx, OFFSET FLAT:?ImGui_ImplOpenGL3_Init@@YA_NPEBD@Z$rtcFrameData
	call	_RTC_CheckStackVars
	mov	rax, rdi
	mov	rcx, QWORD PTR __$ArrayPad$[rbp]
	xor	rcx, rbp
	call	__security_check_cookie
	lea	rsp, QWORD PTR [rbp+704]
	pop	rdi
	pop	rsi
	pop	rbp
	ret	0
?ImGui_ImplOpenGL3_Init@@YA_NPEBD@Z ENDP		; ImGui_ImplOpenGL3_Init
_TEXT	ENDS
; Function compile flags: /Odtp /RTCsu /ZI
;	COMDAT text$x
text$x	SEGMENT
io$ = 8
bd$ = 40
major$ = 68
minor$ = 100
gl_version$7 = 136
gl_loader$ = 168
current_texture$ = 196
num_extensions$ = 228
i$8 = 260
extension$9 = 296
$T10 = 520
$T11 = 552
$T12 = 584
$T13 = 616
$T14 = 644
tv180 = 660
tv220 = 664
tv215 = 664
tv192 = 664
tv185 = 664
tv176 = 664
tv162 = 664
tv136 = 664
tv130 = 664
tv94 = 664
tv89 = 664
tv221 = 672
tv164 = 672
tv165 = 680
tv166 = 688
__$ArrayPad$ = 696
glsl_version$ = 736
?dtor$0@?0??ImGui_ImplOpenGL3_Init@@YA_NPEBD@Z@4HA PROC	; `ImGui_ImplOpenGL3_Init'::`1'::dtor$0
	mov	QWORD PTR [rsp+8], rcx
	mov	QWORD PTR [rsp+16], rdx
	push	rbp
	push	rdi
	sub	rsp, 40					; 00000028H
	lea	rbp, QWORD PTR [rdx+32]
	mov	r8, QWORD PTR $T12[rbp]
	mov	rax, QWORD PTR $T13[rbp]
	movzx	edx, BYTE PTR [rax]
	mov	rcx, QWORD PTR $T11[rbp]
	call	??3@YAXPEAXUImNewWrapper@@0@Z		; operator delete
	add	rsp, 40					; 00000028H
	pop	rdi
	pop	rbp
	ret	0
?dtor$0@?0??ImGui_ImplOpenGL3_Init@@YA_NPEBD@Z@4HA ENDP	; `ImGui_ImplOpenGL3_Init'::`1'::dtor$0
text$x	ENDS
; Function compile flags: /Odtp /RTCsu /ZI
;	COMDAT ?SetTexID@ImFontAtlas@@QEAAXPEAX@Z
_TEXT	SEGMENT
this$ = 224
id$ = 232
?SetTexID@ImFontAtlas@@QEAAXPEAX@Z PROC			; ImFontAtlas::SetTexID, COMDAT
; File C:\dev\Raisin\Raisin\src\Raisin\imgui\imgui.h
; Line 2631
$LN3:
	mov	QWORD PTR [rsp+16], rdx
	mov	QWORD PTR [rsp+8], rcx
	push	rbp
	push	rdi
	sub	rsp, 232				; 000000e8H
	lea	rbp, QWORD PTR [rsp+32]
	lea	rcx, OFFSET FLAT:__21D911DF_imgui@h
	call	__CheckForDebuggerJustMyCode
	mov	rax, QWORD PTR this$[rbp]
	mov	rcx, QWORD PTR id$[rbp]
	mov	QWORD PTR [rax+8], rcx
	lea	rsp, QWORD PTR [rbp+200]
	pop	rdi
	pop	rbp
	ret	0
?SetTexID@ImFontAtlas@@QEAAXPEAX@Z ENDP			; ImFontAtlas::SetTexID
_TEXT	ENDS
; Function compile flags: /Odtp /RTCsu /ZI
;	COMDAT ??A?$ImVector@UImDrawCmd@@@@QEBAAEBUImDrawCmd@@H@Z
_TEXT	SEGMENT
this$ = 224
i$ = 232
??A?$ImVector@UImDrawCmd@@@@QEBAAEBUImDrawCmd@@H@Z PROC	; ImVector<ImDrawCmd>::operator[], COMDAT
; File C:\dev\Raisin\Raisin\src\Raisin\imgui\imgui.h
; Line 1695
$LN5:
	mov	DWORD PTR [rsp+16], edx
	mov	QWORD PTR [rsp+8], rcx
	push	rbp
	push	rdi
	sub	rsp, 232				; 000000e8H
	lea	rbp, QWORD PTR [rsp+32]
	lea	rcx, OFFSET FLAT:__21D911DF_imgui@h
	call	__CheckForDebuggerJustMyCode
	cmp	DWORD PTR i$[rbp], 0
	jl	SHORT $LN3@operator
	mov	rax, QWORD PTR this$[rbp]
	mov	eax, DWORD PTR [rax]
	cmp	DWORD PTR i$[rbp], eax
	jl	SHORT $LN4@operator
$LN3@operator:
	mov	r8d, 1695				; 0000069fH
	lea	rdx, OFFSET FLAT:??_C@_1FM@JNPAKPFE@?$AAC?$AA?3?$AA?2?$AAd?$AAe?$AAv?$AA?2?$AAR?$AAa?$AAi?$AAs?$AAi?$AAn?$AA?2?$AAR@
	lea	rcx, OFFSET FLAT:??_C@_1CG@GPMNJCJ@?$AAi?$AA?5?$AA?$DO?$AA?$DN?$AA?5?$AA0?$AA?5?$AA?$CG?$AA?$CG?$AA?5?$AAi?$AA?5?$AA?$DM?$AA?5?$AAS@
	call	QWORD PTR __imp__wassert
	xor	eax, eax
$LN4@operator:
	movsxd	rax, DWORD PTR i$[rbp]
	imul	rax, rax, 56				; 00000038H
	mov	rcx, QWORD PTR this$[rbp]
	add	rax, QWORD PTR [rcx+8]
	lea	rsp, QWORD PTR [rbp+200]
	pop	rdi
	pop	rbp
	ret	0
??A?$ImVector@UImDrawCmd@@@@QEBAAEBUImDrawCmd@@H@Z ENDP	; ImVector<ImDrawCmd>::operator[]
_TEXT	ENDS
; Function compile flags: /Odtp /RTCsu /ZI
;	COMDAT ?GetTexID@ImDrawCmd@@QEBAPEAXXZ
_TEXT	SEGMENT
this$ = 224
?GetTexID@ImDrawCmd@@QEBAPEAXXZ PROC			; ImDrawCmd::GetTexID, COMDAT
; File C:\dev\Raisin\Raisin\src\Raisin\imgui\imgui.h
; Line 2266
$LN3:
	mov	QWORD PTR [rsp+8], rcx
	push	rbp
	push	rdi
	sub	rsp, 232				; 000000e8H
	lea	rbp, QWORD PTR [rsp+32]
	lea	rcx, OFFSET FLAT:__21D911DF_imgui@h
	call	__CheckForDebuggerJustMyCode
	mov	rax, QWORD PTR this$[rbp]
	mov	rax, QWORD PTR [rax+16]
	lea	rsp, QWORD PTR [rbp+200]
	pop	rdi
	pop	rbp
	ret	0
?GetTexID@ImDrawCmd@@QEBAPEAXXZ ENDP			; ImDrawCmd::GetTexID
_TEXT	ENDS
; Function compile flags: /Odtp /RTCsu /ZI
;	COMDAT ?reserve@?$ImVector@D@@QEAAXH@Z
_TEXT	SEGMENT
new_data$ = 8
this$ = 256
new_capacity$ = 264
?reserve@?$ImVector@D@@QEAAXH@Z PROC			; ImVector<char>::reserve, COMDAT
; File C:\dev\Raisin\Raisin\src\Raisin\imgui\imgui.h
; Line 1711
$LN5:
	mov	DWORD PTR [rsp+16], edx
	mov	QWORD PTR [rsp+8], rcx
	push	rbp
	push	rsi
	push	rdi
	sub	rsp, 256				; 00000100H
	lea	rbp, QWORD PTR [rsp+32]
	lea	rcx, OFFSET FLAT:__21D911DF_imgui@h
	call	__CheckForDebuggerJustMyCode
	mov	rax, QWORD PTR this$[rbp]
	mov	eax, DWORD PTR [rax+4]
	cmp	DWORD PTR new_capacity$[rbp], eax
	jg	SHORT $LN2@reserve
	jmp	SHORT $LN1@reserve
$LN2@reserve:
	movsxd	rax, DWORD PTR new_capacity$[rbp]
	mov	rcx, rax
	call	?MemAlloc@ImGui@@YAPEAX_K@Z		; ImGui::MemAlloc
	mov	QWORD PTR new_data$[rbp], rax
	mov	rax, QWORD PTR this$[rbp]
	cmp	QWORD PTR [rax+8], 0
	je	SHORT $LN3@reserve
	mov	rax, QWORD PTR this$[rbp]
	movsxd	rax, DWORD PTR [rax]
	mov	rcx, QWORD PTR this$[rbp]
	mov	rdi, QWORD PTR new_data$[rbp]
	mov	rsi, QWORD PTR [rcx+8]
	mov	rcx, rax
	rep movsb
	mov	rax, QWORD PTR this$[rbp]
	mov	rcx, QWORD PTR [rax+8]
	call	?MemFree@ImGui@@YAXPEAX@Z		; ImGui::MemFree
$LN3@reserve:
	mov	rax, QWORD PTR this$[rbp]
	mov	rcx, QWORD PTR new_data$[rbp]
	mov	QWORD PTR [rax+8], rcx
	mov	rax, QWORD PTR this$[rbp]
	mov	ecx, DWORD PTR new_capacity$[rbp]
	mov	DWORD PTR [rax+4], ecx
$LN1@reserve:
	lea	rsp, QWORD PTR [rbp+224]
	pop	rdi
	pop	rsi
	pop	rbp
	ret	0
?reserve@?$ImVector@D@@QEAAXH@Z ENDP			; ImVector<char>::reserve
_TEXT	ENDS
; Function compile flags: /Odtp /RTCsu /ZI
;	COMDAT ?resize@?$ImVector@D@@QEAAXH@Z
_TEXT	SEGMENT
this$ = 224
new_size$ = 232
?resize@?$ImVector@D@@QEAAXH@Z PROC			; ImVector<char>::resize, COMDAT
; File C:\dev\Raisin\Raisin\src\Raisin\imgui\imgui.h
; Line 1708
$LN4:
	mov	DWORD PTR [rsp+16], edx
	mov	QWORD PTR [rsp+8], rcx
	push	rbp
	push	rdi
	sub	rsp, 232				; 000000e8H
	lea	rbp, QWORD PTR [rsp+32]
	lea	rcx, OFFSET FLAT:__21D911DF_imgui@h
	call	__CheckForDebuggerJustMyCode
	mov	rax, QWORD PTR this$[rbp]
	mov	eax, DWORD PTR [rax+4]
	cmp	DWORD PTR new_size$[rbp], eax
	jle	SHORT $LN2@resize
	mov	edx, DWORD PTR new_size$[rbp]
	mov	rcx, QWORD PTR this$[rbp]
	call	?_grow_capacity@?$ImVector@D@@QEBAHH@Z	; ImVector<char>::_grow_capacity
	mov	edx, eax
	mov	rcx, QWORD PTR this$[rbp]
	call	?reserve@?$ImVector@D@@QEAAXH@Z		; ImVector<char>::reserve
$LN2@resize:
	mov	rax, QWORD PTR this$[rbp]
	mov	ecx, DWORD PTR new_size$[rbp]
	mov	DWORD PTR [rax], ecx
	lea	rsp, QWORD PTR [rbp+200]
	pop	rdi
	pop	rbp
	ret	0
?resize@?$ImVector@D@@QEAAXH@Z ENDP			; ImVector<char>::resize
_TEXT	ENDS
; Function compile flags: /Odtp /RTCsu /ZI
;	COMDAT ?_grow_capacity@?$ImVector@D@@QEBAHH@Z
_TEXT	SEGMENT
new_capacity$ = 4
tv72 = 212
tv70 = 212
this$ = 256
sz$ = 264
?_grow_capacity@?$ImVector@D@@QEBAHH@Z PROC		; ImVector<char>::_grow_capacity, COMDAT
; File C:\dev\Raisin\Raisin\src\Raisin\imgui\imgui.h
; Line 1707
$LN7:
	mov	DWORD PTR [rsp+16], edx
	mov	QWORD PTR [rsp+8], rcx
	push	rbp
	push	rdi
	sub	rsp, 264				; 00000108H
	lea	rbp, QWORD PTR [rsp+32]
	lea	rcx, OFFSET FLAT:__21D911DF_imgui@h
	call	__CheckForDebuggerJustMyCode
	mov	rax, QWORD PTR this$[rbp]
	cmp	DWORD PTR [rax+4], 0
	je	SHORT $LN3@grow_capac
	mov	rax, QWORD PTR this$[rbp]
	mov	eax, DWORD PTR [rax+4]
	cdq
	sub	eax, edx
	sar	eax, 1
	mov	rcx, QWORD PTR this$[rbp]
	add	eax, DWORD PTR [rcx+4]
	mov	DWORD PTR tv70[rbp], eax
	jmp	SHORT $LN4@grow_capac
$LN3@grow_capac:
	mov	DWORD PTR tv70[rbp], 8
$LN4@grow_capac:
	mov	eax, DWORD PTR tv70[rbp]
	mov	DWORD PTR new_capacity$[rbp], eax
	mov	eax, DWORD PTR sz$[rbp]
	cmp	DWORD PTR new_capacity$[rbp], eax
	jle	SHORT $LN5@grow_capac
	mov	eax, DWORD PTR new_capacity$[rbp]
	mov	DWORD PTR tv72[rbp], eax
	jmp	SHORT $LN6@grow_capac
$LN5@grow_capac:
	mov	eax, DWORD PTR sz$[rbp]
	mov	DWORD PTR tv72[rbp], eax
$LN6@grow_capac:
	mov	eax, DWORD PTR tv72[rbp]
	lea	rsp, QWORD PTR [rbp+232]
	pop	rdi
	pop	rbp
	ret	0
?_grow_capacity@?$ImVector@D@@QEBAHH@Z ENDP		; ImVector<char>::_grow_capacity
_TEXT	ENDS
; Function compile flags: /Odtp /RTCsu /ZI
;	COMDAT ?begin@?$ImVector@D@@QEAAPEADXZ
_TEXT	SEGMENT
this$ = 224
?begin@?$ImVector@D@@QEAAPEADXZ PROC			; ImVector<char>::begin, COMDAT
; File C:\dev\Raisin\Raisin\src\Raisin\imgui\imgui.h
; Line 1697
$LN3:
	mov	QWORD PTR [rsp+8], rcx
	push	rbp
	push	rdi
	sub	rsp, 232				; 000000e8H
	lea	rbp, QWORD PTR [rsp+32]
	lea	rcx, OFFSET FLAT:__21D911DF_imgui@h
	call	__CheckForDebuggerJustMyCode
	mov	rax, QWORD PTR this$[rbp]
	mov	rax, QWORD PTR [rax+8]
	lea	rsp, QWORD PTR [rbp+200]
	pop	rdi
	pop	rbp
	ret	0
?begin@?$ImVector@D@@QEAAPEADXZ ENDP			; ImVector<char>::begin
_TEXT	ENDS
; Function compile flags: /Odtp /RTCsu /ZI
;	COMDAT ??1?$ImVector@D@@QEAA@XZ
_TEXT	SEGMENT
this$ = 224
??1?$ImVector@D@@QEAA@XZ PROC				; ImVector<char>::~ImVector<char>, COMDAT
; File C:\dev\Raisin\Raisin\src\Raisin\imgui\imgui.h
; Line 1683
$LN4:
	mov	QWORD PTR [rsp+8], rcx
	push	rbp
	push	rdi
	sub	rsp, 232				; 000000e8H
	lea	rbp, QWORD PTR [rsp+32]
	lea	rcx, OFFSET FLAT:__21D911DF_imgui@h
	call	__CheckForDebuggerJustMyCode
	mov	rax, QWORD PTR this$[rbp]
	cmp	QWORD PTR [rax+8], 0
	je	SHORT $LN2@ImVector
	mov	rax, QWORD PTR this$[rbp]
	mov	rcx, QWORD PTR [rax+8]
	call	?MemFree@ImGui@@YAXPEAX@Z		; ImGui::MemFree
	npad	1
$LN2@ImVector:
	lea	rsp, QWORD PTR [rbp+200]
	pop	rdi
	pop	rbp
	ret	0
??1?$ImVector@D@@QEAA@XZ ENDP				; ImVector<char>::~ImVector<char>
_TEXT	ENDS
; Function compile flags: /Odtp /RTCsu /ZI
;	COMDAT ??0?$ImVector@D@@QEAA@XZ
_TEXT	SEGMENT
this$ = 224
??0?$ImVector@D@@QEAA@XZ PROC				; ImVector<char>::ImVector<char>, COMDAT
; File C:\dev\Raisin\Raisin\src\Raisin\imgui\imgui.h
; Line 1680
$LN3:
	mov	QWORD PTR [rsp+8], rcx
	push	rbp
	push	rdi
	sub	rsp, 232				; 000000e8H
	lea	rbp, QWORD PTR [rsp+32]
	lea	rcx, OFFSET FLAT:__21D911DF_imgui@h
	call	__CheckForDebuggerJustMyCode
	mov	rax, QWORD PTR this$[rbp]
	mov	DWORD PTR [rax+4], 0
	mov	rax, QWORD PTR this$[rbp]
	mov	DWORD PTR [rax], 0
	mov	rax, QWORD PTR this$[rbp]
	mov	QWORD PTR [rax+8], 0
	mov	rax, QWORD PTR this$[rbp]
	lea	rsp, QWORD PTR [rbp+200]
	pop	rdi
	pop	rbp
	ret	0
??0?$ImVector@D@@QEAA@XZ ENDP				; ImVector<char>::ImVector<char>
_TEXT	ENDS
; Function compile flags: /Odtp /RTCsu /ZI
;	COMDAT ??3@YAXPEAXUImNewWrapper@@0@Z
_TEXT	SEGMENT
__formal$ = 224
__formal$ = 232
__formal$ = 240
??3@YAXPEAXUImNewWrapper@@0@Z PROC			; operator delete, COMDAT
; File C:\dev\Raisin\Raisin\src\Raisin\imgui\imgui.h
; Line 1648
$LN3:
	mov	QWORD PTR [rsp+24], r8
	mov	BYTE PTR [rsp+16], dl
	mov	QWORD PTR [rsp+8], rcx
	push	rbp
	push	rdi
	sub	rsp, 232				; 000000e8H
	lea	rbp, QWORD PTR [rsp+32]
	lea	rcx, OFFSET FLAT:__21D911DF_imgui@h
	call	__CheckForDebuggerJustMyCode
	lea	rsp, QWORD PTR [rbp+200]
	pop	rdi
	pop	rbp
	ret	0
??3@YAXPEAXUImNewWrapper@@0@Z ENDP			; operator delete
_TEXT	ENDS
; Function compile flags: /Odtp /RTCsu /ZI
;	COMDAT ??2@YAPEAX_KUImNewWrapper@@PEAX@Z
_TEXT	SEGMENT
__formal$ = 224
__formal$ = 232
ptr$ = 240
??2@YAPEAX_KUImNewWrapper@@PEAX@Z PROC			; operator new, COMDAT
; File C:\dev\Raisin\Raisin\src\Raisin\imgui\imgui.h
; Line 1647
$LN3:
	mov	QWORD PTR [rsp+24], r8
	mov	BYTE PTR [rsp+16], dl
	mov	QWORD PTR [rsp+8], rcx
	push	rbp
	push	rdi
	sub	rsp, 232				; 000000e8H
	lea	rbp, QWORD PTR [rsp+32]
	lea	rcx, OFFSET FLAT:__21D911DF_imgui@h
	call	__CheckForDebuggerJustMyCode
	mov	rax, QWORD PTR ptr$[rbp]
	lea	rsp, QWORD PTR [rbp+200]
	pop	rdi
	pop	rbp
	ret	0
??2@YAPEAX_KUImNewWrapper@@PEAX@Z ENDP			; operator new
_TEXT	ENDS
; Function compile flags: /Odtp /ZI
;	COMDAT ??0ImVec4@@QEAA@XZ
_TEXT	SEGMENT
this$ = 80
??0ImVec4@@QEAA@XZ PROC					; ImVec4::ImVec4, COMDAT
; File C:\dev\Raisin\Raisin\src\Raisin\imgui\imgui.h
; Line 260
$LN3:
	mov	QWORD PTR [rsp+8], rcx
	push	rbp
	sub	rsp, 96					; 00000060H
	lea	rbp, QWORD PTR [rsp+32]
	lea	rcx, OFFSET FLAT:__21D911DF_imgui@h
	call	__CheckForDebuggerJustMyCode
	mov	rax, QWORD PTR this$[rbp]
	xorps	xmm0, xmm0
	movss	DWORD PTR [rax+12], xmm0
	mov	rax, QWORD PTR this$[rbp]
	xorps	xmm0, xmm0
	movss	DWORD PTR [rax+8], xmm0
	mov	rax, QWORD PTR this$[rbp]
	xorps	xmm0, xmm0
	movss	DWORD PTR [rax+4], xmm0
	mov	rax, QWORD PTR this$[rbp]
	xorps	xmm0, xmm0
	movss	DWORD PTR [rax], xmm0
	mov	rax, QWORD PTR this$[rbp]
	lea	rsp, QWORD PTR [rbp+64]
	pop	rbp
	ret	0
??0ImVec4@@QEAA@XZ ENDP					; ImVec4::ImVec4
_TEXT	ENDS
END
