; Listing generated by Microsoft (R) Optimizing Compiler Version 19.33.31630.0 

include listing.inc

INCLUDELIB MSVCRTD
INCLUDELIB OLDNAMES

msvcjmc	SEGMENT
__A52B8F80_imconfig@h DB 01H
__529D0EAA_concurrencysal@h DB 01H
__7EC34687_sal@h DB 01H
__35A2D2DF_vadefs@h DB 01H
__5F022EB5_vcruntime@h DB 01H
__1B0272D9_corecrt@h DB 01H
__B9985323_float@h DB 01H
__79700276_stdarg@h DB 01H
__13F5961F_stddef@h DB 01H
__61CC25A1_errno@h DB 01H
__74AC4223_vcruntime_string@h DB 01H
__E4C945B4_corecrt_memcpy_s@h DB 01H
__8EAFF484_corecrt_memory@h DB 01H
__6490AEC5_corecrt_wstring@h DB 01H
__E8295E1E_string@h DB 01H
__19139D6C_assert@h DB 01H
__21D911DF_imgui@h DB 01H
__BBDF6BA8_xkeycheck@h DB 01H
__7F8F4960_yvals_core@h DB 01H
__4DAFBCB9_stdint@h DB 01H
__CB505695_cstdint DB 01H
__C9757830_xtr1common DB 01H
__D3C56D45_cstddef DB 01H
__BB16330F_corecrt_math@h DB 01H
__3BF2A406_math@h DB 01H
__45DED006_corecrt_malloc@h DB 01H
__FD6DBD68_corecrt_search@h DB 01H
__E2E33A61_corecrt_wstdlib@h DB 01H
__F3D99286_limits@h DB 01H
__6E5ACABA_stdlib@h DB 01H
__760EB7E8_cstdlib DB 01H
__485B7899_initializer_list DB 01H
__B61CA571_xstddef DB 01H
__F576AD63_type_traits DB 01H
__41033263_utility DB 01H
__38B03CD2_imgui_node_editor@h DB 01H
__44420885_corecrt_stdio_config@h DB 01H
__AB601D8D_corecrt_wstdio@h DB 01H
__C1EC35D3_stdio@h DB 01H
__F75BE1FA_mmintrin@h DB 01H
__FA77ED4C_malloc@h DB 01H
__DFD742E1_xmmintrin@h DB 01H
__BAB5CB2D_emmintrin@h DB 01H
__6514A3A4_pmmintrin@h DB 01H
__D5CDD026_tmmintrin@h DB 01H
__FCF6C5A5_smmintrin@h DB 01H
__99944C69_nmmintrin@h DB 01H
__4C2FB627_wmmintrin@h DB 01H
__87BBFB20_zmmintrin@h DB 01H
__B0AF59EA_immintrin@h DB 01H
__40756020_imstb_textedit@h DB 01H
__D68E48C9_imgui_internal@h DB 01H
__D089742E_imgui_extra_math@inl DB 01H
__767B8CFE_imgui_extra_math@h DB 01H
__8B8B49C3_vcruntime_new@h DB 01H
__5021BF8A_vcruntime_new_debug@h DB 01H
__935DC21B_crtdbg@h DB 01H
__0FF1727D_crtdefs@h DB 01H
__327B4A79_use_ansi@h DB 01H
__C04E0157_yvals@h DB 01H
__F2E1951A_climits DB 01H
__3A9C1F08_cstring DB 01H
__2177C444_xutility DB 01H
__BA5A5171_tuple DB 01H
__35A6E2D5_cfloat DB 01H
__46E22952_cstdio DB 01H
__EF1F6BBA_corecrt_wconio@h DB 01H
__74484FB3_corecrt_wctype@h DB 01H
__3D1D430C_corecrt_wdirect@h DB 01H
__8ECB7138_corecrt_share@h DB 01H
__DB7FEBA6_corecrt_wio@h DB 01H
__9A9F0068_corecrt_wprocess@h DB 01H
__369A9BC3_corecrt_wtime@h DB 01H
__CE789B9D_types@h DB 01H
__9901C817_stat@h DB 01H
__3FCAD62E_wchar@h DB 01H
__DC69FF01_cwchar DB 01H
__E5CDC221_intrin0@inl@h DB 01H
__16DCCB76_intrin0@h DB 01H
__A7274850_isa_availability@h DB 01H
__5340AFB1_limits DB 01H
__89766DA4_corecrt_terminate@h DB 01H
__5569C08B_eh@h DB 01H
__58CFBAD8_vcruntime_exception@h DB 01H
__C7AE1CEB_exception DB 01H
__C7AADC23_new DB 01H
__CDA2903D_xatomic@h DB 01H
__2B9651A0_xmemory DB 01H
__553ED5D1_xnode_handle@h DB 01H
__1550B432_xtree DB 01H
__0374BC07_xpolymorphic_allocator@h DB 01H
__3FE432DD_map DB 01H
__AFCE61BD_imgui_bezier_math@inl DB 01H
__6CBC4D01_imgui_bezier_math@h DB 01H
__4736261C_imgui_canvas@h DB 01H
__9FA97A37_iosfwd DB 01H
__5F45D73C_xstring DB 01H
__1EC467ED_ctype@h DB 01H
__4929CEF5_cctype DB 01H
__9B3D25A3_string DB 01H
__1EEDDF51_vector DB 01H
__2D625E3F_algorithm DB 01H
__1C794830_cmath DB 01H
__30DB7304_iterator DB 01H
__F7972D0B_share@h DB 01H
__33989847___msvc_system_error_abi@hpp DB 01H
__DBC35DA9_cerrno DB 01H
__4EE026B6_stdexcept DB 01H
__3C179730_xcall_once@h DB 01H
__68DB1458_xerrc@h DB 01H
__0A9237D2_time@h DB 01H
__DACAD438_ctime DB 01H
__97B32705_xtimec@h DB 01H
__53357DCA_xthreads@h DB 01H
__3875F373_atomic DB 01H
__834A8510_system_error DB 01H
__B3F9668E_vcruntime_typeinfo@h DB 01H
__51A8375D_typeinfo DB 01H
__EFEEA33F_memory DB 01H
__C3ABF430_xfacet DB 01H
__215922A6___msvc_xlocinfo_types@hpp DB 01H
__791C33B7_locale@h DB 01H
__E5A26B39_clocale DB 01H
__4E21D495_xlocinfo DB 01H
__807BA30D_xlocale DB 01H
__77C4A386_xiosbase DB 01H
__4C409E0A_streambuf DB 01H
__1EFCC51A_xlocnum DB 01H
__3F67E635_ios DB 01H
__936B79C9_ostream DB 01H
__F0BB4CF3_istream DB 01H
__33158F73_sstream DB 01H
__15CDE20A_cassert DB 01H
__25760858_crude_json@h DB 01H
__3E84AADE_imgui_node_editor_internal@inl DB 01H
__7F45827C_imgui_node_editor_internal@h DB 01H
__13097B8F_imgui_node_editor_api@cpp DB 01H
msvcjmc	ENDS
PUBLIC	??_H@YAXPEAX_K1P6APEAX0@Z@Z			; `vector constructor iterator'
PUBLIC	?__empty_global_delete@@YAXPEAX@Z		; __empty_global_delete
PUBLIC	?__empty_global_delete@@YAXPEAX_K@Z		; __empty_global_delete
PUBLIC	?__empty_global_delete@@YAXPEAXW4align_val_t@std@@@Z ; __empty_global_delete
PUBLIC	?__empty_global_delete@@YAXPEAX_KW4align_val_t@std@@@Z ; __empty_global_delete
PUBLIC	??0ImVec2@@QEAA@MM@Z				; ImVec2::ImVec2
PUBLIC	??0ImVec4@@QEAA@XZ				; ImVec4::ImVec4
PUBLIC	??0ImColor@@QEAA@AEBUImVec4@@@Z			; ImColor::ImColor
PUBLIC	??BImColor@@QEBAIXZ				; ImColor::operator unsigned int
PUBLIC	??0?$ImVector@M@@QEAA@XZ			; ImVector<float>::ImVector<float>
PUBLIC	??1?$ImVector@M@@QEAA@XZ			; ImVector<float>::~ImVector<float>
PUBLIC	??0Config@NodeEditor@ax@@QEAA@XZ		; ax::NodeEditor::Config::Config
PUBLIC	??1Config@NodeEditor@ax@@QEAA@XZ		; ax::NodeEditor::Config::~Config
PUBLIC	?SetCurrentEditor@NodeEditor@ax@@YAXPEAUEditorContext@12@@Z ; ax::NodeEditor::SetCurrentEditor
PUBLIC	?GetCurrentEditor@NodeEditor@ax@@YAPEAUEditorContext@12@XZ ; ax::NodeEditor::GetCurrentEditor
PUBLIC	?CreateEditor@NodeEditor@ax@@YAPEAUEditorContext@12@PEBUConfig@12@@Z ; ax::NodeEditor::CreateEditor
PUBLIC	?DestroyEditor@NodeEditor@ax@@YAXPEAUEditorContext@12@@Z ; ax::NodeEditor::DestroyEditor
PUBLIC	?GetConfig@NodeEditor@ax@@YAAEBUConfig@12@PEAUEditorContext@12@@Z ; ax::NodeEditor::GetConfig
PUBLIC	?GetStyle@NodeEditor@ax@@YAAEAUStyle@12@XZ	; ax::NodeEditor::GetStyle
PUBLIC	?GetStyleColorName@NodeEditor@ax@@YAPEBDW4StyleColor@12@@Z ; ax::NodeEditor::GetStyleColorName
PUBLIC	?PushStyleColor@NodeEditor@ax@@YAXW4StyleColor@12@AEBUImVec4@@@Z ; ax::NodeEditor::PushStyleColor
PUBLIC	?PopStyleColor@NodeEditor@ax@@YAXH@Z		; ax::NodeEditor::PopStyleColor
PUBLIC	?PushStyleVar@NodeEditor@ax@@YAXW4StyleVar@12@M@Z ; ax::NodeEditor::PushStyleVar
PUBLIC	?PushStyleVar@NodeEditor@ax@@YAXW4StyleVar@12@AEBUImVec2@@@Z ; ax::NodeEditor::PushStyleVar
PUBLIC	?PushStyleVar@NodeEditor@ax@@YAXW4StyleVar@12@AEBUImVec4@@@Z ; ax::NodeEditor::PushStyleVar
PUBLIC	?PopStyleVar@NodeEditor@ax@@YAXH@Z		; ax::NodeEditor::PopStyleVar
PUBLIC	?Begin@NodeEditor@ax@@YAXPEBDAEBUImVec2@@@Z	; ax::NodeEditor::Begin
PUBLIC	?End@NodeEditor@ax@@YAXXZ			; ax::NodeEditor::End
PUBLIC	?BeginNode@NodeEditor@ax@@YAXUNodeId@12@@Z	; ax::NodeEditor::BeginNode
PUBLIC	?BeginPin@NodeEditor@ax@@YAXUPinId@12@W4PinKind@12@@Z ; ax::NodeEditor::BeginPin
PUBLIC	?PinRect@NodeEditor@ax@@YAXAEBUImVec2@@0@Z	; ax::NodeEditor::PinRect
PUBLIC	?PinPivotRect@NodeEditor@ax@@YAXAEBUImVec2@@0@Z	; ax::NodeEditor::PinPivotRect
PUBLIC	?PinPivotSize@NodeEditor@ax@@YAXAEBUImVec2@@@Z	; ax::NodeEditor::PinPivotSize
PUBLIC	?PinPivotScale@NodeEditor@ax@@YAXAEBUImVec2@@@Z	; ax::NodeEditor::PinPivotScale
PUBLIC	?PinPivotAlignment@NodeEditor@ax@@YAXAEBUImVec2@@@Z ; ax::NodeEditor::PinPivotAlignment
PUBLIC	?EndPin@NodeEditor@ax@@YAXXZ			; ax::NodeEditor::EndPin
PUBLIC	?Group@NodeEditor@ax@@YAXAEBUImVec2@@@Z		; ax::NodeEditor::Group
PUBLIC	?EndNode@NodeEditor@ax@@YAXXZ			; ax::NodeEditor::EndNode
PUBLIC	?BeginGroupHint@NodeEditor@ax@@YA_NUNodeId@12@@Z ; ax::NodeEditor::BeginGroupHint
PUBLIC	?GetGroupMin@NodeEditor@ax@@YA?AUImVec2@@XZ	; ax::NodeEditor::GetGroupMin
PUBLIC	?GetGroupMax@NodeEditor@ax@@YA?AUImVec2@@XZ	; ax::NodeEditor::GetGroupMax
PUBLIC	?GetHintForegroundDrawList@NodeEditor@ax@@YAPEAUImDrawList@@XZ ; ax::NodeEditor::GetHintForegroundDrawList
PUBLIC	?GetHintBackgroundDrawList@NodeEditor@ax@@YAPEAUImDrawList@@XZ ; ax::NodeEditor::GetHintBackgroundDrawList
PUBLIC	?EndGroupHint@NodeEditor@ax@@YAXXZ		; ax::NodeEditor::EndGroupHint
PUBLIC	?GetNodeBackgroundDrawList@NodeEditor@ax@@YAPEAUImDrawList@@UNodeId@12@@Z ; ax::NodeEditor::GetNodeBackgroundDrawList
PUBLIC	?Link@NodeEditor@ax@@YA_NULinkId@12@UPinId@12@1AEBUImVec4@@M@Z ; ax::NodeEditor::Link
PUBLIC	?Flow@NodeEditor@ax@@YAXULinkId@12@W4FlowDirection@12@@Z ; ax::NodeEditor::Flow
PUBLIC	?BeginCreate@NodeEditor@ax@@YA_NAEBUImVec4@@M@Z	; ax::NodeEditor::BeginCreate
PUBLIC	?QueryNewLink@NodeEditor@ax@@YA_NPEAUPinId@12@0@Z ; ax::NodeEditor::QueryNewLink
PUBLIC	?QueryNewLink@NodeEditor@ax@@YA_NPEAUPinId@12@0AEBUImVec4@@M@Z ; ax::NodeEditor::QueryNewLink
PUBLIC	?QueryNewNode@NodeEditor@ax@@YA_NPEAUPinId@12@@Z ; ax::NodeEditor::QueryNewNode
PUBLIC	?QueryNewNode@NodeEditor@ax@@YA_NPEAUPinId@12@AEBUImVec4@@M@Z ; ax::NodeEditor::QueryNewNode
PUBLIC	?AcceptNewItem@NodeEditor@ax@@YA_NXZ		; ax::NodeEditor::AcceptNewItem
PUBLIC	?AcceptNewItem@NodeEditor@ax@@YA_NAEBUImVec4@@M@Z ; ax::NodeEditor::AcceptNewItem
PUBLIC	?RejectNewItem@NodeEditor@ax@@YAXXZ		; ax::NodeEditor::RejectNewItem
PUBLIC	?RejectNewItem@NodeEditor@ax@@YAXAEBUImVec4@@M@Z ; ax::NodeEditor::RejectNewItem
PUBLIC	?EndCreate@NodeEditor@ax@@YAXXZ			; ax::NodeEditor::EndCreate
PUBLIC	?BeginDelete@NodeEditor@ax@@YA_NXZ		; ax::NodeEditor::BeginDelete
PUBLIC	?QueryDeletedLink@NodeEditor@ax@@YA_NPEAULinkId@12@PEAUPinId@12@1@Z ; ax::NodeEditor::QueryDeletedLink
PUBLIC	?QueryDeletedNode@NodeEditor@ax@@YA_NPEAUNodeId@12@@Z ; ax::NodeEditor::QueryDeletedNode
PUBLIC	?AcceptDeletedItem@NodeEditor@ax@@YA_N_N@Z	; ax::NodeEditor::AcceptDeletedItem
PUBLIC	?RejectDeletedItem@NodeEditor@ax@@YAXXZ		; ax::NodeEditor::RejectDeletedItem
PUBLIC	?EndDelete@NodeEditor@ax@@YAXXZ			; ax::NodeEditor::EndDelete
PUBLIC	?SetNodePosition@NodeEditor@ax@@YAXUNodeId@12@AEBUImVec2@@@Z ; ax::NodeEditor::SetNodePosition
PUBLIC	?SetGroupSize@NodeEditor@ax@@YAXUNodeId@12@AEBUImVec2@@@Z ; ax::NodeEditor::SetGroupSize
PUBLIC	?GetNodePosition@NodeEditor@ax@@YA?AUImVec2@@UNodeId@12@@Z ; ax::NodeEditor::GetNodePosition
PUBLIC	?GetNodeSize@NodeEditor@ax@@YA?AUImVec2@@UNodeId@12@@Z ; ax::NodeEditor::GetNodeSize
PUBLIC	?CenterNodeOnScreen@NodeEditor@ax@@YAXUNodeId@12@@Z ; ax::NodeEditor::CenterNodeOnScreen
PUBLIC	?SetNodeZPosition@NodeEditor@ax@@YAXUNodeId@12@M@Z ; ax::NodeEditor::SetNodeZPosition
PUBLIC	?GetNodeZPosition@NodeEditor@ax@@YAMUNodeId@12@@Z ; ax::NodeEditor::GetNodeZPosition
PUBLIC	?RestoreNodeState@NodeEditor@ax@@YAXUNodeId@12@@Z ; ax::NodeEditor::RestoreNodeState
PUBLIC	?Suspend@NodeEditor@ax@@YAXXZ			; ax::NodeEditor::Suspend
PUBLIC	?Resume@NodeEditor@ax@@YAXXZ			; ax::NodeEditor::Resume
PUBLIC	?IsSuspended@NodeEditor@ax@@YA_NXZ		; ax::NodeEditor::IsSuspended
PUBLIC	?IsActive@NodeEditor@ax@@YA_NXZ			; ax::NodeEditor::IsActive
PUBLIC	?HasSelectionChanged@NodeEditor@ax@@YA_NXZ	; ax::NodeEditor::HasSelectionChanged
PUBLIC	?GetSelectedObjectCount@NodeEditor@ax@@YAHXZ	; ax::NodeEditor::GetSelectedObjectCount
PUBLIC	?GetSelectedNodes@NodeEditor@ax@@YAHPEAUNodeId@12@H@Z ; ax::NodeEditor::GetSelectedNodes
PUBLIC	?GetSelectedLinks@NodeEditor@ax@@YAHPEAULinkId@12@H@Z ; ax::NodeEditor::GetSelectedLinks
PUBLIC	?IsNodeSelected@NodeEditor@ax@@YA_NUNodeId@12@@Z ; ax::NodeEditor::IsNodeSelected
PUBLIC	?IsLinkSelected@NodeEditor@ax@@YA_NULinkId@12@@Z ; ax::NodeEditor::IsLinkSelected
PUBLIC	?ClearSelection@NodeEditor@ax@@YAXXZ		; ax::NodeEditor::ClearSelection
PUBLIC	?SelectNode@NodeEditor@ax@@YAXUNodeId@12@_N@Z	; ax::NodeEditor::SelectNode
PUBLIC	?SelectLink@NodeEditor@ax@@YAXULinkId@12@_N@Z	; ax::NodeEditor::SelectLink
PUBLIC	?DeselectNode@NodeEditor@ax@@YAXUNodeId@12@@Z	; ax::NodeEditor::DeselectNode
PUBLIC	?DeselectLink@NodeEditor@ax@@YAXULinkId@12@@Z	; ax::NodeEditor::DeselectLink
PUBLIC	?DeleteNode@NodeEditor@ax@@YA_NUNodeId@12@@Z	; ax::NodeEditor::DeleteNode
PUBLIC	?DeleteLink@NodeEditor@ax@@YA_NULinkId@12@@Z	; ax::NodeEditor::DeleteLink
PUBLIC	?HasAnyLinks@NodeEditor@ax@@YA_NUNodeId@12@@Z	; ax::NodeEditor::HasAnyLinks
PUBLIC	?HasAnyLinks@NodeEditor@ax@@YA_NUPinId@12@@Z	; ax::NodeEditor::HasAnyLinks
PUBLIC	?BreakLinks@NodeEditor@ax@@YAHUNodeId@12@@Z	; ax::NodeEditor::BreakLinks
PUBLIC	?BreakLinks@NodeEditor@ax@@YAHUPinId@12@@Z	; ax::NodeEditor::BreakLinks
PUBLIC	?NavigateToContent@NodeEditor@ax@@YAXM@Z	; ax::NodeEditor::NavigateToContent
PUBLIC	?NavigateToSelection@NodeEditor@ax@@YAX_NM@Z	; ax::NodeEditor::NavigateToSelection
PUBLIC	?ShowNodeContextMenu@NodeEditor@ax@@YA_NPEAUNodeId@12@@Z ; ax::NodeEditor::ShowNodeContextMenu
PUBLIC	?ShowPinContextMenu@NodeEditor@ax@@YA_NPEAUPinId@12@@Z ; ax::NodeEditor::ShowPinContextMenu
PUBLIC	?ShowLinkContextMenu@NodeEditor@ax@@YA_NPEAULinkId@12@@Z ; ax::NodeEditor::ShowLinkContextMenu
PUBLIC	?ShowBackgroundContextMenu@NodeEditor@ax@@YA_NXZ ; ax::NodeEditor::ShowBackgroundContextMenu
PUBLIC	?EnableShortcuts@NodeEditor@ax@@YAX_N@Z		; ax::NodeEditor::EnableShortcuts
PUBLIC	?AreShortcutsEnabled@NodeEditor@ax@@YA_NXZ	; ax::NodeEditor::AreShortcutsEnabled
PUBLIC	?BeginShortcut@NodeEditor@ax@@YA_NXZ		; ax::NodeEditor::BeginShortcut
PUBLIC	?AcceptCut@NodeEditor@ax@@YA_NXZ		; ax::NodeEditor::AcceptCut
PUBLIC	?AcceptCopy@NodeEditor@ax@@YA_NXZ		; ax::NodeEditor::AcceptCopy
PUBLIC	?AcceptPaste@NodeEditor@ax@@YA_NXZ		; ax::NodeEditor::AcceptPaste
PUBLIC	?AcceptDuplicate@NodeEditor@ax@@YA_NXZ		; ax::NodeEditor::AcceptDuplicate
PUBLIC	?AcceptCreateNode@NodeEditor@ax@@YA_NXZ		; ax::NodeEditor::AcceptCreateNode
PUBLIC	?GetActionContextSize@NodeEditor@ax@@YAHXZ	; ax::NodeEditor::GetActionContextSize
PUBLIC	?GetActionContextNodes@NodeEditor@ax@@YAHPEAUNodeId@12@H@Z ; ax::NodeEditor::GetActionContextNodes
PUBLIC	?GetActionContextLinks@NodeEditor@ax@@YAHPEAULinkId@12@H@Z ; ax::NodeEditor::GetActionContextLinks
PUBLIC	?EndShortcut@NodeEditor@ax@@YAXXZ		; ax::NodeEditor::EndShortcut
PUBLIC	?GetCurrentZoom@NodeEditor@ax@@YAMXZ		; ax::NodeEditor::GetCurrentZoom
PUBLIC	?GetHoveredNode@NodeEditor@ax@@YA?AUNodeId@12@XZ ; ax::NodeEditor::GetHoveredNode
PUBLIC	?GetHoveredPin@NodeEditor@ax@@YA?AUPinId@12@XZ	; ax::NodeEditor::GetHoveredPin
PUBLIC	?GetHoveredLink@NodeEditor@ax@@YA?AULinkId@12@XZ ; ax::NodeEditor::GetHoveredLink
PUBLIC	?GetDoubleClickedNode@NodeEditor@ax@@YA?AUNodeId@12@XZ ; ax::NodeEditor::GetDoubleClickedNode
PUBLIC	?GetDoubleClickedPin@NodeEditor@ax@@YA?AUPinId@12@XZ ; ax::NodeEditor::GetDoubleClickedPin
PUBLIC	?GetDoubleClickedLink@NodeEditor@ax@@YA?AULinkId@12@XZ ; ax::NodeEditor::GetDoubleClickedLink
PUBLIC	?IsBackgroundClicked@NodeEditor@ax@@YA_NXZ	; ax::NodeEditor::IsBackgroundClicked
PUBLIC	?IsBackgroundDoubleClicked@NodeEditor@ax@@YA_NXZ ; ax::NodeEditor::IsBackgroundDoubleClicked
PUBLIC	?GetBackgroundClickButtonIndex@NodeEditor@ax@@YAHXZ ; ax::NodeEditor::GetBackgroundClickButtonIndex
PUBLIC	?GetBackgroundDoubleClickButtonIndex@NodeEditor@ax@@YAHXZ ; ax::NodeEditor::GetBackgroundDoubleClickButtonIndex
PUBLIC	?GetLinkPins@NodeEditor@ax@@YA_NULinkId@12@PEAUPinId@12@1@Z ; ax::NodeEditor::GetLinkPins
PUBLIC	?PinHadAnyLinks@NodeEditor@ax@@YA_NUPinId@12@@Z	; ax::NodeEditor::PinHadAnyLinks
PUBLIC	?GetScreenSize@NodeEditor@ax@@YA?AUImVec2@@XZ	; ax::NodeEditor::GetScreenSize
PUBLIC	?ScreenToCanvas@NodeEditor@ax@@YA?AUImVec2@@AEBU3@@Z ; ax::NodeEditor::ScreenToCanvas
PUBLIC	?CanvasToScreen@NodeEditor@ax@@YA?AUImVec2@@AEBU3@@Z ; ax::NodeEditor::CanvasToScreen
PUBLIC	?GetNodeCount@NodeEditor@ax@@YAHXZ		; ax::NodeEditor::GetNodeCount
PUBLIC	?GetOrderedNodeIds@NodeEditor@ax@@YAHPEAUNodeId@12@H@Z ; ax::NodeEditor::GetOrderedNodeIds
PUBLIC	??0?$SafeType@_KUNodeId@NodeEditor@ax@@@Details@NodeEditor@ax@@QEAA@_K@Z ; ax::NodeEditor::Details::SafeType<unsigned __int64,ax::NodeEditor::NodeId>::SafeType<unsigned __int64,ax::NodeEditor::NodeId>
PUBLIC	??0?$SafePointerType@UNodeId@NodeEditor@ax@@@Details@NodeEditor@ax@@QEAA@_K@Z ; ax::NodeEditor::Details::SafePointerType<ax::NodeEditor::NodeId>::SafePointerType<ax::NodeEditor::NodeId>
PUBLIC	??0?$SafeType@_KULinkId@NodeEditor@ax@@@Details@NodeEditor@ax@@QEAA@_K@Z ; ax::NodeEditor::Details::SafeType<unsigned __int64,ax::NodeEditor::LinkId>::SafeType<unsigned __int64,ax::NodeEditor::LinkId>
PUBLIC	??0?$SafePointerType@ULinkId@NodeEditor@ax@@@Details@NodeEditor@ax@@QEAA@_K@Z ; ax::NodeEditor::Details::SafePointerType<ax::NodeEditor::LinkId>::SafePointerType<ax::NodeEditor::LinkId>
PUBLIC	??0ImRect@@QEAA@XZ				; ImRect::ImRect
PUBLIC	??0ImRect@@QEAA@MMMM@Z				; ImRect::ImRect
PUBLIC	?GetSize@ImRect@@QEBA?AUImVec2@@XZ		; ImRect::GetSize
PUBLIC	?Add@ImRect@@QEAAXAEBU1@@Z			; ImRect::Add
PUBLIC	?ImRect_IsEmpty@@YA_NAEBUImRect@@@Z		; ImRect_IsEmpty
PUBLIC	??0_Iterator_base12@std@@QEAA@XZ		; std::_Iterator_base12::_Iterator_base12
PUBLIC	??1_Iterator_base12@std@@QEAA@XZ		; std::_Iterator_base12::~_Iterator_base12
PUBLIC	?_Adopt@_Iterator_base12@std@@QEAAXPEBU_Container_base12@2@@Z ; std::_Iterator_base12::_Adopt
PUBLIC	?_Getcont@_Iterator_base12@std@@QEBAPEBU_Container_base12@2@XZ ; std::_Iterator_base12::_Getcont
PUBLIC	?_Adopt_unlocked@_Iterator_base12@std@@AEAAXPEBU_Container_base12@2@@Z ; std::_Iterator_base12::_Adopt_unlocked
PUBLIC	?_Adopt_locked@_Iterator_base12@std@@AEAAXPEBU_Container_base12@2@@Z ; std::_Iterator_base12::_Adopt_locked
PUBLIC	?_Orphan_me_unlocked_v3@_Iterator_base12@std@@AEAAXXZ ; std::_Iterator_base12::_Orphan_me_unlocked_v3
PUBLIC	?_Orphan_me_locked_v3@_Iterator_base12@std@@AEAAXXZ ; std::_Iterator_base12::_Orphan_me_locked_v3
PUBLIC	?Rect@Canvas@ImGuiEx@@QEBAAEBUImRect@@XZ	; ImGuiEx::Canvas::Rect
PUBLIC	?View@Canvas@ImGuiEx@@QEBAAEBUCanvasView@2@XZ	; ImGuiEx::Canvas::View
PUBLIC	??0?$SafeType@_KUObjectId@Detail@NodeEditor@ax@@@Details@NodeEditor@ax@@QEAA@_K@Z ; ax::NodeEditor::Details::SafeType<unsigned __int64,ax::NodeEditor::Detail::ObjectId>::SafeType<unsigned __int64,ax::NodeEditor::Detail::ObjectId>
PUBLIC	?Get@?$SafeType@_KUObjectId@Detail@NodeEditor@ax@@@Details@NodeEditor@ax@@QEBA_KXZ ; ax::NodeEditor::Details::SafeType<unsigned __int64,ax::NodeEditor::Detail::ObjectId>::Get
PUBLIC	??0?$SafePointerType@UObjectId@Detail@NodeEditor@ax@@@Details@NodeEditor@ax@@QEAA@_K@Z ; ax::NodeEditor::Details::SafePointerType<ax::NodeEditor::Detail::ObjectId>::SafePointerType<ax::NodeEditor::Detail::ObjectId>
PUBLIC	??0ObjectId@Detail@NodeEditor@ax@@QEAA@_K@Z	; ax::NodeEditor::Detail::ObjectId::ObjectId
PUBLIC	??$AsPointer@X@?$SafePointerType@UObjectId@Detail@NodeEditor@ax@@@Details@NodeEditor@ax@@QEBAPEAXXZ ; ax::NodeEditor::Details::SafePointerType<ax::NodeEditor::Detail::ObjectId>::AsPointer<void>
PUBLIC	??$?0X@NodeId@NodeEditor@ax@@QEAA@PEAX@Z	; ax::NodeEditor::NodeId::NodeId<void>
PUBLIC	??$?0X@?$SafePointerType@UNodeId@NodeEditor@ax@@@Details@NodeEditor@ax@@QEAA@PEAX@Z ; ax::NodeEditor::Details::SafePointerType<ax::NodeEditor::NodeId>::SafePointerType<ax::NodeEditor::NodeId><void>
PUBLIC	??$?0X@LinkId@NodeEditor@ax@@QEAA@PEAX@Z	; ax::NodeEditor::LinkId::LinkId<void>
PUBLIC	??$?0X@?$SafePointerType@ULinkId@NodeEditor@ax@@@Details@NodeEditor@ax@@QEAA@PEAX@Z ; ax::NodeEditor::Details::SafePointerType<ax::NodeEditor::LinkId>::SafePointerType<ax::NodeEditor::LinkId><void>
PUBLIC	?CenterOnScreenInNextFrame@Node@Detail@NodeEditor@ax@@QEAAXXZ ; ax::NodeEditor::Detail::Node::CenterOnScreenInNextFrame
PUBLIC	?GetBounds@Node@Detail@NodeEditor@ax@@UEBA?AUImRect@@XZ ; ax::NodeEditor::Detail::Node::GetBounds
PUBLIC	?begin@?$vector@PEAUObject@Detail@NodeEditor@ax@@V?$allocator@PEAUObject@Detail@NodeEditor@ax@@@std@@@std@@QEBA?AV?$_Vector_const_iterator@V?$_Vector_val@U?$_Simple_types@PEAUObject@Detail@NodeEditor@ax@@@std@@@std@@@2@XZ ; std::vector<ax::NodeEditor::Detail::Object *,std::allocator<ax::NodeEditor::Detail::Object *> >::begin
PUBLIC	?end@?$vector@PEAUObject@Detail@NodeEditor@ax@@V?$allocator@PEAUObject@Detail@NodeEditor@ax@@@std@@@std@@QEBA?AV?$_Vector_const_iterator@V?$_Vector_val@U?$_Simple_types@PEAUObject@Detail@NodeEditor@ax@@@std@@@std@@@2@XZ ; std::vector<ax::NodeEditor::Detail::Object *,std::allocator<ax::NodeEditor::Detail::Object *> >::end
PUBLIC	?_Unchecked_begin@?$vector@PEAUObject@Detail@NodeEditor@ax@@V?$allocator@PEAUObject@Detail@NodeEditor@ax@@@std@@@std@@QEBAPEBQEAUObject@Detail@NodeEditor@ax@@XZ ; std::vector<ax::NodeEditor::Detail::Object *,std::allocator<ax::NodeEditor::Detail::Object *> >::_Unchecked_begin
PUBLIC	?_Unchecked_end@?$vector@PEAUObject@Detail@NodeEditor@ax@@V?$allocator@PEAUObject@Detail@NodeEditor@ax@@@std@@@std@@QEBAPEBQEAUObject@Detail@NodeEditor@ax@@XZ ; std::vector<ax::NodeEditor::Detail::Object *,std::allocator<ax::NodeEditor::Detail::Object *> >::_Unchecked_end
PUBLIC	?size@?$vector@PEAUObject@Detail@NodeEditor@ax@@V?$allocator@PEAUObject@Detail@NodeEditor@ax@@@std@@@std@@QEBA_KXZ ; std::vector<ax::NodeEditor::Detail::Object *,std::allocator<ax::NodeEditor::Detail::Object *> >::size
PUBLIC	?GetConfig@EditorContext@Detail@NodeEditor@ax@@QEBAAEBUConfig@234@XZ ; ax::NodeEditor::Detail::EditorContext::GetConfig
PUBLIC	?GetStyle@EditorContext@Detail@NodeEditor@ax@@QEAAAEAUStyle@234@XZ ; ax::NodeEditor::Detail::EditorContext::GetStyle
PUBLIC	?GetNodeBuilder@EditorContext@Detail@NodeEditor@ax@@QEAAAEAUNodeBuilder@234@XZ ; ax::NodeEditor::Detail::EditorContext::GetNodeBuilder
PUBLIC	?GetHintBuilder@EditorContext@Detail@NodeEditor@ax@@QEAAAEAUHintBuilder@234@XZ ; ax::NodeEditor::Detail::EditorContext::GetHintBuilder
PUBLIC	?GetItemCreator@EditorContext@Detail@NodeEditor@ax@@QEAAAEAUCreateItemAction@234@XZ ; ax::NodeEditor::Detail::EditorContext::GetItemCreator
PUBLIC	?GetItemDeleter@EditorContext@Detail@NodeEditor@ax@@QEAAAEAUDeleteItemsAction@234@XZ ; ax::NodeEditor::Detail::EditorContext::GetItemDeleter
PUBLIC	?GetContextMenu@EditorContext@Detail@NodeEditor@ax@@QEAAAEAUContextMenuAction@234@XZ ; ax::NodeEditor::Detail::EditorContext::GetContextMenu
PUBLIC	?GetShortcut@EditorContext@Detail@NodeEditor@ax@@QEAAAEAUShortcutAction@234@XZ ; ax::NodeEditor::Detail::EditorContext::GetShortcut
PUBLIC	?GetView@EditorContext@Detail@NodeEditor@ax@@QEBAAEBUCanvasView@ImGuiEx@@XZ ; ax::NodeEditor::Detail::EditorContext::GetView
PUBLIC	?GetRect@EditorContext@Detail@NodeEditor@ax@@QEBAAEBUImRect@@XZ ; ax::NodeEditor::Detail::EditorContext::GetRect
PUBLIC	?ToCanvas@EditorContext@Detail@NodeEditor@ax@@QEBA?AUImVec2@@AEBU5@@Z ; ax::NodeEditor::Detail::EditorContext::ToCanvas
PUBLIC	?ToScreen@EditorContext@Detail@NodeEditor@ax@@QEBA?AUImVec2@@AEBU5@@Z ; ax::NodeEditor::Detail::EditorContext::ToScreen
PUBLIC	?GetSelectionBounds@EditorContext@Detail@NodeEditor@ax@@QEAA?AUImRect@@XZ ; ax::NodeEditor::Detail::EditorContext::GetSelectionBounds
PUBLIC	?GetContentBounds@EditorContext@Detail@NodeEditor@ax@@QEAA?AUImRect@@XZ ; ax::NodeEditor::Detail::EditorContext::GetContentBounds
PUBLIC	?NavigateTo@EditorContext@Detail@NodeEditor@ax@@QEAAXAEBUImRect@@_NM@Z ; ax::NodeEditor::Detail::EditorContext::NavigateTo
PUBLIC	?GetHoveredNode@EditorContext@Detail@NodeEditor@ax@@QEBA?AUNodeId@34@XZ ; ax::NodeEditor::Detail::EditorContext::GetHoveredNode
PUBLIC	?GetHoveredPin@EditorContext@Detail@NodeEditor@ax@@QEBA?AUPinId@34@XZ ; ax::NodeEditor::Detail::EditorContext::GetHoveredPin
PUBLIC	?GetHoveredLink@EditorContext@Detail@NodeEditor@ax@@QEBA?AULinkId@34@XZ ; ax::NodeEditor::Detail::EditorContext::GetHoveredLink
PUBLIC	?GetDoubleClickedNode@EditorContext@Detail@NodeEditor@ax@@QEBA?AUNodeId@34@XZ ; ax::NodeEditor::Detail::EditorContext::GetDoubleClickedNode
PUBLIC	?GetDoubleClickedPin@EditorContext@Detail@NodeEditor@ax@@QEBA?AUPinId@34@XZ ; ax::NodeEditor::Detail::EditorContext::GetDoubleClickedPin
PUBLIC	?GetDoubleClickedLink@EditorContext@Detail@NodeEditor@ax@@QEBA?AULinkId@34@XZ ; ax::NodeEditor::Detail::EditorContext::GetDoubleClickedLink
PUBLIC	?IsBackgroundClicked@EditorContext@Detail@NodeEditor@ax@@QEBA_NXZ ; ax::NodeEditor::Detail::EditorContext::IsBackgroundClicked
PUBLIC	?IsBackgroundDoubleClicked@EditorContext@Detail@NodeEditor@ax@@QEBA_NXZ ; ax::NodeEditor::Detail::EditorContext::IsBackgroundDoubleClicked
PUBLIC	?GetBackgroundClickButtonIndex@EditorContext@Detail@NodeEditor@ax@@QEBAHXZ ; ax::NodeEditor::Detail::EditorContext::GetBackgroundClickButtonIndex
PUBLIC	?GetBackgroundDoubleClickButtonIndex@EditorContext@Detail@NodeEditor@ax@@QEBAHXZ ; ax::NodeEditor::Detail::EditorContext::GetBackgroundDoubleClickButtonIndex
PUBLIC	?_Unchecked_begin@?$vector@U?$ObjectWrapper@UNode@Detail@NodeEditor@ax@@UNodeId@34@@Detail@NodeEditor@ax@@V?$allocator@U?$ObjectWrapper@UNode@Detail@NodeEditor@ax@@UNodeId@34@@Detail@NodeEditor@ax@@@std@@@std@@QEBAPEBU?$ObjectWrapper@UNode@Detail@NodeEditor@ax@@UNodeId@34@@Detail@NodeEditor@ax@@XZ ; std::vector<ax::NodeEditor::Detail::ObjectWrapper<ax::NodeEditor::Detail::Node,ax::NodeEditor::NodeId>,std::allocator<ax::NodeEditor::Detail::ObjectWrapper<ax::NodeEditor::Detail::Node,ax::NodeEditor::NodeId> > >::_Unchecked_begin
PUBLIC	?_Unchecked_end@?$vector@U?$ObjectWrapper@UNode@Detail@NodeEditor@ax@@UNodeId@34@@Detail@NodeEditor@ax@@V?$allocator@U?$ObjectWrapper@UNode@Detail@NodeEditor@ax@@UNodeId@34@@Detail@NodeEditor@ax@@@std@@@std@@QEBAPEBU?$ObjectWrapper@UNode@Detail@NodeEditor@ax@@UNodeId@34@@Detail@NodeEditor@ax@@XZ ; std::vector<ax::NodeEditor::Detail::ObjectWrapper<ax::NodeEditor::Detail::Node,ax::NodeEditor::NodeId>,std::allocator<ax::NodeEditor::Detail::ObjectWrapper<ax::NodeEditor::Detail::Node,ax::NodeEditor::NodeId> > >::_Unchecked_end
PUBLIC	??_GEditorContext@Detail@NodeEditor@ax@@QEAAPEAXI@Z ; ax::NodeEditor::Detail::EditorContext::`scalar deleting destructor'
PUBLIC	??$GetBounds@UObject@Detail@NodeEditor@ax@@@EditorContext@Detail@NodeEditor@ax@@QEAA?AUImRect@@AEBV?$vector@PEAUObject@Detail@NodeEditor@ax@@V?$allocator@PEAUObject@Detail@NodeEditor@ax@@@std@@@std@@@Z ; ax::NodeEditor::Detail::EditorContext::GetBounds<ax::NodeEditor::Detail::Object>
PUBLIC	??$GetBounds@UNode@Detail@NodeEditor@ax@@@EditorContext@Detail@NodeEditor@ax@@QEAA?AUImRect@@AEBV?$vector@U?$ObjectWrapper@UNode@Detail@NodeEditor@ax@@UNodeId@34@@Detail@NodeEditor@ax@@V?$allocator@U?$ObjectWrapper@UNode@Detail@NodeEditor@ax@@UNodeId@34@@Detail@NodeEditor@ax@@@std@@@std@@@Z ; ax::NodeEditor::Detail::EditorContext::GetBounds<ax::NodeEditor::Detail::Node>
PUBLIC	??0?$_Vector_const_iterator@V?$_Vector_val@U?$_Simple_types@PEAUObject@Detail@NodeEditor@ax@@@std@@@std@@@std@@QEAA@PEAPEAUObject@Detail@NodeEditor@ax@@PEBU_Container_base12@1@@Z ; std::_Vector_const_iterator<std::_Vector_val<std::_Simple_types<ax::NodeEditor::Detail::Object *> > >::_Vector_const_iterator<std::_Vector_val<std::_Simple_types<ax::NodeEditor::Detail::Object *> > >
PUBLIC	?_Verify_range@std@@YAXAEBV?$_Vector_const_iterator@V?$_Vector_val@U?$_Simple_types@PEAUObject@Detail@NodeEditor@ax@@@std@@@std@@@1@0@Z ; std::_Verify_range
PUBLIC	?_Unwrapped@?$_Vector_const_iterator@V?$_Vector_val@U?$_Simple_types@PEAUObject@Detail@NodeEditor@ax@@@std@@@std@@@std@@QEBAPEBQEAUObject@Detail@NodeEditor@ax@@XZ ; std::_Vector_const_iterator<std::_Vector_val<std::_Simple_types<ax::NodeEditor::Detail::Object *> > >::_Unwrapped
PUBLIC	??1?$_Vector_const_iterator@V?$_Vector_val@U?$_Simple_types@PEAUObject@Detail@NodeEditor@ax@@@std@@@std@@@std@@QEAA@XZ ; std::_Vector_const_iterator<std::_Vector_val<std::_Simple_types<ax::NodeEditor::Detail::Object *> > >::~_Vector_const_iterator<std::_Vector_val<std::_Simple_types<ax::NodeEditor::Detail::Object *> > >
PUBLIC	??$move@AEA_K@std@@YA$$QEA_KAEA_K@Z		; std::move<unsigned __int64 &>
PUBLIC	??$addressof@$$CBV?$_Vector_val@U?$_Simple_types@PEAUObject@Detail@NodeEditor@ax@@@std@@@std@@@std@@YAPEBV?$_Vector_val@U?$_Simple_types@PEAUObject@Detail@NodeEditor@ax@@@std@@@0@AEBV10@@Z ; std::addressof<std::_Vector_val<std::_Simple_types<ax::NodeEditor::Detail::Object *> > const >
PUBLIC	??$_Adl_verify_range@V?$_Vector_const_iterator@V?$_Vector_val@U?$_Simple_types@PEAUObject@Detail@NodeEditor@ax@@@std@@@std@@@std@@V12@@std@@YAXAEBV?$_Vector_const_iterator@V?$_Vector_val@U?$_Simple_types@PEAUObject@Detail@NodeEditor@ax@@@std@@@std@@@0@0@Z ; std::_Adl_verify_range<std::_Vector_const_iterator<std::_Vector_val<std::_Simple_types<ax::NodeEditor::Detail::Object *> > >,std::_Vector_const_iterator<std::_Vector_val<std::_Simple_types<ax::NodeEditor::Detail::Object *> > > >
PUBLIC	??$_Get_unwrapped@AEAV?$_Vector_const_iterator@V?$_Vector_val@U?$_Simple_types@PEAUObject@Detail@NodeEditor@ax@@@std@@@std@@@std@@@std@@YA?A_TAEAV?$_Vector_const_iterator@V?$_Vector_val@U?$_Simple_types@PEAUObject@Detail@NodeEditor@ax@@@std@@@std@@@0@@Z ; std::_Get_unwrapped<std::_Vector_const_iterator<std::_Vector_val<std::_Simple_types<ax::NodeEditor::Detail::Object *> > > &>
PUBLIC	??$_Unfancy@PEAUObject@Detail@NodeEditor@ax@@@std@@YAPEAPEAUObject@Detail@NodeEditor@ax@@PEAPEAU1234@@Z ; std::_Unfancy<ax::NodeEditor::Detail::Object *>
PUBLIC	__JustMyCode_Default
PUBLIC	??_C@_0BA@BILEHODK@NodeEditor?4json@		; `string'
PUBLIC	??_C@_02DKCKIIND@?$CFs@				; `string'
PUBLIC	??_C@_0GC@GFIHGGPN@C?3?2Program?5Files?2Microsoft?5Visu@ ; `string'
PUBLIC	??_C@_1ME@KDCJLOP@?$AAC?$AA?3?$AA?2?$AAP?$AAr?$AAo?$AAg?$AAr?$AAa?$AAm?$AA?5?$AAF?$AAi?$AAl?$AAe@ ; `string'
PUBLIC	??_C@_11LOCGONAA@@				; `string'
PUBLIC	??_C@_0BJ@LFDBABJJ@ITERATOR?5LIST?5CORRUPTED?$CB@ ; `string'
PUBLIC	??_C@_1DG@PLBPCAEM@?$AA?$CC?$AAI?$AAT?$AAE?$AAR?$AAA?$AAT?$AAO?$AAR?$AA?5?$AAL?$AAI?$AAS?$AAT?$AA?5@ ; `string'
PUBLIC	?Invalid@?$SafePointerType@UObjectId@Detail@NodeEditor@ax@@@Details@NodeEditor@ax@@2UObjectId@Detail@34@B ; ax::NodeEditor::Details::SafePointerType<ax::NodeEditor::Detail::ObjectId>::Invalid
PUBLIC	??_C@_0DI@PBEELKIF@vector?5iterators?5in?5range?5are?5f@ ; `string'
PUBLIC	??_C@_0GB@FLOGEF@C?3?2Program?5Files?2Microsoft?5Visu@ ; `string'
PUBLIC	??_C@_1MC@LACENGKK@?$AAC?$AA?3?$AA?2?$AAP?$AAr?$AAo?$AAg?$AAr?$AAa?$AAm?$AA?5?$AAF?$AAi?$AAl?$AAe@ ; `string'
PUBLIC	??_C@_1HE@KBMFDAFB@?$AA?$CC?$AAv?$AAe?$AAc?$AAt?$AAo?$AAr?$AA?5?$AAi?$AAt?$AAe?$AAr?$AAa?$AAt?$AAo@ ; `string'
PUBLIC	??_C@_0CB@LIAHLBAO@vector?5iterator?5range?5transpose@ ; `string'
PUBLIC	??_C@_1EG@ODKBEHFN@?$AA?$CC?$AAv?$AAe?$AAc?$AAt?$AAo?$AAr?$AA?5?$AAi?$AAt?$AAe?$AAr?$AAa?$AAt?$AAo@ ; `string'
PUBLIC	__real@7f7fffff
PUBLIC	__real@ff7fffff
EXTRN	??2@YAPEAX_K@Z:PROC				; operator new
EXTRN	??3@YAXPEAX_K@Z:PROC				; operator delete
EXTRN	atexit:PROC
EXTRN	_Init_thread_header:PROC
EXTRN	_Init_thread_abort:PROC
EXTRN	_Init_thread_footer:PROC
EXTRN	__imp__invalid_parameter:PROC
EXTRN	?ColorConvertFloat4ToU32@ImGui@@YAIAEBUImVec4@@@Z:PROC ; ImGui::ColorConvertFloat4ToU32
EXTRN	?MemFree@ImGui@@YAXPEAX@Z:PROC			; ImGui::MemFree
EXTRN	__imp__CrtDbgReport:PROC
EXTRN	__imp_??0_Lockit@std@@QEAA@H@Z:PROC
EXTRN	__imp_??1_Lockit@std@@QEAA@XZ:PROC
EXTRN	?FromLocal@Canvas@ImGuiEx@@QEBA?AUImVec2@@AEBU3@@Z:PROC ; ImGuiEx::Canvas::FromLocal
EXTRN	?ToLocal@Canvas@ImGuiEx@@QEBA?AUImVec2@@AEBU3@@Z:PROC ; ImGuiEx::Canvas::ToLocal
EXTRN	?NavigateTo@NavigateAction@Detail@NodeEditor@ax@@QEAAXAEBUImRect@@W4ZoomMode@1234@MW4NavigationReason@1234@@Z:PROC ; ax::NodeEditor::Detail::NavigateAction::NavigateTo
EXTRN	?ShowNodeContextMenu@ContextMenuAction@Detail@NodeEditor@ax@@QEAA_NPEAUNodeId@34@@Z:PROC ; ax::NodeEditor::Detail::ContextMenuAction::ShowNodeContextMenu
EXTRN	?ShowPinContextMenu@ContextMenuAction@Detail@NodeEditor@ax@@QEAA_NPEAUPinId@34@@Z:PROC ; ax::NodeEditor::Detail::ContextMenuAction::ShowPinContextMenu
EXTRN	?ShowLinkContextMenu@ContextMenuAction@Detail@NodeEditor@ax@@QEAA_NPEAULinkId@34@@Z:PROC ; ax::NodeEditor::Detail::ContextMenuAction::ShowLinkContextMenu
EXTRN	?ShowBackgroundContextMenu@ContextMenuAction@Detail@NodeEditor@ax@@QEAA_NXZ:PROC ; ax::NodeEditor::Detail::ContextMenuAction::ShowBackgroundContextMenu
EXTRN	?Begin@ShortcutAction@Detail@NodeEditor@ax@@QEAA_NXZ:PROC ; ax::NodeEditor::Detail::ShortcutAction::Begin
EXTRN	?End@ShortcutAction@Detail@NodeEditor@ax@@QEAAXXZ:PROC ; ax::NodeEditor::Detail::ShortcutAction::End
EXTRN	?AcceptCut@ShortcutAction@Detail@NodeEditor@ax@@QEAA_NXZ:PROC ; ax::NodeEditor::Detail::ShortcutAction::AcceptCut
EXTRN	?AcceptCopy@ShortcutAction@Detail@NodeEditor@ax@@QEAA_NXZ:PROC ; ax::NodeEditor::Detail::ShortcutAction::AcceptCopy
EXTRN	?AcceptPaste@ShortcutAction@Detail@NodeEditor@ax@@QEAA_NXZ:PROC ; ax::NodeEditor::Detail::ShortcutAction::AcceptPaste
EXTRN	?AcceptDuplicate@ShortcutAction@Detail@NodeEditor@ax@@QEAA_NXZ:PROC ; ax::NodeEditor::Detail::ShortcutAction::AcceptDuplicate
EXTRN	?AcceptCreateNode@ShortcutAction@Detail@NodeEditor@ax@@QEAA_NXZ:PROC ; ax::NodeEditor::Detail::ShortcutAction::AcceptCreateNode
EXTRN	?SetStyle@CreateItemAction@Detail@NodeEditor@ax@@QEAAXIM@Z:PROC ; ax::NodeEditor::Detail::CreateItemAction::SetStyle
EXTRN	?Begin@CreateItemAction@Detail@NodeEditor@ax@@QEAA_NXZ:PROC ; ax::NodeEditor::Detail::CreateItemAction::Begin
EXTRN	?End@CreateItemAction@Detail@NodeEditor@ax@@QEAAXXZ:PROC ; ax::NodeEditor::Detail::CreateItemAction::End
EXTRN	?RejectItem@CreateItemAction@Detail@NodeEditor@ax@@QEAA?AW4Result@1234@XZ:PROC ; ax::NodeEditor::Detail::CreateItemAction::RejectItem
EXTRN	?AcceptItem@CreateItemAction@Detail@NodeEditor@ax@@QEAA?AW4Result@1234@XZ:PROC ; ax::NodeEditor::Detail::CreateItemAction::AcceptItem
EXTRN	?QueryLink@CreateItemAction@Detail@NodeEditor@ax@@QEAA?AW4Result@1234@PEAUPinId@34@0@Z:PROC ; ax::NodeEditor::Detail::CreateItemAction::QueryLink
EXTRN	?QueryNode@CreateItemAction@Detail@NodeEditor@ax@@QEAA?AW4Result@1234@PEAUPinId@34@@Z:PROC ; ax::NodeEditor::Detail::CreateItemAction::QueryNode
EXTRN	?Add@DeleteItemsAction@Detail@NodeEditor@ax@@QEAA_NPEAUObject@234@@Z:PROC ; ax::NodeEditor::Detail::DeleteItemsAction::Add
EXTRN	?Begin@DeleteItemsAction@Detail@NodeEditor@ax@@QEAA_NXZ:PROC ; ax::NodeEditor::Detail::DeleteItemsAction::Begin
EXTRN	?End@DeleteItemsAction@Detail@NodeEditor@ax@@QEAAXXZ:PROC ; ax::NodeEditor::Detail::DeleteItemsAction::End
EXTRN	?QueryLink@DeleteItemsAction@Detail@NodeEditor@ax@@QEAA_NPEAULinkId@34@PEAUPinId@34@1@Z:PROC ; ax::NodeEditor::Detail::DeleteItemsAction::QueryLink
EXTRN	?QueryNode@DeleteItemsAction@Detail@NodeEditor@ax@@QEAA_NPEAUNodeId@34@@Z:PROC ; ax::NodeEditor::Detail::DeleteItemsAction::QueryNode
EXTRN	?AcceptItem@DeleteItemsAction@Detail@NodeEditor@ax@@QEAA_N_N@Z:PROC ; ax::NodeEditor::Detail::DeleteItemsAction::AcceptItem
EXTRN	?RejectItem@DeleteItemsAction@Detail@NodeEditor@ax@@QEAAXXZ:PROC ; ax::NodeEditor::Detail::DeleteItemsAction::RejectItem
EXTRN	?Begin@NodeBuilder@Detail@NodeEditor@ax@@QEAAXUNodeId@34@@Z:PROC ; ax::NodeEditor::Detail::NodeBuilder::Begin
EXTRN	?End@NodeBuilder@Detail@NodeEditor@ax@@QEAAXXZ:PROC ; ax::NodeEditor::Detail::NodeBuilder::End
EXTRN	?BeginPin@NodeBuilder@Detail@NodeEditor@ax@@QEAAXUPinId@34@W4PinKind@34@@Z:PROC ; ax::NodeEditor::Detail::NodeBuilder::BeginPin
EXTRN	?EndPin@NodeBuilder@Detail@NodeEditor@ax@@QEAAXXZ:PROC ; ax::NodeEditor::Detail::NodeBuilder::EndPin
EXTRN	?PinRect@NodeBuilder@Detail@NodeEditor@ax@@QEAAXAEBUImVec2@@0@Z:PROC ; ax::NodeEditor::Detail::NodeBuilder::PinRect
EXTRN	?PinPivotRect@NodeBuilder@Detail@NodeEditor@ax@@QEAAXAEBUImVec2@@0@Z:PROC ; ax::NodeEditor::Detail::NodeBuilder::PinPivotRect
EXTRN	?PinPivotSize@NodeBuilder@Detail@NodeEditor@ax@@QEAAXAEBUImVec2@@@Z:PROC ; ax::NodeEditor::Detail::NodeBuilder::PinPivotSize
EXTRN	?PinPivotScale@NodeBuilder@Detail@NodeEditor@ax@@QEAAXAEBUImVec2@@@Z:PROC ; ax::NodeEditor::Detail::NodeBuilder::PinPivotScale
EXTRN	?PinPivotAlignment@NodeBuilder@Detail@NodeEditor@ax@@QEAAXAEBUImVec2@@@Z:PROC ; ax::NodeEditor::Detail::NodeBuilder::PinPivotAlignment
EXTRN	?Group@NodeBuilder@Detail@NodeEditor@ax@@QEAAXAEBUImVec2@@@Z:PROC ; ax::NodeEditor::Detail::NodeBuilder::Group
EXTRN	?GetUserBackgroundDrawList@NodeBuilder@Detail@NodeEditor@ax@@QEBAPEAUImDrawList@@PEAUNode@234@@Z:PROC ; ax::NodeEditor::Detail::NodeBuilder::GetUserBackgroundDrawList
EXTRN	?Begin@HintBuilder@Detail@NodeEditor@ax@@QEAA_NUNodeId@34@@Z:PROC ; ax::NodeEditor::Detail::HintBuilder::Begin
EXTRN	?End@HintBuilder@Detail@NodeEditor@ax@@QEAAXXZ:PROC ; ax::NodeEditor::Detail::HintBuilder::End
EXTRN	?GetGroupMin@HintBuilder@Detail@NodeEditor@ax@@QEAA?AUImVec2@@XZ:PROC ; ax::NodeEditor::Detail::HintBuilder::GetGroupMin
EXTRN	?GetGroupMax@HintBuilder@Detail@NodeEditor@ax@@QEAA?AUImVec2@@XZ:PROC ; ax::NodeEditor::Detail::HintBuilder::GetGroupMax
EXTRN	?GetForegroundDrawList@HintBuilder@Detail@NodeEditor@ax@@QEAAPEAUImDrawList@@XZ:PROC ; ax::NodeEditor::Detail::HintBuilder::GetForegroundDrawList
EXTRN	?GetBackgroundDrawList@HintBuilder@Detail@NodeEditor@ax@@QEAAPEAUImDrawList@@XZ:PROC ; ax::NodeEditor::Detail::HintBuilder::GetBackgroundDrawList
EXTRN	?PushColor@Style@Detail@NodeEditor@ax@@QEAAXW4StyleColor@34@AEBUImVec4@@@Z:PROC ; ax::NodeEditor::Detail::Style::PushColor
EXTRN	?PopColor@Style@Detail@NodeEditor@ax@@QEAAXH@Z:PROC ; ax::NodeEditor::Detail::Style::PopColor
EXTRN	?PushVar@Style@Detail@NodeEditor@ax@@QEAAXW4StyleVar@34@M@Z:PROC ; ax::NodeEditor::Detail::Style::PushVar
EXTRN	?PushVar@Style@Detail@NodeEditor@ax@@QEAAXW4StyleVar@34@AEBUImVec2@@@Z:PROC ; ax::NodeEditor::Detail::Style::PushVar
EXTRN	?PushVar@Style@Detail@NodeEditor@ax@@QEAAXW4StyleVar@34@AEBUImVec4@@@Z:PROC ; ax::NodeEditor::Detail::Style::PushVar
EXTRN	?PopVar@Style@Detail@NodeEditor@ax@@QEAAXH@Z:PROC ; ax::NodeEditor::Detail::Style::PopVar
EXTRN	?GetColorName@Style@Detail@NodeEditor@ax@@QEBAPEBDW4StyleColor@34@@Z:PROC ; ax::NodeEditor::Detail::Style::GetColorName
EXTRN	??0EditorContext@Detail@NodeEditor@ax@@QEAA@PEBUConfig@23@@Z:PROC ; ax::NodeEditor::Detail::EditorContext::EditorContext
EXTRN	??1EditorContext@Detail@NodeEditor@ax@@QEAA@XZ:PROC ; ax::NodeEditor::Detail::EditorContext::~EditorContext
EXTRN	?Begin@EditorContext@Detail@NodeEditor@ax@@QEAAXPEBDAEBUImVec2@@@Z:PROC ; ax::NodeEditor::Detail::EditorContext::Begin
EXTRN	?End@EditorContext@Detail@NodeEditor@ax@@QEAAXXZ:PROC ; ax::NodeEditor::Detail::EditorContext::End
EXTRN	?DoLink@EditorContext@Detail@NodeEditor@ax@@QEAA_NULinkId@34@UPinId@34@1IM@Z:PROC ; ax::NodeEditor::Detail::EditorContext::DoLink
EXTRN	?SetNodePosition@EditorContext@Detail@NodeEditor@ax@@QEAAXUNodeId@34@AEBUImVec2@@@Z:PROC ; ax::NodeEditor::Detail::EditorContext::SetNodePosition
EXTRN	?SetGroupSize@EditorContext@Detail@NodeEditor@ax@@QEAAXUNodeId@34@AEBUImVec2@@@Z:PROC ; ax::NodeEditor::Detail::EditorContext::SetGroupSize
EXTRN	?GetNodePosition@EditorContext@Detail@NodeEditor@ax@@QEAA?AUImVec2@@UNodeId@34@@Z:PROC ; ax::NodeEditor::Detail::EditorContext::GetNodePosition
EXTRN	?GetNodeSize@EditorContext@Detail@NodeEditor@ax@@QEAA?AUImVec2@@UNodeId@34@@Z:PROC ; ax::NodeEditor::Detail::EditorContext::GetNodeSize
EXTRN	?SetNodeZPosition@EditorContext@Detail@NodeEditor@ax@@QEAAXUNodeId@34@M@Z:PROC ; ax::NodeEditor::Detail::EditorContext::SetNodeZPosition
EXTRN	?GetNodeZPosition@EditorContext@Detail@NodeEditor@ax@@QEAAMUNodeId@34@@Z:PROC ; ax::NodeEditor::Detail::EditorContext::GetNodeZPosition
EXTRN	?MarkNodeToRestoreState@EditorContext@Detail@NodeEditor@ax@@QEAAXPEAUNode@234@@Z:PROC ; ax::NodeEditor::Detail::EditorContext::MarkNodeToRestoreState
EXTRN	?ClearSelection@EditorContext@Detail@NodeEditor@ax@@QEAAXXZ:PROC ; ax::NodeEditor::Detail::EditorContext::ClearSelection
EXTRN	?SelectObject@EditorContext@Detail@NodeEditor@ax@@QEAAXPEAUObject@234@@Z:PROC ; ax::NodeEditor::Detail::EditorContext::SelectObject
EXTRN	?DeselectObject@EditorContext@Detail@NodeEditor@ax@@QEAAXPEAUObject@234@@Z:PROC ; ax::NodeEditor::Detail::EditorContext::DeselectObject
EXTRN	?SetSelectedObject@EditorContext@Detail@NodeEditor@ax@@QEAAXPEAUObject@234@@Z:PROC ; ax::NodeEditor::Detail::EditorContext::SetSelectedObject
EXTRN	?IsSelected@EditorContext@Detail@NodeEditor@ax@@QEAA_NPEAUObject@234@@Z:PROC ; ax::NodeEditor::Detail::EditorContext::IsSelected
EXTRN	?GetSelectedObjects@EditorContext@Detail@NodeEditor@ax@@QEAAAEBV?$vector@PEAUObject@Detail@NodeEditor@ax@@V?$allocator@PEAUObject@Detail@NodeEditor@ax@@@std@@@std@@XZ:PROC ; ax::NodeEditor::Detail::EditorContext::GetSelectedObjects
EXTRN	?HasSelectionChanged@EditorContext@Detail@NodeEditor@ax@@QEAA_NXZ:PROC ; ax::NodeEditor::Detail::EditorContext::HasSelectionChanged
EXTRN	?HasAnyLinks@EditorContext@Detail@NodeEditor@ax@@QEBA_NUNodeId@34@@Z:PROC ; ax::NodeEditor::Detail::EditorContext::HasAnyLinks
EXTRN	?HasAnyLinks@EditorContext@Detail@NodeEditor@ax@@QEBA_NUPinId@34@@Z:PROC ; ax::NodeEditor::Detail::EditorContext::HasAnyLinks
EXTRN	?BreakLinks@EditorContext@Detail@NodeEditor@ax@@QEAAHUNodeId@34@@Z:PROC ; ax::NodeEditor::Detail::EditorContext::BreakLinks
EXTRN	?BreakLinks@EditorContext@Detail@NodeEditor@ax@@QEAAHUPinId@34@@Z:PROC ; ax::NodeEditor::Detail::EditorContext::BreakLinks
EXTRN	?PinHadAnyLinks@EditorContext@Detail@NodeEditor@ax@@QEAA_NUPinId@34@@Z:PROC ; ax::NodeEditor::Detail::EditorContext::PinHadAnyLinks
EXTRN	?Suspend@EditorContext@Detail@NodeEditor@ax@@QEAAXW4SuspendFlags@234@@Z:PROC ; ax::NodeEditor::Detail::EditorContext::Suspend
EXTRN	?Resume@EditorContext@Detail@NodeEditor@ax@@QEAAXW4SuspendFlags@234@@Z:PROC ; ax::NodeEditor::Detail::EditorContext::Resume
EXTRN	?IsSuspended@EditorContext@Detail@NodeEditor@ax@@QEAA_NXZ:PROC ; ax::NodeEditor::Detail::EditorContext::IsSuspended
EXTRN	?IsFocused@EditorContext@Detail@NodeEditor@ax@@QEAA_NXZ:PROC ; ax::NodeEditor::Detail::EditorContext::IsFocused
EXTRN	?CountLiveNodes@EditorContext@Detail@NodeEditor@ax@@QEBAHXZ:PROC ; ax::NodeEditor::Detail::EditorContext::CountLiveNodes
EXTRN	?FindNode@EditorContext@Detail@NodeEditor@ax@@QEAAPEAUNode@234@UNodeId@34@@Z:PROC ; ax::NodeEditor::Detail::EditorContext::FindNode
EXTRN	?FindLink@EditorContext@Detail@NodeEditor@ax@@QEAAPEAULink@234@ULinkId@34@@Z:PROC ; ax::NodeEditor::Detail::EditorContext::FindLink
EXTRN	?GetNodeIds@EditorContext@Detail@NodeEditor@ax@@QEBAHPEAUNodeId@34@H@Z:PROC ; ax::NodeEditor::Detail::EditorContext::GetNodeIds
EXTRN	?Flow@EditorContext@Detail@NodeEditor@ax@@QEAAXPEAULink@234@W4FlowDirection@34@@Z:PROC ; ax::NodeEditor::Detail::EditorContext::Flow
EXTRN	?EnableShortcuts@EditorContext@Detail@NodeEditor@ax@@QEAAX_N@Z:PROC ; ax::NodeEditor::Detail::EditorContext::EnableShortcuts
EXTRN	?AreShortcutsEnabled@EditorContext@Detail@NodeEditor@ax@@QEAA_NXZ:PROC ; ax::NodeEditor::Detail::EditorContext::AreShortcutsEnabled
EXTRN	_RTC_CheckStackVars:PROC
EXTRN	_RTC_InitBase:PROC
EXTRN	_RTC_Shutdown:PROC
EXTRN	__CheckForDebuggerJustMyCode:PROC
EXTRN	__CxxFrameHandler4:PROC
EXTRN	__GSHandlerCheck:PROC
EXTRN	__security_check_cookie:PROC
EXTRN	_Init_thread_epoch:DWORD
EXTRN	__security_cookie:QWORD
EXTRN	_fltused:DWORD
EXTRN	_tls_index:DWORD
;	COMDAT ?Invalid@?$SafePointerType@UObjectId@Detail@NodeEditor@ax@@@Details@NodeEditor@ax@@2UObjectId@Detail@34@B
_BSS	SEGMENT
?Invalid@?$SafePointerType@UObjectId@Detail@NodeEditor@ax@@@Details@NodeEditor@ax@@2UObjectId@Detail@34@B DB 010H DUP (?) ; ax::NodeEditor::Details::SafePointerType<ax::NodeEditor::Detail::ObjectId>::Invalid
_BSS	ENDS
_BSS	SEGMENT
?s_Editor@@3PEAUEditorContext@Detail@NodeEditor@ax@@EA DQ 01H DUP (?) ; s_Editor
?s_EmptyConfig@?8??GetConfig@NodeEditor@ax@@YAAEBUConfig@23@PEAUEditorContext@23@@Z@4U423@A DB 068H DUP (?) ; `ax::NodeEditor::GetConfig'::`9'::s_EmptyConfig
?$TSS0@?8??GetConfig@NodeEditor@ax@@YAAEBUConfig@23@PEAUEditorContext@23@@Z@4HA DD 01H DUP (?) ; `ax::NodeEditor::GetConfig'::`9'::$TSS0
_BSS	ENDS
;	COMDAT pdata
pdata	SEGMENT
$pdata$??_H@YAXPEAX_K1P6APEAX0@Z@Z DD imagerel $LN7
	DD	imagerel $LN7+172
	DD	imagerel $unwind$??_H@YAXPEAX_K1P6APEAX0@Z@Z
pdata	ENDS
;	COMDAT pdata
pdata	SEGMENT
$pdata$?__empty_global_delete@@YAXPEAX@Z DD imagerel $LN3
	DD	imagerel $LN3+41
	DD	imagerel $unwind$?__empty_global_delete@@YAXPEAX@Z
pdata	ENDS
;	COMDAT pdata
pdata	SEGMENT
$pdata$?__empty_global_delete@@YAXPEAX_K@Z DD imagerel $LN3
	DD	imagerel $LN3+46
	DD	imagerel $unwind$?__empty_global_delete@@YAXPEAX_K@Z
pdata	ENDS
;	COMDAT pdata
pdata	SEGMENT
$pdata$?__empty_global_delete@@YAXPEAXW4align_val_t@std@@@Z DD imagerel $LN3
	DD	imagerel $LN3+46
	DD	imagerel $unwind$?__empty_global_delete@@YAXPEAXW4align_val_t@std@@@Z
pdata	ENDS
;	COMDAT pdata
pdata	SEGMENT
$pdata$?__empty_global_delete@@YAXPEAX_KW4align_val_t@std@@@Z DD imagerel $LN3
	DD	imagerel $LN3+51
	DD	imagerel $unwind$?__empty_global_delete@@YAXPEAX_KW4align_val_t@std@@@Z
pdata	ENDS
;	COMDAT pdata
pdata	SEGMENT
$pdata$??0ImVec2@@QEAA@MM@Z DD imagerel $LN3
	DD	imagerel $LN3+76
	DD	imagerel $unwind$??0ImVec2@@QEAA@MM@Z
pdata	ENDS
;	COMDAT pdata
pdata	SEGMENT
$pdata$??0ImVec4@@QEAA@XZ DD imagerel $LN3
	DD	imagerel $LN3+84
	DD	imagerel $unwind$??0ImVec4@@QEAA@XZ
pdata	ENDS
;	COMDAT pdata
pdata	SEGMENT
$pdata$??0ImColor@@QEAA@AEBUImVec4@@@Z DD imagerel $LN3
	DD	imagerel $LN3+91
	DD	imagerel $unwind$??0ImColor@@QEAA@AEBUImVec4@@@Z
pdata	ENDS
;	COMDAT pdata
pdata	SEGMENT
$pdata$??BImColor@@QEBAIXZ DD imagerel $LN3
	DD	imagerel $LN3+56
	DD	imagerel $unwind$??BImColor@@QEBAIXZ
pdata	ENDS
;	COMDAT pdata
pdata	SEGMENT
$pdata$??0?$ImVector@M@@QEAA@XZ DD imagerel $LN3
	DD	imagerel $LN3+90
	DD	imagerel $unwind$??0?$ImVector@M@@QEAA@XZ
pdata	ENDS
;	COMDAT pdata
pdata	SEGMENT
$pdata$??1?$ImVector@M@@QEAA@XZ DD imagerel $LN4
	DD	imagerel $LN4+72
	DD	imagerel $unwind$??1?$ImVector@M@@QEAA@XZ
pdata	ENDS
;	COMDAT pdata
pdata	SEGMENT
$pdata$??0Config@NodeEditor@ax@@QEAA@XZ DD imagerel $LN4
	DD	imagerel $LN4+259
	DD	imagerel $unwind$??0Config@NodeEditor@ax@@QEAA@XZ
pdata	ENDS
;	COMDAT pdata
pdata	SEGMENT
$pdata$??1Config@NodeEditor@ax@@QEAA@XZ DD imagerel $LN3
	DD	imagerel $LN3+48
	DD	imagerel $unwind$??1Config@NodeEditor@ax@@QEAA@XZ
pdata	ENDS
;	COMDAT pdata
pdata	SEGMENT
$pdata$?SetCurrentEditor@NodeEditor@ax@@YAXPEAUEditorContext@12@@Z DD imagerel $LN3
	DD	imagerel $LN3+55
	DD	imagerel $unwind$?SetCurrentEditor@NodeEditor@ax@@YAXPEAUEditorContext@12@@Z
pdata	ENDS
;	COMDAT pdata
pdata	SEGMENT
$pdata$?GetCurrentEditor@NodeEditor@ax@@YAPEAUEditorContext@12@XZ DD imagerel $LN3
	DD	imagerel $LN3+44
	DD	imagerel $unwind$?GetCurrentEditor@NodeEditor@ax@@YAPEAUEditorContext@12@XZ
pdata	ENDS
;	COMDAT pdata
pdata	SEGMENT
$pdata$?CreateEditor@NodeEditor@ax@@YAPEAUEditorContext@12@PEBUConfig@12@@Z DD imagerel $LN6
	DD	imagerel $LN6+128
	DD	imagerel $unwind$?CreateEditor@NodeEditor@ax@@YAPEAUEditorContext@12@PEBUConfig@12@@Z
pdata	ENDS
;	COMDAT pdata
pdata	SEGMENT
$pdata$?dtor$0@?0??CreateEditor@NodeEditor@ax@@YAPEAUEditorContext@12@PEBUConfig@12@@Z@4HA DD imagerel ?dtor$0@?0??CreateEditor@NodeEditor@ax@@YAPEAUEditorContext@12@PEBUConfig@12@@Z@4HA
	DD	imagerel ?dtor$0@?0??CreateEditor@NodeEditor@ax@@YAPEAUEditorContext@12@PEBUConfig@12@@Z@4HA+44
	DD	imagerel $unwind$?dtor$0@?0??CreateEditor@NodeEditor@ax@@YAPEAUEditorContext@12@PEBUConfig@12@@Z@4HA
pdata	ENDS
;	COMDAT pdata
pdata	SEGMENT
$pdata$?DestroyEditor@NodeEditor@ax@@YAXPEAUEditorContext@12@@Z DD imagerel $LN7
	DD	imagerel $LN7+166
	DD	imagerel $unwind$?DestroyEditor@NodeEditor@ax@@YAXPEAUEditorContext@12@@Z
pdata	ENDS
;	COMDAT pdata
pdata	SEGMENT
$pdata$?GetConfig@NodeEditor@ax@@YAAEBUConfig@12@PEAUEditorContext@12@@Z DD imagerel $LN8
	DD	imagerel $LN8+199
	DD	imagerel $unwind$?GetConfig@NodeEditor@ax@@YAAEBUConfig@12@PEAUEditorContext@12@@Z
pdata	ENDS
;	COMDAT pdata
pdata	SEGMENT
$pdata$?dtor$0@?0??GetConfig@NodeEditor@ax@@YAAEBUConfig@12@PEAUEditorContext@12@@Z@4HA DD imagerel ?dtor$0@?0??GetConfig@NodeEditor@ax@@YAAEBUConfig@12@PEAUEditorContext@12@@Z@4HA
	DD	imagerel ?dtor$0@?0??GetConfig@NodeEditor@ax@@YAAEBUConfig@12@PEAUEditorContext@12@@Z@4HA+39
	DD	imagerel $unwind$?dtor$0@?0??GetConfig@NodeEditor@ax@@YAAEBUConfig@12@PEAUEditorContext@12@@Z@4HA
pdata	ENDS
;	COMDAT pdata
pdata	SEGMENT
$pdata$?GetStyle@NodeEditor@ax@@YAAEAUStyle@12@XZ DD imagerel $LN3
	DD	imagerel $LN3+49
	DD	imagerel $unwind$?GetStyle@NodeEditor@ax@@YAAEAUStyle@12@XZ
pdata	ENDS
;	COMDAT pdata
pdata	SEGMENT
$pdata$?GetStyleColorName@NodeEditor@ax@@YAPEBDW4StyleColor@12@@Z DD imagerel $LN3
	DD	imagerel $LN3+77
	DD	imagerel $unwind$?GetStyleColorName@NodeEditor@ax@@YAPEBDW4StyleColor@12@@Z
pdata	ENDS
;	COMDAT pdata
pdata	SEGMENT
$pdata$?PushStyleColor@NodeEditor@ax@@YAXW4StyleColor@12@AEBUImVec4@@@Z DD imagerel $LN3
	DD	imagerel $LN3+89
	DD	imagerel $unwind$?PushStyleColor@NodeEditor@ax@@YAXW4StyleColor@12@AEBUImVec4@@@Z
pdata	ENDS
;	COMDAT pdata
pdata	SEGMENT
$pdata$?PopStyleColor@NodeEditor@ax@@YAXH@Z DD imagerel $LN3
	DD	imagerel $LN3+77
	DD	imagerel $unwind$?PopStyleColor@NodeEditor@ax@@YAXH@Z
pdata	ENDS
;	COMDAT pdata
pdata	SEGMENT
$pdata$?PushStyleVar@NodeEditor@ax@@YAXW4StyleVar@12@M@Z DD imagerel $LN3
	DD	imagerel $LN3+91
	DD	imagerel $unwind$?PushStyleVar@NodeEditor@ax@@YAXW4StyleVar@12@M@Z
pdata	ENDS
;	COMDAT pdata
pdata	SEGMENT
$pdata$?PushStyleVar@NodeEditor@ax@@YAXW4StyleVar@12@AEBUImVec2@@@Z DD imagerel $LN3
	DD	imagerel $LN3+89
	DD	imagerel $unwind$?PushStyleVar@NodeEditor@ax@@YAXW4StyleVar@12@AEBUImVec2@@@Z
pdata	ENDS
;	COMDAT pdata
pdata	SEGMENT
$pdata$?PushStyleVar@NodeEditor@ax@@YAXW4StyleVar@12@AEBUImVec4@@@Z DD imagerel $LN3
	DD	imagerel $LN3+89
	DD	imagerel $unwind$?PushStyleVar@NodeEditor@ax@@YAXW4StyleVar@12@AEBUImVec4@@@Z
pdata	ENDS
;	COMDAT pdata
pdata	SEGMENT
$pdata$?PopStyleVar@NodeEditor@ax@@YAXH@Z DD imagerel $LN3
	DD	imagerel $LN3+77
	DD	imagerel $unwind$?PopStyleVar@NodeEditor@ax@@YAXH@Z
pdata	ENDS
;	COMDAT pdata
pdata	SEGMENT
$pdata$?Begin@NodeEditor@ax@@YAXPEBDAEBUImVec2@@@Z DD imagerel $LN3
	DD	imagerel $LN3+72
	DD	imagerel $unwind$?Begin@NodeEditor@ax@@YAXPEBDAEBUImVec2@@@Z
pdata	ENDS
;	COMDAT pdata
pdata	SEGMENT
$pdata$?End@NodeEditor@ax@@YAXXZ DD imagerel $LN3
	DD	imagerel $LN3+49
	DD	imagerel $unwind$?End@NodeEditor@ax@@YAXXZ
pdata	ENDS
;	COMDAT pdata
pdata	SEGMENT
$pdata$?BeginNode@NodeEditor@ax@@YAXUNodeId@12@@Z DD imagerel $LN3
	DD	imagerel $LN3+79
	DD	imagerel $unwind$?BeginNode@NodeEditor@ax@@YAXUNodeId@12@@Z
pdata	ENDS
;	COMDAT pdata
pdata	SEGMENT
$pdata$?BeginPin@NodeEditor@ax@@YAXUPinId@12@W4PinKind@12@@Z DD imagerel $LN3
	DD	imagerel $LN3+90
	DD	imagerel $unwind$?BeginPin@NodeEditor@ax@@YAXUPinId@12@W4PinKind@12@@Z
pdata	ENDS
;	COMDAT pdata
pdata	SEGMENT
$pdata$?PinRect@NodeEditor@ax@@YAXAEBUImVec2@@0@Z DD imagerel $LN3
	DD	imagerel $LN3+91
	DD	imagerel $unwind$?PinRect@NodeEditor@ax@@YAXAEBUImVec2@@0@Z
pdata	ENDS
;	COMDAT pdata
pdata	SEGMENT
$pdata$?PinPivotRect@NodeEditor@ax@@YAXAEBUImVec2@@0@Z DD imagerel $LN3
	DD	imagerel $LN3+91
	DD	imagerel $unwind$?PinPivotRect@NodeEditor@ax@@YAXAEBUImVec2@@0@Z
pdata	ENDS
;	COMDAT pdata
pdata	SEGMENT
$pdata$?PinPivotSize@NodeEditor@ax@@YAXAEBUImVec2@@@Z DD imagerel $LN3
	DD	imagerel $LN3+79
	DD	imagerel $unwind$?PinPivotSize@NodeEditor@ax@@YAXAEBUImVec2@@@Z
pdata	ENDS
;	COMDAT pdata
pdata	SEGMENT
$pdata$?PinPivotScale@NodeEditor@ax@@YAXAEBUImVec2@@@Z DD imagerel $LN3
	DD	imagerel $LN3+79
	DD	imagerel $unwind$?PinPivotScale@NodeEditor@ax@@YAXAEBUImVec2@@@Z
pdata	ENDS
;	COMDAT pdata
pdata	SEGMENT
$pdata$?PinPivotAlignment@NodeEditor@ax@@YAXAEBUImVec2@@@Z DD imagerel $LN3
	DD	imagerel $LN3+79
	DD	imagerel $unwind$?PinPivotAlignment@NodeEditor@ax@@YAXAEBUImVec2@@@Z
pdata	ENDS
;	COMDAT pdata
pdata	SEGMENT
$pdata$?EndPin@NodeEditor@ax@@YAXXZ DD imagerel $LN3
	DD	imagerel $LN3+57
	DD	imagerel $unwind$?EndPin@NodeEditor@ax@@YAXXZ
pdata	ENDS
;	COMDAT pdata
pdata	SEGMENT
$pdata$?Group@NodeEditor@ax@@YAXAEBUImVec2@@@Z DD imagerel $LN3
	DD	imagerel $LN3+79
	DD	imagerel $unwind$?Group@NodeEditor@ax@@YAXAEBUImVec2@@@Z
pdata	ENDS
;	COMDAT pdata
pdata	SEGMENT
$pdata$?EndNode@NodeEditor@ax@@YAXXZ DD imagerel $LN3
	DD	imagerel $LN3+57
	DD	imagerel $unwind$?EndNode@NodeEditor@ax@@YAXXZ
pdata	ENDS
;	COMDAT pdata
pdata	SEGMENT
$pdata$?BeginGroupHint@NodeEditor@ax@@YA_NUNodeId@12@@Z DD imagerel $LN3
	DD	imagerel $LN3+79
	DD	imagerel $unwind$?BeginGroupHint@NodeEditor@ax@@YA_NUNodeId@12@@Z
pdata	ENDS
;	COMDAT pdata
pdata	SEGMENT
$pdata$?GetGroupMin@NodeEditor@ax@@YA?AUImVec2@@XZ DD imagerel $LN3
	DD	imagerel $LN3+86
	DD	imagerel $unwind$?GetGroupMin@NodeEditor@ax@@YA?AUImVec2@@XZ
pdata	ENDS
;	COMDAT pdata
pdata	SEGMENT
$pdata$?GetGroupMax@NodeEditor@ax@@YA?AUImVec2@@XZ DD imagerel $LN3
	DD	imagerel $LN3+86
	DD	imagerel $unwind$?GetGroupMax@NodeEditor@ax@@YA?AUImVec2@@XZ
pdata	ENDS
;	COMDAT pdata
pdata	SEGMENT
$pdata$?GetHintForegroundDrawList@NodeEditor@ax@@YAPEAUImDrawList@@XZ DD imagerel $LN3
	DD	imagerel $LN3+57
	DD	imagerel $unwind$?GetHintForegroundDrawList@NodeEditor@ax@@YAPEAUImDrawList@@XZ
pdata	ENDS
;	COMDAT pdata
pdata	SEGMENT
$pdata$?GetHintBackgroundDrawList@NodeEditor@ax@@YAPEAUImDrawList@@XZ DD imagerel $LN3
	DD	imagerel $LN3+57
	DD	imagerel $unwind$?GetHintBackgroundDrawList@NodeEditor@ax@@YAPEAUImDrawList@@XZ
pdata	ENDS
;	COMDAT pdata
pdata	SEGMENT
$pdata$?EndGroupHint@NodeEditor@ax@@YAXXZ DD imagerel $LN3
	DD	imagerel $LN3+57
	DD	imagerel $unwind$?EndGroupHint@NodeEditor@ax@@YAXXZ
pdata	ENDS
;	COMDAT pdata
pdata	SEGMENT
$pdata$?GetNodeBackgroundDrawList@NodeEditor@ax@@YAPEAUImDrawList@@UNodeId@12@@Z DD imagerel $LN5
	DD	imagerel $LN5+112
	DD	imagerel $unwind$?GetNodeBackgroundDrawList@NodeEditor@ax@@YAPEAUImDrawList@@UNodeId@12@@Z
pdata	ENDS
;	COMDAT pdata
pdata	SEGMENT
$pdata$?Link@NodeEditor@ax@@YA_NULinkId@12@UPinId@12@1AEBUImVec4@@M@Z DD imagerel $LN3
	DD	imagerel $LN3+146
	DD	imagerel $unwind$?Link@NodeEditor@ax@@YA_NULinkId@12@UPinId@12@1AEBUImVec4@@M@Z
pdata	ENDS
;	COMDAT pdata
pdata	SEGMENT
$pdata$?Flow@NodeEditor@ax@@YAXULinkId@12@W4FlowDirection@12@@Z DD imagerel $LN4
	DD	imagerel $LN4+98
	DD	imagerel $unwind$?Flow@NodeEditor@ax@@YAXULinkId@12@W4FlowDirection@12@@Z
pdata	ENDS
;	COMDAT pdata
pdata	SEGMENT
$pdata$?BeginCreate@NodeEditor@ax@@YA_NAEBUImVec4@@M@Z DD imagerel $LN5
	DD	imagerel $LN5+133
	DD	imagerel $unwind$?BeginCreate@NodeEditor@ax@@YA_NAEBUImVec4@@M@Z
pdata	ENDS
;	COMDAT pdata
pdata	SEGMENT
$pdata$?QueryNewLink@NodeEditor@ax@@YA_NPEAUPinId@12@0@Z DD imagerel $LN5
	DD	imagerel $LN5+118
	DD	imagerel $unwind$?QueryNewLink@NodeEditor@ax@@YA_NPEAUPinId@12@0@Z
pdata	ENDS
;	COMDAT pdata
pdata	SEGMENT
$pdata$?QueryNewLink@NodeEditor@ax@@YA_NPEAUPinId@12@0AEBUImVec4@@M@Z DD imagerel $LN6
	DD	imagerel $LN6+186
	DD	imagerel $unwind$?QueryNewLink@NodeEditor@ax@@YA_NPEAUPinId@12@0AEBUImVec4@@M@Z
pdata	ENDS
;	COMDAT pdata
pdata	SEGMENT
$pdata$?QueryNewNode@NodeEditor@ax@@YA_NPEAUPinId@12@@Z DD imagerel $LN5
	DD	imagerel $LN5+106
	DD	imagerel $unwind$?QueryNewNode@NodeEditor@ax@@YA_NPEAUPinId@12@@Z
pdata	ENDS
;	COMDAT pdata
pdata	SEGMENT
$pdata$?QueryNewNode@NodeEditor@ax@@YA_NPEAUPinId@12@AEBUImVec4@@M@Z DD imagerel $LN6
	DD	imagerel $LN6+174
	DD	imagerel $unwind$?QueryNewNode@NodeEditor@ax@@YA_NPEAUPinId@12@AEBUImVec4@@M@Z
pdata	ENDS
;	COMDAT pdata
pdata	SEGMENT
$pdata$?AcceptNewItem@NodeEditor@ax@@YA_NXZ DD imagerel $LN5
	DD	imagerel $LN5+95
	DD	imagerel $unwind$?AcceptNewItem@NodeEditor@ax@@YA_NXZ
pdata	ENDS
;	COMDAT pdata
pdata	SEGMENT
$pdata$?AcceptNewItem@NodeEditor@ax@@YA_NAEBUImVec4@@M@Z DD imagerel $LN6
	DD	imagerel $LN6+162
	DD	imagerel $unwind$?AcceptNewItem@NodeEditor@ax@@YA_NAEBUImVec4@@M@Z
pdata	ENDS
;	COMDAT pdata
pdata	SEGMENT
$pdata$?RejectNewItem@NodeEditor@ax@@YAXXZ DD imagerel $LN3
	DD	imagerel $LN3+62
	DD	imagerel $unwind$?RejectNewItem@NodeEditor@ax@@YAXXZ
pdata	ENDS
;	COMDAT pdata
pdata	SEGMENT
$pdata$?RejectNewItem@NodeEditor@ax@@YAXAEBUImVec4@@M@Z DD imagerel $LN4
	DD	imagerel $LN4+123
	DD	imagerel $unwind$?RejectNewItem@NodeEditor@ax@@YAXAEBUImVec4@@M@Z
pdata	ENDS
;	COMDAT pdata
pdata	SEGMENT
$pdata$?EndCreate@NodeEditor@ax@@YAXXZ DD imagerel $LN3
	DD	imagerel $LN3+62
	DD	imagerel $unwind$?EndCreate@NodeEditor@ax@@YAXXZ
pdata	ENDS
;	COMDAT pdata
pdata	SEGMENT
$pdata$?BeginDelete@NodeEditor@ax@@YA_NXZ DD imagerel $LN3
	DD	imagerel $LN3+62
	DD	imagerel $unwind$?BeginDelete@NodeEditor@ax@@YA_NXZ
pdata	ENDS
;	COMDAT pdata
pdata	SEGMENT
$pdata$?QueryDeletedLink@NodeEditor@ax@@YA_NPEAULinkId@12@PEAUPinId@12@1@Z DD imagerel $LN3
	DD	imagerel $LN3+97
	DD	imagerel $unwind$?QueryDeletedLink@NodeEditor@ax@@YA_NPEAULinkId@12@PEAUPinId@12@1@Z
pdata	ENDS
;	COMDAT pdata
pdata	SEGMENT
$pdata$?QueryDeletedNode@NodeEditor@ax@@YA_NPEAUNodeId@12@@Z DD imagerel $LN3
	DD	imagerel $LN3+73
	DD	imagerel $unwind$?QueryDeletedNode@NodeEditor@ax@@YA_NPEAUNodeId@12@@Z
pdata	ENDS
;	COMDAT pdata
pdata	SEGMENT
$pdata$?AcceptDeletedItem@NodeEditor@ax@@YA_N_N@Z DD imagerel $LN3
	DD	imagerel $LN3+72
	DD	imagerel $unwind$?AcceptDeletedItem@NodeEditor@ax@@YA_N_N@Z
pdata	ENDS
;	COMDAT pdata
pdata	SEGMENT
$pdata$?RejectDeletedItem@NodeEditor@ax@@YAXXZ DD imagerel $LN3
	DD	imagerel $LN3+62
	DD	imagerel $unwind$?RejectDeletedItem@NodeEditor@ax@@YAXXZ
pdata	ENDS
;	COMDAT pdata
pdata	SEGMENT
$pdata$?EndDelete@NodeEditor@ax@@YAXXZ DD imagerel $LN3
	DD	imagerel $LN3+62
	DD	imagerel $unwind$?EndDelete@NodeEditor@ax@@YAXXZ
pdata	ENDS
;	COMDAT pdata
pdata	SEGMENT
$pdata$?SetNodePosition@NodeEditor@ax@@YAXUNodeId@12@AEBUImVec2@@@Z DD imagerel $LN3
	DD	imagerel $LN3+72
	DD	imagerel $unwind$?SetNodePosition@NodeEditor@ax@@YAXUNodeId@12@AEBUImVec2@@@Z
pdata	ENDS
;	COMDAT pdata
pdata	SEGMENT
$pdata$?SetGroupSize@NodeEditor@ax@@YAXUNodeId@12@AEBUImVec2@@@Z DD imagerel $LN3
	DD	imagerel $LN3+72
	DD	imagerel $unwind$?SetGroupSize@NodeEditor@ax@@YAXUNodeId@12@AEBUImVec2@@@Z
pdata	ENDS
;	COMDAT pdata
pdata	SEGMENT
$pdata$?GetNodePosition@NodeEditor@ax@@YA?AUImVec2@@UNodeId@12@@Z DD imagerel $LN3
	DD	imagerel $LN3+79
	DD	imagerel $unwind$?GetNodePosition@NodeEditor@ax@@YA?AUImVec2@@UNodeId@12@@Z
pdata	ENDS
;	COMDAT pdata
pdata	SEGMENT
$pdata$?GetNodeSize@NodeEditor@ax@@YA?AUImVec2@@UNodeId@12@@Z DD imagerel $LN3
	DD	imagerel $LN3+79
	DD	imagerel $unwind$?GetNodeSize@NodeEditor@ax@@YA?AUImVec2@@UNodeId@12@@Z
pdata	ENDS
;	COMDAT pdata
pdata	SEGMENT
$pdata$?CenterNodeOnScreen@NodeEditor@ax@@YAXUNodeId@12@@Z DD imagerel $LN4
	DD	imagerel $LN4+80
	DD	imagerel $unwind$?CenterNodeOnScreen@NodeEditor@ax@@YAXUNodeId@12@@Z
pdata	ENDS
;	COMDAT pdata
pdata	SEGMENT
$pdata$?SetNodeZPosition@NodeEditor@ax@@YAXUNodeId@12@M@Z DD imagerel $LN3
	DD	imagerel $LN3+74
	DD	imagerel $unwind$?SetNodeZPosition@NodeEditor@ax@@YAXUNodeId@12@M@Z
pdata	ENDS
;	COMDAT pdata
pdata	SEGMENT
$pdata$?GetNodeZPosition@NodeEditor@ax@@YAMUNodeId@12@@Z DD imagerel $LN3
	DD	imagerel $LN3+60
	DD	imagerel $unwind$?GetNodeZPosition@NodeEditor@ax@@YAMUNodeId@12@@Z
pdata	ENDS
;	COMDAT pdata
pdata	SEGMENT
$pdata$?RestoreNodeState@NodeEditor@ax@@YAXUNodeId@12@@Z DD imagerel $LN4
	DD	imagerel $LN4+87
	DD	imagerel $unwind$?RestoreNodeState@NodeEditor@ax@@YAXUNodeId@12@@Z
pdata	ENDS
;	COMDAT pdata
pdata	SEGMENT
$pdata$?Suspend@NodeEditor@ax@@YAXXZ DD imagerel $LN3
	DD	imagerel $LN3+51
	DD	imagerel $unwind$?Suspend@NodeEditor@ax@@YAXXZ
pdata	ENDS
;	COMDAT pdata
pdata	SEGMENT
$pdata$?Resume@NodeEditor@ax@@YAXXZ DD imagerel $LN3
	DD	imagerel $LN3+51
	DD	imagerel $unwind$?Resume@NodeEditor@ax@@YAXXZ
pdata	ENDS
;	COMDAT pdata
pdata	SEGMENT
$pdata$?IsSuspended@NodeEditor@ax@@YA_NXZ DD imagerel $LN3
	DD	imagerel $LN3+49
	DD	imagerel $unwind$?IsSuspended@NodeEditor@ax@@YA_NXZ
pdata	ENDS
;	COMDAT pdata
pdata	SEGMENT
$pdata$?IsActive@NodeEditor@ax@@YA_NXZ DD imagerel $LN3
	DD	imagerel $LN3+49
	DD	imagerel $unwind$?IsActive@NodeEditor@ax@@YA_NXZ
pdata	ENDS
;	COMDAT pdata
pdata	SEGMENT
$pdata$?HasSelectionChanged@NodeEditor@ax@@YA_NXZ DD imagerel $LN3
	DD	imagerel $LN3+49
	DD	imagerel $unwind$?HasSelectionChanged@NodeEditor@ax@@YA_NXZ
pdata	ENDS
;	COMDAT pdata
pdata	SEGMENT
$pdata$?GetSelectedObjectCount@NodeEditor@ax@@YAHXZ DD imagerel $LN3
	DD	imagerel $LN3+57
	DD	imagerel $unwind$?GetSelectedObjectCount@NodeEditor@ax@@YAHXZ
pdata	ENDS
;	COMDAT pdata
pdata	SEGMENT
$pdata$?GetSelectedNodes@NodeEditor@ax@@YAHPEAUNodeId@12@H@Z DD imagerel $LN3
	DD	imagerel $LN3+105
	DD	imagerel $unwind$?GetSelectedNodes@NodeEditor@ax@@YAHPEAUNodeId@12@H@Z
pdata	ENDS
;	COMDAT pdata
pdata	SEGMENT
$pdata$?GetSelectedLinks@NodeEditor@ax@@YAHPEAULinkId@12@H@Z DD imagerel $LN3
	DD	imagerel $LN3+105
	DD	imagerel $unwind$?GetSelectedLinks@NodeEditor@ax@@YAHPEAULinkId@12@H@Z
pdata	ENDS
;	COMDAT pdata
pdata	SEGMENT
$pdata$?IsNodeSelected@NodeEditor@ax@@YA_NUNodeId@12@@Z DD imagerel $LN5
	DD	imagerel $LN5+93
	DD	imagerel $unwind$?IsNodeSelected@NodeEditor@ax@@YA_NUNodeId@12@@Z
pdata	ENDS
;	COMDAT pdata
pdata	SEGMENT
$pdata$?IsLinkSelected@NodeEditor@ax@@YA_NULinkId@12@@Z DD imagerel $LN5
	DD	imagerel $LN5+93
	DD	imagerel $unwind$?IsLinkSelected@NodeEditor@ax@@YA_NULinkId@12@@Z
pdata	ENDS
;	COMDAT pdata
pdata	SEGMENT
$pdata$?ClearSelection@NodeEditor@ax@@YAXXZ DD imagerel $LN3
	DD	imagerel $LN3+49
	DD	imagerel $unwind$?ClearSelection@NodeEditor@ax@@YAXXZ
pdata	ENDS
;	COMDAT pdata
pdata	SEGMENT
$pdata$?SelectNode@NodeEditor@ax@@YAXUNodeId@12@_N@Z DD imagerel $LN6
	DD	imagerel $LN6+120
	DD	imagerel $unwind$?SelectNode@NodeEditor@ax@@YAXUNodeId@12@_N@Z
pdata	ENDS
;	COMDAT pdata
pdata	SEGMENT
$pdata$?SelectLink@NodeEditor@ax@@YAXULinkId@12@_N@Z DD imagerel $LN6
	DD	imagerel $LN6+120
	DD	imagerel $unwind$?SelectLink@NodeEditor@ax@@YAXULinkId@12@_N@Z
pdata	ENDS
;	COMDAT pdata
pdata	SEGMENT
$pdata$?DeselectNode@NodeEditor@ax@@YAXUNodeId@12@@Z DD imagerel $LN4
	DD	imagerel $LN4+87
	DD	imagerel $unwind$?DeselectNode@NodeEditor@ax@@YAXUNodeId@12@@Z
pdata	ENDS
;	COMDAT pdata
pdata	SEGMENT
$pdata$?DeselectLink@NodeEditor@ax@@YAXULinkId@12@@Z DD imagerel $LN4
	DD	imagerel $LN4+87
	DD	imagerel $unwind$?DeselectLink@NodeEditor@ax@@YAXULinkId@12@@Z
pdata	ENDS
;	COMDAT pdata
pdata	SEGMENT
$pdata$?DeleteNode@NodeEditor@ax@@YA_NUNodeId@12@@Z DD imagerel $LN5
	DD	imagerel $LN5+112
	DD	imagerel $unwind$?DeleteNode@NodeEditor@ax@@YA_NUNodeId@12@@Z
pdata	ENDS
;	COMDAT pdata
pdata	SEGMENT
$pdata$?DeleteLink@NodeEditor@ax@@YA_NULinkId@12@@Z DD imagerel $LN5
	DD	imagerel $LN5+112
	DD	imagerel $unwind$?DeleteLink@NodeEditor@ax@@YA_NULinkId@12@@Z
pdata	ENDS
;	COMDAT pdata
pdata	SEGMENT
$pdata$?HasAnyLinks@NodeEditor@ax@@YA_NUNodeId@12@@Z DD imagerel $LN3
	DD	imagerel $LN3+60
	DD	imagerel $unwind$?HasAnyLinks@NodeEditor@ax@@YA_NUNodeId@12@@Z
pdata	ENDS
;	COMDAT pdata
pdata	SEGMENT
$pdata$?HasAnyLinks@NodeEditor@ax@@YA_NUPinId@12@@Z DD imagerel $LN3
	DD	imagerel $LN3+60
	DD	imagerel $unwind$?HasAnyLinks@NodeEditor@ax@@YA_NUPinId@12@@Z
pdata	ENDS
;	COMDAT pdata
pdata	SEGMENT
$pdata$?BreakLinks@NodeEditor@ax@@YAHUNodeId@12@@Z DD imagerel $LN3
	DD	imagerel $LN3+60
	DD	imagerel $unwind$?BreakLinks@NodeEditor@ax@@YAHUNodeId@12@@Z
pdata	ENDS
;	COMDAT pdata
pdata	SEGMENT
$pdata$?BreakLinks@NodeEditor@ax@@YAHUPinId@12@@Z DD imagerel $LN3
	DD	imagerel $LN3+60
	DD	imagerel $unwind$?BreakLinks@NodeEditor@ax@@YAHUPinId@12@@Z
pdata	ENDS
;	COMDAT pdata
pdata	SEGMENT
$pdata$?NavigateToContent@NodeEditor@ax@@YAXM@Z DD imagerel $LN3
	DD	imagerel $LN3+98
	DD	imagerel $unwind$?NavigateToContent@NodeEditor@ax@@YAXM@Z
pdata	ENDS
;	COMDAT pdata
pdata	SEGMENT
$pdata$?NavigateToSelection@NodeEditor@ax@@YAX_NM@Z DD imagerel $LN3
	DD	imagerel $LN3+107
	DD	imagerel $unwind$?NavigateToSelection@NodeEditor@ax@@YAX_NM@Z
pdata	ENDS
;	COMDAT pdata
pdata	SEGMENT
$pdata$?ShowNodeContextMenu@NodeEditor@ax@@YA_NPEAUNodeId@12@@Z DD imagerel $LN3
	DD	imagerel $LN3+79
	DD	imagerel $unwind$?ShowNodeContextMenu@NodeEditor@ax@@YA_NPEAUNodeId@12@@Z
pdata	ENDS
;	COMDAT pdata
pdata	SEGMENT
$pdata$?ShowPinContextMenu@NodeEditor@ax@@YA_NPEAUPinId@12@@Z DD imagerel $LN3
	DD	imagerel $LN3+79
	DD	imagerel $unwind$?ShowPinContextMenu@NodeEditor@ax@@YA_NPEAUPinId@12@@Z
pdata	ENDS
;	COMDAT pdata
pdata	SEGMENT
$pdata$?ShowLinkContextMenu@NodeEditor@ax@@YA_NPEAULinkId@12@@Z DD imagerel $LN3
	DD	imagerel $LN3+79
	DD	imagerel $unwind$?ShowLinkContextMenu@NodeEditor@ax@@YA_NPEAULinkId@12@@Z
pdata	ENDS
;	COMDAT pdata
pdata	SEGMENT
$pdata$?ShowBackgroundContextMenu@NodeEditor@ax@@YA_NXZ DD imagerel $LN3
	DD	imagerel $LN3+57
	DD	imagerel $unwind$?ShowBackgroundContextMenu@NodeEditor@ax@@YA_NXZ
pdata	ENDS
;	COMDAT pdata
pdata	SEGMENT
$pdata$?EnableShortcuts@NodeEditor@ax@@YAX_N@Z DD imagerel $LN3
	DD	imagerel $LN3+59
	DD	imagerel $unwind$?EnableShortcuts@NodeEditor@ax@@YAX_N@Z
pdata	ENDS
;	COMDAT pdata
pdata	SEGMENT
$pdata$?AreShortcutsEnabled@NodeEditor@ax@@YA_NXZ DD imagerel $LN3
	DD	imagerel $LN3+49
	DD	imagerel $unwind$?AreShortcutsEnabled@NodeEditor@ax@@YA_NXZ
pdata	ENDS
;	COMDAT pdata
pdata	SEGMENT
$pdata$?BeginShortcut@NodeEditor@ax@@YA_NXZ DD imagerel $LN3
	DD	imagerel $LN3+57
	DD	imagerel $unwind$?BeginShortcut@NodeEditor@ax@@YA_NXZ
pdata	ENDS
;	COMDAT pdata
pdata	SEGMENT
$pdata$?AcceptCut@NodeEditor@ax@@YA_NXZ DD imagerel $LN3
	DD	imagerel $LN3+57
	DD	imagerel $unwind$?AcceptCut@NodeEditor@ax@@YA_NXZ
pdata	ENDS
;	COMDAT pdata
pdata	SEGMENT
$pdata$?AcceptCopy@NodeEditor@ax@@YA_NXZ DD imagerel $LN3
	DD	imagerel $LN3+57
	DD	imagerel $unwind$?AcceptCopy@NodeEditor@ax@@YA_NXZ
pdata	ENDS
;	COMDAT pdata
pdata	SEGMENT
$pdata$?AcceptPaste@NodeEditor@ax@@YA_NXZ DD imagerel $LN3
	DD	imagerel $LN3+57
	DD	imagerel $unwind$?AcceptPaste@NodeEditor@ax@@YA_NXZ
pdata	ENDS
;	COMDAT pdata
pdata	SEGMENT
$pdata$?AcceptDuplicate@NodeEditor@ax@@YA_NXZ DD imagerel $LN3
	DD	imagerel $LN3+57
	DD	imagerel $unwind$?AcceptDuplicate@NodeEditor@ax@@YA_NXZ
pdata	ENDS
;	COMDAT pdata
pdata	SEGMENT
$pdata$?AcceptCreateNode@NodeEditor@ax@@YA_NXZ DD imagerel $LN3
	DD	imagerel $LN3+57
	DD	imagerel $unwind$?AcceptCreateNode@NodeEditor@ax@@YA_NXZ
pdata	ENDS
;	COMDAT pdata
pdata	SEGMENT
$pdata$?GetActionContextSize@NodeEditor@ax@@YAHXZ DD imagerel $LN3
	DD	imagerel $LN3+61
	DD	imagerel $unwind$?GetActionContextSize@NodeEditor@ax@@YAHXZ
pdata	ENDS
;	COMDAT pdata
pdata	SEGMENT
$pdata$?GetActionContextNodes@NodeEditor@ax@@YAHPEAUNodeId@12@H@Z DD imagerel $LN3
	DD	imagerel $LN3+105
	DD	imagerel $unwind$?GetActionContextNodes@NodeEditor@ax@@YAHPEAUNodeId@12@H@Z
pdata	ENDS
;	COMDAT pdata
pdata	SEGMENT
$pdata$?GetActionContextLinks@NodeEditor@ax@@YAHPEAULinkId@12@H@Z DD imagerel $LN3
	DD	imagerel $LN3+105
	DD	imagerel $unwind$?GetActionContextLinks@NodeEditor@ax@@YAHPEAULinkId@12@H@Z
pdata	ENDS
;	COMDAT pdata
pdata	SEGMENT
$pdata$?EndShortcut@NodeEditor@ax@@YAXXZ DD imagerel $LN3
	DD	imagerel $LN3+57
	DD	imagerel $unwind$?EndShortcut@NodeEditor@ax@@YAXXZ
pdata	ENDS
;	COMDAT pdata
pdata	SEGMENT
$pdata$?GetCurrentZoom@NodeEditor@ax@@YAMXZ DD imagerel $LN3
	DD	imagerel $LN3+54
	DD	imagerel $unwind$?GetCurrentZoom@NodeEditor@ax@@YAMXZ
pdata	ENDS
;	COMDAT pdata
pdata	SEGMENT
$pdata$?GetHoveredNode@NodeEditor@ax@@YA?AUNodeId@12@XZ DD imagerel $LN3
	DD	imagerel $LN3+67
	DD	imagerel $unwind$?GetHoveredNode@NodeEditor@ax@@YA?AUNodeId@12@XZ
pdata	ENDS
;	COMDAT pdata
pdata	SEGMENT
$pdata$?GetHoveredPin@NodeEditor@ax@@YA?AUPinId@12@XZ DD imagerel $LN3
	DD	imagerel $LN3+67
	DD	imagerel $unwind$?GetHoveredPin@NodeEditor@ax@@YA?AUPinId@12@XZ
pdata	ENDS
;	COMDAT pdata
pdata	SEGMENT
$pdata$?GetHoveredLink@NodeEditor@ax@@YA?AULinkId@12@XZ DD imagerel $LN3
	DD	imagerel $LN3+67
	DD	imagerel $unwind$?GetHoveredLink@NodeEditor@ax@@YA?AULinkId@12@XZ
pdata	ENDS
;	COMDAT pdata
pdata	SEGMENT
$pdata$?GetDoubleClickedNode@NodeEditor@ax@@YA?AUNodeId@12@XZ DD imagerel $LN3
	DD	imagerel $LN3+67
	DD	imagerel $unwind$?GetDoubleClickedNode@NodeEditor@ax@@YA?AUNodeId@12@XZ
pdata	ENDS
;	COMDAT pdata
pdata	SEGMENT
$pdata$?GetDoubleClickedPin@NodeEditor@ax@@YA?AUPinId@12@XZ DD imagerel $LN3
	DD	imagerel $LN3+67
	DD	imagerel $unwind$?GetDoubleClickedPin@NodeEditor@ax@@YA?AUPinId@12@XZ
pdata	ENDS
;	COMDAT pdata
pdata	SEGMENT
$pdata$?GetDoubleClickedLink@NodeEditor@ax@@YA?AULinkId@12@XZ DD imagerel $LN3
	DD	imagerel $LN3+67
	DD	imagerel $unwind$?GetDoubleClickedLink@NodeEditor@ax@@YA?AULinkId@12@XZ
pdata	ENDS
;	COMDAT pdata
pdata	SEGMENT
$pdata$?IsBackgroundClicked@NodeEditor@ax@@YA_NXZ DD imagerel $LN3
	DD	imagerel $LN3+49
	DD	imagerel $unwind$?IsBackgroundClicked@NodeEditor@ax@@YA_NXZ
pdata	ENDS
;	COMDAT pdata
pdata	SEGMENT
$pdata$?IsBackgroundDoubleClicked@NodeEditor@ax@@YA_NXZ DD imagerel $LN3
	DD	imagerel $LN3+49
	DD	imagerel $unwind$?IsBackgroundDoubleClicked@NodeEditor@ax@@YA_NXZ
pdata	ENDS
;	COMDAT pdata
pdata	SEGMENT
$pdata$?GetBackgroundClickButtonIndex@NodeEditor@ax@@YAHXZ DD imagerel $LN3
	DD	imagerel $LN3+49
	DD	imagerel $unwind$?GetBackgroundClickButtonIndex@NodeEditor@ax@@YAHXZ
pdata	ENDS
;	COMDAT pdata
pdata	SEGMENT
$pdata$?GetBackgroundDoubleClickButtonIndex@NodeEditor@ax@@YAHXZ DD imagerel $LN3
	DD	imagerel $LN3+49
	DD	imagerel $unwind$?GetBackgroundDoubleClickButtonIndex@NodeEditor@ax@@YAHXZ
pdata	ENDS
;	COMDAT pdata
pdata	SEGMENT
$pdata$?GetLinkPins@NodeEditor@ax@@YA_NULinkId@12@PEAUPinId@12@1@Z DD imagerel $LN6
	DD	imagerel $LN6+151
	DD	imagerel $unwind$?GetLinkPins@NodeEditor@ax@@YA_NULinkId@12@PEAUPinId@12@1@Z
pdata	ENDS
;	COMDAT pdata
pdata	SEGMENT
$pdata$?PinHadAnyLinks@NodeEditor@ax@@YA_NUPinId@12@@Z DD imagerel $LN3
	DD	imagerel $LN3+60
	DD	imagerel $unwind$?PinHadAnyLinks@NodeEditor@ax@@YA_NUPinId@12@@Z
pdata	ENDS
;	COMDAT pdata
pdata	SEGMENT
$pdata$?GetScreenSize@NodeEditor@ax@@YA?AUImVec2@@XZ DD imagerel $LN3
	DD	imagerel $LN3+86
	DD	imagerel $unwind$?GetScreenSize@NodeEditor@ax@@YA?AUImVec2@@XZ
pdata	ENDS
;	COMDAT pdata
pdata	SEGMENT
$pdata$?ScreenToCanvas@NodeEditor@ax@@YA?AUImVec2@@AEBU3@@Z DD imagerel $LN3
	DD	imagerel $LN3+79
	DD	imagerel $unwind$?ScreenToCanvas@NodeEditor@ax@@YA?AUImVec2@@AEBU3@@Z
pdata	ENDS
;	COMDAT pdata
pdata	SEGMENT
$pdata$?CanvasToScreen@NodeEditor@ax@@YA?AUImVec2@@AEBU3@@Z DD imagerel $LN3
	DD	imagerel $LN3+79
	DD	imagerel $unwind$?CanvasToScreen@NodeEditor@ax@@YA?AUImVec2@@AEBU3@@Z
pdata	ENDS
;	COMDAT pdata
pdata	SEGMENT
$pdata$?GetNodeCount@NodeEditor@ax@@YAHXZ DD imagerel $LN3
	DD	imagerel $LN3+49
	DD	imagerel $unwind$?GetNodeCount@NodeEditor@ax@@YAHXZ
pdata	ENDS
;	COMDAT pdata
pdata	SEGMENT
$pdata$?GetOrderedNodeIds@NodeEditor@ax@@YAHPEAUNodeId@12@H@Z DD imagerel $LN3
	DD	imagerel $LN3+71
	DD	imagerel $unwind$?GetOrderedNodeIds@NodeEditor@ax@@YAHPEAUNodeId@12@H@Z
pdata	ENDS
;	COMDAT pdata
pdata	SEGMENT
$pdata$??0?$SafeType@_KUNodeId@NodeEditor@ax@@@Details@NodeEditor@ax@@QEAA@_K@Z DD imagerel $LN3
	DD	imagerel $LN3+78
	DD	imagerel $unwind$??0?$SafeType@_KUNodeId@NodeEditor@ax@@@Details@NodeEditor@ax@@QEAA@_K@Z
pdata	ENDS
;	COMDAT pdata
pdata	SEGMENT
$pdata$??0?$SafePointerType@UNodeId@NodeEditor@ax@@@Details@NodeEditor@ax@@QEAA@_K@Z DD imagerel $LN3
	DD	imagerel $LN3+60
	DD	imagerel $unwind$??0?$SafePointerType@UNodeId@NodeEditor@ax@@@Details@NodeEditor@ax@@QEAA@_K@Z
pdata	ENDS
;	COMDAT pdata
pdata	SEGMENT
$pdata$??0?$SafeType@_KULinkId@NodeEditor@ax@@@Details@NodeEditor@ax@@QEAA@_K@Z DD imagerel $LN3
	DD	imagerel $LN3+78
	DD	imagerel $unwind$??0?$SafeType@_KULinkId@NodeEditor@ax@@@Details@NodeEditor@ax@@QEAA@_K@Z
pdata	ENDS
;	COMDAT pdata
pdata	SEGMENT
$pdata$??0?$SafePointerType@ULinkId@NodeEditor@ax@@@Details@NodeEditor@ax@@QEAA@_K@Z DD imagerel $LN3
	DD	imagerel $LN3+60
	DD	imagerel $unwind$??0?$SafePointerType@ULinkId@NodeEditor@ax@@@Details@NodeEditor@ax@@QEAA@_K@Z
pdata	ENDS
;	COMDAT pdata
pdata	SEGMENT
$pdata$??0ImRect@@QEAA@XZ DD imagerel $LN3
	DD	imagerel $LN3+87
	DD	imagerel $unwind$??0ImRect@@QEAA@XZ
pdata	ENDS
;	COMDAT pdata
pdata	SEGMENT
$pdata$??0ImRect@@QEAA@MMMM@Z DD imagerel $LN3
	DD	imagerel $LN3+116
	DD	imagerel $unwind$??0ImRect@@QEAA@MMMM@Z
pdata	ENDS
;	COMDAT pdata
pdata	SEGMENT
$pdata$?GetSize@ImRect@@QEBA?AUImVec2@@XZ DD imagerel $LN3
	DD	imagerel $LN3+89
	DD	imagerel $unwind$?GetSize@ImRect@@QEBA?AUImVec2@@XZ
pdata	ENDS
;	COMDAT pdata
pdata	SEGMENT
$pdata$?Add@ImRect@@QEAAXAEBU1@@Z DD imagerel $LN7
	DD	imagerel $LN7+182
	DD	imagerel $unwind$?Add@ImRect@@QEAAXAEBU1@@Z
pdata	ENDS
;	COMDAT pdata
pdata	SEGMENT
$pdata$?ImRect_IsEmpty@@YA_NAEBUImRect@@@Z DD imagerel $LN5
	DD	imagerel $LN5+119
	DD	imagerel $unwind$?ImRect_IsEmpty@@YA_NAEBUImRect@@@Z
pdata	ENDS
;	COMDAT pdata
pdata	SEGMENT
$pdata$??0_Iterator_base12@std@@QEAA@XZ DD imagerel $LN3
	DD	imagerel $LN3+77
	DD	imagerel $unwind$??0_Iterator_base12@std@@QEAA@XZ
pdata	ENDS
;	COMDAT pdata
pdata	SEGMENT
$pdata$??1_Iterator_base12@std@@QEAA@XZ DD imagerel $LN3
	DD	imagerel $LN3+53
	DD	imagerel $unwind$??1_Iterator_base12@std@@QEAA@XZ
pdata	ENDS
;	COMDAT pdata
pdata	SEGMENT
$pdata$?_Adopt@_Iterator_base12@std@@QEAAXPEBU_Container_base12@2@@Z DD imagerel $LN3
	DD	imagerel $LN3+65
	DD	imagerel $unwind$?_Adopt@_Iterator_base12@std@@QEAAXPEBU_Container_base12@2@@Z
pdata	ENDS
;	COMDAT pdata
pdata	SEGMENT
$pdata$?_Getcont@_Iterator_base12@std@@QEBAPEBU_Container_base12@2@XZ DD imagerel $LN5
	DD	imagerel $LN5+94
	DD	imagerel $unwind$?_Getcont@_Iterator_base12@std@@QEBAPEBU_Container_base12@2@XZ
pdata	ENDS
;	COMDAT pdata
pdata	SEGMENT
$pdata$?_Adopt_unlocked@_Iterator_base12@std@@AEAAXPEBU_Container_base12@2@@Z DD imagerel $LN6
	DD	imagerel $LN6+173
	DD	imagerel $unwind$?_Adopt_unlocked@_Iterator_base12@std@@AEAAXPEBU_Container_base12@2@@Z
pdata	ENDS
;	COMDAT pdata
pdata	SEGMENT
$pdata$?_Adopt_locked@_Iterator_base12@std@@AEAAXPEBU_Container_base12@2@@Z DD imagerel $LN3
	DD	imagerel $LN3+163
	DD	imagerel $unwind$?_Adopt_locked@_Iterator_base12@std@@AEAAXPEBU_Container_base12@2@@Z
pdata	ENDS
;	COMDAT pdata
pdata	SEGMENT
$pdata$?_Orphan_me_unlocked_v3@_Iterator_base12@std@@AEAAXXZ DD imagerel $LN15
	DD	imagerel $LN15+285
	DD	imagerel $unwind$?_Orphan_me_unlocked_v3@_Iterator_base12@std@@AEAAXXZ
pdata	ENDS
;	COMDAT pdata
pdata	SEGMENT
$pdata$?_Orphan_me_locked_v3@_Iterator_base12@std@@AEAAXXZ DD imagerel $LN3
	DD	imagerel $LN3+151
	DD	imagerel $unwind$?_Orphan_me_locked_v3@_Iterator_base12@std@@AEAAXXZ
pdata	ENDS
;	COMDAT pdata
pdata	SEGMENT
$pdata$?Rect@Canvas@ImGuiEx@@QEBAAEBUImRect@@XZ DD imagerel $LN3
	DD	imagerel $LN3+52
	DD	imagerel $unwind$?Rect@Canvas@ImGuiEx@@QEBAAEBUImRect@@XZ
pdata	ENDS
;	COMDAT pdata
pdata	SEGMENT
$pdata$?View@Canvas@ImGuiEx@@QEBAAEBUCanvasView@2@XZ DD imagerel $LN3
	DD	imagerel $LN3+52
	DD	imagerel $unwind$?View@Canvas@ImGuiEx@@QEBAAEBUCanvasView@2@XZ
pdata	ENDS
;	COMDAT pdata
pdata	SEGMENT
$pdata$??0?$SafeType@_KUObjectId@Detail@NodeEditor@ax@@@Details@NodeEditor@ax@@QEAA@_K@Z DD imagerel $LN3
	DD	imagerel $LN3+78
	DD	imagerel $unwind$??0?$SafeType@_KUObjectId@Detail@NodeEditor@ax@@@Details@NodeEditor@ax@@QEAA@_K@Z
pdata	ENDS
;	COMDAT pdata
pdata	SEGMENT
$pdata$?Get@?$SafeType@_KUObjectId@Detail@NodeEditor@ax@@@Details@NodeEditor@ax@@QEBA_KXZ DD imagerel $LN3
	DD	imagerel $LN3+51
	DD	imagerel $unwind$?Get@?$SafeType@_KUObjectId@Detail@NodeEditor@ax@@@Details@NodeEditor@ax@@QEBA_KXZ
pdata	ENDS
;	COMDAT pdata
pdata	SEGMENT
$pdata$??0?$SafePointerType@UObjectId@Detail@NodeEditor@ax@@@Details@NodeEditor@ax@@QEAA@_K@Z DD imagerel $LN3
	DD	imagerel $LN3+60
	DD	imagerel $unwind$??0?$SafePointerType@UObjectId@Detail@NodeEditor@ax@@@Details@NodeEditor@ax@@QEAA@_K@Z
pdata	ENDS
;	COMDAT pdata
pdata	SEGMENT
$pdata$??0ObjectId@Detail@NodeEditor@ax@@QEAA@_K@Z DD imagerel $LN3
	DD	imagerel $LN3+60
	DD	imagerel $unwind$??0ObjectId@Detail@NodeEditor@ax@@QEAA@_K@Z
pdata	ENDS
;	COMDAT pdata
pdata	SEGMENT
$pdata$??$AsPointer@X@?$SafePointerType@UObjectId@Detail@NodeEditor@ax@@@Details@NodeEditor@ax@@QEBAPEAXXZ DD imagerel $LN3
	DD	imagerel $LN3+53
	DD	imagerel $unwind$??$AsPointer@X@?$SafePointerType@UObjectId@Detail@NodeEditor@ax@@@Details@NodeEditor@ax@@QEBAPEAXXZ
pdata	ENDS
;	COMDAT pdata
pdata	SEGMENT
$pdata$??$?0X@NodeId@NodeEditor@ax@@QEAA@PEAX@Z DD imagerel $LN3
	DD	imagerel $LN3+72
	DD	imagerel $unwind$??$?0X@NodeId@NodeEditor@ax@@QEAA@PEAX@Z
pdata	ENDS
;	COMDAT pdata
pdata	SEGMENT
$pdata$??$?0X@?$SafePointerType@UNodeId@NodeEditor@ax@@@Details@NodeEditor@ax@@QEAA@PEAX@Z DD imagerel $LN3
	DD	imagerel $LN3+72
	DD	imagerel $unwind$??$?0X@?$SafePointerType@UNodeId@NodeEditor@ax@@@Details@NodeEditor@ax@@QEAA@PEAX@Z
pdata	ENDS
;	COMDAT pdata
pdata	SEGMENT
$pdata$??$?0X@LinkId@NodeEditor@ax@@QEAA@PEAX@Z DD imagerel $LN3
	DD	imagerel $LN3+72
	DD	imagerel $unwind$??$?0X@LinkId@NodeEditor@ax@@QEAA@PEAX@Z
pdata	ENDS
;	COMDAT pdata
pdata	SEGMENT
$pdata$??$?0X@?$SafePointerType@ULinkId@NodeEditor@ax@@@Details@NodeEditor@ax@@QEAA@PEAX@Z DD imagerel $LN3
	DD	imagerel $LN3+72
	DD	imagerel $unwind$??$?0X@?$SafePointerType@ULinkId@NodeEditor@ax@@@Details@NodeEditor@ax@@QEAA@PEAX@Z
pdata	ENDS
;	COMDAT pdata
pdata	SEGMENT
$pdata$?CenterOnScreenInNextFrame@Node@Detail@NodeEditor@ax@@QEAAXXZ DD imagerel $LN3
	DD	imagerel $LN3+55
	DD	imagerel $unwind$?CenterOnScreenInNextFrame@Node@Detail@NodeEditor@ax@@QEAAXXZ
pdata	ENDS
;	COMDAT pdata
pdata	SEGMENT
$pdata$?GetBounds@Node@Detail@NodeEditor@ax@@UEBA?AUImRect@@XZ DD imagerel $LN3
	DD	imagerel $LN3+80
	DD	imagerel $unwind$?GetBounds@Node@Detail@NodeEditor@ax@@UEBA?AUImRect@@XZ
pdata	ENDS
;	COMDAT pdata
pdata	SEGMENT
$pdata$?begin@?$vector@PEAUObject@Detail@NodeEditor@ax@@V?$allocator@PEAUObject@Detail@NodeEditor@ax@@@std@@@std@@QEBA?AV?$_Vector_const_iterator@V?$_Vector_val@U?$_Simple_types@PEAUObject@Detail@NodeEditor@ax@@@std@@@std@@@2@XZ DD imagerel $LN3
	DD	imagerel $LN3+121
	DD	imagerel $unwind$?begin@?$vector@PEAUObject@Detail@NodeEditor@ax@@V?$allocator@PEAUObject@Detail@NodeEditor@ax@@@std@@@std@@QEBA?AV?$_Vector_const_iterator@V?$_Vector_val@U?$_Simple_types@PEAUObject@Detail@NodeEditor@ax@@@std@@@std@@@2@XZ
pdata	ENDS
;	COMDAT pdata
pdata	SEGMENT
$pdata$?end@?$vector@PEAUObject@Detail@NodeEditor@ax@@V?$allocator@PEAUObject@Detail@NodeEditor@ax@@@std@@@std@@QEBA?AV?$_Vector_const_iterator@V?$_Vector_val@U?$_Simple_types@PEAUObject@Detail@NodeEditor@ax@@@std@@@std@@@2@XZ DD imagerel $LN3
	DD	imagerel $LN3+121
	DD	imagerel $unwind$?end@?$vector@PEAUObject@Detail@NodeEditor@ax@@V?$allocator@PEAUObject@Detail@NodeEditor@ax@@@std@@@std@@QEBA?AV?$_Vector_const_iterator@V?$_Vector_val@U?$_Simple_types@PEAUObject@Detail@NodeEditor@ax@@@std@@@std@@@2@XZ
pdata	ENDS
;	COMDAT pdata
pdata	SEGMENT
$pdata$?_Unchecked_begin@?$vector@PEAUObject@Detail@NodeEditor@ax@@V?$allocator@PEAUObject@Detail@NodeEditor@ax@@@std@@@std@@QEBAPEBQEAUObject@Detail@NodeEditor@ax@@XZ DD imagerel $LN3
	DD	imagerel $LN3+52
	DD	imagerel $unwind$?_Unchecked_begin@?$vector@PEAUObject@Detail@NodeEditor@ax@@V?$allocator@PEAUObject@Detail@NodeEditor@ax@@@std@@@std@@QEBAPEBQEAUObject@Detail@NodeEditor@ax@@XZ
pdata	ENDS
;	COMDAT pdata
pdata	SEGMENT
$pdata$?_Unchecked_end@?$vector@PEAUObject@Detail@NodeEditor@ax@@V?$allocator@PEAUObject@Detail@NodeEditor@ax@@@std@@@std@@QEBAPEBQEAUObject@Detail@NodeEditor@ax@@XZ DD imagerel $LN3
	DD	imagerel $LN3+52
	DD	imagerel $unwind$?_Unchecked_end@?$vector@PEAUObject@Detail@NodeEditor@ax@@V?$allocator@PEAUObject@Detail@NodeEditor@ax@@@std@@@std@@QEBAPEBQEAUObject@Detail@NodeEditor@ax@@XZ
pdata	ENDS
;	COMDAT pdata
pdata	SEGMENT
$pdata$?size@?$vector@PEAUObject@Detail@NodeEditor@ax@@V?$allocator@PEAUObject@Detail@NodeEditor@ax@@@std@@@std@@QEBA_KXZ DD imagerel $LN3
	DD	imagerel $LN3+75
	DD	imagerel $unwind$?size@?$vector@PEAUObject@Detail@NodeEditor@ax@@V?$allocator@PEAUObject@Detail@NodeEditor@ax@@@std@@@std@@QEBA_KXZ
pdata	ENDS
;	COMDAT pdata
pdata	SEGMENT
$pdata$?GetConfig@EditorContext@Detail@NodeEditor@ax@@QEBAAEBUConfig@234@XZ DD imagerel $LN3
	DD	imagerel $LN3+48
	DD	imagerel $unwind$?GetConfig@EditorContext@Detail@NodeEditor@ax@@QEBAAEBUConfig@234@XZ
pdata	ENDS
;	COMDAT pdata
pdata	SEGMENT
$pdata$?GetStyle@EditorContext@Detail@NodeEditor@ax@@QEAAAEAUStyle@234@XZ DD imagerel $LN3
	DD	imagerel $LN3+52
	DD	imagerel $unwind$?GetStyle@EditorContext@Detail@NodeEditor@ax@@QEAAAEAUStyle@234@XZ
pdata	ENDS
;	COMDAT pdata
pdata	SEGMENT
$pdata$?GetNodeBuilder@EditorContext@Detail@NodeEditor@ax@@QEAAAEAUNodeBuilder@234@XZ DD imagerel $LN3
	DD	imagerel $LN3+54
	DD	imagerel $unwind$?GetNodeBuilder@EditorContext@Detail@NodeEditor@ax@@QEAAAEAUNodeBuilder@234@XZ
pdata	ENDS
;	COMDAT pdata
pdata	SEGMENT
$pdata$?GetHintBuilder@EditorContext@Detail@NodeEditor@ax@@QEAAAEAUHintBuilder@234@XZ DD imagerel $LN3
	DD	imagerel $LN3+54
	DD	imagerel $unwind$?GetHintBuilder@EditorContext@Detail@NodeEditor@ax@@QEAAAEAUHintBuilder@234@XZ
pdata	ENDS
;	COMDAT pdata
pdata	SEGMENT
$pdata$?GetItemCreator@EditorContext@Detail@NodeEditor@ax@@QEAAAEAUCreateItemAction@234@XZ DD imagerel $LN3
	DD	imagerel $LN3+54
	DD	imagerel $unwind$?GetItemCreator@EditorContext@Detail@NodeEditor@ax@@QEAAAEAUCreateItemAction@234@XZ
pdata	ENDS
;	COMDAT pdata
pdata	SEGMENT
$pdata$?GetItemDeleter@EditorContext@Detail@NodeEditor@ax@@QEAAAEAUDeleteItemsAction@234@XZ DD imagerel $LN3
	DD	imagerel $LN3+54
	DD	imagerel $unwind$?GetItemDeleter@EditorContext@Detail@NodeEditor@ax@@QEAAAEAUDeleteItemsAction@234@XZ
pdata	ENDS
;	COMDAT pdata
pdata	SEGMENT
$pdata$?GetContextMenu@EditorContext@Detail@NodeEditor@ax@@QEAAAEAUContextMenuAction@234@XZ DD imagerel $LN3
	DD	imagerel $LN3+54
	DD	imagerel $unwind$?GetContextMenu@EditorContext@Detail@NodeEditor@ax@@QEAAAEAUContextMenuAction@234@XZ
pdata	ENDS
;	COMDAT pdata
pdata	SEGMENT
$pdata$?GetShortcut@EditorContext@Detail@NodeEditor@ax@@QEAAAEAUShortcutAction@234@XZ DD imagerel $LN3
	DD	imagerel $LN3+54
	DD	imagerel $unwind$?GetShortcut@EditorContext@Detail@NodeEditor@ax@@QEAAAEAUShortcutAction@234@XZ
pdata	ENDS
;	COMDAT pdata
pdata	SEGMENT
$pdata$?GetView@EditorContext@Detail@NodeEditor@ax@@QEBAAEBUCanvasView@ImGuiEx@@XZ DD imagerel $LN3
	DD	imagerel $LN3+62
	DD	imagerel $unwind$?GetView@EditorContext@Detail@NodeEditor@ax@@QEBAAEBUCanvasView@ImGuiEx@@XZ
pdata	ENDS
;	COMDAT pdata
pdata	SEGMENT
$pdata$?GetRect@EditorContext@Detail@NodeEditor@ax@@QEBAAEBUImRect@@XZ DD imagerel $LN3
	DD	imagerel $LN3+62
	DD	imagerel $unwind$?GetRect@EditorContext@Detail@NodeEditor@ax@@QEBAAEBUImRect@@XZ
pdata	ENDS
;	COMDAT pdata
pdata	SEGMENT
$pdata$?ToCanvas@EditorContext@Detail@NodeEditor@ax@@QEBA?AUImVec2@@AEBU5@@Z DD imagerel $LN3
	DD	imagerel $LN3+104
	DD	imagerel $unwind$?ToCanvas@EditorContext@Detail@NodeEditor@ax@@QEBA?AUImVec2@@AEBU5@@Z
pdata	ENDS
;	COMDAT pdata
pdata	SEGMENT
$pdata$?ToScreen@EditorContext@Detail@NodeEditor@ax@@QEBA?AUImVec2@@AEBU5@@Z DD imagerel $LN3
	DD	imagerel $LN3+104
	DD	imagerel $unwind$?ToScreen@EditorContext@Detail@NodeEditor@ax@@QEBA?AUImVec2@@AEBU5@@Z
pdata	ENDS
;	COMDAT pdata
pdata	SEGMENT
$pdata$?GetSelectionBounds@EditorContext@Detail@NodeEditor@ax@@QEAA?AUImRect@@XZ DD imagerel $LN3
	DD	imagerel $LN3+88
	DD	imagerel $unwind$?GetSelectionBounds@EditorContext@Detail@NodeEditor@ax@@QEAA?AUImRect@@XZ
pdata	ENDS
;	COMDAT pdata
pdata	SEGMENT
$pdata$?GetContentBounds@EditorContext@Detail@NodeEditor@ax@@QEAA?AUImRect@@XZ DD imagerel $LN3
	DD	imagerel $LN3+88
	DD	imagerel $unwind$?GetContentBounds@EditorContext@Detail@NodeEditor@ax@@QEAA?AUImRect@@XZ
pdata	ENDS
;	COMDAT pdata
pdata	SEGMENT
$pdata$?NavigateTo@EditorContext@Detail@NodeEditor@ax@@QEAAXAEBUImRect@@_NM@Z DD imagerel $LN5
	DD	imagerel $LN5+158
	DD	imagerel $unwind$?NavigateTo@EditorContext@Detail@NodeEditor@ax@@QEAAXAEBUImRect@@_NM@Z
pdata	ENDS
;	COMDAT pdata
pdata	SEGMENT
$pdata$?GetHoveredNode@EditorContext@Detail@NodeEditor@ax@@QEBA?AUNodeId@34@XZ DD imagerel $LN3
	DD	imagerel $LN3+77
	DD	imagerel $unwind$?GetHoveredNode@EditorContext@Detail@NodeEditor@ax@@QEBA?AUNodeId@34@XZ
pdata	ENDS
;	COMDAT pdata
pdata	SEGMENT
$pdata$?GetHoveredPin@EditorContext@Detail@NodeEditor@ax@@QEBA?AUPinId@34@XZ DD imagerel $LN3
	DD	imagerel $LN3+77
	DD	imagerel $unwind$?GetHoveredPin@EditorContext@Detail@NodeEditor@ax@@QEBA?AUPinId@34@XZ
pdata	ENDS
;	COMDAT pdata
pdata	SEGMENT
$pdata$?GetHoveredLink@EditorContext@Detail@NodeEditor@ax@@QEBA?AULinkId@34@XZ DD imagerel $LN3
	DD	imagerel $LN3+77
	DD	imagerel $unwind$?GetHoveredLink@EditorContext@Detail@NodeEditor@ax@@QEBA?AULinkId@34@XZ
pdata	ENDS
;	COMDAT pdata
pdata	SEGMENT
$pdata$?GetDoubleClickedNode@EditorContext@Detail@NodeEditor@ax@@QEBA?AUNodeId@34@XZ DD imagerel $LN3
	DD	imagerel $LN3+77
	DD	imagerel $unwind$?GetDoubleClickedNode@EditorContext@Detail@NodeEditor@ax@@QEBA?AUNodeId@34@XZ
pdata	ENDS
;	COMDAT pdata
pdata	SEGMENT
$pdata$?GetDoubleClickedPin@EditorContext@Detail@NodeEditor@ax@@QEBA?AUPinId@34@XZ DD imagerel $LN3
	DD	imagerel $LN3+77
	DD	imagerel $unwind$?GetDoubleClickedPin@EditorContext@Detail@NodeEditor@ax@@QEBA?AUPinId@34@XZ
pdata	ENDS
;	COMDAT pdata
pdata	SEGMENT
$pdata$?GetDoubleClickedLink@EditorContext@Detail@NodeEditor@ax@@QEBA?AULinkId@34@XZ DD imagerel $LN3
	DD	imagerel $LN3+77
	DD	imagerel $unwind$?GetDoubleClickedLink@EditorContext@Detail@NodeEditor@ax@@QEBA?AULinkId@34@XZ
pdata	ENDS
;	COMDAT pdata
pdata	SEGMENT
$pdata$?IsBackgroundClicked@EditorContext@Detail@NodeEditor@ax@@QEBA_NXZ DD imagerel $LN5
	DD	imagerel $LN5+86
	DD	imagerel $unwind$?IsBackgroundClicked@EditorContext@Detail@NodeEditor@ax@@QEBA_NXZ
pdata	ENDS
;	COMDAT pdata
pdata	SEGMENT
$pdata$?IsBackgroundDoubleClicked@EditorContext@Detail@NodeEditor@ax@@QEBA_NXZ DD imagerel $LN5
	DD	imagerel $LN5+86
	DD	imagerel $unwind$?IsBackgroundDoubleClicked@EditorContext@Detail@NodeEditor@ax@@QEBA_NXZ
pdata	ENDS
;	COMDAT pdata
pdata	SEGMENT
$pdata$?GetBackgroundClickButtonIndex@EditorContext@Detail@NodeEditor@ax@@QEBAHXZ DD imagerel $LN3
	DD	imagerel $LN3+54
	DD	imagerel $unwind$?GetBackgroundClickButtonIndex@EditorContext@Detail@NodeEditor@ax@@QEBAHXZ
pdata	ENDS
;	COMDAT pdata
pdata	SEGMENT
$pdata$?GetBackgroundDoubleClickButtonIndex@EditorContext@Detail@NodeEditor@ax@@QEBAHXZ DD imagerel $LN3
	DD	imagerel $LN3+54
	DD	imagerel $unwind$?GetBackgroundDoubleClickButtonIndex@EditorContext@Detail@NodeEditor@ax@@QEBAHXZ
pdata	ENDS
;	COMDAT pdata
pdata	SEGMENT
$pdata$?_Unchecked_begin@?$vector@U?$ObjectWrapper@UNode@Detail@NodeEditor@ax@@UNodeId@34@@Detail@NodeEditor@ax@@V?$allocator@U?$ObjectWrapper@UNode@Detail@NodeEditor@ax@@UNodeId@34@@Detail@NodeEditor@ax@@@std@@@std@@QEBAPEBU?$ObjectWrapper@UNode@Detail@NodeEditor@ax@@UNodeId@34@@Detail@NodeEditor@ax@@XZ DD imagerel $LN3
	DD	imagerel $LN3+52
	DD	imagerel $unwind$?_Unchecked_begin@?$vector@U?$ObjectWrapper@UNode@Detail@NodeEditor@ax@@UNodeId@34@@Detail@NodeEditor@ax@@V?$allocator@U?$ObjectWrapper@UNode@Detail@NodeEditor@ax@@UNodeId@34@@Detail@NodeEditor@ax@@@std@@@std@@QEBAPEBU?$ObjectWrapper@UNode@Detail@NodeEditor@ax@@UNodeId@34@@Detail@NodeEditor@ax@@XZ
pdata	ENDS
;	COMDAT pdata
pdata	SEGMENT
$pdata$?_Unchecked_end@?$vector@U?$ObjectWrapper@UNode@Detail@NodeEditor@ax@@UNodeId@34@@Detail@NodeEditor@ax@@V?$allocator@U?$ObjectWrapper@UNode@Detail@NodeEditor@ax@@UNodeId@34@@Detail@NodeEditor@ax@@@std@@@std@@QEBAPEBU?$ObjectWrapper@UNode@Detail@NodeEditor@ax@@UNodeId@34@@Detail@NodeEditor@ax@@XZ DD imagerel $LN3
	DD	imagerel $LN3+52
	DD	imagerel $unwind$?_Unchecked_end@?$vector@U?$ObjectWrapper@UNode@Detail@NodeEditor@ax@@UNodeId@34@@Detail@NodeEditor@ax@@V?$allocator@U?$ObjectWrapper@UNode@Detail@NodeEditor@ax@@UNodeId@34@@Detail@NodeEditor@ax@@@std@@@std@@QEBAPEBU?$ObjectWrapper@UNode@Detail@NodeEditor@ax@@UNodeId@34@@Detail@NodeEditor@ax@@XZ
pdata	ENDS
;	COMDAT pdata
pdata	SEGMENT
$pdata$??_GEditorContext@Detail@NodeEditor@ax@@QEAAPEAXI@Z DD imagerel $LN4
	DD	imagerel $LN4+82
	DD	imagerel $unwind$??_GEditorContext@Detail@NodeEditor@ax@@QEAAPEAXI@Z
pdata	ENDS
;	COMDAT pdata
pdata	SEGMENT
$pdata$??$GetBounds@UObject@Detail@NodeEditor@ax@@@EditorContext@Detail@NodeEditor@ax@@QEAA?AUImRect@@AEBV?$vector@PEAUObject@Detail@NodeEditor@ax@@V?$allocator@PEAUObject@Detail@NodeEditor@ax@@@std@@@std@@@Z DD imagerel $LN8
	DD	imagerel $LN8+397
	DD	imagerel $unwind$??$GetBounds@UObject@Detail@NodeEditor@ax@@@EditorContext@Detail@NodeEditor@ax@@QEAA?AUImRect@@AEBV?$vector@PEAUObject@Detail@NodeEditor@ax@@V?$allocator@PEAUObject@Detail@NodeEditor@ax@@@std@@@std@@@Z
pdata	ENDS
;	COMDAT pdata
pdata	SEGMENT
$pdata$??$GetBounds@UNode@Detail@NodeEditor@ax@@@EditorContext@Detail@NodeEditor@ax@@QEAA?AUImRect@@AEBV?$vector@U?$ObjectWrapper@UNode@Detail@NodeEditor@ax@@UNodeId@34@@Detail@NodeEditor@ax@@V?$allocator@U?$ObjectWrapper@UNode@Detail@NodeEditor@ax@@UNodeId@34@@Detail@NodeEditor@ax@@@std@@@std@@@Z DD imagerel $LN8
	DD	imagerel $LN8+382
	DD	imagerel $unwind$??$GetBounds@UNode@Detail@NodeEditor@ax@@@EditorContext@Detail@NodeEditor@ax@@QEAA?AUImRect@@AEBV?$vector@U?$ObjectWrapper@UNode@Detail@NodeEditor@ax@@UNodeId@34@@Detail@NodeEditor@ax@@V?$allocator@U?$ObjectWrapper@UNode@Detail@NodeEditor@ax@@UNodeId@34@@Detail@NodeEditor@ax@@@std@@@std@@@Z
pdata	ENDS
;	COMDAT pdata
pdata	SEGMENT
$pdata$??__Fs_EmptyConfig@?8??GetConfig@NodeEditor@ax@@YAAEBUConfig@12@PEAUEditorContext@12@@Z@YAXXZ DD imagerel ??__Fs_EmptyConfig@?8??GetConfig@NodeEditor@ax@@YAAEBUConfig@12@PEAUEditorContext@12@@Z@YAXXZ
	DD	imagerel ??__Fs_EmptyConfig@?8??GetConfig@NodeEditor@ax@@YAAEBUConfig@12@PEAUEditorContext@12@@Z@YAXXZ+37
	DD	imagerel $unwind$??__Fs_EmptyConfig@?8??GetConfig@NodeEditor@ax@@YAAEBUConfig@12@PEAUEditorContext@12@@Z@YAXXZ
pdata	ENDS
;	COMDAT pdata
pdata	SEGMENT
$pdata$??$BuildIdList@$$CBV?$vector@PEAUObject@Detail@NodeEditor@ax@@V?$allocator@PEAUObject@Detail@NodeEditor@ax@@@std@@@std@@UNodeId@NodeEditor@ax@@V<lambda_66aca6479765757b8aee270ad1341d1d>@@@@YAHAEBV?$vector@PEAUObject@Detail@NodeEditor@ax@@V?$allocator@PEAUObject@Detail@NodeEditor@ax@@@std@@@std@@PEAUNodeId@NodeEditor@ax@@H$$QEAV<lambda_66aca6479765757b8aee270ad1341d1d>@@@Z DD imagerel ??$BuildIdList@$$CBV?$vector@PEAUObject@Detail@NodeEditor@ax@@V?$allocator@PEAUObject@Detail@NodeEditor@ax@@@std@@@std@@UNodeId@NodeEditor@ax@@V<lambda_66aca6479765757b8aee270ad1341d1d>@@@@YAHAEBV?$vector@PEAUObject@Detail@NodeEditor@ax@@V?$allocator@PEAUObject@Detail@NodeEditor@ax@@@std@@@std@@PEAUNodeId@NodeEditor@ax@@H$$QEAV<lambda_66aca6479765757b8aee270ad1341d1d>@@@Z
	DD	imagerel ??$BuildIdList@$$CBV?$vector@PEAUObject@Detail@NodeEditor@ax@@V?$allocator@PEAUObject@Detail@NodeEditor@ax@@@std@@@std@@UNodeId@NodeEditor@ax@@V<lambda_66aca6479765757b8aee270ad1341d1d>@@@@YAHAEBV?$vector@PEAUObject@Detail@NodeEditor@ax@@V?$allocator@PEAUObject@Detail@NodeEditor@ax@@@std@@@std@@PEAUNodeId@NodeEditor@ax@@H$$QEAV<lambda_66aca6479765757b8aee270ad1341d1d>@@@Z+482
	DD	imagerel $unwind$??$BuildIdList@$$CBV?$vector@PEAUObject@Detail@NodeEditor@ax@@V?$allocator@PEAUObject@Detail@NodeEditor@ax@@@std@@@std@@UNodeId@NodeEditor@ax@@V<lambda_66aca6479765757b8aee270ad1341d1d>@@@@YAHAEBV?$vector@PEAUObject@Detail@NodeEditor@ax@@V?$allocator@PEAUObject@Detail@NodeEditor@ax@@@std@@@std@@PEAUNodeId@NodeEditor@ax@@H$$QEAV<lambda_66aca6479765757b8aee270ad1341d1d>@@@Z
pdata	ENDS
;	COMDAT pdata
pdata	SEGMENT
$pdata$??$BuildIdList@$$CBV?$vector@PEAUObject@Detail@NodeEditor@ax@@V?$allocator@PEAUObject@Detail@NodeEditor@ax@@@std@@@std@@ULinkId@NodeEditor@ax@@V<lambda_3f736c6210dbcb1743fac1aff84da36f>@@@@YAHAEBV?$vector@PEAUObject@Detail@NodeEditor@ax@@V?$allocator@PEAUObject@Detail@NodeEditor@ax@@@std@@@std@@PEAULinkId@NodeEditor@ax@@H$$QEAV<lambda_3f736c6210dbcb1743fac1aff84da36f>@@@Z DD imagerel ??$BuildIdList@$$CBV?$vector@PEAUObject@Detail@NodeEditor@ax@@V?$allocator@PEAUObject@Detail@NodeEditor@ax@@@std@@@std@@ULinkId@NodeEditor@ax@@V<lambda_3f736c6210dbcb1743fac1aff84da36f>@@@@YAHAEBV?$vector@PEAUObject@Detail@NodeEditor@ax@@V?$allocator@PEAUObject@Detail@NodeEditor@ax@@@std@@@std@@PEAULinkId@NodeEditor@ax@@H$$QEAV<lambda_3f736c6210dbcb1743fac1aff84da36f>@@@Z
	DD	imagerel ??$BuildIdList@$$CBV?$vector@PEAUObject@Detail@NodeEditor@ax@@V?$allocator@PEAUObject@Detail@NodeEditor@ax@@@std@@@std@@ULinkId@NodeEditor@ax@@V<lambda_3f736c6210dbcb1743fac1aff84da36f>@@@@YAHAEBV?$vector@PEAUObject@Detail@NodeEditor@ax@@V?$allocator@PEAUObject@Detail@NodeEditor@ax@@@std@@@std@@PEAULinkId@NodeEditor@ax@@H$$QEAV<lambda_3f736c6210dbcb1743fac1aff84da36f>@@@Z+482
	DD	imagerel $unwind$??$BuildIdList@$$CBV?$vector@PEAUObject@Detail@NodeEditor@ax@@V?$allocator@PEAUObject@Detail@NodeEditor@ax@@@std@@@std@@ULinkId@NodeEditor@ax@@V<lambda_3f736c6210dbcb1743fac1aff84da36f>@@@@YAHAEBV?$vector@PEAUObject@Detail@NodeEditor@ax@@V?$allocator@PEAUObject@Detail@NodeEditor@ax@@@std@@@std@@PEAULinkId@NodeEditor@ax@@H$$QEAV<lambda_3f736c6210dbcb1743fac1aff84da36f>@@@Z
pdata	ENDS
;	COMDAT pdata
pdata	SEGMENT
$pdata$??$BuildIdList@$$CBV?$vector@PEAUObject@Detail@NodeEditor@ax@@V?$allocator@PEAUObject@Detail@NodeEditor@ax@@@std@@@std@@UNodeId@NodeEditor@ax@@V<lambda_23f1710fff72307b075c6286d6aaa715>@@@@YAHAEBV?$vector@PEAUObject@Detail@NodeEditor@ax@@V?$allocator@PEAUObject@Detail@NodeEditor@ax@@@std@@@std@@PEAUNodeId@NodeEditor@ax@@H$$QEAV<lambda_23f1710fff72307b075c6286d6aaa715>@@@Z DD imagerel ??$BuildIdList@$$CBV?$vector@PEAUObject@Detail@NodeEditor@ax@@V?$allocator@PEAUObject@Detail@NodeEditor@ax@@@std@@@std@@UNodeId@NodeEditor@ax@@V<lambda_23f1710fff72307b075c6286d6aaa715>@@@@YAHAEBV?$vector@PEAUObject@Detail@NodeEditor@ax@@V?$allocator@PEAUObject@Detail@NodeEditor@ax@@@std@@@std@@PEAUNodeId@NodeEditor@ax@@H$$QEAV<lambda_23f1710fff72307b075c6286d6aaa715>@@@Z
	DD	imagerel ??$BuildIdList@$$CBV?$vector@PEAUObject@Detail@NodeEditor@ax@@V?$allocator@PEAUObject@Detail@NodeEditor@ax@@@std@@@std@@UNodeId@NodeEditor@ax@@V<lambda_23f1710fff72307b075c6286d6aaa715>@@@@YAHAEBV?$vector@PEAUObject@Detail@NodeEditor@ax@@V?$allocator@PEAUObject@Detail@NodeEditor@ax@@@std@@@std@@PEAUNodeId@NodeEditor@ax@@H$$QEAV<lambda_23f1710fff72307b075c6286d6aaa715>@@@Z+482
	DD	imagerel $unwind$??$BuildIdList@$$CBV?$vector@PEAUObject@Detail@NodeEditor@ax@@V?$allocator@PEAUObject@Detail@NodeEditor@ax@@@std@@@std@@UNodeId@NodeEditor@ax@@V<lambda_23f1710fff72307b075c6286d6aaa715>@@@@YAHAEBV?$vector@PEAUObject@Detail@NodeEditor@ax@@V?$allocator@PEAUObject@Detail@NodeEditor@ax@@@std@@@std@@PEAUNodeId@NodeEditor@ax@@H$$QEAV<lambda_23f1710fff72307b075c6286d6aaa715>@@@Z
pdata	ENDS
;	COMDAT pdata
pdata	SEGMENT
$pdata$??$BuildIdList@$$CBV?$vector@PEAUObject@Detail@NodeEditor@ax@@V?$allocator@PEAUObject@Detail@NodeEditor@ax@@@std@@@std@@ULinkId@NodeEditor@ax@@V<lambda_aae6843b07c1c292b06cefe3dee011c3>@@@@YAHAEBV?$vector@PEAUObject@Detail@NodeEditor@ax@@V?$allocator@PEAUObject@Detail@NodeEditor@ax@@@std@@@std@@PEAULinkId@NodeEditor@ax@@H$$QEAV<lambda_aae6843b07c1c292b06cefe3dee011c3>@@@Z DD imagerel ??$BuildIdList@$$CBV?$vector@PEAUObject@Detail@NodeEditor@ax@@V?$allocator@PEAUObject@Detail@NodeEditor@ax@@@std@@@std@@ULinkId@NodeEditor@ax@@V<lambda_aae6843b07c1c292b06cefe3dee011c3>@@@@YAHAEBV?$vector@PEAUObject@Detail@NodeEditor@ax@@V?$allocator@PEAUObject@Detail@NodeEditor@ax@@@std@@@std@@PEAULinkId@NodeEditor@ax@@H$$QEAV<lambda_aae6843b07c1c292b06cefe3dee011c3>@@@Z
	DD	imagerel ??$BuildIdList@$$CBV?$vector@PEAUObject@Detail@NodeEditor@ax@@V?$allocator@PEAUObject@Detail@NodeEditor@ax@@@std@@@std@@ULinkId@NodeEditor@ax@@V<lambda_aae6843b07c1c292b06cefe3dee011c3>@@@@YAHAEBV?$vector@PEAUObject@Detail@NodeEditor@ax@@V?$allocator@PEAUObject@Detail@NodeEditor@ax@@@std@@@std@@PEAULinkId@NodeEditor@ax@@H$$QEAV<lambda_aae6843b07c1c292b06cefe3dee011c3>@@@Z+482
	DD	imagerel $unwind$??$BuildIdList@$$CBV?$vector@PEAUObject@Detail@NodeEditor@ax@@V?$allocator@PEAUObject@Detail@NodeEditor@ax@@@std@@@std@@ULinkId@NodeEditor@ax@@V<lambda_aae6843b07c1c292b06cefe3dee011c3>@@@@YAHAEBV?$vector@PEAUObject@Detail@NodeEditor@ax@@V?$allocator@PEAUObject@Detail@NodeEditor@ax@@@std@@@std@@PEAULinkId@NodeEditor@ax@@H$$QEAV<lambda_aae6843b07c1c292b06cefe3dee011c3>@@@Z
pdata	ENDS
;	COMDAT pdata
pdata	SEGMENT
$pdata$??__E?Invalid@?$SafePointerType@UObjectId@Detail@NodeEditor@ax@@@Details@NodeEditor@ax@@2UObjectId@Detail@34@B@@YAXXZ DD imagerel ??__E?Invalid@?$SafePointerType@UObjectId@Detail@NodeEditor@ax@@@Details@NodeEditor@ax@@2UObjectId@Detail@34@B@@YAXXZ
	DD	imagerel ??__E?Invalid@?$SafePointerType@UObjectId@Detail@NodeEditor@ax@@@Details@NodeEditor@ax@@2UObjectId@Detail@34@B@@YAXXZ+51
	DD	imagerel $unwind$??__E?Invalid@?$SafePointerType@UObjectId@Detail@NodeEditor@ax@@@Details@NodeEditor@ax@@2UObjectId@Detail@34@B@@YAXXZ
pdata	ENDS
;	COMDAT pdata
pdata	SEGMENT
$pdata$??$?RPEAUObject@Detail@NodeEditor@ax@@@<lambda_66aca6479765757b8aee270ad1341d1d>@@QEBA?A_PPEAUObject@Detail@NodeEditor@ax@@@Z DD imagerel ??$?RPEAUObject@Detail@NodeEditor@ax@@@<lambda_66aca6479765757b8aee270ad1341d1d>@@QEBA?A_PPEAUObject@Detail@NodeEditor@ax@@@Z
	DD	imagerel ??$?RPEAUObject@Detail@NodeEditor@ax@@@<lambda_66aca6479765757b8aee270ad1341d1d>@@QEBA?A_PPEAUObject@Detail@NodeEditor@ax@@@Z+100
	DD	imagerel $unwind$??$?RPEAUObject@Detail@NodeEditor@ax@@@<lambda_66aca6479765757b8aee270ad1341d1d>@@QEBA?A_PPEAUObject@Detail@NodeEditor@ax@@@Z
pdata	ENDS
;	COMDAT pdata
pdata	SEGMENT
$pdata$??0?$_Vector_const_iterator@V?$_Vector_val@U?$_Simple_types@PEAUObject@Detail@NodeEditor@ax@@@std@@@std@@@std@@QEAA@PEAPEAUObject@Detail@NodeEditor@ax@@PEBU_Container_base12@1@@Z DD imagerel $LN3
	DD	imagerel $LN3+107
	DD	imagerel $unwind$??0?$_Vector_const_iterator@V?$_Vector_val@U?$_Simple_types@PEAUObject@Detail@NodeEditor@ax@@@std@@@std@@@std@@QEAA@PEAPEAUObject@Detail@NodeEditor@ax@@PEBU_Container_base12@1@@Z
pdata	ENDS
;	COMDAT pdata
pdata	SEGMENT
$pdata$?_Verify_range@std@@YAXAEBV?$_Vector_const_iterator@V?$_Vector_val@U?$_Simple_types@PEAUObject@Detail@NodeEditor@ax@@@std@@@std@@@1@0@Z DD imagerel $LN21
	DD	imagerel $LN21+351
	DD	imagerel $unwind$?_Verify_range@std@@YAXAEBV?$_Vector_const_iterator@V?$_Vector_val@U?$_Simple_types@PEAUObject@Detail@NodeEditor@ax@@@std@@@std@@@1@0@Z
pdata	ENDS
;	COMDAT pdata
pdata	SEGMENT
$pdata$?_Unwrapped@?$_Vector_const_iterator@V?$_Vector_val@U?$_Simple_types@PEAUObject@Detail@NodeEditor@ax@@@std@@@std@@@std@@QEBAPEBQEAUObject@Detail@NodeEditor@ax@@XZ DD imagerel $LN3
	DD	imagerel $LN3+57
	DD	imagerel $unwind$?_Unwrapped@?$_Vector_const_iterator@V?$_Vector_val@U?$_Simple_types@PEAUObject@Detail@NodeEditor@ax@@@std@@@std@@@std@@QEBAPEBQEAUObject@Detail@NodeEditor@ax@@XZ
pdata	ENDS
;	COMDAT pdata
pdata	SEGMENT
$pdata$??1?$_Vector_const_iterator@V?$_Vector_val@U?$_Simple_types@PEAUObject@Detail@NodeEditor@ax@@@std@@@std@@@std@@QEAA@XZ DD imagerel $LN3
	DD	imagerel $LN3+41
	DD	imagerel $unwind$??1?$_Vector_const_iterator@V?$_Vector_val@U?$_Simple_types@PEAUObject@Detail@NodeEditor@ax@@@std@@@std@@@std@@QEAA@XZ
pdata	ENDS
;	COMDAT pdata
pdata	SEGMENT
$pdata$??$count_if@V?$_Vector_const_iterator@V?$_Vector_val@U?$_Simple_types@PEAUObject@Detail@NodeEditor@ax@@@std@@@std@@@std@@V<lambda_66aca6479765757b8aee270ad1341d1d>@@@std@@YA_JV?$_Vector_const_iterator@V?$_Vector_val@U?$_Simple_types@PEAUObject@Detail@NodeEditor@ax@@@std@@@std@@@0@0V<lambda_66aca6479765757b8aee270ad1341d1d>@@@Z DD imagerel ??$count_if@V?$_Vector_const_iterator@V?$_Vector_val@U?$_Simple_types@PEAUObject@Detail@NodeEditor@ax@@@std@@@std@@@std@@V<lambda_66aca6479765757b8aee270ad1341d1d>@@@std@@YA_JV?$_Vector_const_iterator@V?$_Vector_val@U?$_Simple_types@PEAUObject@Detail@NodeEditor@ax@@@std@@@std@@@0@0V<lambda_66aca6479765757b8aee270ad1341d1d>@@@Z
	DD	imagerel ??$count_if@V?$_Vector_const_iterator@V?$_Vector_val@U?$_Simple_types@PEAUObject@Detail@NodeEditor@ax@@@std@@@std@@@std@@V<lambda_66aca6479765757b8aee270ad1341d1d>@@@std@@YA_JV?$_Vector_const_iterator@V?$_Vector_val@U?$_Simple_types@PEAUObject@Detail@NodeEditor@ax@@@std@@@std@@@0@0V<lambda_66aca6479765757b8aee270ad1341d1d>@@@Z+216
	DD	imagerel $unwind$??$count_if@V?$_Vector_const_iterator@V?$_Vector_val@U?$_Simple_types@PEAUObject@Detail@NodeEditor@ax@@@std@@@std@@@std@@V<lambda_66aca6479765757b8aee270ad1341d1d>@@@std@@YA_JV?$_Vector_const_iterator@V?$_Vector_val@U?$_Simple_types@PEAUObject@Detail@NodeEditor@ax@@@std@@@std@@@0@0V<lambda_66aca6479765757b8aee270ad1341d1d>@@@Z
pdata	ENDS
;	COMDAT pdata
pdata	SEGMENT
$pdata$?dtor$0@?0???$count_if@V?$_Vector_const_iterator@V?$_Vector_val@U?$_Simple_types@PEAUObject@Detail@NodeEditor@ax@@@std@@@std@@@std@@V<lambda_66aca6479765757b8aee270ad1341d1d>@@@std@@YA_JV?$_Vector_const_iterator@V?$_Vector_val@U?$_Simple_types@PEAUObject@Detail@NodeEditor@ax@@@std@@@std@@@0@0V<lambda_66aca6479765757b8aee270ad1341d1d>@@@Z@4HA DD imagerel ?dtor$0@?0???$count_if@V?$_Vector_const_iterator@V?$_Vector_val@U?$_Simple_types@PEAUObject@Detail@NodeEditor@ax@@@std@@@std@@@std@@V<lambda_66aca6479765757b8aee270ad1341d1d>@@@std@@YA_JV?$_Vector_const_iterator@V?$_Vector_val@U?$_Simple_types@PEAUObject@Detail@NodeEditor@ax@@@std@@@std@@@0@0V<lambda_66aca6479765757b8aee270ad1341d1d>@@@Z@4HA
	DD	imagerel ?dtor$0@?0???$count_if@V?$_Vector_const_iterator@V?$_Vector_val@U?$_Simple_types@PEAUObject@Detail@NodeEditor@ax@@@std@@@std@@@std@@V<lambda_66aca6479765757b8aee270ad1341d1d>@@@std@@YA_JV?$_Vector_const_iterator@V?$_Vector_val@U?$_Simple_types@PEAUObject@Detail@NodeEditor@ax@@@std@@@std@@@0@0V<lambda_66aca6479765757b8aee270ad1341d1d>@@@Z@4HA+39
	DD	imagerel $unwind$?dtor$0@?0???$count_if@V?$_Vector_const_iterator@V?$_Vector_val@U?$_Simple_types@PEAUObject@Detail@NodeEditor@ax@@@std@@@std@@@std@@V<lambda_66aca6479765757b8aee270ad1341d1d>@@@std@@YA_JV?$_Vector_const_iterator@V?$_Vector_val@U?$_Simple_types@PEAUObject@Detail@NodeEditor@ax@@@std@@@std@@@0@0V<lambda_66aca6479765757b8aee270ad1341d1d>@@@Z@4HA
pdata	ENDS
;	COMDAT pdata
pdata	SEGMENT
$pdata$?dtor$1@?0???$count_if@V?$_Vector_const_iterator@V?$_Vector_val@U?$_Simple_types@PEAUObject@Detail@NodeEditor@ax@@@std@@@std@@@std@@V<lambda_66aca6479765757b8aee270ad1341d1d>@@@std@@YA_JV?$_Vector_const_iterator@V?$_Vector_val@U?$_Simple_types@PEAUObject@Detail@NodeEditor@ax@@@std@@@std@@@0@0V<lambda_66aca6479765757b8aee270ad1341d1d>@@@Z@4HA DD imagerel ?dtor$1@?0???$count_if@V?$_Vector_const_iterator@V?$_Vector_val@U?$_Simple_types@PEAUObject@Detail@NodeEditor@ax@@@std@@@std@@@std@@V<lambda_66aca6479765757b8aee270ad1341d1d>@@@std@@YA_JV?$_Vector_const_iterator@V?$_Vector_val@U?$_Simple_types@PEAUObject@Detail@NodeEditor@ax@@@std@@@std@@@0@0V<lambda_66aca6479765757b8aee270ad1341d1d>@@@Z@4HA
	DD	imagerel ?dtor$1@?0???$count_if@V?$_Vector_const_iterator@V?$_Vector_val@U?$_Simple_types@PEAUObject@Detail@NodeEditor@ax@@@std@@@std@@@std@@V<lambda_66aca6479765757b8aee270ad1341d1d>@@@std@@YA_JV?$_Vector_const_iterator@V?$_Vector_val@U?$_Simple_types@PEAUObject@Detail@NodeEditor@ax@@@std@@@std@@@0@0V<lambda_66aca6479765757b8aee270ad1341d1d>@@@Z@4HA+39
	DD	imagerel $unwind$?dtor$1@?0???$count_if@V?$_Vector_const_iterator@V?$_Vector_val@U?$_Simple_types@PEAUObject@Detail@NodeEditor@ax@@@std@@@std@@@std@@V<lambda_66aca6479765757b8aee270ad1341d1d>@@@std@@YA_JV?$_Vector_const_iterator@V?$_Vector_val@U?$_Simple_types@PEAUObject@Detail@NodeEditor@ax@@@std@@@std@@@0@0V<lambda_66aca6479765757b8aee270ad1341d1d>@@@Z@4HA
pdata	ENDS
;	COMDAT pdata
pdata	SEGMENT
$pdata$??$?RPEAUObject@Detail@NodeEditor@ax@@@<lambda_3f736c6210dbcb1743fac1aff84da36f>@@QEBA?A_PPEAUObject@Detail@NodeEditor@ax@@@Z DD imagerel ??$?RPEAUObject@Detail@NodeEditor@ax@@@<lambda_3f736c6210dbcb1743fac1aff84da36f>@@QEBA?A_PPEAUObject@Detail@NodeEditor@ax@@@Z
	DD	imagerel ??$?RPEAUObject@Detail@NodeEditor@ax@@@<lambda_3f736c6210dbcb1743fac1aff84da36f>@@QEBA?A_PPEAUObject@Detail@NodeEditor@ax@@@Z+100
	DD	imagerel $unwind$??$?RPEAUObject@Detail@NodeEditor@ax@@@<lambda_3f736c6210dbcb1743fac1aff84da36f>@@QEBA?A_PPEAUObject@Detail@NodeEditor@ax@@@Z
pdata	ENDS
;	COMDAT pdata
pdata	SEGMENT
$pdata$??$count_if@V?$_Vector_const_iterator@V?$_Vector_val@U?$_Simple_types@PEAUObject@Detail@NodeEditor@ax@@@std@@@std@@@std@@V<lambda_3f736c6210dbcb1743fac1aff84da36f>@@@std@@YA_JV?$_Vector_const_iterator@V?$_Vector_val@U?$_Simple_types@PEAUObject@Detail@NodeEditor@ax@@@std@@@std@@@0@0V<lambda_3f736c6210dbcb1743fac1aff84da36f>@@@Z DD imagerel ??$count_if@V?$_Vector_const_iterator@V?$_Vector_val@U?$_Simple_types@PEAUObject@Detail@NodeEditor@ax@@@std@@@std@@@std@@V<lambda_3f736c6210dbcb1743fac1aff84da36f>@@@std@@YA_JV?$_Vector_const_iterator@V?$_Vector_val@U?$_Simple_types@PEAUObject@Detail@NodeEditor@ax@@@std@@@std@@@0@0V<lambda_3f736c6210dbcb1743fac1aff84da36f>@@@Z
	DD	imagerel ??$count_if@V?$_Vector_const_iterator@V?$_Vector_val@U?$_Simple_types@PEAUObject@Detail@NodeEditor@ax@@@std@@@std@@@std@@V<lambda_3f736c6210dbcb1743fac1aff84da36f>@@@std@@YA_JV?$_Vector_const_iterator@V?$_Vector_val@U?$_Simple_types@PEAUObject@Detail@NodeEditor@ax@@@std@@@std@@@0@0V<lambda_3f736c6210dbcb1743fac1aff84da36f>@@@Z+216
	DD	imagerel $unwind$??$count_if@V?$_Vector_const_iterator@V?$_Vector_val@U?$_Simple_types@PEAUObject@Detail@NodeEditor@ax@@@std@@@std@@@std@@V<lambda_3f736c6210dbcb1743fac1aff84da36f>@@@std@@YA_JV?$_Vector_const_iterator@V?$_Vector_val@U?$_Simple_types@PEAUObject@Detail@NodeEditor@ax@@@std@@@std@@@0@0V<lambda_3f736c6210dbcb1743fac1aff84da36f>@@@Z
pdata	ENDS
;	COMDAT pdata
pdata	SEGMENT
$pdata$?dtor$0@?0???$count_if@V?$_Vector_const_iterator@V?$_Vector_val@U?$_Simple_types@PEAUObject@Detail@NodeEditor@ax@@@std@@@std@@@std@@V<lambda_3f736c6210dbcb1743fac1aff84da36f>@@@std@@YA_JV?$_Vector_const_iterator@V?$_Vector_val@U?$_Simple_types@PEAUObject@Detail@NodeEditor@ax@@@std@@@std@@@0@0V<lambda_3f736c6210dbcb1743fac1aff84da36f>@@@Z@4HA DD imagerel ?dtor$0@?0???$count_if@V?$_Vector_const_iterator@V?$_Vector_val@U?$_Simple_types@PEAUObject@Detail@NodeEditor@ax@@@std@@@std@@@std@@V<lambda_3f736c6210dbcb1743fac1aff84da36f>@@@std@@YA_JV?$_Vector_const_iterator@V?$_Vector_val@U?$_Simple_types@PEAUObject@Detail@NodeEditor@ax@@@std@@@std@@@0@0V<lambda_3f736c6210dbcb1743fac1aff84da36f>@@@Z@4HA
	DD	imagerel ?dtor$0@?0???$count_if@V?$_Vector_const_iterator@V?$_Vector_val@U?$_Simple_types@PEAUObject@Detail@NodeEditor@ax@@@std@@@std@@@std@@V<lambda_3f736c6210dbcb1743fac1aff84da36f>@@@std@@YA_JV?$_Vector_const_iterator@V?$_Vector_val@U?$_Simple_types@PEAUObject@Detail@NodeEditor@ax@@@std@@@std@@@0@0V<lambda_3f736c6210dbcb1743fac1aff84da36f>@@@Z@4HA+39
	DD	imagerel $unwind$?dtor$0@?0???$count_if@V?$_Vector_const_iterator@V?$_Vector_val@U?$_Simple_types@PEAUObject@Detail@NodeEditor@ax@@@std@@@std@@@std@@V<lambda_3f736c6210dbcb1743fac1aff84da36f>@@@std@@YA_JV?$_Vector_const_iterator@V?$_Vector_val@U?$_Simple_types@PEAUObject@Detail@NodeEditor@ax@@@std@@@std@@@0@0V<lambda_3f736c6210dbcb1743fac1aff84da36f>@@@Z@4HA
pdata	ENDS
;	COMDAT pdata
pdata	SEGMENT
$pdata$?dtor$1@?0???$count_if@V?$_Vector_const_iterator@V?$_Vector_val@U?$_Simple_types@PEAUObject@Detail@NodeEditor@ax@@@std@@@std@@@std@@V<lambda_3f736c6210dbcb1743fac1aff84da36f>@@@std@@YA_JV?$_Vector_const_iterator@V?$_Vector_val@U?$_Simple_types@PEAUObject@Detail@NodeEditor@ax@@@std@@@std@@@0@0V<lambda_3f736c6210dbcb1743fac1aff84da36f>@@@Z@4HA DD imagerel ?dtor$1@?0???$count_if@V?$_Vector_const_iterator@V?$_Vector_val@U?$_Simple_types@PEAUObject@Detail@NodeEditor@ax@@@std@@@std@@@std@@V<lambda_3f736c6210dbcb1743fac1aff84da36f>@@@std@@YA_JV?$_Vector_const_iterator@V?$_Vector_val@U?$_Simple_types@PEAUObject@Detail@NodeEditor@ax@@@std@@@std@@@0@0V<lambda_3f736c6210dbcb1743fac1aff84da36f>@@@Z@4HA
	DD	imagerel ?dtor$1@?0???$count_if@V?$_Vector_const_iterator@V?$_Vector_val@U?$_Simple_types@PEAUObject@Detail@NodeEditor@ax@@@std@@@std@@@std@@V<lambda_3f736c6210dbcb1743fac1aff84da36f>@@@std@@YA_JV?$_Vector_const_iterator@V?$_Vector_val@U?$_Simple_types@PEAUObject@Detail@NodeEditor@ax@@@std@@@std@@@0@0V<lambda_3f736c6210dbcb1743fac1aff84da36f>@@@Z@4HA+39
	DD	imagerel $unwind$?dtor$1@?0???$count_if@V?$_Vector_const_iterator@V?$_Vector_val@U?$_Simple_types@PEAUObject@Detail@NodeEditor@ax@@@std@@@std@@@std@@V<lambda_3f736c6210dbcb1743fac1aff84da36f>@@@std@@YA_JV?$_Vector_const_iterator@V?$_Vector_val@U?$_Simple_types@PEAUObject@Detail@NodeEditor@ax@@@std@@@std@@@0@0V<lambda_3f736c6210dbcb1743fac1aff84da36f>@@@Z@4HA
pdata	ENDS
;	COMDAT pdata
pdata	SEGMENT
$pdata$??$?RPEAUObject@Detail@NodeEditor@ax@@@<lambda_23f1710fff72307b075c6286d6aaa715>@@QEBA?A_PPEAUObject@Detail@NodeEditor@ax@@@Z DD imagerel ??$?RPEAUObject@Detail@NodeEditor@ax@@@<lambda_23f1710fff72307b075c6286d6aaa715>@@QEBA?A_PPEAUObject@Detail@NodeEditor@ax@@@Z
	DD	imagerel ??$?RPEAUObject@Detail@NodeEditor@ax@@@<lambda_23f1710fff72307b075c6286d6aaa715>@@QEBA?A_PPEAUObject@Detail@NodeEditor@ax@@@Z+100
	DD	imagerel $unwind$??$?RPEAUObject@Detail@NodeEditor@ax@@@<lambda_23f1710fff72307b075c6286d6aaa715>@@QEBA?A_PPEAUObject@Detail@NodeEditor@ax@@@Z
pdata	ENDS
;	COMDAT pdata
pdata	SEGMENT
$pdata$??$count_if@V?$_Vector_const_iterator@V?$_Vector_val@U?$_Simple_types@PEAUObject@Detail@NodeEditor@ax@@@std@@@std@@@std@@V<lambda_23f1710fff72307b075c6286d6aaa715>@@@std@@YA_JV?$_Vector_const_iterator@V?$_Vector_val@U?$_Simple_types@PEAUObject@Detail@NodeEditor@ax@@@std@@@std@@@0@0V<lambda_23f1710fff72307b075c6286d6aaa715>@@@Z DD imagerel ??$count_if@V?$_Vector_const_iterator@V?$_Vector_val@U?$_Simple_types@PEAUObject@Detail@NodeEditor@ax@@@std@@@std@@@std@@V<lambda_23f1710fff72307b075c6286d6aaa715>@@@std@@YA_JV?$_Vector_const_iterator@V?$_Vector_val@U?$_Simple_types@PEAUObject@Detail@NodeEditor@ax@@@std@@@std@@@0@0V<lambda_23f1710fff72307b075c6286d6aaa715>@@@Z
	DD	imagerel ??$count_if@V?$_Vector_const_iterator@V?$_Vector_val@U?$_Simple_types@PEAUObject@Detail@NodeEditor@ax@@@std@@@std@@@std@@V<lambda_23f1710fff72307b075c6286d6aaa715>@@@std@@YA_JV?$_Vector_const_iterator@V?$_Vector_val@U?$_Simple_types@PEAUObject@Detail@NodeEditor@ax@@@std@@@std@@@0@0V<lambda_23f1710fff72307b075c6286d6aaa715>@@@Z+216
	DD	imagerel $unwind$??$count_if@V?$_Vector_const_iterator@V?$_Vector_val@U?$_Simple_types@PEAUObject@Detail@NodeEditor@ax@@@std@@@std@@@std@@V<lambda_23f1710fff72307b075c6286d6aaa715>@@@std@@YA_JV?$_Vector_const_iterator@V?$_Vector_val@U?$_Simple_types@PEAUObject@Detail@NodeEditor@ax@@@std@@@std@@@0@0V<lambda_23f1710fff72307b075c6286d6aaa715>@@@Z
pdata	ENDS
;	COMDAT pdata
pdata	SEGMENT
$pdata$?dtor$0@?0???$count_if@V?$_Vector_const_iterator@V?$_Vector_val@U?$_Simple_types@PEAUObject@Detail@NodeEditor@ax@@@std@@@std@@@std@@V<lambda_23f1710fff72307b075c6286d6aaa715>@@@std@@YA_JV?$_Vector_const_iterator@V?$_Vector_val@U?$_Simple_types@PEAUObject@Detail@NodeEditor@ax@@@std@@@std@@@0@0V<lambda_23f1710fff72307b075c6286d6aaa715>@@@Z@4HA DD imagerel ?dtor$0@?0???$count_if@V?$_Vector_const_iterator@V?$_Vector_val@U?$_Simple_types@PEAUObject@Detail@NodeEditor@ax@@@std@@@std@@@std@@V<lambda_23f1710fff72307b075c6286d6aaa715>@@@std@@YA_JV?$_Vector_const_iterator@V?$_Vector_val@U?$_Simple_types@PEAUObject@Detail@NodeEditor@ax@@@std@@@std@@@0@0V<lambda_23f1710fff72307b075c6286d6aaa715>@@@Z@4HA
	DD	imagerel ?dtor$0@?0???$count_if@V?$_Vector_const_iterator@V?$_Vector_val@U?$_Simple_types@PEAUObject@Detail@NodeEditor@ax@@@std@@@std@@@std@@V<lambda_23f1710fff72307b075c6286d6aaa715>@@@std@@YA_JV?$_Vector_const_iterator@V?$_Vector_val@U?$_Simple_types@PEAUObject@Detail@NodeEditor@ax@@@std@@@std@@@0@0V<lambda_23f1710fff72307b075c6286d6aaa715>@@@Z@4HA+39
	DD	imagerel $unwind$?dtor$0@?0???$count_if@V?$_Vector_const_iterator@V?$_Vector_val@U?$_Simple_types@PEAUObject@Detail@NodeEditor@ax@@@std@@@std@@@std@@V<lambda_23f1710fff72307b075c6286d6aaa715>@@@std@@YA_JV?$_Vector_const_iterator@V?$_Vector_val@U?$_Simple_types@PEAUObject@Detail@NodeEditor@ax@@@std@@@std@@@0@0V<lambda_23f1710fff72307b075c6286d6aaa715>@@@Z@4HA
pdata	ENDS
;	COMDAT pdata
pdata	SEGMENT
$pdata$?dtor$1@?0???$count_if@V?$_Vector_const_iterator@V?$_Vector_val@U?$_Simple_types@PEAUObject@Detail@NodeEditor@ax@@@std@@@std@@@std@@V<lambda_23f1710fff72307b075c6286d6aaa715>@@@std@@YA_JV?$_Vector_const_iterator@V?$_Vector_val@U?$_Simple_types@PEAUObject@Detail@NodeEditor@ax@@@std@@@std@@@0@0V<lambda_23f1710fff72307b075c6286d6aaa715>@@@Z@4HA DD imagerel ?dtor$1@?0???$count_if@V?$_Vector_const_iterator@V?$_Vector_val@U?$_Simple_types@PEAUObject@Detail@NodeEditor@ax@@@std@@@std@@@std@@V<lambda_23f1710fff72307b075c6286d6aaa715>@@@std@@YA_JV?$_Vector_const_iterator@V?$_Vector_val@U?$_Simple_types@PEAUObject@Detail@NodeEditor@ax@@@std@@@std@@@0@0V<lambda_23f1710fff72307b075c6286d6aaa715>@@@Z@4HA
	DD	imagerel ?dtor$1@?0???$count_if@V?$_Vector_const_iterator@V?$_Vector_val@U?$_Simple_types@PEAUObject@Detail@NodeEditor@ax@@@std@@@std@@@std@@V<lambda_23f1710fff72307b075c6286d6aaa715>@@@std@@YA_JV?$_Vector_const_iterator@V?$_Vector_val@U?$_Simple_types@PEAUObject@Detail@NodeEditor@ax@@@std@@@std@@@0@0V<lambda_23f1710fff72307b075c6286d6aaa715>@@@Z@4HA+39
	DD	imagerel $unwind$?dtor$1@?0???$count_if@V?$_Vector_const_iterator@V?$_Vector_val@U?$_Simple_types@PEAUObject@Detail@NodeEditor@ax@@@std@@@std@@@std@@V<lambda_23f1710fff72307b075c6286d6aaa715>@@@std@@YA_JV?$_Vector_const_iterator@V?$_Vector_val@U?$_Simple_types@PEAUObject@Detail@NodeEditor@ax@@@std@@@std@@@0@0V<lambda_23f1710fff72307b075c6286d6aaa715>@@@Z@4HA
pdata	ENDS
;	COMDAT pdata
pdata	SEGMENT
$pdata$??$?RPEAUObject@Detail@NodeEditor@ax@@@<lambda_aae6843b07c1c292b06cefe3dee011c3>@@QEBA?A_PPEAUObject@Detail@NodeEditor@ax@@@Z DD imagerel ??$?RPEAUObject@Detail@NodeEditor@ax@@@<lambda_aae6843b07c1c292b06cefe3dee011c3>@@QEBA?A_PPEAUObject@Detail@NodeEditor@ax@@@Z
	DD	imagerel ??$?RPEAUObject@Detail@NodeEditor@ax@@@<lambda_aae6843b07c1c292b06cefe3dee011c3>@@QEBA?A_PPEAUObject@Detail@NodeEditor@ax@@@Z+100
	DD	imagerel $unwind$??$?RPEAUObject@Detail@NodeEditor@ax@@@<lambda_aae6843b07c1c292b06cefe3dee011c3>@@QEBA?A_PPEAUObject@Detail@NodeEditor@ax@@@Z
pdata	ENDS
;	COMDAT pdata
pdata	SEGMENT
$pdata$??$count_if@V?$_Vector_const_iterator@V?$_Vector_val@U?$_Simple_types@PEAUObject@Detail@NodeEditor@ax@@@std@@@std@@@std@@V<lambda_aae6843b07c1c292b06cefe3dee011c3>@@@std@@YA_JV?$_Vector_const_iterator@V?$_Vector_val@U?$_Simple_types@PEAUObject@Detail@NodeEditor@ax@@@std@@@std@@@0@0V<lambda_aae6843b07c1c292b06cefe3dee011c3>@@@Z DD imagerel ??$count_if@V?$_Vector_const_iterator@V?$_Vector_val@U?$_Simple_types@PEAUObject@Detail@NodeEditor@ax@@@std@@@std@@@std@@V<lambda_aae6843b07c1c292b06cefe3dee011c3>@@@std@@YA_JV?$_Vector_const_iterator@V?$_Vector_val@U?$_Simple_types@PEAUObject@Detail@NodeEditor@ax@@@std@@@std@@@0@0V<lambda_aae6843b07c1c292b06cefe3dee011c3>@@@Z
	DD	imagerel ??$count_if@V?$_Vector_const_iterator@V?$_Vector_val@U?$_Simple_types@PEAUObject@Detail@NodeEditor@ax@@@std@@@std@@@std@@V<lambda_aae6843b07c1c292b06cefe3dee011c3>@@@std@@YA_JV?$_Vector_const_iterator@V?$_Vector_val@U?$_Simple_types@PEAUObject@Detail@NodeEditor@ax@@@std@@@std@@@0@0V<lambda_aae6843b07c1c292b06cefe3dee011c3>@@@Z+216
	DD	imagerel $unwind$??$count_if@V?$_Vector_const_iterator@V?$_Vector_val@U?$_Simple_types@PEAUObject@Detail@NodeEditor@ax@@@std@@@std@@@std@@V<lambda_aae6843b07c1c292b06cefe3dee011c3>@@@std@@YA_JV?$_Vector_const_iterator@V?$_Vector_val@U?$_Simple_types@PEAUObject@Detail@NodeEditor@ax@@@std@@@std@@@0@0V<lambda_aae6843b07c1c292b06cefe3dee011c3>@@@Z
pdata	ENDS
;	COMDAT pdata
pdata	SEGMENT
$pdata$?dtor$0@?0???$count_if@V?$_Vector_const_iterator@V?$_Vector_val@U?$_Simple_types@PEAUObject@Detail@NodeEditor@ax@@@std@@@std@@@std@@V<lambda_aae6843b07c1c292b06cefe3dee011c3>@@@std@@YA_JV?$_Vector_const_iterator@V?$_Vector_val@U?$_Simple_types@PEAUObject@Detail@NodeEditor@ax@@@std@@@std@@@0@0V<lambda_aae6843b07c1c292b06cefe3dee011c3>@@@Z@4HA DD imagerel ?dtor$0@?0???$count_if@V?$_Vector_const_iterator@V?$_Vector_val@U?$_Simple_types@PEAUObject@Detail@NodeEditor@ax@@@std@@@std@@@std@@V<lambda_aae6843b07c1c292b06cefe3dee011c3>@@@std@@YA_JV?$_Vector_const_iterator@V?$_Vector_val@U?$_Simple_types@PEAUObject@Detail@NodeEditor@ax@@@std@@@std@@@0@0V<lambda_aae6843b07c1c292b06cefe3dee011c3>@@@Z@4HA
	DD	imagerel ?dtor$0@?0???$count_if@V?$_Vector_const_iterator@V?$_Vector_val@U?$_Simple_types@PEAUObject@Detail@NodeEditor@ax@@@std@@@std@@@std@@V<lambda_aae6843b07c1c292b06cefe3dee011c3>@@@std@@YA_JV?$_Vector_const_iterator@V?$_Vector_val@U?$_Simple_types@PEAUObject@Detail@NodeEditor@ax@@@std@@@std@@@0@0V<lambda_aae6843b07c1c292b06cefe3dee011c3>@@@Z@4HA+39
	DD	imagerel $unwind$?dtor$0@?0???$count_if@V?$_Vector_const_iterator@V?$_Vector_val@U?$_Simple_types@PEAUObject@Detail@NodeEditor@ax@@@std@@@std@@@std@@V<lambda_aae6843b07c1c292b06cefe3dee011c3>@@@std@@YA_JV?$_Vector_const_iterator@V?$_Vector_val@U?$_Simple_types@PEAUObject@Detail@NodeEditor@ax@@@std@@@std@@@0@0V<lambda_aae6843b07c1c292b06cefe3dee011c3>@@@Z@4HA
pdata	ENDS
;	COMDAT pdata
pdata	SEGMENT
$pdata$?dtor$1@?0???$count_if@V?$_Vector_const_iterator@V?$_Vector_val@U?$_Simple_types@PEAUObject@Detail@NodeEditor@ax@@@std@@@std@@@std@@V<lambda_aae6843b07c1c292b06cefe3dee011c3>@@@std@@YA_JV?$_Vector_const_iterator@V?$_Vector_val@U?$_Simple_types@PEAUObject@Detail@NodeEditor@ax@@@std@@@std@@@0@0V<lambda_aae6843b07c1c292b06cefe3dee011c3>@@@Z@4HA DD imagerel ?dtor$1@?0???$count_if@V?$_Vector_const_iterator@V?$_Vector_val@U?$_Simple_types@PEAUObject@Detail@NodeEditor@ax@@@std@@@std@@@std@@V<lambda_aae6843b07c1c292b06cefe3dee011c3>@@@std@@YA_JV?$_Vector_const_iterator@V?$_Vector_val@U?$_Simple_types@PEAUObject@Detail@NodeEditor@ax@@@std@@@std@@@0@0V<lambda_aae6843b07c1c292b06cefe3dee011c3>@@@Z@4HA
	DD	imagerel ?dtor$1@?0???$count_if@V?$_Vector_const_iterator@V?$_Vector_val@U?$_Simple_types@PEAUObject@Detail@NodeEditor@ax@@@std@@@std@@@std@@V<lambda_aae6843b07c1c292b06cefe3dee011c3>@@@std@@YA_JV?$_Vector_const_iterator@V?$_Vector_val@U?$_Simple_types@PEAUObject@Detail@NodeEditor@ax@@@std@@@std@@@0@0V<lambda_aae6843b07c1c292b06cefe3dee011c3>@@@Z@4HA+39
	DD	imagerel $unwind$?dtor$1@?0???$count_if@V?$_Vector_const_iterator@V?$_Vector_val@U?$_Simple_types@PEAUObject@Detail@NodeEditor@ax@@@std@@@std@@@std@@V<lambda_aae6843b07c1c292b06cefe3dee011c3>@@@std@@YA_JV?$_Vector_const_iterator@V?$_Vector_val@U?$_Simple_types@PEAUObject@Detail@NodeEditor@ax@@@std@@@std@@@0@0V<lambda_aae6843b07c1c292b06cefe3dee011c3>@@@Z@4HA
pdata	ENDS
;	COMDAT pdata
pdata	SEGMENT
$pdata$??$move@AEA_K@std@@YA$$QEA_KAEA_K@Z DD imagerel $LN3
	DD	imagerel $LN3+48
	DD	imagerel $unwind$??$move@AEA_K@std@@YA$$QEA_KAEA_K@Z
pdata	ENDS
;	COMDAT pdata
pdata	SEGMENT
$pdata$??$addressof@$$CBV?$_Vector_val@U?$_Simple_types@PEAUObject@Detail@NodeEditor@ax@@@std@@@std@@@std@@YAPEBV?$_Vector_val@U?$_Simple_types@PEAUObject@Detail@NodeEditor@ax@@@std@@@0@AEBV10@@Z DD imagerel $LN3
	DD	imagerel $LN3+48
	DD	imagerel $unwind$??$addressof@$$CBV?$_Vector_val@U?$_Simple_types@PEAUObject@Detail@NodeEditor@ax@@@std@@@std@@@std@@YAPEBV?$_Vector_val@U?$_Simple_types@PEAUObject@Detail@NodeEditor@ax@@@std@@@0@AEBV10@@Z
pdata	ENDS
;	COMDAT pdata
pdata	SEGMENT
$pdata$??$_Adl_verify_range@V?$_Vector_const_iterator@V?$_Vector_val@U?$_Simple_types@PEAUObject@Detail@NodeEditor@ax@@@std@@@std@@@std@@V12@@std@@YAXAEBV?$_Vector_const_iterator@V?$_Vector_val@U?$_Simple_types@PEAUObject@Detail@NodeEditor@ax@@@std@@@std@@@0@0@Z DD imagerel $LN3
	DD	imagerel $LN3+65
	DD	imagerel $unwind$??$_Adl_verify_range@V?$_Vector_const_iterator@V?$_Vector_val@U?$_Simple_types@PEAUObject@Detail@NodeEditor@ax@@@std@@@std@@@std@@V12@@std@@YAXAEBV?$_Vector_const_iterator@V?$_Vector_val@U?$_Simple_types@PEAUObject@Detail@NodeEditor@ax@@@std@@@std@@@0@0@Z
pdata	ENDS
;	COMDAT pdata
pdata	SEGMENT
$pdata$??$_Get_unwrapped@AEAV?$_Vector_const_iterator@V?$_Vector_val@U?$_Simple_types@PEAUObject@Detail@NodeEditor@ax@@@std@@@std@@@std@@@std@@YA?A_TAEAV?$_Vector_const_iterator@V?$_Vector_val@U?$_Simple_types@PEAUObject@Detail@NodeEditor@ax@@@std@@@std@@@0@@Z DD imagerel $LN3
	DD	imagerel $LN3+53
	DD	imagerel $unwind$??$_Get_unwrapped@AEAV?$_Vector_const_iterator@V?$_Vector_val@U?$_Simple_types@PEAUObject@Detail@NodeEditor@ax@@@std@@@std@@@std@@@std@@YA?A_TAEAV?$_Vector_const_iterator@V?$_Vector_val@U?$_Simple_types@PEAUObject@Detail@NodeEditor@ax@@@std@@@std@@@0@@Z
pdata	ENDS
;	COMDAT pdata
pdata	SEGMENT
$pdata$??$_Unfancy@PEAUObject@Detail@NodeEditor@ax@@@std@@YAPEAPEAUObject@Detail@NodeEditor@ax@@PEAPEAU1234@@Z DD imagerel $LN3
	DD	imagerel $LN3+48
	DD	imagerel $unwind$??$_Unfancy@PEAUObject@Detail@NodeEditor@ax@@@std@@YAPEAPEAUObject@Detail@NodeEditor@ax@@PEAPEAU1234@@Z
pdata	ENDS
;	COMDAT CRT$XCU
CRT$XCU	SEGMENT
??Invalid$initializer$@?$SafePointerType@UObjectId@Detail@NodeEditor@ax@@@Details@NodeEditor@ax@@2P6AXXZEA@@3P6AXXZEA DQ FLAT:??__E?Invalid@?$SafePointerType@UObjectId@Detail@NodeEditor@ax@@@Details@NodeEditor@ax@@2UObjectId@Detail@34@B@@YAXXZ ; ax::NodeEditor::Details::SafePointerType<ax::NodeEditor::Detail::ObjectId>::nvalid$initializer$::operator&
CRT$XCU	ENDS
;	COMDAT __real@ff7fffff
CONST	SEGMENT
__real@ff7fffff DD 0ff7fffffr			; -3.40282e+38
CONST	ENDS
;	COMDAT __real@7f7fffff
CONST	SEGMENT
__real@7f7fffff DD 07f7fffffr			; 3.40282e+38
CONST	ENDS
;	COMDAT rtc$TMZ
rtc$TMZ	SEGMENT
_RTC_Shutdown.rtc$TMZ DQ FLAT:_RTC_Shutdown
rtc$TMZ	ENDS
;	COMDAT rtc$IMZ
rtc$IMZ	SEGMENT
_RTC_InitBase.rtc$IMZ DQ FLAT:_RTC_InitBase
rtc$IMZ	ENDS
;	COMDAT ??_C@_1EG@ODKBEHFN@?$AA?$CC?$AAv?$AAe?$AAc?$AAt?$AAo?$AAr?$AA?5?$AAi?$AAt?$AAe?$AAr?$AAa?$AAt?$AAo@
CONST	SEGMENT
??_C@_1EG@ODKBEHFN@?$AA?$CC?$AAv?$AAe?$AAc?$AAt?$AAo?$AAr?$AA?5?$AAi?$AAt?$AAe?$AAr?$AAa?$AAt?$AAo@ DB '"'
	DB	00H, 'v', 00H, 'e', 00H, 'c', 00H, 't', 00H, 'o', 00H, 'r', 00H
	DB	' ', 00H, 'i', 00H, 't', 00H, 'e', 00H, 'r', 00H, 'a', 00H, 't'
	DB	00H, 'o', 00H, 'r', 00H, ' ', 00H, 'r', 00H, 'a', 00H, 'n', 00H
	DB	'g', 00H, 'e', 00H, ' ', 00H, 't', 00H, 'r', 00H, 'a', 00H, 'n'
	DB	00H, 's', 00H, 'p', 00H, 'o', 00H, 's', 00H, 'e', 00H, 'd', 00H
	DB	'"', 00H, 00H, 00H				; `string'
CONST	ENDS
;	COMDAT ??_C@_0CB@LIAHLBAO@vector?5iterator?5range?5transpose@
CONST	SEGMENT
??_C@_0CB@LIAHLBAO@vector?5iterator?5range?5transpose@ DB 'vector iterato'
	DB	'r range transposed', 00H			; `string'
CONST	ENDS
;	COMDAT ??_C@_1HE@KBMFDAFB@?$AA?$CC?$AAv?$AAe?$AAc?$AAt?$AAo?$AAr?$AA?5?$AAi?$AAt?$AAe?$AAr?$AAa?$AAt?$AAo@
CONST	SEGMENT
??_C@_1HE@KBMFDAFB@?$AA?$CC?$AAv?$AAe?$AAc?$AAt?$AAo?$AAr?$AA?5?$AAi?$AAt?$AAe?$AAr?$AAa?$AAt?$AAo@ DB '"'
	DB	00H, 'v', 00H, 'e', 00H, 'c', 00H, 't', 00H, 'o', 00H, 'r', 00H
	DB	' ', 00H, 'i', 00H, 't', 00H, 'e', 00H, 'r', 00H, 'a', 00H, 't'
	DB	00H, 'o', 00H, 'r', 00H, 's', 00H, ' ', 00H, 'i', 00H, 'n', 00H
	DB	' ', 00H, 'r', 00H, 'a', 00H, 'n', 00H, 'g', 00H, 'e', 00H, ' '
	DB	00H, 'a', 00H, 'r', 00H, 'e', 00H, ' ', 00H, 'f', 00H, 'r', 00H
	DB	'o', 00H, 'm', 00H, ' ', 00H, 'd', 00H, 'i', 00H, 'f', 00H, 'f'
	DB	00H, 'e', 00H, 'r', 00H, 'e', 00H, 'n', 00H, 't', 00H, ' ', 00H
	DB	'c', 00H, 'o', 00H, 'n', 00H, 't', 00H, 'a', 00H, 'i', 00H, 'n'
	DB	00H, 'e', 00H, 'r', 00H, 's', 00H, '"', 00H, 00H, 00H ; `string'
CONST	ENDS
;	COMDAT ??_C@_1MC@LACENGKK@?$AAC?$AA?3?$AA?2?$AAP?$AAr?$AAo?$AAg?$AAr?$AAa?$AAm?$AA?5?$AAF?$AAi?$AAl?$AAe@
CONST	SEGMENT
??_C@_1MC@LACENGKK@?$AAC?$AA?3?$AA?2?$AAP?$AAr?$AAo?$AAg?$AAr?$AAa?$AAm?$AA?5?$AAF?$AAi?$AAl?$AAe@ DB 'C'
	DB	00H, ':', 00H, '\', 00H, 'P', 00H, 'r', 00H, 'o', 00H, 'g', 00H
	DB	'r', 00H, 'a', 00H, 'm', 00H, ' ', 00H, 'F', 00H, 'i', 00H, 'l'
	DB	00H, 'e', 00H, 's', 00H, '\', 00H, 'M', 00H, 'i', 00H, 'c', 00H
	DB	'r', 00H, 'o', 00H, 's', 00H, 'o', 00H, 'f', 00H, 't', 00H, ' '
	DB	00H, 'V', 00H, 'i', 00H, 's', 00H, 'u', 00H, 'a', 00H, 'l', 00H
	DB	' ', 00H, 'S', 00H, 't', 00H, 'u', 00H, 'd', 00H, 'i', 00H, 'o'
	DB	00H, '\', 00H, '2', 00H, '0', 00H, '2', 00H, '2', 00H, '\', 00H
	DB	'C', 00H, 'o', 00H, 'm', 00H, 'm', 00H, 'u', 00H, 'n', 00H, 'i'
	DB	00H, 't', 00H, 'y', 00H, '\', 00H, 'V', 00H, 'C', 00H, '\', 00H
	DB	'T', 00H, 'o', 00H, 'o', 00H, 'l', 00H, 's', 00H, '\', 00H, 'M'
	DB	00H, 'S', 00H, 'V', 00H, 'C', 00H, '\', 00H, '1', 00H, '4', 00H
	DB	'.', 00H, '3', 00H, '3', 00H, '.', 00H, '3', 00H, '1', 00H, '6'
	DB	00H, '2', 00H, '9', 00H, '\', 00H, 'i', 00H, 'n', 00H, 'c', 00H
	DB	'l', 00H, 'u', 00H, 'd', 00H, 'e', 00H, '\', 00H, 'v', 00H, 'e'
	DB	00H, 'c', 00H, 't', 00H, 'o', 00H, 'r', 00H, 00H, 00H ; `string'
CONST	ENDS
;	COMDAT ??_C@_0GB@FLOGEF@C?3?2Program?5Files?2Microsoft?5Visu@
CONST	SEGMENT
??_C@_0GB@FLOGEF@C?3?2Program?5Files?2Microsoft?5Visu@ DB 'C:\Program Fil'
	DB	'es\Microsoft Visual Studio\2022\Community\VC\Tools\MSVC\14.33'
	DB	'.31629\include\vector', 00H			; `string'
CONST	ENDS
;	COMDAT ??_C@_0DI@PBEELKIF@vector?5iterators?5in?5range?5are?5f@
CONST	SEGMENT
??_C@_0DI@PBEELKIF@vector?5iterators?5in?5range?5are?5f@ DB 'vector itera'
	DB	'tors in range are from different containers', 00H ; `string'
CONST	ENDS
;	COMDAT ??_C@_1DG@PLBPCAEM@?$AA?$CC?$AAI?$AAT?$AAE?$AAR?$AAA?$AAT?$AAO?$AAR?$AA?5?$AAL?$AAI?$AAS?$AAT?$AA?5@
CONST	SEGMENT
??_C@_1DG@PLBPCAEM@?$AA?$CC?$AAI?$AAT?$AAE?$AAR?$AAA?$AAT?$AAO?$AAR?$AA?5?$AAL?$AAI?$AAS?$AAT?$AA?5@ DB '"'
	DB	00H, 'I', 00H, 'T', 00H, 'E', 00H, 'R', 00H, 'A', 00H, 'T', 00H
	DB	'O', 00H, 'R', 00H, ' ', 00H, 'L', 00H, 'I', 00H, 'S', 00H, 'T'
	DB	00H, ' ', 00H, 'C', 00H, 'O', 00H, 'R', 00H, 'R', 00H, 'U', 00H
	DB	'P', 00H, 'T', 00H, 'E', 00H, 'D', 00H, '!', 00H, '"', 00H, 00H
	DB	00H						; `string'
CONST	ENDS
;	COMDAT ??_C@_0BJ@LFDBABJJ@ITERATOR?5LIST?5CORRUPTED?$CB@
CONST	SEGMENT
??_C@_0BJ@LFDBABJJ@ITERATOR?5LIST?5CORRUPTED?$CB@ DB 'ITERATOR LIST CORRU'
	DB	'PTED!', 00H					; `string'
CONST	ENDS
;	COMDAT ??_C@_11LOCGONAA@@
CONST	SEGMENT
??_C@_11LOCGONAA@@ DB 00H, 00H				; `string'
CONST	ENDS
;	COMDAT ??_C@_1ME@KDCJLOP@?$AAC?$AA?3?$AA?2?$AAP?$AAr?$AAo?$AAg?$AAr?$AAa?$AAm?$AA?5?$AAF?$AAi?$AAl?$AAe@
CONST	SEGMENT
??_C@_1ME@KDCJLOP@?$AAC?$AA?3?$AA?2?$AAP?$AAr?$AAo?$AAg?$AAr?$AAa?$AAm?$AA?5?$AAF?$AAi?$AAl?$AAe@ DB 'C'
	DB	00H, ':', 00H, '\', 00H, 'P', 00H, 'r', 00H, 'o', 00H, 'g', 00H
	DB	'r', 00H, 'a', 00H, 'm', 00H, ' ', 00H, 'F', 00H, 'i', 00H, 'l'
	DB	00H, 'e', 00H, 's', 00H, '\', 00H, 'M', 00H, 'i', 00H, 'c', 00H
	DB	'r', 00H, 'o', 00H, 's', 00H, 'o', 00H, 'f', 00H, 't', 00H, ' '
	DB	00H, 'V', 00H, 'i', 00H, 's', 00H, 'u', 00H, 'a', 00H, 'l', 00H
	DB	' ', 00H, 'S', 00H, 't', 00H, 'u', 00H, 'd', 00H, 'i', 00H, 'o'
	DB	00H, '\', 00H, '2', 00H, '0', 00H, '2', 00H, '2', 00H, '\', 00H
	DB	'C', 00H, 'o', 00H, 'm', 00H, 'm', 00H, 'u', 00H, 'n', 00H, 'i'
	DB	00H, 't', 00H, 'y', 00H, '\', 00H, 'V', 00H, 'C', 00H, '\', 00H
	DB	'T', 00H, 'o', 00H, 'o', 00H, 'l', 00H, 's', 00H, '\', 00H, 'M'
	DB	00H, 'S', 00H, 'V', 00H, 'C', 00H, '\', 00H, '1', 00H, '4', 00H
	DB	'.', 00H, '3', 00H, '3', 00H, '.', 00H, '3', 00H, '1', 00H, '6'
	DB	00H, '2', 00H, '9', 00H, '\', 00H, 'i', 00H, 'n', 00H, 'c', 00H
	DB	'l', 00H, 'u', 00H, 'd', 00H, 'e', 00H, '\', 00H, 'x', 00H, 'm'
	DB	00H, 'e', 00H, 'm', 00H, 'o', 00H, 'r', 00H, 'y', 00H, 00H, 00H ; `string'
CONST	ENDS
;	COMDAT ??_C@_0GC@GFIHGGPN@C?3?2Program?5Files?2Microsoft?5Visu@
CONST	SEGMENT
??_C@_0GC@GFIHGGPN@C?3?2Program?5Files?2Microsoft?5Visu@ DB 'C:\Program F'
	DB	'iles\Microsoft Visual Studio\2022\Community\VC\Tools\MSVC\14.'
	DB	'33.31629\include\xmemory', 00H		; `string'
CONST	ENDS
;	COMDAT ??_C@_02DKCKIIND@?$CFs@
CONST	SEGMENT
??_C@_02DKCKIIND@?$CFs@ DB '%s', 00H			; `string'
CONST	ENDS
;	COMDAT ??_C@_0BA@BILEHODK@NodeEditor?4json@
CONST	SEGMENT
??_C@_0BA@BILEHODK@NodeEditor?4json@ DB 'NodeEditor.json', 00H ; `string'
CONST	ENDS
;	COMDAT xdata
xdata	SEGMENT
$unwind$??$_Unfancy@PEAUObject@Detail@NodeEditor@ax@@@std@@YAPEAPEAUObject@Detail@NodeEditor@ax@@PEAPEAU1234@@Z DD 025051301H
	DD	010e2313H
	DD	07007001dH
	DD	05006H
xdata	ENDS
;	COMDAT xdata
xdata	SEGMENT
$unwind$??$_Get_unwrapped@AEAV?$_Vector_const_iterator@V?$_Vector_val@U?$_Simple_types@PEAUObject@Detail@NodeEditor@ax@@@std@@@std@@@std@@@std@@YA?A_TAEAV?$_Vector_const_iterator@V?$_Vector_val@U?$_Simple_types@PEAUObject@Detail@NodeEditor@ax@@@std@@@std@@@0@@Z DD 025051301H
	DD	010e2313H
	DD	07007001dH
	DD	05006H
xdata	ENDS
;	COMDAT xdata
xdata	SEGMENT
$unwind$??$_Adl_verify_range@V?$_Vector_const_iterator@V?$_Vector_val@U?$_Simple_types@PEAUObject@Detail@NodeEditor@ax@@@std@@@std@@@std@@V12@@std@@YAXAEBV?$_Vector_const_iterator@V?$_Vector_val@U?$_Simple_types@PEAUObject@Detail@NodeEditor@ax@@@std@@@std@@@0@0@Z DD 025051801H
	DD	01132318H
	DD	0700c001dH
	DD	0500bH
xdata	ENDS
;	COMDAT xdata
xdata	SEGMENT
$unwind$??$addressof@$$CBV?$_Vector_val@U?$_Simple_types@PEAUObject@Detail@NodeEditor@ax@@@std@@@std@@@std@@YAPEBV?$_Vector_val@U?$_Simple_types@PEAUObject@Detail@NodeEditor@ax@@@std@@@0@AEBV10@@Z DD 025051301H
	DD	010e2313H
	DD	07007001dH
	DD	05006H
xdata	ENDS
;	COMDAT xdata
xdata	SEGMENT
$unwind$??$move@AEA_K@std@@YA$$QEA_KAEA_K@Z DD 025051301H
	DD	010e2313H
	DD	07007001dH
	DD	05006H
xdata	ENDS
;	COMDAT voltbl
voltbl	SEGMENT
_volmd	DB	00H
	DB	05H
voltbl	ENDS
;	COMDAT voltbl
voltbl	SEGMENT
_volmd	DB	00H
	DB	05H
voltbl	ENDS
;	COMDAT xdata
xdata	SEGMENT
$unwind$?dtor$1@?0???$count_if@V?$_Vector_const_iterator@V?$_Vector_val@U?$_Simple_types@PEAUObject@Detail@NodeEditor@ax@@@std@@@std@@@std@@V<lambda_aae6843b07c1c292b06cefe3dee011c3>@@@std@@YA_JV?$_Vector_const_iterator@V?$_Vector_val@U?$_Simple_types@PEAUObject@Detail@NodeEditor@ax@@@std@@@std@@@0@0V<lambda_aae6843b07c1c292b06cefe3dee011c3>@@@Z@4HA DD 031001H
	DD	0700c4210H
	DD	0500bH
xdata	ENDS
;	COMDAT xdata
xdata	SEGMENT
$unwind$?dtor$0@?0???$count_if@V?$_Vector_const_iterator@V?$_Vector_val@U?$_Simple_types@PEAUObject@Detail@NodeEditor@ax@@@std@@@std@@@std@@V<lambda_aae6843b07c1c292b06cefe3dee011c3>@@@std@@YA_JV?$_Vector_const_iterator@V?$_Vector_val@U?$_Simple_types@PEAUObject@Detail@NodeEditor@ax@@@std@@@std@@@0@0V<lambda_aae6843b07c1c292b06cefe3dee011c3>@@@Z@4HA DD 031001H
	DD	0700c4210H
	DD	0500bH
xdata	ENDS
;	COMDAT xdata
xdata	SEGMENT
$ip2state$??$count_if@V?$_Vector_const_iterator@V?$_Vector_val@U?$_Simple_types@PEAUObject@Detail@NodeEditor@ax@@@std@@@std@@@std@@V<lambda_aae6843b07c1c292b06cefe3dee011c3>@@@std@@YA_JV?$_Vector_const_iterator@V?$_Vector_val@U?$_Simple_types@PEAUObject@Detail@NodeEditor@ax@@@std@@@std@@@0@0V<lambda_aae6843b07c1c292b06cefe3dee011c3>@@@Z DB 08H
	DB	00H
	DB	00H
	DB	':'
	DB	04H
	DB	'E', 02H
	DB	02H
	DB	01aH
	DB	00H
xdata	ENDS
;	COMDAT xdata
xdata	SEGMENT
$stateUnwindMap$??$count_if@V?$_Vector_const_iterator@V?$_Vector_val@U?$_Simple_types@PEAUObject@Detail@NodeEditor@ax@@@std@@@std@@@std@@V<lambda_aae6843b07c1c292b06cefe3dee011c3>@@@std@@YA_JV?$_Vector_const_iterator@V?$_Vector_val@U?$_Simple_types@PEAUObject@Detail@NodeEditor@ax@@@std@@@std@@@0@0V<lambda_aae6843b07c1c292b06cefe3dee011c3>@@@Z DB 04H
	DB	0eH
	DD	imagerel ?dtor$0@?0???$count_if@V?$_Vector_const_iterator@V?$_Vector_val@U?$_Simple_types@PEAUObject@Detail@NodeEditor@ax@@@std@@@std@@@std@@V<lambda_aae6843b07c1c292b06cefe3dee011c3>@@@std@@YA_JV?$_Vector_const_iterator@V?$_Vector_val@U?$_Simple_types@PEAUObject@Detail@NodeEditor@ax@@@std@@@std@@@0@0V<lambda_aae6843b07c1c292b06cefe3dee011c3>@@@Z@4HA
	DB	02eH
	DD	imagerel ?dtor$1@?0???$count_if@V?$_Vector_const_iterator@V?$_Vector_val@U?$_Simple_types@PEAUObject@Detail@NodeEditor@ax@@@std@@@std@@@std@@V<lambda_aae6843b07c1c292b06cefe3dee011c3>@@@std@@YA_JV?$_Vector_const_iterator@V?$_Vector_val@U?$_Simple_types@PEAUObject@Detail@NodeEditor@ax@@@std@@@std@@@0@0V<lambda_aae6843b07c1c292b06cefe3dee011c3>@@@Z@4HA
xdata	ENDS
;	COMDAT xdata
xdata	SEGMENT
$cppxdata$??$count_if@V?$_Vector_const_iterator@V?$_Vector_val@U?$_Simple_types@PEAUObject@Detail@NodeEditor@ax@@@std@@@std@@@std@@V<lambda_aae6843b07c1c292b06cefe3dee011c3>@@@std@@YA_JV?$_Vector_const_iterator@V?$_Vector_val@U?$_Simple_types@PEAUObject@Detail@NodeEditor@ax@@@std@@@std@@@0@0V<lambda_aae6843b07c1c292b06cefe3dee011c3>@@@Z DB 028H
	DD	imagerel $stateUnwindMap$??$count_if@V?$_Vector_const_iterator@V?$_Vector_val@U?$_Simple_types@PEAUObject@Detail@NodeEditor@ax@@@std@@@std@@@std@@V<lambda_aae6843b07c1c292b06cefe3dee011c3>@@@std@@YA_JV?$_Vector_const_iterator@V?$_Vector_val@U?$_Simple_types@PEAUObject@Detail@NodeEditor@ax@@@std@@@std@@@0@0V<lambda_aae6843b07c1c292b06cefe3dee011c3>@@@Z
	DD	imagerel $ip2state$??$count_if@V?$_Vector_const_iterator@V?$_Vector_val@U?$_Simple_types@PEAUObject@Detail@NodeEditor@ax@@@std@@@std@@@std@@V<lambda_aae6843b07c1c292b06cefe3dee011c3>@@@std@@YA_JV?$_Vector_const_iterator@V?$_Vector_val@U?$_Simple_types@PEAUObject@Detail@NodeEditor@ax@@@std@@@std@@@0@0V<lambda_aae6843b07c1c292b06cefe3dee011c3>@@@Z
xdata	ENDS
;	COMDAT xdata
xdata	SEGMENT
$unwind$??$count_if@V?$_Vector_const_iterator@V?$_Vector_val@U?$_Simple_types@PEAUObject@Detail@NodeEditor@ax@@@std@@@std@@@std@@V<lambda_aae6843b07c1c292b06cefe3dee011c3>@@@std@@YA_JV?$_Vector_const_iterator@V?$_Vector_val@U?$_Simple_types@PEAUObject@Detail@NodeEditor@ax@@@std@@@std@@@0@0V<lambda_aae6843b07c1c292b06cefe3dee011c3>@@@Z DD 025051d11H
	DD	0118231dH
	DD	07011002dH
	DD	05010H
	DD	imagerel __CxxFrameHandler4
	DD	imagerel $cppxdata$??$count_if@V?$_Vector_const_iterator@V?$_Vector_val@U?$_Simple_types@PEAUObject@Detail@NodeEditor@ax@@@std@@@std@@@std@@V<lambda_aae6843b07c1c292b06cefe3dee011c3>@@@std@@YA_JV?$_Vector_const_iterator@V?$_Vector_val@U?$_Simple_types@PEAUObject@Detail@NodeEditor@ax@@@std@@@std@@@0@0V<lambda_aae6843b07c1c292b06cefe3dee011c3>@@@Z
xdata	ENDS
;	COMDAT xdata
xdata	SEGMENT
$unwind$??$?RPEAUObject@Detail@NodeEditor@ax@@@<lambda_aae6843b07c1c292b06cefe3dee011c3>@@QEBA?A_PPEAUObject@Detail@NodeEditor@ax@@@Z DD 025051801H
	DD	01132318H
	DD	0700c001fH
	DD	0500bH
xdata	ENDS
;	COMDAT voltbl
voltbl	SEGMENT
_volmd	DB	00H
	DB	05H
voltbl	ENDS
;	COMDAT voltbl
voltbl	SEGMENT
_volmd	DB	00H
	DB	05H
voltbl	ENDS
;	COMDAT xdata
xdata	SEGMENT
$unwind$?dtor$1@?0???$count_if@V?$_Vector_const_iterator@V?$_Vector_val@U?$_Simple_types@PEAUObject@Detail@NodeEditor@ax@@@std@@@std@@@std@@V<lambda_23f1710fff72307b075c6286d6aaa715>@@@std@@YA_JV?$_Vector_const_iterator@V?$_Vector_val@U?$_Simple_types@PEAUObject@Detail@NodeEditor@ax@@@std@@@std@@@0@0V<lambda_23f1710fff72307b075c6286d6aaa715>@@@Z@4HA DD 031001H
	DD	0700c4210H
	DD	0500bH
xdata	ENDS
;	COMDAT xdata
xdata	SEGMENT
$unwind$?dtor$0@?0???$count_if@V?$_Vector_const_iterator@V?$_Vector_val@U?$_Simple_types@PEAUObject@Detail@NodeEditor@ax@@@std@@@std@@@std@@V<lambda_23f1710fff72307b075c6286d6aaa715>@@@std@@YA_JV?$_Vector_const_iterator@V?$_Vector_val@U?$_Simple_types@PEAUObject@Detail@NodeEditor@ax@@@std@@@std@@@0@0V<lambda_23f1710fff72307b075c6286d6aaa715>@@@Z@4HA DD 031001H
	DD	0700c4210H
	DD	0500bH
xdata	ENDS
;	COMDAT xdata
xdata	SEGMENT
$ip2state$??$count_if@V?$_Vector_const_iterator@V?$_Vector_val@U?$_Simple_types@PEAUObject@Detail@NodeEditor@ax@@@std@@@std@@@std@@V<lambda_23f1710fff72307b075c6286d6aaa715>@@@std@@YA_JV?$_Vector_const_iterator@V?$_Vector_val@U?$_Simple_types@PEAUObject@Detail@NodeEditor@ax@@@std@@@std@@@0@0V<lambda_23f1710fff72307b075c6286d6aaa715>@@@Z DB 08H
	DB	00H
	DB	00H
	DB	':'
	DB	04H
	DB	'E', 02H
	DB	02H
	DB	01aH
	DB	00H
xdata	ENDS
;	COMDAT xdata
xdata	SEGMENT
$stateUnwindMap$??$count_if@V?$_Vector_const_iterator@V?$_Vector_val@U?$_Simple_types@PEAUObject@Detail@NodeEditor@ax@@@std@@@std@@@std@@V<lambda_23f1710fff72307b075c6286d6aaa715>@@@std@@YA_JV?$_Vector_const_iterator@V?$_Vector_val@U?$_Simple_types@PEAUObject@Detail@NodeEditor@ax@@@std@@@std@@@0@0V<lambda_23f1710fff72307b075c6286d6aaa715>@@@Z DB 04H
	DB	0eH
	DD	imagerel ?dtor$0@?0???$count_if@V?$_Vector_const_iterator@V?$_Vector_val@U?$_Simple_types@PEAUObject@Detail@NodeEditor@ax@@@std@@@std@@@std@@V<lambda_23f1710fff72307b075c6286d6aaa715>@@@std@@YA_JV?$_Vector_const_iterator@V?$_Vector_val@U?$_Simple_types@PEAUObject@Detail@NodeEditor@ax@@@std@@@std@@@0@0V<lambda_23f1710fff72307b075c6286d6aaa715>@@@Z@4HA
	DB	02eH
	DD	imagerel ?dtor$1@?0???$count_if@V?$_Vector_const_iterator@V?$_Vector_val@U?$_Simple_types@PEAUObject@Detail@NodeEditor@ax@@@std@@@std@@@std@@V<lambda_23f1710fff72307b075c6286d6aaa715>@@@std@@YA_JV?$_Vector_const_iterator@V?$_Vector_val@U?$_Simple_types@PEAUObject@Detail@NodeEditor@ax@@@std@@@std@@@0@0V<lambda_23f1710fff72307b075c6286d6aaa715>@@@Z@4HA
xdata	ENDS
;	COMDAT xdata
xdata	SEGMENT
$cppxdata$??$count_if@V?$_Vector_const_iterator@V?$_Vector_val@U?$_Simple_types@PEAUObject@Detail@NodeEditor@ax@@@std@@@std@@@std@@V<lambda_23f1710fff72307b075c6286d6aaa715>@@@std@@YA_JV?$_Vector_const_iterator@V?$_Vector_val@U?$_Simple_types@PEAUObject@Detail@NodeEditor@ax@@@std@@@std@@@0@0V<lambda_23f1710fff72307b075c6286d6aaa715>@@@Z DB 028H
	DD	imagerel $stateUnwindMap$??$count_if@V?$_Vector_const_iterator@V?$_Vector_val@U?$_Simple_types@PEAUObject@Detail@NodeEditor@ax@@@std@@@std@@@std@@V<lambda_23f1710fff72307b075c6286d6aaa715>@@@std@@YA_JV?$_Vector_const_iterator@V?$_Vector_val@U?$_Simple_types@PEAUObject@Detail@NodeEditor@ax@@@std@@@std@@@0@0V<lambda_23f1710fff72307b075c6286d6aaa715>@@@Z
	DD	imagerel $ip2state$??$count_if@V?$_Vector_const_iterator@V?$_Vector_val@U?$_Simple_types@PEAUObject@Detail@NodeEditor@ax@@@std@@@std@@@std@@V<lambda_23f1710fff72307b075c6286d6aaa715>@@@std@@YA_JV?$_Vector_const_iterator@V?$_Vector_val@U?$_Simple_types@PEAUObject@Detail@NodeEditor@ax@@@std@@@std@@@0@0V<lambda_23f1710fff72307b075c6286d6aaa715>@@@Z
xdata	ENDS
;	COMDAT xdata
xdata	SEGMENT
$unwind$??$count_if@V?$_Vector_const_iterator@V?$_Vector_val@U?$_Simple_types@PEAUObject@Detail@NodeEditor@ax@@@std@@@std@@@std@@V<lambda_23f1710fff72307b075c6286d6aaa715>@@@std@@YA_JV?$_Vector_const_iterator@V?$_Vector_val@U?$_Simple_types@PEAUObject@Detail@NodeEditor@ax@@@std@@@std@@@0@0V<lambda_23f1710fff72307b075c6286d6aaa715>@@@Z DD 025051d11H
	DD	0118231dH
	DD	07011002dH
	DD	05010H
	DD	imagerel __CxxFrameHandler4
	DD	imagerel $cppxdata$??$count_if@V?$_Vector_const_iterator@V?$_Vector_val@U?$_Simple_types@PEAUObject@Detail@NodeEditor@ax@@@std@@@std@@@std@@V<lambda_23f1710fff72307b075c6286d6aaa715>@@@std@@YA_JV?$_Vector_const_iterator@V?$_Vector_val@U?$_Simple_types@PEAUObject@Detail@NodeEditor@ax@@@std@@@std@@@0@0V<lambda_23f1710fff72307b075c6286d6aaa715>@@@Z
xdata	ENDS
;	COMDAT xdata
xdata	SEGMENT
$unwind$??$?RPEAUObject@Detail@NodeEditor@ax@@@<lambda_23f1710fff72307b075c6286d6aaa715>@@QEBA?A_PPEAUObject@Detail@NodeEditor@ax@@@Z DD 025051801H
	DD	01132318H
	DD	0700c001fH
	DD	0500bH
xdata	ENDS
;	COMDAT voltbl
voltbl	SEGMENT
_volmd	DB	00H
	DB	05H
voltbl	ENDS
;	COMDAT voltbl
voltbl	SEGMENT
_volmd	DB	00H
	DB	05H
voltbl	ENDS
;	COMDAT xdata
xdata	SEGMENT
$unwind$?dtor$1@?0???$count_if@V?$_Vector_const_iterator@V?$_Vector_val@U?$_Simple_types@PEAUObject@Detail@NodeEditor@ax@@@std@@@std@@@std@@V<lambda_3f736c6210dbcb1743fac1aff84da36f>@@@std@@YA_JV?$_Vector_const_iterator@V?$_Vector_val@U?$_Simple_types@PEAUObject@Detail@NodeEditor@ax@@@std@@@std@@@0@0V<lambda_3f736c6210dbcb1743fac1aff84da36f>@@@Z@4HA DD 031001H
	DD	0700c4210H
	DD	0500bH
xdata	ENDS
;	COMDAT xdata
xdata	SEGMENT
$unwind$?dtor$0@?0???$count_if@V?$_Vector_const_iterator@V?$_Vector_val@U?$_Simple_types@PEAUObject@Detail@NodeEditor@ax@@@std@@@std@@@std@@V<lambda_3f736c6210dbcb1743fac1aff84da36f>@@@std@@YA_JV?$_Vector_const_iterator@V?$_Vector_val@U?$_Simple_types@PEAUObject@Detail@NodeEditor@ax@@@std@@@std@@@0@0V<lambda_3f736c6210dbcb1743fac1aff84da36f>@@@Z@4HA DD 031001H
	DD	0700c4210H
	DD	0500bH
xdata	ENDS
;	COMDAT xdata
xdata	SEGMENT
$ip2state$??$count_if@V?$_Vector_const_iterator@V?$_Vector_val@U?$_Simple_types@PEAUObject@Detail@NodeEditor@ax@@@std@@@std@@@std@@V<lambda_3f736c6210dbcb1743fac1aff84da36f>@@@std@@YA_JV?$_Vector_const_iterator@V?$_Vector_val@U?$_Simple_types@PEAUObject@Detail@NodeEditor@ax@@@std@@@std@@@0@0V<lambda_3f736c6210dbcb1743fac1aff84da36f>@@@Z DB 08H
	DB	00H
	DB	00H
	DB	':'
	DB	04H
	DB	'E', 02H
	DB	02H
	DB	01aH
	DB	00H
xdata	ENDS
;	COMDAT xdata
xdata	SEGMENT
$stateUnwindMap$??$count_if@V?$_Vector_const_iterator@V?$_Vector_val@U?$_Simple_types@PEAUObject@Detail@NodeEditor@ax@@@std@@@std@@@std@@V<lambda_3f736c6210dbcb1743fac1aff84da36f>@@@std@@YA_JV?$_Vector_const_iterator@V?$_Vector_val@U?$_Simple_types@PEAUObject@Detail@NodeEditor@ax@@@std@@@std@@@0@0V<lambda_3f736c6210dbcb1743fac1aff84da36f>@@@Z DB 04H
	DB	0eH
	DD	imagerel ?dtor$0@?0???$count_if@V?$_Vector_const_iterator@V?$_Vector_val@U?$_Simple_types@PEAUObject@Detail@NodeEditor@ax@@@std@@@std@@@std@@V<lambda_3f736c6210dbcb1743fac1aff84da36f>@@@std@@YA_JV?$_Vector_const_iterator@V?$_Vector_val@U?$_Simple_types@PEAUObject@Detail@NodeEditor@ax@@@std@@@std@@@0@0V<lambda_3f736c6210dbcb1743fac1aff84da36f>@@@Z@4HA
	DB	02eH
	DD	imagerel ?dtor$1@?0???$count_if@V?$_Vector_const_iterator@V?$_Vector_val@U?$_Simple_types@PEAUObject@Detail@NodeEditor@ax@@@std@@@std@@@std@@V<lambda_3f736c6210dbcb1743fac1aff84da36f>@@@std@@YA_JV?$_Vector_const_iterator@V?$_Vector_val@U?$_Simple_types@PEAUObject@Detail@NodeEditor@ax@@@std@@@std@@@0@0V<lambda_3f736c6210dbcb1743fac1aff84da36f>@@@Z@4HA
xdata	ENDS
;	COMDAT xdata
xdata	SEGMENT
$cppxdata$??$count_if@V?$_Vector_const_iterator@V?$_Vector_val@U?$_Simple_types@PEAUObject@Detail@NodeEditor@ax@@@std@@@std@@@std@@V<lambda_3f736c6210dbcb1743fac1aff84da36f>@@@std@@YA_JV?$_Vector_const_iterator@V?$_Vector_val@U?$_Simple_types@PEAUObject@Detail@NodeEditor@ax@@@std@@@std@@@0@0V<lambda_3f736c6210dbcb1743fac1aff84da36f>@@@Z DB 028H
	DD	imagerel $stateUnwindMap$??$count_if@V?$_Vector_const_iterator@V?$_Vector_val@U?$_Simple_types@PEAUObject@Detail@NodeEditor@ax@@@std@@@std@@@std@@V<lambda_3f736c6210dbcb1743fac1aff84da36f>@@@std@@YA_JV?$_Vector_const_iterator@V?$_Vector_val@U?$_Simple_types@PEAUObject@Detail@NodeEditor@ax@@@std@@@std@@@0@0V<lambda_3f736c6210dbcb1743fac1aff84da36f>@@@Z
	DD	imagerel $ip2state$??$count_if@V?$_Vector_const_iterator@V?$_Vector_val@U?$_Simple_types@PEAUObject@Detail@NodeEditor@ax@@@std@@@std@@@std@@V<lambda_3f736c6210dbcb1743fac1aff84da36f>@@@std@@YA_JV?$_Vector_const_iterator@V?$_Vector_val@U?$_Simple_types@PEAUObject@Detail@NodeEditor@ax@@@std@@@std@@@0@0V<lambda_3f736c6210dbcb1743fac1aff84da36f>@@@Z
xdata	ENDS
;	COMDAT xdata
xdata	SEGMENT
$unwind$??$count_if@V?$_Vector_const_iterator@V?$_Vector_val@U?$_Simple_types@PEAUObject@Detail@NodeEditor@ax@@@std@@@std@@@std@@V<lambda_3f736c6210dbcb1743fac1aff84da36f>@@@std@@YA_JV?$_Vector_const_iterator@V?$_Vector_val@U?$_Simple_types@PEAUObject@Detail@NodeEditor@ax@@@std@@@std@@@0@0V<lambda_3f736c6210dbcb1743fac1aff84da36f>@@@Z DD 025051d11H
	DD	0118231dH
	DD	07011002dH
	DD	05010H
	DD	imagerel __CxxFrameHandler4
	DD	imagerel $cppxdata$??$count_if@V?$_Vector_const_iterator@V?$_Vector_val@U?$_Simple_types@PEAUObject@Detail@NodeEditor@ax@@@std@@@std@@@std@@V<lambda_3f736c6210dbcb1743fac1aff84da36f>@@@std@@YA_JV?$_Vector_const_iterator@V?$_Vector_val@U?$_Simple_types@PEAUObject@Detail@NodeEditor@ax@@@std@@@std@@@0@0V<lambda_3f736c6210dbcb1743fac1aff84da36f>@@@Z
xdata	ENDS
;	COMDAT xdata
xdata	SEGMENT
$unwind$??$?RPEAUObject@Detail@NodeEditor@ax@@@<lambda_3f736c6210dbcb1743fac1aff84da36f>@@QEBA?A_PPEAUObject@Detail@NodeEditor@ax@@@Z DD 025051801H
	DD	01132318H
	DD	0700c001fH
	DD	0500bH
xdata	ENDS
;	COMDAT voltbl
voltbl	SEGMENT
_volmd	DB	00H
	DB	05H
voltbl	ENDS
;	COMDAT voltbl
voltbl	SEGMENT
_volmd	DB	00H
	DB	05H
voltbl	ENDS
;	COMDAT xdata
xdata	SEGMENT
$unwind$?dtor$1@?0???$count_if@V?$_Vector_const_iterator@V?$_Vector_val@U?$_Simple_types@PEAUObject@Detail@NodeEditor@ax@@@std@@@std@@@std@@V<lambda_66aca6479765757b8aee270ad1341d1d>@@@std@@YA_JV?$_Vector_const_iterator@V?$_Vector_val@U?$_Simple_types@PEAUObject@Detail@NodeEditor@ax@@@std@@@std@@@0@0V<lambda_66aca6479765757b8aee270ad1341d1d>@@@Z@4HA DD 031001H
	DD	0700c4210H
	DD	0500bH
xdata	ENDS
;	COMDAT xdata
xdata	SEGMENT
$unwind$?dtor$0@?0???$count_if@V?$_Vector_const_iterator@V?$_Vector_val@U?$_Simple_types@PEAUObject@Detail@NodeEditor@ax@@@std@@@std@@@std@@V<lambda_66aca6479765757b8aee270ad1341d1d>@@@std@@YA_JV?$_Vector_const_iterator@V?$_Vector_val@U?$_Simple_types@PEAUObject@Detail@NodeEditor@ax@@@std@@@std@@@0@0V<lambda_66aca6479765757b8aee270ad1341d1d>@@@Z@4HA DD 031001H
	DD	0700c4210H
	DD	0500bH
xdata	ENDS
;	COMDAT xdata
xdata	SEGMENT
$ip2state$??$count_if@V?$_Vector_const_iterator@V?$_Vector_val@U?$_Simple_types@PEAUObject@Detail@NodeEditor@ax@@@std@@@std@@@std@@V<lambda_66aca6479765757b8aee270ad1341d1d>@@@std@@YA_JV?$_Vector_const_iterator@V?$_Vector_val@U?$_Simple_types@PEAUObject@Detail@NodeEditor@ax@@@std@@@std@@@0@0V<lambda_66aca6479765757b8aee270ad1341d1d>@@@Z DB 08H
	DB	00H
	DB	00H
	DB	':'
	DB	04H
	DB	'E', 02H
	DB	02H
	DB	01aH
	DB	00H
xdata	ENDS
;	COMDAT xdata
xdata	SEGMENT
$stateUnwindMap$??$count_if@V?$_Vector_const_iterator@V?$_Vector_val@U?$_Simple_types@PEAUObject@Detail@NodeEditor@ax@@@std@@@std@@@std@@V<lambda_66aca6479765757b8aee270ad1341d1d>@@@std@@YA_JV?$_Vector_const_iterator@V?$_Vector_val@U?$_Simple_types@PEAUObject@Detail@NodeEditor@ax@@@std@@@std@@@0@0V<lambda_66aca6479765757b8aee270ad1341d1d>@@@Z DB 04H
	DB	0eH
	DD	imagerel ?dtor$0@?0???$count_if@V?$_Vector_const_iterator@V?$_Vector_val@U?$_Simple_types@PEAUObject@Detail@NodeEditor@ax@@@std@@@std@@@std@@V<lambda_66aca6479765757b8aee270ad1341d1d>@@@std@@YA_JV?$_Vector_const_iterator@V?$_Vector_val@U?$_Simple_types@PEAUObject@Detail@NodeEditor@ax@@@std@@@std@@@0@0V<lambda_66aca6479765757b8aee270ad1341d1d>@@@Z@4HA
	DB	02eH
	DD	imagerel ?dtor$1@?0???$count_if@V?$_Vector_const_iterator@V?$_Vector_val@U?$_Simple_types@PEAUObject@Detail@NodeEditor@ax@@@std@@@std@@@std@@V<lambda_66aca6479765757b8aee270ad1341d1d>@@@std@@YA_JV?$_Vector_const_iterator@V?$_Vector_val@U?$_Simple_types@PEAUObject@Detail@NodeEditor@ax@@@std@@@std@@@0@0V<lambda_66aca6479765757b8aee270ad1341d1d>@@@Z@4HA
xdata	ENDS
;	COMDAT xdata
xdata	SEGMENT
$cppxdata$??$count_if@V?$_Vector_const_iterator@V?$_Vector_val@U?$_Simple_types@PEAUObject@Detail@NodeEditor@ax@@@std@@@std@@@std@@V<lambda_66aca6479765757b8aee270ad1341d1d>@@@std@@YA_JV?$_Vector_const_iterator@V?$_Vector_val@U?$_Simple_types@PEAUObject@Detail@NodeEditor@ax@@@std@@@std@@@0@0V<lambda_66aca6479765757b8aee270ad1341d1d>@@@Z DB 028H
	DD	imagerel $stateUnwindMap$??$count_if@V?$_Vector_const_iterator@V?$_Vector_val@U?$_Simple_types@PEAUObject@Detail@NodeEditor@ax@@@std@@@std@@@std@@V<lambda_66aca6479765757b8aee270ad1341d1d>@@@std@@YA_JV?$_Vector_const_iterator@V?$_Vector_val@U?$_Simple_types@PEAUObject@Detail@NodeEditor@ax@@@std@@@std@@@0@0V<lambda_66aca6479765757b8aee270ad1341d1d>@@@Z
	DD	imagerel $ip2state$??$count_if@V?$_Vector_const_iterator@V?$_Vector_val@U?$_Simple_types@PEAUObject@Detail@NodeEditor@ax@@@std@@@std@@@std@@V<lambda_66aca6479765757b8aee270ad1341d1d>@@@std@@YA_JV?$_Vector_const_iterator@V?$_Vector_val@U?$_Simple_types@PEAUObject@Detail@NodeEditor@ax@@@std@@@std@@@0@0V<lambda_66aca6479765757b8aee270ad1341d1d>@@@Z
xdata	ENDS
;	COMDAT xdata
xdata	SEGMENT
$unwind$??$count_if@V?$_Vector_const_iterator@V?$_Vector_val@U?$_Simple_types@PEAUObject@Detail@NodeEditor@ax@@@std@@@std@@@std@@V<lambda_66aca6479765757b8aee270ad1341d1d>@@@std@@YA_JV?$_Vector_const_iterator@V?$_Vector_val@U?$_Simple_types@PEAUObject@Detail@NodeEditor@ax@@@std@@@std@@@0@0V<lambda_66aca6479765757b8aee270ad1341d1d>@@@Z DD 025051d11H
	DD	0118231dH
	DD	07011002dH
	DD	05010H
	DD	imagerel __CxxFrameHandler4
	DD	imagerel $cppxdata$??$count_if@V?$_Vector_const_iterator@V?$_Vector_val@U?$_Simple_types@PEAUObject@Detail@NodeEditor@ax@@@std@@@std@@@std@@V<lambda_66aca6479765757b8aee270ad1341d1d>@@@std@@YA_JV?$_Vector_const_iterator@V?$_Vector_val@U?$_Simple_types@PEAUObject@Detail@NodeEditor@ax@@@std@@@std@@@0@0V<lambda_66aca6479765757b8aee270ad1341d1d>@@@Z
xdata	ENDS
;	COMDAT xdata
xdata	SEGMENT
$unwind$??1?$_Vector_const_iterator@V?$_Vector_val@U?$_Simple_types@PEAUObject@Detail@NodeEditor@ax@@@std@@@std@@@std@@QEAA@XZ DD 025051301H
	DD	010e2313H
	DD	07007001dH
	DD	05006H
xdata	ENDS
;	COMDAT xdata
xdata	SEGMENT
$unwind$?_Unwrapped@?$_Vector_const_iterator@V?$_Vector_val@U?$_Simple_types@PEAUObject@Detail@NodeEditor@ax@@@std@@@std@@@std@@QEBAPEBQEAUObject@Detail@NodeEditor@ax@@XZ DD 025051301H
	DD	010e2313H
	DD	07007001dH
	DD	05006H
xdata	ENDS
;	COMDAT xdata
xdata	SEGMENT
$unwind$?_Verify_range@std@@YAXAEBV?$_Vector_const_iterator@V?$_Vector_val@U?$_Simple_types@PEAUObject@Detail@NodeEditor@ax@@@std@@@std@@@1@0@Z DD 035051801H
	DD	01133318H
	DD	0700c0021H
	DD	0500bH
xdata	ENDS
;	COMDAT xdata
xdata	SEGMENT
$unwind$??0?$_Vector_const_iterator@V?$_Vector_val@U?$_Simple_types@PEAUObject@Detail@NodeEditor@ax@@@std@@@std@@@std@@QEAA@PEAPEAUObject@Detail@NodeEditor@ax@@PEBU_Container_base12@1@@Z DD 025051d01H
	DD	0118231dH
	DD	07011001dH
	DD	05010H
xdata	ENDS
;	COMDAT xdata
xdata	SEGMENT
$unwind$??$?RPEAUObject@Detail@NodeEditor@ax@@@<lambda_66aca6479765757b8aee270ad1341d1d>@@QEBA?A_PPEAUObject@Detail@NodeEditor@ax@@@Z DD 025051801H
	DD	01132318H
	DD	0700c001fH
	DD	0500bH
xdata	ENDS
;	COMDAT xdata
xdata	SEGMENT
$unwind$??__E?Invalid@?$SafePointerType@UObjectId@Detail@NodeEditor@ax@@@Details@NodeEditor@ax@@2UObjectId@Detail@34@B@@YAXXZ DD 025050f01H
	DD	010a230fH
	DD	07003001dH
	DD	05002H
xdata	ENDS
;	COMDAT xdata
xdata	SEGMENT
$unwind$??$BuildIdList@$$CBV?$vector@PEAUObject@Detail@NodeEditor@ax@@V?$allocator@PEAUObject@Detail@NodeEditor@ax@@@std@@@std@@ULinkId@NodeEditor@ax@@V<lambda_aae6843b07c1c292b06cefe3dee011c3>@@@@YAHAEBV?$vector@PEAUObject@Detail@NodeEditor@ax@@V?$allocator@PEAUObject@Detail@NodeEditor@ax@@@std@@@std@@PEAULinkId@NodeEditor@ax@@H$$QEAV<lambda_aae6843b07c1c292b06cefe3dee011c3>@@@Z DD 025052201H
	DD	011d2322H
	DD	07016005bH
	DD	05015H
xdata	ENDS
;	COMDAT xdata
xdata	SEGMENT
$unwind$??$BuildIdList@$$CBV?$vector@PEAUObject@Detail@NodeEditor@ax@@V?$allocator@PEAUObject@Detail@NodeEditor@ax@@@std@@@std@@UNodeId@NodeEditor@ax@@V<lambda_23f1710fff72307b075c6286d6aaa715>@@@@YAHAEBV?$vector@PEAUObject@Detail@NodeEditor@ax@@V?$allocator@PEAUObject@Detail@NodeEditor@ax@@@std@@@std@@PEAUNodeId@NodeEditor@ax@@H$$QEAV<lambda_23f1710fff72307b075c6286d6aaa715>@@@Z DD 025052201H
	DD	011d2322H
	DD	07016005bH
	DD	05015H
xdata	ENDS
;	COMDAT xdata
xdata	SEGMENT
$unwind$??$BuildIdList@$$CBV?$vector@PEAUObject@Detail@NodeEditor@ax@@V?$allocator@PEAUObject@Detail@NodeEditor@ax@@@std@@@std@@ULinkId@NodeEditor@ax@@V<lambda_3f736c6210dbcb1743fac1aff84da36f>@@@@YAHAEBV?$vector@PEAUObject@Detail@NodeEditor@ax@@V?$allocator@PEAUObject@Detail@NodeEditor@ax@@@std@@@std@@PEAULinkId@NodeEditor@ax@@H$$QEAV<lambda_3f736c6210dbcb1743fac1aff84da36f>@@@Z DD 025052201H
	DD	011d2322H
	DD	07016005bH
	DD	05015H
xdata	ENDS
;	COMDAT xdata
xdata	SEGMENT
$unwind$??$BuildIdList@$$CBV?$vector@PEAUObject@Detail@NodeEditor@ax@@V?$allocator@PEAUObject@Detail@NodeEditor@ax@@@std@@@std@@UNodeId@NodeEditor@ax@@V<lambda_66aca6479765757b8aee270ad1341d1d>@@@@YAHAEBV?$vector@PEAUObject@Detail@NodeEditor@ax@@V?$allocator@PEAUObject@Detail@NodeEditor@ax@@@std@@@std@@PEAUNodeId@NodeEditor@ax@@H$$QEAV<lambda_66aca6479765757b8aee270ad1341d1d>@@@Z DD 025052201H
	DD	011d2322H
	DD	07016005bH
	DD	05015H
xdata	ENDS
;	COMDAT xdata
xdata	SEGMENT
$unwind$??__Fs_EmptyConfig@?8??GetConfig@NodeEditor@ax@@YAAEBUConfig@12@PEAUEditorContext@12@@Z@YAXXZ DD 025050f01H
	DD	010a230fH
	DD	07003001dH
	DD	05002H
xdata	ENDS
;	COMDAT voltbl
voltbl	SEGMENT
_volmd	DW	041H
	DW	0164H
voltbl	ENDS
;	COMDAT xdata
xdata	SEGMENT
$unwind$??$GetBounds@UNode@Detail@NodeEditor@ax@@@EditorContext@Detail@NodeEditor@ax@@QEAA?AUImRect@@AEBV?$vector@U?$ObjectWrapper@UNode@Detail@NodeEditor@ax@@UNodeId@34@@Detail@NodeEditor@ax@@V?$allocator@U?$ObjectWrapper@UNode@Detail@NodeEditor@ax@@UNodeId@34@@Detail@NodeEditor@ax@@@std@@@std@@@Z DD 035064819H
	DD	0119331eH
	DD	070120042H
	DD	050106011H
	DD	imagerel __GSHandlerCheck
	DD	0208H
xdata	ENDS
;	COMDAT CONST
CONST	SEGMENT
??$GetBounds@UNode@Detail@NodeEditor@ax@@@EditorContext@Detail@NodeEditor@ax@@QEAA?AUImRect@@AEBV?$vector@U?$ObjectWrapper@UNode@Detail@NodeEditor@ax@@UNodeId@34@@Detail@NodeEditor@ax@@V?$allocator@U?$ObjectWrapper@UNode@Detail@NodeEditor@ax@@UNodeId@34@@Detail@NodeEditor@ax@@@std@@@std@@@Z$rtcName$0 DB 062H ; ax::NodeEditor::Detail::EditorContext::GetBounds<ax::NodeEditor::Detail::Node>
	DB	06fH
	DB	075H
	DB	06eH
	DB	064H
	DB	073H
	DB	00H
	ORG $+1
??$GetBounds@UNode@Detail@NodeEditor@ax@@@EditorContext@Detail@NodeEditor@ax@@QEAA?AUImRect@@AEBV?$vector@U?$ObjectWrapper@UNode@Detail@NodeEditor@ax@@UNodeId@34@@Detail@NodeEditor@ax@@V?$allocator@U?$ObjectWrapper@UNode@Detail@NodeEditor@ax@@UNodeId@34@@Detail@NodeEditor@ax@@@std@@@std@@@Z$rtcName$1 DB 06fH ; ax::NodeEditor::Detail::EditorContext::GetBounds<ax::NodeEditor::Detail::Node>
	DB	062H
	DB	06aH
	DB	065H
	DB	063H
	DB	074H
	DB	00H
	ORG $+1
??$GetBounds@UNode@Detail@NodeEditor@ax@@@EditorContext@Detail@NodeEditor@ax@@QEAA?AUImRect@@AEBV?$vector@U?$ObjectWrapper@UNode@Detail@NodeEditor@ax@@UNodeId@34@@Detail@NodeEditor@ax@@V?$allocator@U?$ObjectWrapper@UNode@Detail@NodeEditor@ax@@UNodeId@34@@Detail@NodeEditor@ax@@@std@@@std@@@Z$rtcVarDesc DD 0c8H ; ax::NodeEditor::Detail::EditorContext::GetBounds<ax::NodeEditor::Detail::Node>
	DD	010H
	DQ	FLAT:??$GetBounds@UNode@Detail@NodeEditor@ax@@@EditorContext@Detail@NodeEditor@ax@@QEAA?AUImRect@@AEBV?$vector@U?$ObjectWrapper@UNode@Detail@NodeEditor@ax@@UNodeId@34@@Detail@NodeEditor@ax@@V?$allocator@U?$ObjectWrapper@UNode@Detail@NodeEditor@ax@@UNodeId@34@@Detail@NodeEditor@ax@@@std@@@std@@@Z$rtcName$1
	DD	038H
	DD	010H
	DQ	FLAT:??$GetBounds@UNode@Detail@NodeEditor@ax@@@EditorContext@Detail@NodeEditor@ax@@QEAA?AUImRect@@AEBV?$vector@U?$ObjectWrapper@UNode@Detail@NodeEditor@ax@@UNodeId@34@@Detail@NodeEditor@ax@@V?$allocator@U?$ObjectWrapper@UNode@Detail@NodeEditor@ax@@UNodeId@34@@Detail@NodeEditor@ax@@@std@@@std@@@Z$rtcName$0
	ORG $+96
??$GetBounds@UNode@Detail@NodeEditor@ax@@@EditorContext@Detail@NodeEditor@ax@@QEAA?AUImRect@@AEBV?$vector@U?$ObjectWrapper@UNode@Detail@NodeEditor@ax@@UNodeId@34@@Detail@NodeEditor@ax@@V?$allocator@U?$ObjectWrapper@UNode@Detail@NodeEditor@ax@@UNodeId@34@@Detail@NodeEditor@ax@@@std@@@std@@@Z$rtcFrameData DD 02H ; ax::NodeEditor::Detail::EditorContext::GetBounds<ax::NodeEditor::Detail::Node>
	DD	00H
	DQ	FLAT:??$GetBounds@UNode@Detail@NodeEditor@ax@@@EditorContext@Detail@NodeEditor@ax@@QEAA?AUImRect@@AEBV?$vector@U?$ObjectWrapper@UNode@Detail@NodeEditor@ax@@UNodeId@34@@Detail@NodeEditor@ax@@V?$allocator@U?$ObjectWrapper@UNode@Detail@NodeEditor@ax@@UNodeId@34@@Detail@NodeEditor@ax@@@std@@@std@@@Z$rtcVarDesc
CONST	ENDS
;	COMDAT voltbl
voltbl	SEGMENT
_volmd	DW	041H
	DW	0173H
voltbl	ENDS
;	COMDAT xdata
xdata	SEGMENT
$unwind$??$GetBounds@UObject@Detail@NodeEditor@ax@@@EditorContext@Detail@NodeEditor@ax@@QEAA?AUImRect@@AEBV?$vector@PEAUObject@Detail@NodeEditor@ax@@V?$allocator@PEAUObject@Detail@NodeEditor@ax@@@std@@@std@@@Z DD 035064819H
	DD	0119331eH
	DD	070120042H
	DD	050106011H
	DD	imagerel __GSHandlerCheck
	DD	0200H
xdata	ENDS
;	COMDAT CONST
CONST	SEGMENT
??$GetBounds@UObject@Detail@NodeEditor@ax@@@EditorContext@Detail@NodeEditor@ax@@QEAA?AUImRect@@AEBV?$vector@PEAUObject@Detail@NodeEditor@ax@@V?$allocator@PEAUObject@Detail@NodeEditor@ax@@@std@@@std@@@Z$rtcName$0 DB 062H ; ax::NodeEditor::Detail::EditorContext::GetBounds<ax::NodeEditor::Detail::Object>
	DB	06fH
	DB	075H
	DB	06eH
	DB	064H
	DB	073H
	DB	00H
	ORG $+9
??$GetBounds@UObject@Detail@NodeEditor@ax@@@EditorContext@Detail@NodeEditor@ax@@QEAA?AUImRect@@AEBV?$vector@PEAUObject@Detail@NodeEditor@ax@@V?$allocator@PEAUObject@Detail@NodeEditor@ax@@@std@@@std@@@Z$rtcVarDesc DD 038H ; ax::NodeEditor::Detail::EditorContext::GetBounds<ax::NodeEditor::Detail::Object>
	DD	010H
	DQ	FLAT:??$GetBounds@UObject@Detail@NodeEditor@ax@@@EditorContext@Detail@NodeEditor@ax@@QEAA?AUImRect@@AEBV?$vector@PEAUObject@Detail@NodeEditor@ax@@V?$allocator@PEAUObject@Detail@NodeEditor@ax@@@std@@@std@@@Z$rtcName$0
	ORG $+48
??$GetBounds@UObject@Detail@NodeEditor@ax@@@EditorContext@Detail@NodeEditor@ax@@QEAA?AUImRect@@AEBV?$vector@PEAUObject@Detail@NodeEditor@ax@@V?$allocator@PEAUObject@Detail@NodeEditor@ax@@@std@@@std@@@Z$rtcFrameData DD 01H ; ax::NodeEditor::Detail::EditorContext::GetBounds<ax::NodeEditor::Detail::Object>
	DD	00H
	DQ	FLAT:??$GetBounds@UObject@Detail@NodeEditor@ax@@@EditorContext@Detail@NodeEditor@ax@@QEAA?AUImRect@@AEBV?$vector@PEAUObject@Detail@NodeEditor@ax@@V?$allocator@PEAUObject@Detail@NodeEditor@ax@@@std@@@std@@@Z$rtcVarDesc
CONST	ENDS
;	COMDAT xdata
xdata	SEGMENT
$unwind$??_GEditorContext@Detail@NodeEditor@ax@@QEAAPEAXI@Z DD 025051701H
	DD	01122317H
	DD	0700b001dH
	DD	0500aH
xdata	ENDS
;	COMDAT xdata
xdata	SEGMENT
$unwind$?_Unchecked_end@?$vector@U?$ObjectWrapper@UNode@Detail@NodeEditor@ax@@UNodeId@34@@Detail@NodeEditor@ax@@V?$allocator@U?$ObjectWrapper@UNode@Detail@NodeEditor@ax@@UNodeId@34@@Detail@NodeEditor@ax@@@std@@@std@@QEBAPEBU?$ObjectWrapper@UNode@Detail@NodeEditor@ax@@UNodeId@34@@Detail@NodeEditor@ax@@XZ DD 025051301H
	DD	010e2313H
	DD	07007001dH
	DD	05006H
xdata	ENDS
;	COMDAT xdata
xdata	SEGMENT
$unwind$?_Unchecked_begin@?$vector@U?$ObjectWrapper@UNode@Detail@NodeEditor@ax@@UNodeId@34@@Detail@NodeEditor@ax@@V?$allocator@U?$ObjectWrapper@UNode@Detail@NodeEditor@ax@@UNodeId@34@@Detail@NodeEditor@ax@@@std@@@std@@QEBAPEBU?$ObjectWrapper@UNode@Detail@NodeEditor@ax@@UNodeId@34@@Detail@NodeEditor@ax@@XZ DD 025051301H
	DD	010e2313H
	DD	07007001dH
	DD	05006H
xdata	ENDS
;	COMDAT xdata
xdata	SEGMENT
$unwind$?GetBackgroundDoubleClickButtonIndex@EditorContext@Detail@NodeEditor@ax@@QEBAHXZ DD 025051301H
	DD	010e2313H
	DD	07007001dH
	DD	05006H
xdata	ENDS
;	COMDAT xdata
xdata	SEGMENT
$unwind$?GetBackgroundClickButtonIndex@EditorContext@Detail@NodeEditor@ax@@QEBAHXZ DD 025051301H
	DD	010e2313H
	DD	07007001dH
	DD	05006H
xdata	ENDS
;	COMDAT xdata
xdata	SEGMENT
$unwind$?IsBackgroundDoubleClicked@EditorContext@Detail@NodeEditor@ax@@QEBA_NXZ DD 025051301H
	DD	010e2313H
	DD	07007001fH
	DD	05006H
xdata	ENDS
;	COMDAT xdata
xdata	SEGMENT
$unwind$?IsBackgroundClicked@EditorContext@Detail@NodeEditor@ax@@QEBA_NXZ DD 025051301H
	DD	010e2313H
	DD	07007001fH
	DD	05006H
xdata	ENDS
;	COMDAT xdata
xdata	SEGMENT
$unwind$?GetDoubleClickedLink@EditorContext@Detail@NodeEditor@ax@@QEBA?AULinkId@34@XZ DD 025051801H
	DD	01132318H
	DD	0700c001dH
	DD	0500bH
xdata	ENDS
;	COMDAT xdata
xdata	SEGMENT
$unwind$?GetDoubleClickedPin@EditorContext@Detail@NodeEditor@ax@@QEBA?AUPinId@34@XZ DD 025051801H
	DD	01132318H
	DD	0700c001dH
	DD	0500bH
xdata	ENDS
;	COMDAT xdata
xdata	SEGMENT
$unwind$?GetDoubleClickedNode@EditorContext@Detail@NodeEditor@ax@@QEBA?AUNodeId@34@XZ DD 025051801H
	DD	01132318H
	DD	0700c001dH
	DD	0500bH
xdata	ENDS
;	COMDAT xdata
xdata	SEGMENT
$unwind$?GetHoveredLink@EditorContext@Detail@NodeEditor@ax@@QEBA?AULinkId@34@XZ DD 025051801H
	DD	01132318H
	DD	0700c001dH
	DD	0500bH
xdata	ENDS
;	COMDAT xdata
xdata	SEGMENT
$unwind$?GetHoveredPin@EditorContext@Detail@NodeEditor@ax@@QEBA?AUPinId@34@XZ DD 025051801H
	DD	01132318H
	DD	0700c001dH
	DD	0500bH
xdata	ENDS
;	COMDAT xdata
xdata	SEGMENT
$unwind$?GetHoveredNode@EditorContext@Detail@NodeEditor@ax@@QEBA?AUNodeId@34@XZ DD 025051801H
	DD	01132318H
	DD	0700c001dH
	DD	0500bH
xdata	ENDS
;	COMDAT xdata
xdata	SEGMENT
$unwind$?NavigateTo@EditorContext@Detail@NodeEditor@ax@@QEAAXAEBUImRect@@_NM@Z DD 035052301H
	DD	011e3323H
	DD	070170023H
	DD	05016H
xdata	ENDS
;	COMDAT xdata
xdata	SEGMENT
$unwind$?GetContentBounds@EditorContext@Detail@NodeEditor@ax@@QEAA?AUImRect@@XZ DD 025051801H
	DD	01132318H
	DD	0700c001dH
	DD	0500bH
xdata	ENDS
;	COMDAT xdata
xdata	SEGMENT
$unwind$?GetSelectionBounds@EditorContext@Detail@NodeEditor@ax@@QEAA?AUImRect@@XZ DD 025051801H
	DD	01132318H
	DD	0700c001dH
	DD	0500bH
xdata	ENDS
;	COMDAT xdata
xdata	SEGMENT
$unwind$?ToScreen@EditorContext@Detail@NodeEditor@ax@@QEBA?AUImVec2@@AEBU5@@Z DD 025051d01H
	DD	0118231dH
	DD	07011001fH
	DD	05010H
xdata	ENDS
;	COMDAT xdata
xdata	SEGMENT
$unwind$?ToCanvas@EditorContext@Detail@NodeEditor@ax@@QEBA?AUImVec2@@AEBU5@@Z DD 025051d01H
	DD	0118231dH
	DD	07011001fH
	DD	05010H
xdata	ENDS
;	COMDAT xdata
xdata	SEGMENT
$unwind$?GetRect@EditorContext@Detail@NodeEditor@ax@@QEBAAEBUImRect@@XZ DD 025051301H
	DD	010e2313H
	DD	07007001dH
	DD	05006H
xdata	ENDS
;	COMDAT xdata
xdata	SEGMENT
$unwind$?GetView@EditorContext@Detail@NodeEditor@ax@@QEBAAEBUCanvasView@ImGuiEx@@XZ DD 025051301H
	DD	010e2313H
	DD	07007001dH
	DD	05006H
xdata	ENDS
;	COMDAT xdata
xdata	SEGMENT
$unwind$?GetShortcut@EditorContext@Detail@NodeEditor@ax@@QEAAAEAUShortcutAction@234@XZ DD 025051301H
	DD	010e2313H
	DD	07007001dH
	DD	05006H
xdata	ENDS
;	COMDAT xdata
xdata	SEGMENT
$unwind$?GetContextMenu@EditorContext@Detail@NodeEditor@ax@@QEAAAEAUContextMenuAction@234@XZ DD 025051301H
	DD	010e2313H
	DD	07007001dH
	DD	05006H
xdata	ENDS
;	COMDAT xdata
xdata	SEGMENT
$unwind$?GetItemDeleter@EditorContext@Detail@NodeEditor@ax@@QEAAAEAUDeleteItemsAction@234@XZ DD 025051301H
	DD	010e2313H
	DD	07007001dH
	DD	05006H
xdata	ENDS
;	COMDAT xdata
xdata	SEGMENT
$unwind$?GetItemCreator@EditorContext@Detail@NodeEditor@ax@@QEAAAEAUCreateItemAction@234@XZ DD 025051301H
	DD	010e2313H
	DD	07007001dH
	DD	05006H
xdata	ENDS
;	COMDAT xdata
xdata	SEGMENT
$unwind$?GetHintBuilder@EditorContext@Detail@NodeEditor@ax@@QEAAAEAUHintBuilder@234@XZ DD 025051301H
	DD	010e2313H
	DD	07007001dH
	DD	05006H
xdata	ENDS
;	COMDAT xdata
xdata	SEGMENT
$unwind$?GetNodeBuilder@EditorContext@Detail@NodeEditor@ax@@QEAAAEAUNodeBuilder@234@XZ DD 025051301H
	DD	010e2313H
	DD	07007001dH
	DD	05006H
xdata	ENDS
;	COMDAT xdata
xdata	SEGMENT
$unwind$?GetStyle@EditorContext@Detail@NodeEditor@ax@@QEAAAEAUStyle@234@XZ DD 025051301H
	DD	010e2313H
	DD	07007001dH
	DD	05006H
xdata	ENDS
;	COMDAT xdata
xdata	SEGMENT
$unwind$?GetConfig@EditorContext@Detail@NodeEditor@ax@@QEBAAEBUConfig@234@XZ DD 025051301H
	DD	010e2313H
	DD	07007001dH
	DD	05006H
xdata	ENDS
;	COMDAT xdata
xdata	SEGMENT
$unwind$?size@?$vector@PEAUObject@Detail@NodeEditor@ax@@V?$allocator@PEAUObject@Detail@NodeEditor@ax@@@std@@@std@@QEBA_KXZ DD 025051301H
	DD	010e2313H
	DD	070070021H
	DD	05006H
xdata	ENDS
;	COMDAT xdata
xdata	SEGMENT
$unwind$?_Unchecked_end@?$vector@PEAUObject@Detail@NodeEditor@ax@@V?$allocator@PEAUObject@Detail@NodeEditor@ax@@@std@@@std@@QEBAPEBQEAUObject@Detail@NodeEditor@ax@@XZ DD 025051301H
	DD	010e2313H
	DD	07007001dH
	DD	05006H
xdata	ENDS
;	COMDAT xdata
xdata	SEGMENT
$unwind$?_Unchecked_begin@?$vector@PEAUObject@Detail@NodeEditor@ax@@V?$allocator@PEAUObject@Detail@NodeEditor@ax@@@std@@@std@@QEBAPEBQEAUObject@Detail@NodeEditor@ax@@XZ DD 025051301H
	DD	010e2313H
	DD	07007001dH
	DD	05006H
xdata	ENDS
;	COMDAT xdata
xdata	SEGMENT
$unwind$?end@?$vector@PEAUObject@Detail@NodeEditor@ax@@V?$allocator@PEAUObject@Detail@NodeEditor@ax@@@std@@@std@@QEBA?AV?$_Vector_const_iterator@V?$_Vector_val@U?$_Simple_types@PEAUObject@Detail@NodeEditor@ax@@@std@@@std@@@2@XZ DD 025051801H
	DD	01132318H
	DD	0700c0023H
	DD	0500bH
xdata	ENDS
;	COMDAT xdata
xdata	SEGMENT
$unwind$?begin@?$vector@PEAUObject@Detail@NodeEditor@ax@@V?$allocator@PEAUObject@Detail@NodeEditor@ax@@@std@@@std@@QEBA?AV?$_Vector_const_iterator@V?$_Vector_val@U?$_Simple_types@PEAUObject@Detail@NodeEditor@ax@@@std@@@std@@@2@XZ DD 025051801H
	DD	01132318H
	DD	0700c0023H
	DD	0500bH
xdata	ENDS
;	COMDAT xdata
xdata	SEGMENT
$unwind$?GetBounds@Node@Detail@NodeEditor@ax@@UEBA?AUImRect@@XZ DD 025061901H
	DD	01142319H
	DD	0700d001cH
	DD	0500b600cH
xdata	ENDS
;	COMDAT xdata
xdata	SEGMENT
$unwind$?CenterOnScreenInNextFrame@Node@Detail@NodeEditor@ax@@QEAAXXZ DD 025051301H
	DD	010e2313H
	DD	07007001dH
	DD	05006H
xdata	ENDS
;	COMDAT xdata
xdata	SEGMENT
$unwind$??$?0X@?$SafePointerType@ULinkId@NodeEditor@ax@@@Details@NodeEditor@ax@@QEAA@PEAX@Z DD 025051801H
	DD	01132318H
	DD	0700c001dH
	DD	0500bH
xdata	ENDS
;	COMDAT xdata
xdata	SEGMENT
$unwind$??$?0X@LinkId@NodeEditor@ax@@QEAA@PEAX@Z DD 025051801H
	DD	01132318H
	DD	0700c001dH
	DD	0500bH
xdata	ENDS
;	COMDAT xdata
xdata	SEGMENT
$unwind$??$?0X@?$SafePointerType@UNodeId@NodeEditor@ax@@@Details@NodeEditor@ax@@QEAA@PEAX@Z DD 025051801H
	DD	01132318H
	DD	0700c001dH
	DD	0500bH
xdata	ENDS
;	COMDAT xdata
xdata	SEGMENT
$unwind$??$?0X@NodeId@NodeEditor@ax@@QEAA@PEAX@Z DD 025051801H
	DD	01132318H
	DD	0700c001dH
	DD	0500bH
xdata	ENDS
;	COMDAT xdata
xdata	SEGMENT
$unwind$??$AsPointer@X@?$SafePointerType@UObjectId@Detail@NodeEditor@ax@@@Details@NodeEditor@ax@@QEBAPEAXXZ DD 025051301H
	DD	010e2313H
	DD	07007001dH
	DD	05006H
xdata	ENDS
;	COMDAT xdata
xdata	SEGMENT
$unwind$??0ObjectId@Detail@NodeEditor@ax@@QEAA@_K@Z DD 025051801H
	DD	01132318H
	DD	0700c001dH
	DD	0500bH
xdata	ENDS
;	COMDAT xdata
xdata	SEGMENT
$unwind$??0?$SafePointerType@UObjectId@Detail@NodeEditor@ax@@@Details@NodeEditor@ax@@QEAA@_K@Z DD 025051801H
	DD	01132318H
	DD	0700c001dH
	DD	0500bH
xdata	ENDS
;	COMDAT xdata
xdata	SEGMENT
$unwind$?Get@?$SafeType@_KUObjectId@Detail@NodeEditor@ax@@@Details@NodeEditor@ax@@QEBA_KXZ DD 025051301H
	DD	010e2313H
	DD	07007001dH
	DD	05006H
xdata	ENDS
;	COMDAT xdata
xdata	SEGMENT
$unwind$??0?$SafeType@_KUObjectId@Detail@NodeEditor@ax@@@Details@NodeEditor@ax@@QEAA@_K@Z DD 025051801H
	DD	01132318H
	DD	0700c001dH
	DD	0500bH
xdata	ENDS
;	COMDAT xdata
xdata	SEGMENT
$unwind$?View@Canvas@ImGuiEx@@QEBAAEBUCanvasView@2@XZ DD 025051301H
	DD	010e2313H
	DD	07007001dH
	DD	05006H
xdata	ENDS
;	COMDAT xdata
xdata	SEGMENT
$unwind$?Rect@Canvas@ImGuiEx@@QEBAAEBUImRect@@XZ DD 025051301H
	DD	010e2313H
	DD	07007001dH
	DD	05006H
xdata	ENDS
;	COMDAT voltbl
voltbl	SEGMENT
_volmd	DB	036H
	DB	07eH
voltbl	ENDS
;	COMDAT xdata
xdata	SEGMENT
$unwind$?_Orphan_me_locked_v3@_Iterator_base12@std@@AEAAXXZ DD 025053d19H
	DD	010e2313H
	DD	070070021H
	DD	05006H
	DD	imagerel __GSHandlerCheck
	DD	0f8H
xdata	ENDS
;	COMDAT CONST
CONST	SEGMENT
?_Orphan_me_locked_v3@_Iterator_base12@std@@AEAAXXZ$rtcName$0 DB 05fH ; std::_Iterator_base12::_Orphan_me_locked_v3
	DB	04cH
	DB	06fH
	DB	063H
	DB	06bH
	DB	00H
	ORG $+10
?_Orphan_me_locked_v3@_Iterator_base12@std@@AEAAXXZ$rtcVarDesc DD 024H ; std::_Iterator_base12::_Orphan_me_locked_v3
	DD	04H
	DQ	FLAT:?_Orphan_me_locked_v3@_Iterator_base12@std@@AEAAXXZ$rtcName$0
	ORG $+48
?_Orphan_me_locked_v3@_Iterator_base12@std@@AEAAXXZ$rtcFrameData DD 01H ; std::_Iterator_base12::_Orphan_me_locked_v3
	DD	00H
	DQ	FLAT:?_Orphan_me_locked_v3@_Iterator_base12@std@@AEAAXXZ$rtcVarDesc
CONST	ENDS
;	COMDAT xdata
xdata	SEGMENT
$unwind$?_Orphan_me_unlocked_v3@_Iterator_base12@std@@AEAAXXZ DD 035051301H
	DD	010e3313H
	DD	070070027H
	DD	05006H
xdata	ENDS
;	COMDAT voltbl
voltbl	SEGMENT
_volmd	DB	03bH
	DB	08aH
voltbl	ENDS
;	COMDAT xdata
xdata	SEGMENT
$unwind$?_Adopt_locked@_Iterator_base12@std@@AEAAXPEBU_Container_base12@2@@Z DD 025054219H
	DD	01132318H
	DD	0700c0021H
	DD	0500bH
	DD	imagerel __GSHandlerCheck
	DD	0f8H
xdata	ENDS
;	COMDAT CONST
CONST	SEGMENT
?_Adopt_locked@_Iterator_base12@std@@AEAAXPEBU_Container_base12@2@@Z$rtcName$0 DB 05fH ; std::_Iterator_base12::_Adopt_locked
	DB	04cH
	DB	06fH
	DB	063H
	DB	06bH
	DB	00H
	ORG $+10
?_Adopt_locked@_Iterator_base12@std@@AEAAXPEBU_Container_base12@2@@Z$rtcVarDesc DD 024H ; std::_Iterator_base12::_Adopt_locked
	DD	04H
	DQ	FLAT:?_Adopt_locked@_Iterator_base12@std@@AEAAXPEBU_Container_base12@2@@Z$rtcName$0
	ORG $+48
?_Adopt_locked@_Iterator_base12@std@@AEAAXPEBU_Container_base12@2@@Z$rtcFrameData DD 01H ; std::_Iterator_base12::_Adopt_locked
	DD	00H
	DQ	FLAT:?_Adopt_locked@_Iterator_base12@std@@AEAAXPEBU_Container_base12@2@@Z$rtcVarDesc
CONST	ENDS
;	COMDAT xdata
xdata	SEGMENT
$unwind$?_Adopt_unlocked@_Iterator_base12@std@@AEAAXPEBU_Container_base12@2@@Z DD 025051801H
	DD	01132318H
	DD	0700c0021H
	DD	0500bH
xdata	ENDS
;	COMDAT xdata
xdata	SEGMENT
$unwind$?_Getcont@_Iterator_base12@std@@QEBAPEBU_Container_base12@2@XZ DD 025051301H
	DD	010e2313H
	DD	07007001fH
	DD	05006H
xdata	ENDS
;	COMDAT xdata
xdata	SEGMENT
$unwind$?_Adopt@_Iterator_base12@std@@QEAAXPEBU_Container_base12@2@@Z DD 025051801H
	DD	01132318H
	DD	0700c001dH
	DD	0500bH
xdata	ENDS
;	COMDAT xdata
xdata	SEGMENT
$unwind$??1_Iterator_base12@std@@QEAA@XZ DD 025051301H
	DD	010e2313H
	DD	07007001dH
	DD	05006H
xdata	ENDS
;	COMDAT xdata
xdata	SEGMENT
$unwind$??0_Iterator_base12@std@@QEAA@XZ DD 025051301H
	DD	010e2313H
	DD	07007001dH
	DD	05006H
xdata	ENDS
;	COMDAT xdata
xdata	SEGMENT
$unwind$?ImRect_IsEmpty@@YA_NAEBUImRect@@@Z DD 025051301H
	DD	010e2313H
	DD	07007001fH
	DD	05006H
xdata	ENDS
;	COMDAT xdata
xdata	SEGMENT
$unwind$?Add@ImRect@@QEAAXAEBU1@@Z DD 025031401H
	DD	0b20f2314H
	DD	0500bH
xdata	ENDS
;	COMDAT xdata
xdata	SEGMENT
$unwind$?GetSize@ImRect@@QEBA?AUImVec2@@XZ DD 025031401H
	DD	0b20f2314H
	DD	0500bH
xdata	ENDS
;	COMDAT xdata
xdata	SEGMENT
$unwind$??0ImRect@@QEAA@MMMM@Z DD 025032101H
	DD	0d21c2321H
	DD	05018H
xdata	ENDS
;	COMDAT xdata
xdata	SEGMENT
$unwind$??0ImRect@@QEAA@XZ DD 025030f01H
	DD	0d20a230fH
	DD	05006H
xdata	ENDS
;	COMDAT xdata
xdata	SEGMENT
$unwind$??0?$SafePointerType@ULinkId@NodeEditor@ax@@@Details@NodeEditor@ax@@QEAA@_K@Z DD 025051801H
	DD	01132318H
	DD	0700c001dH
	DD	0500bH
xdata	ENDS
;	COMDAT xdata
xdata	SEGMENT
$unwind$??0?$SafeType@_KULinkId@NodeEditor@ax@@@Details@NodeEditor@ax@@QEAA@_K@Z DD 025051801H
	DD	01132318H
	DD	0700c001dH
	DD	0500bH
xdata	ENDS
;	COMDAT xdata
xdata	SEGMENT
$unwind$??0?$SafePointerType@UNodeId@NodeEditor@ax@@@Details@NodeEditor@ax@@QEAA@_K@Z DD 025051801H
	DD	01132318H
	DD	0700c001dH
	DD	0500bH
xdata	ENDS
;	COMDAT xdata
xdata	SEGMENT
$unwind$??0?$SafeType@_KUNodeId@NodeEditor@ax@@@Details@NodeEditor@ax@@QEAA@_K@Z DD 025051801H
	DD	01132318H
	DD	0700c001dH
	DD	0500bH
xdata	ENDS
;	COMDAT xdata
xdata	SEGMENT
$unwind$?GetOrderedNodeIds@NodeEditor@ax@@YAHPEAUNodeId@12@H@Z DD 025051701H
	DD	01122317H
	DD	0700b001dH
	DD	0500aH
xdata	ENDS
;	COMDAT xdata
xdata	SEGMENT
$unwind$?GetNodeCount@NodeEditor@ax@@YAHXZ DD 025050f01H
	DD	010a230fH
	DD	07003001dH
	DD	05002H
xdata	ENDS
;	COMDAT xdata
xdata	SEGMENT
$unwind$?CanvasToScreen@NodeEditor@ax@@YA?AUImVec2@@AEBU3@@Z DD 025051801H
	DD	01132318H
	DD	0700c001dH
	DD	0500bH
xdata	ENDS
;	COMDAT xdata
xdata	SEGMENT
$unwind$?ScreenToCanvas@NodeEditor@ax@@YA?AUImVec2@@AEBU3@@Z DD 025051801H
	DD	01132318H
	DD	0700c001dH
	DD	0500bH
xdata	ENDS
;	COMDAT xdata
xdata	SEGMENT
$unwind$?GetScreenSize@NodeEditor@ax@@YA?AUImVec2@@XZ DD 025051301H
	DD	010e2313H
	DD	07007001fH
	DD	05006H
xdata	ENDS
;	COMDAT xdata
xdata	SEGMENT
$unwind$?PinHadAnyLinks@NodeEditor@ax@@YA_NUPinId@12@@Z DD 025051301H
	DD	010e2313H
	DD	07007001dH
	DD	05006H
xdata	ENDS
;	COMDAT xdata
xdata	SEGMENT
$unwind$?GetLinkPins@NodeEditor@ax@@YA_NULinkId@12@PEAUPinId@12@1@Z DD 025051d01H
	DD	0118231dH
	DD	070110021H
	DD	05010H
xdata	ENDS
;	COMDAT xdata
xdata	SEGMENT
$unwind$?GetBackgroundDoubleClickButtonIndex@NodeEditor@ax@@YAHXZ DD 025050f01H
	DD	010a230fH
	DD	07003001dH
	DD	05002H
xdata	ENDS
;	COMDAT xdata
xdata	SEGMENT
$unwind$?GetBackgroundClickButtonIndex@NodeEditor@ax@@YAHXZ DD 025050f01H
	DD	010a230fH
	DD	07003001dH
	DD	05002H
xdata	ENDS
;	COMDAT xdata
xdata	SEGMENT
$unwind$?IsBackgroundDoubleClicked@NodeEditor@ax@@YA_NXZ DD 025050f01H
	DD	010a230fH
	DD	07003001dH
	DD	05002H
xdata	ENDS
;	COMDAT xdata
xdata	SEGMENT
$unwind$?IsBackgroundClicked@NodeEditor@ax@@YA_NXZ DD 025050f01H
	DD	010a230fH
	DD	07003001dH
	DD	05002H
xdata	ENDS
;	COMDAT xdata
xdata	SEGMENT
$unwind$?GetDoubleClickedLink@NodeEditor@ax@@YA?AULinkId@12@XZ DD 025051301H
	DD	010e2313H
	DD	07007001dH
	DD	05006H
xdata	ENDS
;	COMDAT xdata
xdata	SEGMENT
$unwind$?GetDoubleClickedPin@NodeEditor@ax@@YA?AUPinId@12@XZ DD 025051301H
	DD	010e2313H
	DD	07007001dH
	DD	05006H
xdata	ENDS
;	COMDAT xdata
xdata	SEGMENT
$unwind$?GetDoubleClickedNode@NodeEditor@ax@@YA?AUNodeId@12@XZ DD 025051301H
	DD	010e2313H
	DD	07007001dH
	DD	05006H
xdata	ENDS
;	COMDAT xdata
xdata	SEGMENT
$unwind$?GetHoveredLink@NodeEditor@ax@@YA?AULinkId@12@XZ DD 025051301H
	DD	010e2313H
	DD	07007001dH
	DD	05006H
xdata	ENDS
;	COMDAT xdata
xdata	SEGMENT
$unwind$?GetHoveredPin@NodeEditor@ax@@YA?AUPinId@12@XZ DD 025051301H
	DD	010e2313H
	DD	07007001dH
	DD	05006H
xdata	ENDS
;	COMDAT xdata
xdata	SEGMENT
$unwind$?GetHoveredNode@NodeEditor@ax@@YA?AUNodeId@12@XZ DD 025051301H
	DD	010e2313H
	DD	07007001dH
	DD	05006H
xdata	ENDS
;	COMDAT xdata
xdata	SEGMENT
$unwind$?GetCurrentZoom@NodeEditor@ax@@YAMXZ DD 035050f01H
	DD	010a330fH
	DD	07003001fH
	DD	05002H
xdata	ENDS
;	COMDAT xdata
xdata	SEGMENT
$unwind$?EndShortcut@NodeEditor@ax@@YAXXZ DD 025050f01H
	DD	010a230fH
	DD	07003001dH
	DD	05002H
xdata	ENDS
;	COMDAT xdata
xdata	SEGMENT
$unwind$?GetActionContextLinks@NodeEditor@ax@@YAHPEAULinkId@12@H@Z DD 025051701H
	DD	01122317H
	DD	0700b0021H
	DD	0500aH
xdata	ENDS
;	COMDAT xdata
xdata	SEGMENT
$unwind$?GetActionContextNodes@NodeEditor@ax@@YAHPEAUNodeId@12@H@Z DD 025051701H
	DD	01122317H
	DD	0700b0021H
	DD	0500aH
xdata	ENDS
;	COMDAT xdata
xdata	SEGMENT
$unwind$?GetActionContextSize@NodeEditor@ax@@YAHXZ DD 025050f01H
	DD	010a230fH
	DD	07003001dH
	DD	05002H
xdata	ENDS
;	COMDAT xdata
xdata	SEGMENT
$unwind$?AcceptCreateNode@NodeEditor@ax@@YA_NXZ DD 025050f01H
	DD	010a230fH
	DD	07003001dH
	DD	05002H
xdata	ENDS
;	COMDAT xdata
xdata	SEGMENT
$unwind$?AcceptDuplicate@NodeEditor@ax@@YA_NXZ DD 025050f01H
	DD	010a230fH
	DD	07003001dH
	DD	05002H
xdata	ENDS
;	COMDAT xdata
xdata	SEGMENT
$unwind$?AcceptPaste@NodeEditor@ax@@YA_NXZ DD 025050f01H
	DD	010a230fH
	DD	07003001dH
	DD	05002H
xdata	ENDS
;	COMDAT xdata
xdata	SEGMENT
$unwind$?AcceptCopy@NodeEditor@ax@@YA_NXZ DD 025050f01H
	DD	010a230fH
	DD	07003001dH
	DD	05002H
xdata	ENDS
;	COMDAT xdata
xdata	SEGMENT
$unwind$?AcceptCut@NodeEditor@ax@@YA_NXZ DD 025050f01H
	DD	010a230fH
	DD	07003001dH
	DD	05002H
xdata	ENDS
;	COMDAT xdata
xdata	SEGMENT
$unwind$?BeginShortcut@NodeEditor@ax@@YA_NXZ DD 025050f01H
	DD	010a230fH
	DD	07003001dH
	DD	05002H
xdata	ENDS
;	COMDAT xdata
xdata	SEGMENT
$unwind$?AreShortcutsEnabled@NodeEditor@ax@@YA_NXZ DD 025050f01H
	DD	010a230fH
	DD	07003001dH
	DD	05002H
xdata	ENDS
;	COMDAT xdata
xdata	SEGMENT
$unwind$?EnableShortcuts@NodeEditor@ax@@YAX_N@Z DD 025051201H
	DD	010d2312H
	DD	07006001dH
	DD	05005H
xdata	ENDS
;	COMDAT xdata
xdata	SEGMENT
$unwind$?ShowBackgroundContextMenu@NodeEditor@ax@@YA_NXZ DD 025050f01H
	DD	010a230fH
	DD	07003001dH
	DD	05002H
xdata	ENDS
;	COMDAT xdata
xdata	SEGMENT
$unwind$?ShowLinkContextMenu@NodeEditor@ax@@YA_NPEAULinkId@12@@Z DD 025051301H
	DD	010e2313H
	DD	07007001fH
	DD	05006H
xdata	ENDS
;	COMDAT xdata
xdata	SEGMENT
$unwind$?ShowPinContextMenu@NodeEditor@ax@@YA_NPEAUPinId@12@@Z DD 025051301H
	DD	010e2313H
	DD	07007001fH
	DD	05006H
xdata	ENDS
;	COMDAT xdata
xdata	SEGMENT
$unwind$?ShowNodeContextMenu@NodeEditor@ax@@YA_NPEAUNodeId@12@@Z DD 025051301H
	DD	010e2313H
	DD	07007001fH
	DD	05006H
xdata	ENDS
;	COMDAT xdata
xdata	SEGMENT
$unwind$?NavigateToSelection@NodeEditor@ax@@YAX_NM@Z DD 025051801H
	DD	01132318H
	DD	0700c0023H
	DD	0500bH
xdata	ENDS
;	COMDAT xdata
xdata	SEGMENT
$unwind$?NavigateToContent@NodeEditor@ax@@YAXM@Z DD 025051401H
	DD	010f2314H
	DD	070080023H
	DD	05007H
xdata	ENDS
;	COMDAT xdata
xdata	SEGMENT
$unwind$?BreakLinks@NodeEditor@ax@@YAHUPinId@12@@Z DD 025051301H
	DD	010e2313H
	DD	07007001dH
	DD	05006H
xdata	ENDS
;	COMDAT xdata
xdata	SEGMENT
$unwind$?BreakLinks@NodeEditor@ax@@YAHUNodeId@12@@Z DD 025051301H
	DD	010e2313H
	DD	07007001dH
	DD	05006H
xdata	ENDS
;	COMDAT xdata
xdata	SEGMENT
$unwind$?HasAnyLinks@NodeEditor@ax@@YA_NUPinId@12@@Z DD 025051301H
	DD	010e2313H
	DD	07007001dH
	DD	05006H
xdata	ENDS
;	COMDAT xdata
xdata	SEGMENT
$unwind$?HasAnyLinks@NodeEditor@ax@@YA_NUNodeId@12@@Z DD 025051301H
	DD	010e2313H
	DD	07007001dH
	DD	05006H
xdata	ENDS
;	COMDAT xdata
xdata	SEGMENT
$unwind$?DeleteLink@NodeEditor@ax@@YA_NULinkId@12@@Z DD 025051301H
	DD	010e2313H
	DD	070070021H
	DD	05006H
xdata	ENDS
;	COMDAT xdata
xdata	SEGMENT
$unwind$?DeleteNode@NodeEditor@ax@@YA_NUNodeId@12@@Z DD 025051301H
	DD	010e2313H
	DD	070070021H
	DD	05006H
xdata	ENDS
;	COMDAT xdata
xdata	SEGMENT
$unwind$?DeselectLink@NodeEditor@ax@@YAXULinkId@12@@Z DD 025051301H
	DD	010e2313H
	DD	070070021H
	DD	05006H
xdata	ENDS
;	COMDAT xdata
xdata	SEGMENT
$unwind$?DeselectNode@NodeEditor@ax@@YAXUNodeId@12@@Z DD 025051301H
	DD	010e2313H
	DD	070070021H
	DD	05006H
xdata	ENDS
;	COMDAT xdata
xdata	SEGMENT
$unwind$?SelectLink@NodeEditor@ax@@YAXULinkId@12@_N@Z DD 025051701H
	DD	01122317H
	DD	0700b0021H
	DD	0500aH
xdata	ENDS
;	COMDAT xdata
xdata	SEGMENT
$unwind$?SelectNode@NodeEditor@ax@@YAXUNodeId@12@_N@Z DD 025051701H
	DD	01122317H
	DD	0700b0021H
	DD	0500aH
xdata	ENDS
;	COMDAT xdata
xdata	SEGMENT
$unwind$?ClearSelection@NodeEditor@ax@@YAXXZ DD 025050f01H
	DD	010a230fH
	DD	07003001dH
	DD	05002H
xdata	ENDS
;	COMDAT xdata
xdata	SEGMENT
$unwind$?IsLinkSelected@NodeEditor@ax@@YA_NULinkId@12@@Z DD 025051301H
	DD	010e2313H
	DD	070070021H
	DD	05006H
xdata	ENDS
;	COMDAT xdata
xdata	SEGMENT
$unwind$?IsNodeSelected@NodeEditor@ax@@YA_NUNodeId@12@@Z DD 025051301H
	DD	010e2313H
	DD	070070021H
	DD	05006H
xdata	ENDS
;	COMDAT xdata
xdata	SEGMENT
$unwind$?GetSelectedLinks@NodeEditor@ax@@YAHPEAULinkId@12@H@Z DD 025051701H
	DD	01122317H
	DD	0700b0021H
	DD	0500aH
xdata	ENDS
;	COMDAT xdata
xdata	SEGMENT
$unwind$?GetSelectedNodes@NodeEditor@ax@@YAHPEAUNodeId@12@H@Z DD 025051701H
	DD	01122317H
	DD	0700b0021H
	DD	0500aH
xdata	ENDS
;	COMDAT xdata
xdata	SEGMENT
$unwind$?GetSelectedObjectCount@NodeEditor@ax@@YAHXZ DD 025050f01H
	DD	010a230fH
	DD	07003001dH
	DD	05002H
xdata	ENDS
;	COMDAT xdata
xdata	SEGMENT
$unwind$?HasSelectionChanged@NodeEditor@ax@@YA_NXZ DD 025050f01H
	DD	010a230fH
	DD	07003001dH
	DD	05002H
xdata	ENDS
;	COMDAT xdata
xdata	SEGMENT
$unwind$?IsActive@NodeEditor@ax@@YA_NXZ DD 025050f01H
	DD	010a230fH
	DD	07003001dH
	DD	05002H
xdata	ENDS
;	COMDAT xdata
xdata	SEGMENT
$unwind$?IsSuspended@NodeEditor@ax@@YA_NXZ DD 025050f01H
	DD	010a230fH
	DD	07003001dH
	DD	05002H
xdata	ENDS
;	COMDAT xdata
xdata	SEGMENT
$unwind$?Resume@NodeEditor@ax@@YAXXZ DD 025050f01H
	DD	010a230fH
	DD	07003001dH
	DD	05002H
xdata	ENDS
;	COMDAT xdata
xdata	SEGMENT
$unwind$?Suspend@NodeEditor@ax@@YAXXZ DD 025050f01H
	DD	010a230fH
	DD	07003001dH
	DD	05002H
xdata	ENDS
;	COMDAT xdata
xdata	SEGMENT
$unwind$?RestoreNodeState@NodeEditor@ax@@YAXUNodeId@12@@Z DD 025051301H
	DD	010e2313H
	DD	070070021H
	DD	05006H
xdata	ENDS
;	COMDAT xdata
xdata	SEGMENT
$unwind$?GetNodeZPosition@NodeEditor@ax@@YAMUNodeId@12@@Z DD 035051301H
	DD	010e3313H
	DD	07007001fH
	DD	05006H
xdata	ENDS
;	COMDAT xdata
xdata	SEGMENT
$unwind$?SetNodeZPosition@NodeEditor@ax@@YAXUNodeId@12@M@Z DD 025051901H
	DD	01142319H
	DD	0700d001dH
	DD	0500cH
xdata	ENDS
;	COMDAT xdata
xdata	SEGMENT
$unwind$?CenterNodeOnScreen@NodeEditor@ax@@YAXUNodeId@12@@Z DD 025051301H
	DD	010e2313H
	DD	070070021H
	DD	05006H
xdata	ENDS
;	COMDAT xdata
xdata	SEGMENT
$unwind$?GetNodeSize@NodeEditor@ax@@YA?AUImVec2@@UNodeId@12@@Z DD 025051801H
	DD	01132318H
	DD	0700c001dH
	DD	0500bH
xdata	ENDS
;	COMDAT xdata
xdata	SEGMENT
$unwind$?GetNodePosition@NodeEditor@ax@@YA?AUImVec2@@UNodeId@12@@Z DD 025051801H
	DD	01132318H
	DD	0700c001dH
	DD	0500bH
xdata	ENDS
;	COMDAT xdata
xdata	SEGMENT
$unwind$?SetGroupSize@NodeEditor@ax@@YAXUNodeId@12@AEBUImVec2@@@Z DD 025051801H
	DD	01132318H
	DD	0700c001dH
	DD	0500bH
xdata	ENDS
;	COMDAT xdata
xdata	SEGMENT
$unwind$?SetNodePosition@NodeEditor@ax@@YAXUNodeId@12@AEBUImVec2@@@Z DD 025051801H
	DD	01132318H
	DD	0700c001dH
	DD	0500bH
xdata	ENDS
;	COMDAT xdata
xdata	SEGMENT
$unwind$?EndDelete@NodeEditor@ax@@YAXXZ DD 025050f01H
	DD	010a230fH
	DD	070030021H
	DD	05002H
xdata	ENDS
;	COMDAT xdata
xdata	SEGMENT
$unwind$?RejectDeletedItem@NodeEditor@ax@@YAXXZ DD 025050f01H
	DD	010a230fH
	DD	070030021H
	DD	05002H
xdata	ENDS
;	COMDAT xdata
xdata	SEGMENT
$unwind$?AcceptDeletedItem@NodeEditor@ax@@YA_N_N@Z DD 025051201H
	DD	010d2312H
	DD	070060021H
	DD	05005H
xdata	ENDS
;	COMDAT xdata
xdata	SEGMENT
$unwind$?QueryDeletedNode@NodeEditor@ax@@YA_NPEAUNodeId@12@@Z DD 025051301H
	DD	010e2313H
	DD	070070021H
	DD	05006H
xdata	ENDS
;	COMDAT xdata
xdata	SEGMENT
$unwind$?QueryDeletedLink@NodeEditor@ax@@YA_NPEAULinkId@12@PEAUPinId@12@1@Z DD 025051d01H
	DD	0118231dH
	DD	070110021H
	DD	05010H
xdata	ENDS
;	COMDAT xdata
xdata	SEGMENT
$unwind$?BeginDelete@NodeEditor@ax@@YA_NXZ DD 025050f01H
	DD	010a230fH
	DD	070030021H
	DD	05002H
xdata	ENDS
;	COMDAT xdata
xdata	SEGMENT
$unwind$?EndCreate@NodeEditor@ax@@YAXXZ DD 025050f01H
	DD	010a230fH
	DD	070030021H
	DD	05002H
xdata	ENDS
;	COMDAT xdata
xdata	SEGMENT
$unwind$?RejectNewItem@NodeEditor@ax@@YAXAEBUImVec4@@M@Z DD 025051901H
	DD	01142319H
	DD	0700d0027H
	DD	0500cH
xdata	ENDS
;	COMDAT xdata
xdata	SEGMENT
$unwind$?RejectNewItem@NodeEditor@ax@@YAXXZ DD 025050f01H
	DD	010a230fH
	DD	070030021H
	DD	05002H
xdata	ENDS
;	COMDAT xdata
xdata	SEGMENT
$unwind$?AcceptNewItem@NodeEditor@ax@@YA_NAEBUImVec4@@M@Z DD 025051901H
	DD	01142319H
	DD	0700d002bH
	DD	0500cH
xdata	ENDS
;	COMDAT xdata
xdata	SEGMENT
$unwind$?AcceptNewItem@NodeEditor@ax@@YA_NXZ DD 025050f01H
	DD	010a230fH
	DD	070030021H
	DD	05002H
xdata	ENDS
;	COMDAT xdata
xdata	SEGMENT
$unwind$?QueryNewNode@NodeEditor@ax@@YA_NPEAUPinId@12@AEBUImVec4@@M@Z DD 025051e01H
	DD	0119231eH
	DD	07012002bH
	DD	05011H
xdata	ENDS
;	COMDAT xdata
xdata	SEGMENT
$unwind$?QueryNewNode@NodeEditor@ax@@YA_NPEAUPinId@12@@Z DD 025051301H
	DD	010e2313H
	DD	070070021H
	DD	05006H
xdata	ENDS
;	COMDAT xdata
xdata	SEGMENT
$unwind$?QueryNewLink@NodeEditor@ax@@YA_NPEAUPinId@12@0AEBUImVec4@@M@Z DD 025052301H
	DD	011e2323H
	DD	07017002bH
	DD	05016H
xdata	ENDS
;	COMDAT xdata
xdata	SEGMENT
$unwind$?QueryNewLink@NodeEditor@ax@@YA_NPEAUPinId@12@0@Z DD 025051801H
	DD	01132318H
	DD	0700c0021H
	DD	0500bH
xdata	ENDS
;	COMDAT xdata
xdata	SEGMENT
$unwind$?BeginCreate@NodeEditor@ax@@YA_NAEBUImVec4@@M@Z DD 025051901H
	DD	01142319H
	DD	0700d0027H
	DD	0500cH
xdata	ENDS
;	COMDAT xdata
xdata	SEGMENT
$unwind$?Flow@NodeEditor@ax@@YAXULinkId@12@W4FlowDirection@12@@Z DD 025051701H
	DD	01122317H
	DD	0700b0021H
	DD	0500aH
xdata	ENDS
;	COMDAT xdata
xdata	SEGMENT
$unwind$?Link@NodeEditor@ax@@YA_NULinkId@12@UPinId@12@1AEBUImVec4@@M@Z DD 035052201H
	DD	011d3322H
	DD	070160025H
	DD	05015H
xdata	ENDS
;	COMDAT xdata
xdata	SEGMENT
$unwind$?GetNodeBackgroundDrawList@NodeEditor@ax@@YAPEAUImDrawList@@UNodeId@12@@Z DD 025051301H
	DD	010e2313H
	DD	070070021H
	DD	05006H
xdata	ENDS
;	COMDAT xdata
xdata	SEGMENT
$unwind$?EndGroupHint@NodeEditor@ax@@YAXXZ DD 025050f01H
	DD	010a230fH
	DD	07003001dH
	DD	05002H
xdata	ENDS
;	COMDAT xdata
xdata	SEGMENT
$unwind$?GetHintBackgroundDrawList@NodeEditor@ax@@YAPEAUImDrawList@@XZ DD 025050f01H
	DD	010a230fH
	DD	07003001dH
	DD	05002H
xdata	ENDS
;	COMDAT xdata
xdata	SEGMENT
$unwind$?GetHintForegroundDrawList@NodeEditor@ax@@YAPEAUImDrawList@@XZ DD 025050f01H
	DD	010a230fH
	DD	07003001dH
	DD	05002H
xdata	ENDS
;	COMDAT xdata
xdata	SEGMENT
$unwind$?GetGroupMax@NodeEditor@ax@@YA?AUImVec2@@XZ DD 025051301H
	DD	010e2313H
	DD	07007001fH
	DD	05006H
xdata	ENDS
;	COMDAT xdata
xdata	SEGMENT
$unwind$?GetGroupMin@NodeEditor@ax@@YA?AUImVec2@@XZ DD 025051301H
	DD	010e2313H
	DD	07007001fH
	DD	05006H
xdata	ENDS
;	COMDAT xdata
xdata	SEGMENT
$unwind$?BeginGroupHint@NodeEditor@ax@@YA_NUNodeId@12@@Z DD 025051301H
	DD	010e2313H
	DD	07007001fH
	DD	05006H
xdata	ENDS
;	COMDAT xdata
xdata	SEGMENT
$unwind$?EndNode@NodeEditor@ax@@YAXXZ DD 025050f01H
	DD	010a230fH
	DD	07003001dH
	DD	05002H
xdata	ENDS
;	COMDAT xdata
xdata	SEGMENT
$unwind$?Group@NodeEditor@ax@@YAXAEBUImVec2@@@Z DD 025051301H
	DD	010e2313H
	DD	07007001fH
	DD	05006H
xdata	ENDS
;	COMDAT xdata
xdata	SEGMENT
$unwind$?EndPin@NodeEditor@ax@@YAXXZ DD 025050f01H
	DD	010a230fH
	DD	07003001dH
	DD	05002H
xdata	ENDS
;	COMDAT xdata
xdata	SEGMENT
$unwind$?PinPivotAlignment@NodeEditor@ax@@YAXAEBUImVec2@@@Z DD 025051301H
	DD	010e2313H
	DD	07007001fH
	DD	05006H
xdata	ENDS
;	COMDAT xdata
xdata	SEGMENT
$unwind$?PinPivotScale@NodeEditor@ax@@YAXAEBUImVec2@@@Z DD 025051301H
	DD	010e2313H
	DD	07007001fH
	DD	05006H
xdata	ENDS
;	COMDAT xdata
xdata	SEGMENT
$unwind$?PinPivotSize@NodeEditor@ax@@YAXAEBUImVec2@@@Z DD 025051301H
	DD	010e2313H
	DD	07007001fH
	DD	05006H
xdata	ENDS
;	COMDAT xdata
xdata	SEGMENT
$unwind$?PinPivotRect@NodeEditor@ax@@YAXAEBUImVec2@@0@Z DD 025051801H
	DD	01132318H
	DD	0700c001fH
	DD	0500bH
xdata	ENDS
;	COMDAT xdata
xdata	SEGMENT
$unwind$?PinRect@NodeEditor@ax@@YAXAEBUImVec2@@0@Z DD 025051801H
	DD	01132318H
	DD	0700c001fH
	DD	0500bH
xdata	ENDS
;	COMDAT xdata
xdata	SEGMENT
$unwind$?BeginPin@NodeEditor@ax@@YAXUPinId@12@W4PinKind@12@@Z DD 025051701H
	DD	01122317H
	DD	0700b001fH
	DD	0500aH
xdata	ENDS
;	COMDAT xdata
xdata	SEGMENT
$unwind$?BeginNode@NodeEditor@ax@@YAXUNodeId@12@@Z DD 025051301H
	DD	010e2313H
	DD	07007001fH
	DD	05006H
xdata	ENDS
;	COMDAT xdata
xdata	SEGMENT
$unwind$?End@NodeEditor@ax@@YAXXZ DD 025050f01H
	DD	010a230fH
	DD	07003001dH
	DD	05002H
xdata	ENDS
;	COMDAT xdata
xdata	SEGMENT
$unwind$?Begin@NodeEditor@ax@@YAXPEBDAEBUImVec2@@@Z DD 025051801H
	DD	01132318H
	DD	0700c001dH
	DD	0500bH
xdata	ENDS
;	COMDAT xdata
xdata	SEGMENT
$unwind$?PopStyleVar@NodeEditor@ax@@YAXH@Z DD 025051201H
	DD	010d2312H
	DD	07006001fH
	DD	05005H
xdata	ENDS
;	COMDAT xdata
xdata	SEGMENT
$unwind$?PushStyleVar@NodeEditor@ax@@YAXW4StyleVar@12@AEBUImVec4@@@Z DD 025051701H
	DD	01122317H
	DD	0700b001fH
	DD	0500aH
xdata	ENDS
;	COMDAT xdata
xdata	SEGMENT
$unwind$?PushStyleVar@NodeEditor@ax@@YAXW4StyleVar@12@AEBUImVec2@@@Z DD 025051701H
	DD	01122317H
	DD	0700b001fH
	DD	0500aH
xdata	ENDS
;	COMDAT xdata
xdata	SEGMENT
$unwind$?PushStyleVar@NodeEditor@ax@@YAXW4StyleVar@12@M@Z DD 025051801H
	DD	01132318H
	DD	0700c001fH
	DD	0500bH
xdata	ENDS
;	COMDAT xdata
xdata	SEGMENT
$unwind$?PopStyleColor@NodeEditor@ax@@YAXH@Z DD 025051201H
	DD	010d2312H
	DD	07006001fH
	DD	05005H
xdata	ENDS
;	COMDAT xdata
xdata	SEGMENT
$unwind$?PushStyleColor@NodeEditor@ax@@YAXW4StyleColor@12@AEBUImVec4@@@Z DD 025051701H
	DD	01122317H
	DD	0700b001fH
	DD	0500aH
xdata	ENDS
;	COMDAT xdata
xdata	SEGMENT
$unwind$?GetStyleColorName@NodeEditor@ax@@YAPEBDW4StyleColor@12@@Z DD 025051201H
	DD	010d2312H
	DD	07006001fH
	DD	05005H
xdata	ENDS
;	COMDAT xdata
xdata	SEGMENT
$unwind$?GetStyle@NodeEditor@ax@@YAAEAUStyle@12@XZ DD 025050f01H
	DD	010a230fH
	DD	07003001dH
	DD	05002H
xdata	ENDS
;	COMDAT voltbl
voltbl	SEGMENT
_volmd	DB	00H
	DB	05H
voltbl	ENDS
;	COMDAT xdata
xdata	SEGMENT
$unwind$?dtor$0@?0??GetConfig@NodeEditor@ax@@YAAEBUConfig@12@PEAUEditorContext@12@@Z@4HA DD 031001H
	DD	0700c4210H
	DD	0500bH
xdata	ENDS
;	COMDAT xdata
xdata	SEGMENT
$ip2state$?GetConfig@NodeEditor@ax@@YAAEBUConfig@12@PEAUEditorContext@12@@Z DB 06H
	DB	00H
	DB	00H
	DB	'E', 02H
	DB	02H
	DB	'2'
	DB	00H
xdata	ENDS
;	COMDAT xdata
xdata	SEGMENT
$stateUnwindMap$?GetConfig@NodeEditor@ax@@YAAEBUConfig@12@PEAUEditorContext@12@@Z DB 02H
	DB	0eH
	DD	imagerel ?dtor$0@?0??GetConfig@NodeEditor@ax@@YAAEBUConfig@12@PEAUEditorContext@12@@Z@4HA
xdata	ENDS
;	COMDAT xdata
xdata	SEGMENT
$cppxdata$?GetConfig@NodeEditor@ax@@YAAEBUConfig@12@PEAUEditorContext@12@@Z DB 028H
	DD	imagerel $stateUnwindMap$?GetConfig@NodeEditor@ax@@YAAEBUConfig@12@PEAUEditorContext@12@@Z
	DD	imagerel $ip2state$?GetConfig@NodeEditor@ax@@YAAEBUConfig@12@PEAUEditorContext@12@@Z
xdata	ENDS
;	COMDAT xdata
xdata	SEGMENT
$unwind$?GetConfig@NodeEditor@ax@@YAAEBUConfig@12@PEAUEditorContext@12@@Z DD 025051311H
	DD	010e2313H
	DD	070070021H
	DD	05006H
	DD	imagerel __CxxFrameHandler4
	DD	imagerel $cppxdata$?GetConfig@NodeEditor@ax@@YAAEBUConfig@12@PEAUEditorContext@12@@Z
xdata	ENDS
;	COMDAT xdata
xdata	SEGMENT
$unwind$?DestroyEditor@NodeEditor@ax@@YAXPEAUEditorContext@12@@Z DD 025051301H
	DD	010e2313H
	DD	070070029H
	DD	05006H
xdata	ENDS
;	COMDAT voltbl
voltbl	SEGMENT
_volmd	DB	00H
	DB	05H
voltbl	ENDS
;	COMDAT xdata
xdata	SEGMENT
$unwind$?dtor$0@?0??CreateEditor@NodeEditor@ax@@YAPEAUEditorContext@12@PEBUConfig@12@@Z@4HA DD 031001H
	DD	0700c4210H
	DD	0500bH
xdata	ENDS
;	COMDAT xdata
xdata	SEGMENT
$ip2state$?CreateEditor@NodeEditor@ax@@YAPEAUEditorContext@12@PEBUConfig@12@@Z DB 06H
	DB	00H
	DB	00H
	DB	'`'
	DB	02H
	DB	'~'
	DB	00H
xdata	ENDS
;	COMDAT xdata
xdata	SEGMENT
$stateUnwindMap$?CreateEditor@NodeEditor@ax@@YAPEAUEditorContext@12@PEBUConfig@12@@Z DB 02H
	DB	0eH
	DD	imagerel ?dtor$0@?0??CreateEditor@NodeEditor@ax@@YAPEAUEditorContext@12@PEBUConfig@12@@Z@4HA
xdata	ENDS
;	COMDAT xdata
xdata	SEGMENT
$cppxdata$?CreateEditor@NodeEditor@ax@@YAPEAUEditorContext@12@PEBUConfig@12@@Z DB 028H
	DD	imagerel $stateUnwindMap$?CreateEditor@NodeEditor@ax@@YAPEAUEditorContext@12@PEBUConfig@12@@Z
	DD	imagerel $ip2state$?CreateEditor@NodeEditor@ax@@YAPEAUEditorContext@12@PEBUConfig@12@@Z
xdata	ENDS
;	COMDAT xdata
xdata	SEGMENT
$unwind$?CreateEditor@NodeEditor@ax@@YAPEAUEditorContext@12@PEBUConfig@12@@Z DD 025051311H
	DD	010e2313H
	DD	070070025H
	DD	05006H
	DD	imagerel __CxxFrameHandler4
	DD	imagerel $cppxdata$?CreateEditor@NodeEditor@ax@@YAPEAUEditorContext@12@PEBUConfig@12@@Z
xdata	ENDS
;	COMDAT xdata
xdata	SEGMENT
$unwind$?GetCurrentEditor@NodeEditor@ax@@YAPEAUEditorContext@12@XZ DD 025050f01H
	DD	010a230fH
	DD	07003001dH
	DD	05002H
xdata	ENDS
;	COMDAT xdata
xdata	SEGMENT
$unwind$?SetCurrentEditor@NodeEditor@ax@@YAXPEAUEditorContext@12@@Z DD 025051301H
	DD	010e2313H
	DD	07007001dH
	DD	05006H
xdata	ENDS
;	COMDAT xdata
xdata	SEGMENT
$unwind$??1Config@NodeEditor@ax@@QEAA@XZ DD 025051301H
	DD	010e2313H
	DD	07007001dH
	DD	05006H
xdata	ENDS
;	COMDAT xdata
xdata	SEGMENT
$unwind$??0Config@NodeEditor@ax@@QEAA@XZ DD 025051301H
	DD	010e2313H
	DD	07007001dH
	DD	05006H
xdata	ENDS
;	COMDAT xdata
xdata	SEGMENT
$ip2state$??1?$ImVector@M@@QEAA@XZ DB 02H
	DB	00H
	DB	00H
xdata	ENDS
;	COMDAT xdata
xdata	SEGMENT
$cppxdata$??1?$ImVector@M@@QEAA@XZ DB 060H
	DD	imagerel $ip2state$??1?$ImVector@M@@QEAA@XZ
xdata	ENDS
;	COMDAT xdata
xdata	SEGMENT
$unwind$??1?$ImVector@M@@QEAA@XZ DD 025051319H
	DD	010e2313H
	DD	07007001dH
	DD	05006H
	DD	imagerel __CxxFrameHandler4
	DD	imagerel $cppxdata$??1?$ImVector@M@@QEAA@XZ
xdata	ENDS
;	COMDAT xdata
xdata	SEGMENT
$unwind$??0?$ImVector@M@@QEAA@XZ DD 025051301H
	DD	010e2313H
	DD	07007001dH
	DD	05006H
xdata	ENDS
;	COMDAT xdata
xdata	SEGMENT
$unwind$??BImColor@@QEBAIXZ DD 025051301H
	DD	010e2313H
	DD	07007001dH
	DD	05006H
xdata	ENDS
;	COMDAT xdata
xdata	SEGMENT
$unwind$??0ImColor@@QEAA@AEBUImVec4@@@Z DD 025061901H
	DD	01142319H
	DD	0700d001cH
	DD	0500b600cH
xdata	ENDS
;	COMDAT xdata
xdata	SEGMENT
$unwind$??0ImVec4@@QEAA@XZ DD 025030f01H
	DD	0b20a230fH
	DD	05006H
xdata	ENDS
;	COMDAT xdata
xdata	SEGMENT
$unwind$??0ImVec2@@QEAA@MM@Z DD 025031b01H
	DD	0b216231bH
	DD	05012H
xdata	ENDS
;	COMDAT xdata
xdata	SEGMENT
$unwind$?__empty_global_delete@@YAXPEAX_KW4align_val_t@std@@@Z DD 025051d01H
	DD	0118231dH
	DD	07011001dH
	DD	05010H
xdata	ENDS
;	COMDAT xdata
xdata	SEGMENT
$unwind$?__empty_global_delete@@YAXPEAXW4align_val_t@std@@@Z DD 025051801H
	DD	01132318H
	DD	0700c001dH
	DD	0500bH
xdata	ENDS
;	COMDAT xdata
xdata	SEGMENT
$unwind$?__empty_global_delete@@YAXPEAX_K@Z DD 025051801H
	DD	01132318H
	DD	0700c001dH
	DD	0500bH
xdata	ENDS
;	COMDAT xdata
xdata	SEGMENT
$unwind$?__empty_global_delete@@YAXPEAX@Z DD 025051301H
	DD	010e2313H
	DD	07007001dH
	DD	05006H
xdata	ENDS
;	COMDAT xdata
xdata	SEGMENT
$unwind$??_H@YAXPEAX_K1P6APEAX0@Z@Z DD 025052201H
	DD	011d2322H
	DD	07016001fH
	DD	05015H
xdata	ENDS
; Function compile flags: /Odt
;	COMDAT __JustMyCode_Default
_TEXT	SEGMENT
__JustMyCode_Default PROC				; COMDAT
	ret	0
__JustMyCode_Default ENDP
_TEXT	ENDS
; Function compile flags: /Odtp /RTCsu /ZI
;	COMDAT ??$_Unfancy@PEAUObject@Detail@NodeEditor@ax@@@std@@YAPEAPEAUObject@Detail@NodeEditor@ax@@PEAPEAU1234@@Z
_TEXT	SEGMENT
_Ptr$ = 224
??$_Unfancy@PEAUObject@Detail@NodeEditor@ax@@@std@@YAPEAPEAUObject@Detail@NodeEditor@ax@@PEAPEAU1234@@Z PROC ; std::_Unfancy<ax::NodeEditor::Detail::Object *>, COMDAT
; File C:\Program Files\Microsoft Visual Studio\2022\Community\VC\Tools\MSVC\14.33.31629\include\xstddef
; Line 265
$LN3:
	mov	QWORD PTR [rsp+8], rcx
	push	rbp
	push	rdi
	sub	rsp, 232				; 000000e8H
	lea	rbp, QWORD PTR [rsp+32]
	lea	rcx, OFFSET FLAT:__B61CA571_xstddef
	call	__CheckForDebuggerJustMyCode
; Line 266
	mov	rax, QWORD PTR _Ptr$[rbp]
; Line 267
	lea	rsp, QWORD PTR [rbp+200]
	pop	rdi
	pop	rbp
	ret	0
??$_Unfancy@PEAUObject@Detail@NodeEditor@ax@@@std@@YAPEAPEAUObject@Detail@NodeEditor@ax@@PEAPEAU1234@@Z ENDP ; std::_Unfancy<ax::NodeEditor::Detail::Object *>
_TEXT	ENDS
; Function compile flags: /Odtp /RTCsu /ZI
;	COMDAT ??$_Get_unwrapped@AEAV?$_Vector_const_iterator@V?$_Vector_val@U?$_Simple_types@PEAUObject@Detail@NodeEditor@ax@@@std@@@std@@@std@@@std@@YA?A_TAEAV?$_Vector_const_iterator@V?$_Vector_val@U?$_Simple_types@PEAUObject@Detail@NodeEditor@ax@@@std@@@std@@@0@@Z
_TEXT	SEGMENT
_It$ = 224
??$_Get_unwrapped@AEAV?$_Vector_const_iterator@V?$_Vector_val@U?$_Simple_types@PEAUObject@Detail@NodeEditor@ax@@@std@@@std@@@std@@@std@@YA?A_TAEAV?$_Vector_const_iterator@V?$_Vector_val@U?$_Simple_types@PEAUObject@Detail@NodeEditor@ax@@@std@@@std@@@0@@Z PROC ; std::_Get_unwrapped<std::_Vector_const_iterator<std::_Vector_val<std::_Simple_types<ax::NodeEditor::Detail::Object *> > > &>, COMDAT
; File C:\Program Files\Microsoft Visual Studio\2022\Community\VC\Tools\MSVC\14.33.31629\include\xutility
; Line 1347
$LN3:
	mov	QWORD PTR [rsp+8], rcx
	push	rbp
	push	rdi
	sub	rsp, 232				; 000000e8H
	lea	rbp, QWORD PTR [rsp+32]
	lea	rcx, OFFSET FLAT:__2177C444_xutility
	call	__CheckForDebuggerJustMyCode
; Line 1352
	mov	rcx, QWORD PTR _It$[rbp]
	call	?_Unwrapped@?$_Vector_const_iterator@V?$_Vector_val@U?$_Simple_types@PEAUObject@Detail@NodeEditor@ax@@@std@@@std@@@std@@QEBAPEBQEAUObject@Detail@NodeEditor@ax@@XZ ; std::_Vector_const_iterator<std::_Vector_val<std::_Simple_types<ax::NodeEditor::Detail::Object *> > >::_Unwrapped
; Line 1356
	lea	rsp, QWORD PTR [rbp+200]
	pop	rdi
	pop	rbp
	ret	0
??$_Get_unwrapped@AEAV?$_Vector_const_iterator@V?$_Vector_val@U?$_Simple_types@PEAUObject@Detail@NodeEditor@ax@@@std@@@std@@@std@@@std@@YA?A_TAEAV?$_Vector_const_iterator@V?$_Vector_val@U?$_Simple_types@PEAUObject@Detail@NodeEditor@ax@@@std@@@std@@@0@@Z ENDP ; std::_Get_unwrapped<std::_Vector_const_iterator<std::_Vector_val<std::_Simple_types<ax::NodeEditor::Detail::Object *> > > &>
_TEXT	ENDS
; Function compile flags: /Odtp /RTCsu /ZI
;	COMDAT ??$_Adl_verify_range@V?$_Vector_const_iterator@V?$_Vector_val@U?$_Simple_types@PEAUObject@Detail@NodeEditor@ax@@@std@@@std@@@std@@V12@@std@@YAXAEBV?$_Vector_const_iterator@V?$_Vector_val@U?$_Simple_types@PEAUObject@Detail@NodeEditor@ax@@@std@@@std@@@0@0@Z
_TEXT	SEGMENT
_First$ = 224
_Last$ = 232
??$_Adl_verify_range@V?$_Vector_const_iterator@V?$_Vector_val@U?$_Simple_types@PEAUObject@Detail@NodeEditor@ax@@@std@@@std@@@std@@V12@@std@@YAXAEBV?$_Vector_const_iterator@V?$_Vector_val@U?$_Simple_types@PEAUObject@Detail@NodeEditor@ax@@@std@@@std@@@0@0@Z PROC ; std::_Adl_verify_range<std::_Vector_const_iterator<std::_Vector_val<std::_Simple_types<ax::NodeEditor::Detail::Object *> > >,std::_Vector_const_iterator<std::_Vector_val<std::_Simple_types<ax::NodeEditor::Detail::Object *> > > >, COMDAT
; File C:\Program Files\Microsoft Visual Studio\2022\Community\VC\Tools\MSVC\14.33.31629\include\xutility
; Line 1331
$LN3:
	mov	QWORD PTR [rsp+16], rdx
	mov	QWORD PTR [rsp+8], rcx
	push	rbp
	push	rdi
	sub	rsp, 232				; 000000e8H
	lea	rbp, QWORD PTR [rsp+32]
	lea	rcx, OFFSET FLAT:__2177C444_xutility
	call	__CheckForDebuggerJustMyCode
; Line 1334
	mov	rdx, QWORD PTR _Last$[rbp]
	mov	rcx, QWORD PTR _First$[rbp]
	call	?_Verify_range@std@@YAXAEBV?$_Vector_const_iterator@V?$_Vector_val@U?$_Simple_types@PEAUObject@Detail@NodeEditor@ax@@@std@@@std@@@1@0@Z ; std::_Verify_range
; Line 1336
	lea	rsp, QWORD PTR [rbp+200]
	pop	rdi
	pop	rbp
	ret	0
??$_Adl_verify_range@V?$_Vector_const_iterator@V?$_Vector_val@U?$_Simple_types@PEAUObject@Detail@NodeEditor@ax@@@std@@@std@@@std@@V12@@std@@YAXAEBV?$_Vector_const_iterator@V?$_Vector_val@U?$_Simple_types@PEAUObject@Detail@NodeEditor@ax@@@std@@@std@@@0@0@Z ENDP ; std::_Adl_verify_range<std::_Vector_const_iterator<std::_Vector_val<std::_Simple_types<ax::NodeEditor::Detail::Object *> > >,std::_Vector_const_iterator<std::_Vector_val<std::_Simple_types<ax::NodeEditor::Detail::Object *> > > >
_TEXT	ENDS
; Function compile flags: /Odtp /RTCsu /ZI
;	COMDAT ??$addressof@$$CBV?$_Vector_val@U?$_Simple_types@PEAUObject@Detail@NodeEditor@ax@@@std@@@std@@@std@@YAPEBV?$_Vector_val@U?$_Simple_types@PEAUObject@Detail@NodeEditor@ax@@@std@@@0@AEBV10@@Z
_TEXT	SEGMENT
_Val$ = 224
??$addressof@$$CBV?$_Vector_val@U?$_Simple_types@PEAUObject@Detail@NodeEditor@ax@@@std@@@std@@@std@@YAPEBV?$_Vector_val@U?$_Simple_types@PEAUObject@Detail@NodeEditor@ax@@@std@@@0@AEBV10@@Z PROC ; std::addressof<std::_Vector_val<std::_Simple_types<ax::NodeEditor::Detail::Object *> > const >, COMDAT
; File C:\Program Files\Microsoft Visual Studio\2022\Community\VC\Tools\MSVC\14.33.31629\include\xstddef
; Line 252
$LN3:
	mov	QWORD PTR [rsp+8], rcx
	push	rbp
	push	rdi
	sub	rsp, 232				; 000000e8H
	lea	rbp, QWORD PTR [rsp+32]
	lea	rcx, OFFSET FLAT:__B61CA571_xstddef
	call	__CheckForDebuggerJustMyCode
; Line 253
	mov	rax, QWORD PTR _Val$[rbp]
; Line 254
	lea	rsp, QWORD PTR [rbp+200]
	pop	rdi
	pop	rbp
	ret	0
??$addressof@$$CBV?$_Vector_val@U?$_Simple_types@PEAUObject@Detail@NodeEditor@ax@@@std@@@std@@@std@@YAPEBV?$_Vector_val@U?$_Simple_types@PEAUObject@Detail@NodeEditor@ax@@@std@@@0@AEBV10@@Z ENDP ; std::addressof<std::_Vector_val<std::_Simple_types<ax::NodeEditor::Detail::Object *> > const >
_TEXT	ENDS
; Function compile flags: /Odtp /RTCsu /ZI
;	COMDAT ??$move@AEA_K@std@@YA$$QEA_KAEA_K@Z
_TEXT	SEGMENT
_Arg$ = 224
??$move@AEA_K@std@@YA$$QEA_KAEA_K@Z PROC		; std::move<unsigned __int64 &>, COMDAT
; File C:\Program Files\Microsoft Visual Studio\2022\Community\VC\Tools\MSVC\14.33.31629\include\type_traits
; Line 1422
$LN3:
	mov	QWORD PTR [rsp+8], rcx
	push	rbp
	push	rdi
	sub	rsp, 232				; 000000e8H
	lea	rbp, QWORD PTR [rsp+32]
	lea	rcx, OFFSET FLAT:__F576AD63_type_traits
	call	__CheckForDebuggerJustMyCode
; Line 1423
	mov	rax, QWORD PTR _Arg$[rbp]
; Line 1424
	lea	rsp, QWORD PTR [rbp+200]
	pop	rdi
	pop	rbp
	ret	0
??$move@AEA_K@std@@YA$$QEA_KAEA_K@Z ENDP		; std::move<unsigned __int64 &>
_TEXT	ENDS
; Function compile flags: /Odtp /RTCsu /ZI
;	COMDAT ??$count_if@V?$_Vector_const_iterator@V?$_Vector_val@U?$_Simple_types@PEAUObject@Detail@NodeEditor@ax@@@std@@@std@@@std@@V<lambda_aae6843b07c1c292b06cefe3dee011c3>@@@std@@YA_JV?$_Vector_const_iterator@V?$_Vector_val@U?$_Simple_types@PEAUObject@Detail@NodeEditor@ax@@@std@@@std@@@0@0V<lambda_aae6843b07c1c292b06cefe3dee011c3>@@@Z
_TEXT	SEGMENT
_UFirst$ = 8
_ULast$ = 40
_Count$ = 72
$T1 = 296
_First$ = 352
_Last$ = 360
_Pred$ = 368
??$count_if@V?$_Vector_const_iterator@V?$_Vector_val@U?$_Simple_types@PEAUObject@Detail@NodeEditor@ax@@@std@@@std@@@std@@V<lambda_aae6843b07c1c292b06cefe3dee011c3>@@@std@@YA_JV?$_Vector_const_iterator@V?$_Vector_val@U?$_Simple_types@PEAUObject@Detail@NodeEditor@ax@@@std@@@std@@@0@0V<lambda_aae6843b07c1c292b06cefe3dee011c3>@@@Z PROC ; std::count_if<std::_Vector_const_iterator<std::_Vector_val<std::_Simple_types<ax::NodeEditor::Detail::Object *> > >,<lambda_aae6843b07c1c292b06cefe3dee011c3> >, COMDAT
; File C:\Program Files\Microsoft Visual Studio\2022\Community\VC\Tools\MSVC\14.33.31629\include\algorithm
; Line 469
	mov	BYTE PTR [rsp+24], r8b
	mov	QWORD PTR [rsp+16], rdx
	mov	QWORD PTR [rsp+8], rcx
	push	rbp
	push	rdi
	sub	rsp, 360				; 00000168H
	lea	rbp, QWORD PTR [rsp+32]
	lea	rcx, OFFSET FLAT:__2D625E3F_algorithm
	call	__CheckForDebuggerJustMyCode
; Line 471
	mov	rdx, QWORD PTR _Last$[rbp]
	mov	rcx, QWORD PTR _First$[rbp]
	call	??$_Adl_verify_range@V?$_Vector_const_iterator@V?$_Vector_val@U?$_Simple_types@PEAUObject@Detail@NodeEditor@ax@@@std@@@std@@@std@@V12@@std@@YAXAEBV?$_Vector_const_iterator@V?$_Vector_val@U?$_Simple_types@PEAUObject@Detail@NodeEditor@ax@@@std@@@std@@@0@0@Z ; std::_Adl_verify_range<std::_Vector_const_iterator<std::_Vector_val<std::_Simple_types<ax::NodeEditor::Detail::Object *> > >,std::_Vector_const_iterator<std::_Vector_val<std::_Simple_types<ax::NodeEditor::Detail::Object *> > > >
; Line 472
	mov	rcx, QWORD PTR _First$[rbp]
	call	??$_Get_unwrapped@AEAV?$_Vector_const_iterator@V?$_Vector_val@U?$_Simple_types@PEAUObject@Detail@NodeEditor@ax@@@std@@@std@@@std@@@std@@YA?A_TAEAV?$_Vector_const_iterator@V?$_Vector_val@U?$_Simple_types@PEAUObject@Detail@NodeEditor@ax@@@std@@@std@@@0@@Z ; std::_Get_unwrapped<std::_Vector_const_iterator<std::_Vector_val<std::_Simple_types<ax::NodeEditor::Detail::Object *> > > &>
	mov	QWORD PTR _UFirst$[rbp], rax
; Line 473
	mov	rcx, QWORD PTR _Last$[rbp]
	call	??$_Get_unwrapped@AEAV?$_Vector_const_iterator@V?$_Vector_val@U?$_Simple_types@PEAUObject@Detail@NodeEditor@ax@@@std@@@std@@@std@@@std@@YA?A_TAEAV?$_Vector_const_iterator@V?$_Vector_val@U?$_Simple_types@PEAUObject@Detail@NodeEditor@ax@@@std@@@std@@@0@@Z ; std::_Get_unwrapped<std::_Vector_const_iterator<std::_Vector_val<std::_Simple_types<ax::NodeEditor::Detail::Object *> > > &>
	mov	QWORD PTR _ULast$[rbp], rax
; Line 474
	mov	QWORD PTR _Count$[rbp], 0
; Line 475
	jmp	SHORT $LN4@count_if
$LN2@count_if:
	mov	rax, QWORD PTR _UFirst$[rbp]
	add	rax, 8
	mov	QWORD PTR _UFirst$[rbp], rax
$LN4@count_if:
	mov	rax, QWORD PTR _ULast$[rbp]
	cmp	QWORD PTR _UFirst$[rbp], rax
	je	SHORT $LN3@count_if
; Line 476
	mov	rax, QWORD PTR _UFirst$[rbp]
	mov	rdx, QWORD PTR [rax]
	lea	rcx, QWORD PTR _Pred$[rbp]
	call	??$?RPEAUObject@Detail@NodeEditor@ax@@@<lambda_aae6843b07c1c292b06cefe3dee011c3>@@QEBA?A_PPEAUObject@Detail@NodeEditor@ax@@@Z ; <lambda_aae6843b07c1c292b06cefe3dee011c3>::operator()<ax::NodeEditor::Detail::Object *>
	movzx	eax, al
	test	eax, eax
	je	SHORT $LN5@count_if
; Line 477
	mov	rax, QWORD PTR _Count$[rbp]
	inc	rax
	mov	QWORD PTR _Count$[rbp], rax
$LN5@count_if:
; Line 479
	jmp	SHORT $LN2@count_if
$LN3@count_if:
; Line 481
	mov	rax, QWORD PTR _Count$[rbp]
	mov	QWORD PTR $T1[rbp], rax
	mov	rcx, QWORD PTR _First$[rbp]
	call	??1?$_Vector_const_iterator@V?$_Vector_val@U?$_Simple_types@PEAUObject@Detail@NodeEditor@ax@@@std@@@std@@@std@@QEAA@XZ
	npad	1
	mov	rcx, QWORD PTR _Last$[rbp]
	call	??1?$_Vector_const_iterator@V?$_Vector_val@U?$_Simple_types@PEAUObject@Detail@NodeEditor@ax@@@std@@@std@@@std@@QEAA@XZ
	mov	rax, QWORD PTR $T1[rbp]
; Line 482
	lea	rsp, QWORD PTR [rbp+328]
	pop	rdi
	pop	rbp
	ret	0
??$count_if@V?$_Vector_const_iterator@V?$_Vector_val@U?$_Simple_types@PEAUObject@Detail@NodeEditor@ax@@@std@@@std@@@std@@V<lambda_aae6843b07c1c292b06cefe3dee011c3>@@@std@@YA_JV?$_Vector_const_iterator@V?$_Vector_val@U?$_Simple_types@PEAUObject@Detail@NodeEditor@ax@@@std@@@std@@@0@0V<lambda_aae6843b07c1c292b06cefe3dee011c3>@@@Z ENDP ; std::count_if<std::_Vector_const_iterator<std::_Vector_val<std::_Simple_types<ax::NodeEditor::Detail::Object *> > >,<lambda_aae6843b07c1c292b06cefe3dee011c3> >
_TEXT	ENDS
; Function compile flags: /Odtp /RTCsu /ZI
;	COMDAT text$x
text$x	SEGMENT
_UFirst$ = 8
_ULast$ = 40
_Count$ = 72
$T1 = 296
_First$ = 352
_Last$ = 360
_Pred$ = 368
?dtor$0@?0???$count_if@V?$_Vector_const_iterator@V?$_Vector_val@U?$_Simple_types@PEAUObject@Detail@NodeEditor@ax@@@std@@@std@@@std@@V<lambda_aae6843b07c1c292b06cefe3dee011c3>@@@std@@YA_JV?$_Vector_const_iterator@V?$_Vector_val@U?$_Simple_types@PEAUObject@Detail@NodeEditor@ax@@@std@@@std@@@0@0V<lambda_aae6843b07c1c292b06cefe3dee011c3>@@@Z@4HA PROC ; `std::count_if<std::_Vector_const_iterator<std::_Vector_val<std::_Simple_types<ax::NodeEditor::Detail::Object *> > >,<lambda_aae6843b07c1c292b06cefe3dee011c3> >'::`1'::dtor$0
	mov	QWORD PTR [rsp+8], rcx
	mov	QWORD PTR [rsp+16], rdx
	push	rbp
	push	rdi
	sub	rsp, 40					; 00000028H
	lea	rbp, QWORD PTR [rdx+32]
	mov	rcx, QWORD PTR _Last$[rbp]
	call	??1?$_Vector_const_iterator@V?$_Vector_val@U?$_Simple_types@PEAUObject@Detail@NodeEditor@ax@@@std@@@std@@@std@@QEAA@XZ
	add	rsp, 40					; 00000028H
	pop	rdi
	pop	rbp
	ret	0
?dtor$0@?0???$count_if@V?$_Vector_const_iterator@V?$_Vector_val@U?$_Simple_types@PEAUObject@Detail@NodeEditor@ax@@@std@@@std@@@std@@V<lambda_aae6843b07c1c292b06cefe3dee011c3>@@@std@@YA_JV?$_Vector_const_iterator@V?$_Vector_val@U?$_Simple_types@PEAUObject@Detail@NodeEditor@ax@@@std@@@std@@@0@0V<lambda_aae6843b07c1c292b06cefe3dee011c3>@@@Z@4HA ENDP ; `std::count_if<std::_Vector_const_iterator<std::_Vector_val<std::_Simple_types<ax::NodeEditor::Detail::Object *> > >,<lambda_aae6843b07c1c292b06cefe3dee011c3> >'::`1'::dtor$0
text$x	ENDS
; Function compile flags: /Odtp /RTCsu /ZI
;	COMDAT text$x
text$x	SEGMENT
_UFirst$ = 8
_ULast$ = 40
_Count$ = 72
$T1 = 296
_First$ = 352
_Last$ = 360
_Pred$ = 368
?dtor$1@?0???$count_if@V?$_Vector_const_iterator@V?$_Vector_val@U?$_Simple_types@PEAUObject@Detail@NodeEditor@ax@@@std@@@std@@@std@@V<lambda_aae6843b07c1c292b06cefe3dee011c3>@@@std@@YA_JV?$_Vector_const_iterator@V?$_Vector_val@U?$_Simple_types@PEAUObject@Detail@NodeEditor@ax@@@std@@@std@@@0@0V<lambda_aae6843b07c1c292b06cefe3dee011c3>@@@Z@4HA PROC ; `std::count_if<std::_Vector_const_iterator<std::_Vector_val<std::_Simple_types<ax::NodeEditor::Detail::Object *> > >,<lambda_aae6843b07c1c292b06cefe3dee011c3> >'::`1'::dtor$1
	mov	QWORD PTR [rsp+8], rcx
	mov	QWORD PTR [rsp+16], rdx
	push	rbp
	push	rdi
	sub	rsp, 40					; 00000028H
	lea	rbp, QWORD PTR [rdx+32]
	mov	rcx, QWORD PTR _First$[rbp]
	call	??1?$_Vector_const_iterator@V?$_Vector_val@U?$_Simple_types@PEAUObject@Detail@NodeEditor@ax@@@std@@@std@@@std@@QEAA@XZ
	add	rsp, 40					; 00000028H
	pop	rdi
	pop	rbp
	ret	0
?dtor$1@?0???$count_if@V?$_Vector_const_iterator@V?$_Vector_val@U?$_Simple_types@PEAUObject@Detail@NodeEditor@ax@@@std@@@std@@@std@@V<lambda_aae6843b07c1c292b06cefe3dee011c3>@@@std@@YA_JV?$_Vector_const_iterator@V?$_Vector_val@U?$_Simple_types@PEAUObject@Detail@NodeEditor@ax@@@std@@@std@@@0@0V<lambda_aae6843b07c1c292b06cefe3dee011c3>@@@Z@4HA ENDP ; `std::count_if<std::_Vector_const_iterator<std::_Vector_val<std::_Simple_types<ax::NodeEditor::Detail::Object *> > >,<lambda_aae6843b07c1c292b06cefe3dee011c3> >'::`1'::dtor$1
text$x	ENDS
; Function compile flags: /Odtp /RTCsu /ZI
;	COMDAT ??$?RPEAUObject@Detail@NodeEditor@ax@@@<lambda_aae6843b07c1c292b06cefe3dee011c3>@@QEBA?A_PPEAUObject@Detail@NodeEditor@ax@@@Z
_TEXT	SEGMENT
tv69 = 192
this$ = 240
object$ = 248
??$?RPEAUObject@Detail@NodeEditor@ax@@@<lambda_aae6843b07c1c292b06cefe3dee011c3>@@QEBA?A_PPEAUObject@Detail@NodeEditor@ax@@@Z PROC ; <lambda_aae6843b07c1c292b06cefe3dee011c3>::operator()<ax::NodeEditor::Detail::Object *>, COMDAT
; File C:\dev\Raisin\Raisin\src\Raisin\imgui\imgui_node_editor_api.cpp
; Line 657
	mov	QWORD PTR [rsp+16], rdx
	mov	QWORD PTR [rsp+8], rcx
	push	rbp
	push	rdi
	sub	rsp, 248				; 000000f8H
	lea	rbp, QWORD PTR [rsp+32]
	lea	rcx, OFFSET FLAT:__13097B8F_imgui_node_editor_api@cpp
	call	__CheckForDebuggerJustMyCode
; Line 656
	mov	rax, QWORD PTR object$[rbp]
	mov	rax, QWORD PTR [rax]
	mov	rcx, QWORD PTR object$[rbp]
	call	QWORD PTR [rax+120]
	test	rax, rax
	je	SHORT $LN3@operator
	mov	DWORD PTR tv69[rbp], 1
	jmp	SHORT $LN4@operator
$LN3@operator:
	mov	DWORD PTR tv69[rbp], 0
$LN4@operator:
	movzx	eax, BYTE PTR tv69[rbp]
; Line 657
	lea	rsp, QWORD PTR [rbp+216]
	pop	rdi
	pop	rbp
	ret	0
??$?RPEAUObject@Detail@NodeEditor@ax@@@<lambda_aae6843b07c1c292b06cefe3dee011c3>@@QEBA?A_PPEAUObject@Detail@NodeEditor@ax@@@Z ENDP ; <lambda_aae6843b07c1c292b06cefe3dee011c3>::operator()<ax::NodeEditor::Detail::Object *>
_TEXT	ENDS
; Function compile flags: /Odtp /RTCsu /ZI
;	COMDAT ??$count_if@V?$_Vector_const_iterator@V?$_Vector_val@U?$_Simple_types@PEAUObject@Detail@NodeEditor@ax@@@std@@@std@@@std@@V<lambda_23f1710fff72307b075c6286d6aaa715>@@@std@@YA_JV?$_Vector_const_iterator@V?$_Vector_val@U?$_Simple_types@PEAUObject@Detail@NodeEditor@ax@@@std@@@std@@@0@0V<lambda_23f1710fff72307b075c6286d6aaa715>@@@Z
_TEXT	SEGMENT
_UFirst$ = 8
_ULast$ = 40
_Count$ = 72
$T1 = 296
_First$ = 352
_Last$ = 360
_Pred$ = 368
??$count_if@V?$_Vector_const_iterator@V?$_Vector_val@U?$_Simple_types@PEAUObject@Detail@NodeEditor@ax@@@std@@@std@@@std@@V<lambda_23f1710fff72307b075c6286d6aaa715>@@@std@@YA_JV?$_Vector_const_iterator@V?$_Vector_val@U?$_Simple_types@PEAUObject@Detail@NodeEditor@ax@@@std@@@std@@@0@0V<lambda_23f1710fff72307b075c6286d6aaa715>@@@Z PROC ; std::count_if<std::_Vector_const_iterator<std::_Vector_val<std::_Simple_types<ax::NodeEditor::Detail::Object *> > >,<lambda_23f1710fff72307b075c6286d6aaa715> >, COMDAT
; File C:\Program Files\Microsoft Visual Studio\2022\Community\VC\Tools\MSVC\14.33.31629\include\algorithm
; Line 469
	mov	BYTE PTR [rsp+24], r8b
	mov	QWORD PTR [rsp+16], rdx
	mov	QWORD PTR [rsp+8], rcx
	push	rbp
	push	rdi
	sub	rsp, 360				; 00000168H
	lea	rbp, QWORD PTR [rsp+32]
	lea	rcx, OFFSET FLAT:__2D625E3F_algorithm
	call	__CheckForDebuggerJustMyCode
; Line 471
	mov	rdx, QWORD PTR _Last$[rbp]
	mov	rcx, QWORD PTR _First$[rbp]
	call	??$_Adl_verify_range@V?$_Vector_const_iterator@V?$_Vector_val@U?$_Simple_types@PEAUObject@Detail@NodeEditor@ax@@@std@@@std@@@std@@V12@@std@@YAXAEBV?$_Vector_const_iterator@V?$_Vector_val@U?$_Simple_types@PEAUObject@Detail@NodeEditor@ax@@@std@@@std@@@0@0@Z ; std::_Adl_verify_range<std::_Vector_const_iterator<std::_Vector_val<std::_Simple_types<ax::NodeEditor::Detail::Object *> > >,std::_Vector_const_iterator<std::_Vector_val<std::_Simple_types<ax::NodeEditor::Detail::Object *> > > >
; Line 472
	mov	rcx, QWORD PTR _First$[rbp]
	call	??$_Get_unwrapped@AEAV?$_Vector_const_iterator@V?$_Vector_val@U?$_Simple_types@PEAUObject@Detail@NodeEditor@ax@@@std@@@std@@@std@@@std@@YA?A_TAEAV?$_Vector_const_iterator@V?$_Vector_val@U?$_Simple_types@PEAUObject@Detail@NodeEditor@ax@@@std@@@std@@@0@@Z ; std::_Get_unwrapped<std::_Vector_const_iterator<std::_Vector_val<std::_Simple_types<ax::NodeEditor::Detail::Object *> > > &>
	mov	QWORD PTR _UFirst$[rbp], rax
; Line 473
	mov	rcx, QWORD PTR _Last$[rbp]
	call	??$_Get_unwrapped@AEAV?$_Vector_const_iterator@V?$_Vector_val@U?$_Simple_types@PEAUObject@Detail@NodeEditor@ax@@@std@@@std@@@std@@@std@@YA?A_TAEAV?$_Vector_const_iterator@V?$_Vector_val@U?$_Simple_types@PEAUObject@Detail@NodeEditor@ax@@@std@@@std@@@0@@Z ; std::_Get_unwrapped<std::_Vector_const_iterator<std::_Vector_val<std::_Simple_types<ax::NodeEditor::Detail::Object *> > > &>
	mov	QWORD PTR _ULast$[rbp], rax
; Line 474
	mov	QWORD PTR _Count$[rbp], 0
; Line 475
	jmp	SHORT $LN4@count_if
$LN2@count_if:
	mov	rax, QWORD PTR _UFirst$[rbp]
	add	rax, 8
	mov	QWORD PTR _UFirst$[rbp], rax
$LN4@count_if:
	mov	rax, QWORD PTR _ULast$[rbp]
	cmp	QWORD PTR _UFirst$[rbp], rax
	je	SHORT $LN3@count_if
; Line 476
	mov	rax, QWORD PTR _UFirst$[rbp]
	mov	rdx, QWORD PTR [rax]
	lea	rcx, QWORD PTR _Pred$[rbp]
	call	??$?RPEAUObject@Detail@NodeEditor@ax@@@<lambda_23f1710fff72307b075c6286d6aaa715>@@QEBA?A_PPEAUObject@Detail@NodeEditor@ax@@@Z ; <lambda_23f1710fff72307b075c6286d6aaa715>::operator()<ax::NodeEditor::Detail::Object *>
	movzx	eax, al
	test	eax, eax
	je	SHORT $LN5@count_if
; Line 477
	mov	rax, QWORD PTR _Count$[rbp]
	inc	rax
	mov	QWORD PTR _Count$[rbp], rax
$LN5@count_if:
; Line 479
	jmp	SHORT $LN2@count_if
$LN3@count_if:
; Line 481
	mov	rax, QWORD PTR _Count$[rbp]
	mov	QWORD PTR $T1[rbp], rax
	mov	rcx, QWORD PTR _First$[rbp]
	call	??1?$_Vector_const_iterator@V?$_Vector_val@U?$_Simple_types@PEAUObject@Detail@NodeEditor@ax@@@std@@@std@@@std@@QEAA@XZ
	npad	1
	mov	rcx, QWORD PTR _Last$[rbp]
	call	??1?$_Vector_const_iterator@V?$_Vector_val@U?$_Simple_types@PEAUObject@Detail@NodeEditor@ax@@@std@@@std@@@std@@QEAA@XZ
	mov	rax, QWORD PTR $T1[rbp]
; Line 482
	lea	rsp, QWORD PTR [rbp+328]
	pop	rdi
	pop	rbp
	ret	0
??$count_if@V?$_Vector_const_iterator@V?$_Vector_val@U?$_Simple_types@PEAUObject@Detail@NodeEditor@ax@@@std@@@std@@@std@@V<lambda_23f1710fff72307b075c6286d6aaa715>@@@std@@YA_JV?$_Vector_const_iterator@V?$_Vector_val@U?$_Simple_types@PEAUObject@Detail@NodeEditor@ax@@@std@@@std@@@0@0V<lambda_23f1710fff72307b075c6286d6aaa715>@@@Z ENDP ; std::count_if<std::_Vector_const_iterator<std::_Vector_val<std::_Simple_types<ax::NodeEditor::Detail::Object *> > >,<lambda_23f1710fff72307b075c6286d6aaa715> >
_TEXT	ENDS
; Function compile flags: /Odtp /RTCsu /ZI
;	COMDAT text$x
text$x	SEGMENT
_UFirst$ = 8
_ULast$ = 40
_Count$ = 72
$T1 = 296
_First$ = 352
_Last$ = 360
_Pred$ = 368
?dtor$0@?0???$count_if@V?$_Vector_const_iterator@V?$_Vector_val@U?$_Simple_types@PEAUObject@Detail@NodeEditor@ax@@@std@@@std@@@std@@V<lambda_23f1710fff72307b075c6286d6aaa715>@@@std@@YA_JV?$_Vector_const_iterator@V?$_Vector_val@U?$_Simple_types@PEAUObject@Detail@NodeEditor@ax@@@std@@@std@@@0@0V<lambda_23f1710fff72307b075c6286d6aaa715>@@@Z@4HA PROC ; `std::count_if<std::_Vector_const_iterator<std::_Vector_val<std::_Simple_types<ax::NodeEditor::Detail::Object *> > >,<lambda_23f1710fff72307b075c6286d6aaa715> >'::`1'::dtor$0
	mov	QWORD PTR [rsp+8], rcx
	mov	QWORD PTR [rsp+16], rdx
	push	rbp
	push	rdi
	sub	rsp, 40					; 00000028H
	lea	rbp, QWORD PTR [rdx+32]
	mov	rcx, QWORD PTR _Last$[rbp]
	call	??1?$_Vector_const_iterator@V?$_Vector_val@U?$_Simple_types@PEAUObject@Detail@NodeEditor@ax@@@std@@@std@@@std@@QEAA@XZ
	add	rsp, 40					; 00000028H
	pop	rdi
	pop	rbp
	ret	0
?dtor$0@?0???$count_if@V?$_Vector_const_iterator@V?$_Vector_val@U?$_Simple_types@PEAUObject@Detail@NodeEditor@ax@@@std@@@std@@@std@@V<lambda_23f1710fff72307b075c6286d6aaa715>@@@std@@YA_JV?$_Vector_const_iterator@V?$_Vector_val@U?$_Simple_types@PEAUObject@Detail@NodeEditor@ax@@@std@@@std@@@0@0V<lambda_23f1710fff72307b075c6286d6aaa715>@@@Z@4HA ENDP ; `std::count_if<std::_Vector_const_iterator<std::_Vector_val<std::_Simple_types<ax::NodeEditor::Detail::Object *> > >,<lambda_23f1710fff72307b075c6286d6aaa715> >'::`1'::dtor$0
text$x	ENDS
; Function compile flags: /Odtp /RTCsu /ZI
;	COMDAT text$x
text$x	SEGMENT
_UFirst$ = 8
_ULast$ = 40
_Count$ = 72
$T1 = 296
_First$ = 352
_Last$ = 360
_Pred$ = 368
?dtor$1@?0???$count_if@V?$_Vector_const_iterator@V?$_Vector_val@U?$_Simple_types@PEAUObject@Detail@NodeEditor@ax@@@std@@@std@@@std@@V<lambda_23f1710fff72307b075c6286d6aaa715>@@@std@@YA_JV?$_Vector_const_iterator@V?$_Vector_val@U?$_Simple_types@PEAUObject@Detail@NodeEditor@ax@@@std@@@std@@@0@0V<lambda_23f1710fff72307b075c6286d6aaa715>@@@Z@4HA PROC ; `std::count_if<std::_Vector_const_iterator<std::_Vector_val<std::_Simple_types<ax::NodeEditor::Detail::Object *> > >,<lambda_23f1710fff72307b075c6286d6aaa715> >'::`1'::dtor$1
	mov	QWORD PTR [rsp+8], rcx
	mov	QWORD PTR [rsp+16], rdx
	push	rbp
	push	rdi
	sub	rsp, 40					; 00000028H
	lea	rbp, QWORD PTR [rdx+32]
	mov	rcx, QWORD PTR _First$[rbp]
	call	??1?$_Vector_const_iterator@V?$_Vector_val@U?$_Simple_types@PEAUObject@Detail@NodeEditor@ax@@@std@@@std@@@std@@QEAA@XZ
	add	rsp, 40					; 00000028H
	pop	rdi
	pop	rbp
	ret	0
?dtor$1@?0???$count_if@V?$_Vector_const_iterator@V?$_Vector_val@U?$_Simple_types@PEAUObject@Detail@NodeEditor@ax@@@std@@@std@@@std@@V<lambda_23f1710fff72307b075c6286d6aaa715>@@@std@@YA_JV?$_Vector_const_iterator@V?$_Vector_val@U?$_Simple_types@PEAUObject@Detail@NodeEditor@ax@@@std@@@std@@@0@0V<lambda_23f1710fff72307b075c6286d6aaa715>@@@Z@4HA ENDP ; `std::count_if<std::_Vector_const_iterator<std::_Vector_val<std::_Simple_types<ax::NodeEditor::Detail::Object *> > >,<lambda_23f1710fff72307b075c6286d6aaa715> >'::`1'::dtor$1
text$x	ENDS
; Function compile flags: /Odtp /RTCsu /ZI
;	COMDAT ??$?RPEAUObject@Detail@NodeEditor@ax@@@<lambda_23f1710fff72307b075c6286d6aaa715>@@QEBA?A_PPEAUObject@Detail@NodeEditor@ax@@@Z
_TEXT	SEGMENT
tv69 = 192
this$ = 240
object$ = 248
??$?RPEAUObject@Detail@NodeEditor@ax@@@<lambda_23f1710fff72307b075c6286d6aaa715>@@QEBA?A_PPEAUObject@Detail@NodeEditor@ax@@@Z PROC ; <lambda_23f1710fff72307b075c6286d6aaa715>::operator()<ax::NodeEditor::Detail::Object *>, COMDAT
; File C:\dev\Raisin\Raisin\src\Raisin\imgui\imgui_node_editor_api.cpp
; Line 649
	mov	QWORD PTR [rsp+16], rdx
	mov	QWORD PTR [rsp+8], rcx
	push	rbp
	push	rdi
	sub	rsp, 248				; 000000f8H
	lea	rbp, QWORD PTR [rsp+32]
	lea	rcx, OFFSET FLAT:__13097B8F_imgui_node_editor_api@cpp
	call	__CheckForDebuggerJustMyCode
; Line 648
	mov	rax, QWORD PTR object$[rbp]
	mov	rax, QWORD PTR [rax]
	mov	rcx, QWORD PTR object$[rbp]
	call	QWORD PTR [rax+104]
	test	rax, rax
	je	SHORT $LN3@operator
	mov	DWORD PTR tv69[rbp], 1
	jmp	SHORT $LN4@operator
$LN3@operator:
	mov	DWORD PTR tv69[rbp], 0
$LN4@operator:
	movzx	eax, BYTE PTR tv69[rbp]
; Line 649
	lea	rsp, QWORD PTR [rbp+216]
	pop	rdi
	pop	rbp
	ret	0
??$?RPEAUObject@Detail@NodeEditor@ax@@@<lambda_23f1710fff72307b075c6286d6aaa715>@@QEBA?A_PPEAUObject@Detail@NodeEditor@ax@@@Z ENDP ; <lambda_23f1710fff72307b075c6286d6aaa715>::operator()<ax::NodeEditor::Detail::Object *>
_TEXT	ENDS
; Function compile flags: /Odtp /RTCsu /ZI
;	COMDAT ??$count_if@V?$_Vector_const_iterator@V?$_Vector_val@U?$_Simple_types@PEAUObject@Detail@NodeEditor@ax@@@std@@@std@@@std@@V<lambda_3f736c6210dbcb1743fac1aff84da36f>@@@std@@YA_JV?$_Vector_const_iterator@V?$_Vector_val@U?$_Simple_types@PEAUObject@Detail@NodeEditor@ax@@@std@@@std@@@0@0V<lambda_3f736c6210dbcb1743fac1aff84da36f>@@@Z
_TEXT	SEGMENT
_UFirst$ = 8
_ULast$ = 40
_Count$ = 72
$T1 = 296
_First$ = 352
_Last$ = 360
_Pred$ = 368
??$count_if@V?$_Vector_const_iterator@V?$_Vector_val@U?$_Simple_types@PEAUObject@Detail@NodeEditor@ax@@@std@@@std@@@std@@V<lambda_3f736c6210dbcb1743fac1aff84da36f>@@@std@@YA_JV?$_Vector_const_iterator@V?$_Vector_val@U?$_Simple_types@PEAUObject@Detail@NodeEditor@ax@@@std@@@std@@@0@0V<lambda_3f736c6210dbcb1743fac1aff84da36f>@@@Z PROC ; std::count_if<std::_Vector_const_iterator<std::_Vector_val<std::_Simple_types<ax::NodeEditor::Detail::Object *> > >,<lambda_3f736c6210dbcb1743fac1aff84da36f> >, COMDAT
; File C:\Program Files\Microsoft Visual Studio\2022\Community\VC\Tools\MSVC\14.33.31629\include\algorithm
; Line 469
	mov	BYTE PTR [rsp+24], r8b
	mov	QWORD PTR [rsp+16], rdx
	mov	QWORD PTR [rsp+8], rcx
	push	rbp
	push	rdi
	sub	rsp, 360				; 00000168H
	lea	rbp, QWORD PTR [rsp+32]
	lea	rcx, OFFSET FLAT:__2D625E3F_algorithm
	call	__CheckForDebuggerJustMyCode
; Line 471
	mov	rdx, QWORD PTR _Last$[rbp]
	mov	rcx, QWORD PTR _First$[rbp]
	call	??$_Adl_verify_range@V?$_Vector_const_iterator@V?$_Vector_val@U?$_Simple_types@PEAUObject@Detail@NodeEditor@ax@@@std@@@std@@@std@@V12@@std@@YAXAEBV?$_Vector_const_iterator@V?$_Vector_val@U?$_Simple_types@PEAUObject@Detail@NodeEditor@ax@@@std@@@std@@@0@0@Z ; std::_Adl_verify_range<std::_Vector_const_iterator<std::_Vector_val<std::_Simple_types<ax::NodeEditor::Detail::Object *> > >,std::_Vector_const_iterator<std::_Vector_val<std::_Simple_types<ax::NodeEditor::Detail::Object *> > > >
; Line 472
	mov	rcx, QWORD PTR _First$[rbp]
	call	??$_Get_unwrapped@AEAV?$_Vector_const_iterator@V?$_Vector_val@U?$_Simple_types@PEAUObject@Detail@NodeEditor@ax@@@std@@@std@@@std@@@std@@YA?A_TAEAV?$_Vector_const_iterator@V?$_Vector_val@U?$_Simple_types@PEAUObject@Detail@NodeEditor@ax@@@std@@@std@@@0@@Z ; std::_Get_unwrapped<std::_Vector_const_iterator<std::_Vector_val<std::_Simple_types<ax::NodeEditor::Detail::Object *> > > &>
	mov	QWORD PTR _UFirst$[rbp], rax
; Line 473
	mov	rcx, QWORD PTR _Last$[rbp]
	call	??$_Get_unwrapped@AEAV?$_Vector_const_iterator@V?$_Vector_val@U?$_Simple_types@PEAUObject@Detail@NodeEditor@ax@@@std@@@std@@@std@@@std@@YA?A_TAEAV?$_Vector_const_iterator@V?$_Vector_val@U?$_Simple_types@PEAUObject@Detail@NodeEditor@ax@@@std@@@std@@@0@@Z ; std::_Get_unwrapped<std::_Vector_const_iterator<std::_Vector_val<std::_Simple_types<ax::NodeEditor::Detail::Object *> > > &>
	mov	QWORD PTR _ULast$[rbp], rax
; Line 474
	mov	QWORD PTR _Count$[rbp], 0
; Line 475
	jmp	SHORT $LN4@count_if
$LN2@count_if:
	mov	rax, QWORD PTR _UFirst$[rbp]
	add	rax, 8
	mov	QWORD PTR _UFirst$[rbp], rax
$LN4@count_if:
	mov	rax, QWORD PTR _ULast$[rbp]
	cmp	QWORD PTR _UFirst$[rbp], rax
	je	SHORT $LN3@count_if
; Line 476
	mov	rax, QWORD PTR _UFirst$[rbp]
	mov	rdx, QWORD PTR [rax]
	lea	rcx, QWORD PTR _Pred$[rbp]
	call	??$?RPEAUObject@Detail@NodeEditor@ax@@@<lambda_3f736c6210dbcb1743fac1aff84da36f>@@QEBA?A_PPEAUObject@Detail@NodeEditor@ax@@@Z ; <lambda_3f736c6210dbcb1743fac1aff84da36f>::operator()<ax::NodeEditor::Detail::Object *>
	movzx	eax, al
	test	eax, eax
	je	SHORT $LN5@count_if
; Line 477
	mov	rax, QWORD PTR _Count$[rbp]
	inc	rax
	mov	QWORD PTR _Count$[rbp], rax
$LN5@count_if:
; Line 479
	jmp	SHORT $LN2@count_if
$LN3@count_if:
; Line 481
	mov	rax, QWORD PTR _Count$[rbp]
	mov	QWORD PTR $T1[rbp], rax
	mov	rcx, QWORD PTR _First$[rbp]
	call	??1?$_Vector_const_iterator@V?$_Vector_val@U?$_Simple_types@PEAUObject@Detail@NodeEditor@ax@@@std@@@std@@@std@@QEAA@XZ
	npad	1
	mov	rcx, QWORD PTR _Last$[rbp]
	call	??1?$_Vector_const_iterator@V?$_Vector_val@U?$_Simple_types@PEAUObject@Detail@NodeEditor@ax@@@std@@@std@@@std@@QEAA@XZ
	mov	rax, QWORD PTR $T1[rbp]
; Line 482
	lea	rsp, QWORD PTR [rbp+328]
	pop	rdi
	pop	rbp
	ret	0
??$count_if@V?$_Vector_const_iterator@V?$_Vector_val@U?$_Simple_types@PEAUObject@Detail@NodeEditor@ax@@@std@@@std@@@std@@V<lambda_3f736c6210dbcb1743fac1aff84da36f>@@@std@@YA_JV?$_Vector_const_iterator@V?$_Vector_val@U?$_Simple_types@PEAUObject@Detail@NodeEditor@ax@@@std@@@std@@@0@0V<lambda_3f736c6210dbcb1743fac1aff84da36f>@@@Z ENDP ; std::count_if<std::_Vector_const_iterator<std::_Vector_val<std::_Simple_types<ax::NodeEditor::Detail::Object *> > >,<lambda_3f736c6210dbcb1743fac1aff84da36f> >
_TEXT	ENDS
; Function compile flags: /Odtp /RTCsu /ZI
;	COMDAT text$x
text$x	SEGMENT
_UFirst$ = 8
_ULast$ = 40
_Count$ = 72
$T1 = 296
_First$ = 352
_Last$ = 360
_Pred$ = 368
?dtor$0@?0???$count_if@V?$_Vector_const_iterator@V?$_Vector_val@U?$_Simple_types@PEAUObject@Detail@NodeEditor@ax@@@std@@@std@@@std@@V<lambda_3f736c6210dbcb1743fac1aff84da36f>@@@std@@YA_JV?$_Vector_const_iterator@V?$_Vector_val@U?$_Simple_types@PEAUObject@Detail@NodeEditor@ax@@@std@@@std@@@0@0V<lambda_3f736c6210dbcb1743fac1aff84da36f>@@@Z@4HA PROC ; `std::count_if<std::_Vector_const_iterator<std::_Vector_val<std::_Simple_types<ax::NodeEditor::Detail::Object *> > >,<lambda_3f736c6210dbcb1743fac1aff84da36f> >'::`1'::dtor$0
	mov	QWORD PTR [rsp+8], rcx
	mov	QWORD PTR [rsp+16], rdx
	push	rbp
	push	rdi
	sub	rsp, 40					; 00000028H
	lea	rbp, QWORD PTR [rdx+32]
	mov	rcx, QWORD PTR _Last$[rbp]
	call	??1?$_Vector_const_iterator@V?$_Vector_val@U?$_Simple_types@PEAUObject@Detail@NodeEditor@ax@@@std@@@std@@@std@@QEAA@XZ
	add	rsp, 40					; 00000028H
	pop	rdi
	pop	rbp
	ret	0
?dtor$0@?0???$count_if@V?$_Vector_const_iterator@V?$_Vector_val@U?$_Simple_types@PEAUObject@Detail@NodeEditor@ax@@@std@@@std@@@std@@V<lambda_3f736c6210dbcb1743fac1aff84da36f>@@@std@@YA_JV?$_Vector_const_iterator@V?$_Vector_val@U?$_Simple_types@PEAUObject@Detail@NodeEditor@ax@@@std@@@std@@@0@0V<lambda_3f736c6210dbcb1743fac1aff84da36f>@@@Z@4HA ENDP ; `std::count_if<std::_Vector_const_iterator<std::_Vector_val<std::_Simple_types<ax::NodeEditor::Detail::Object *> > >,<lambda_3f736c6210dbcb1743fac1aff84da36f> >'::`1'::dtor$0
text$x	ENDS
; Function compile flags: /Odtp /RTCsu /ZI
;	COMDAT text$x
text$x	SEGMENT
_UFirst$ = 8
_ULast$ = 40
_Count$ = 72
$T1 = 296
_First$ = 352
_Last$ = 360
_Pred$ = 368
?dtor$1@?0???$count_if@V?$_Vector_const_iterator@V?$_Vector_val@U?$_Simple_types@PEAUObject@Detail@NodeEditor@ax@@@std@@@std@@@std@@V<lambda_3f736c6210dbcb1743fac1aff84da36f>@@@std@@YA_JV?$_Vector_const_iterator@V?$_Vector_val@U?$_Simple_types@PEAUObject@Detail@NodeEditor@ax@@@std@@@std@@@0@0V<lambda_3f736c6210dbcb1743fac1aff84da36f>@@@Z@4HA PROC ; `std::count_if<std::_Vector_const_iterator<std::_Vector_val<std::_Simple_types<ax::NodeEditor::Detail::Object *> > >,<lambda_3f736c6210dbcb1743fac1aff84da36f> >'::`1'::dtor$1
	mov	QWORD PTR [rsp+8], rcx
	mov	QWORD PTR [rsp+16], rdx
	push	rbp
	push	rdi
	sub	rsp, 40					; 00000028H
	lea	rbp, QWORD PTR [rdx+32]
	mov	rcx, QWORD PTR _First$[rbp]
	call	??1?$_Vector_const_iterator@V?$_Vector_val@U?$_Simple_types@PEAUObject@Detail@NodeEditor@ax@@@std@@@std@@@std@@QEAA@XZ
	add	rsp, 40					; 00000028H
	pop	rdi
	pop	rbp
	ret	0
?dtor$1@?0???$count_if@V?$_Vector_const_iterator@V?$_Vector_val@U?$_Simple_types@PEAUObject@Detail@NodeEditor@ax@@@std@@@std@@@std@@V<lambda_3f736c6210dbcb1743fac1aff84da36f>@@@std@@YA_JV?$_Vector_const_iterator@V?$_Vector_val@U?$_Simple_types@PEAUObject@Detail@NodeEditor@ax@@@std@@@std@@@0@0V<lambda_3f736c6210dbcb1743fac1aff84da36f>@@@Z@4HA ENDP ; `std::count_if<std::_Vector_const_iterator<std::_Vector_val<std::_Simple_types<ax::NodeEditor::Detail::Object *> > >,<lambda_3f736c6210dbcb1743fac1aff84da36f> >'::`1'::dtor$1
text$x	ENDS
; Function compile flags: /Odtp /RTCsu /ZI
;	COMDAT ??$?RPEAUObject@Detail@NodeEditor@ax@@@<lambda_3f736c6210dbcb1743fac1aff84da36f>@@QEBA?A_PPEAUObject@Detail@NodeEditor@ax@@@Z
_TEXT	SEGMENT
tv69 = 192
this$ = 240
object$ = 248
??$?RPEAUObject@Detail@NodeEditor@ax@@@<lambda_3f736c6210dbcb1743fac1aff84da36f>@@QEBA?A_PPEAUObject@Detail@NodeEditor@ax@@@Z PROC ; <lambda_3f736c6210dbcb1743fac1aff84da36f>::operator()<ax::NodeEditor::Detail::Object *>, COMDAT
; File C:\dev\Raisin\Raisin\src\Raisin\imgui\imgui_node_editor_api.cpp
; Line 475
	mov	QWORD PTR [rsp+16], rdx
	mov	QWORD PTR [rsp+8], rcx
	push	rbp
	push	rdi
	sub	rsp, 248				; 000000f8H
	lea	rbp, QWORD PTR [rsp+32]
	lea	rcx, OFFSET FLAT:__13097B8F_imgui_node_editor_api@cpp
	call	__CheckForDebuggerJustMyCode
; Line 474
	mov	rax, QWORD PTR object$[rbp]
	mov	rax, QWORD PTR [rax]
	mov	rcx, QWORD PTR object$[rbp]
	call	QWORD PTR [rax+120]
	test	rax, rax
	je	SHORT $LN3@operator
	mov	DWORD PTR tv69[rbp], 1
	jmp	SHORT $LN4@operator
$LN3@operator:
	mov	DWORD PTR tv69[rbp], 0
$LN4@operator:
	movzx	eax, BYTE PTR tv69[rbp]
; Line 475
	lea	rsp, QWORD PTR [rbp+216]
	pop	rdi
	pop	rbp
	ret	0
??$?RPEAUObject@Detail@NodeEditor@ax@@@<lambda_3f736c6210dbcb1743fac1aff84da36f>@@QEBA?A_PPEAUObject@Detail@NodeEditor@ax@@@Z ENDP ; <lambda_3f736c6210dbcb1743fac1aff84da36f>::operator()<ax::NodeEditor::Detail::Object *>
_TEXT	ENDS
; Function compile flags: /Odtp /RTCsu /ZI
;	COMDAT ??$count_if@V?$_Vector_const_iterator@V?$_Vector_val@U?$_Simple_types@PEAUObject@Detail@NodeEditor@ax@@@std@@@std@@@std@@V<lambda_66aca6479765757b8aee270ad1341d1d>@@@std@@YA_JV?$_Vector_const_iterator@V?$_Vector_val@U?$_Simple_types@PEAUObject@Detail@NodeEditor@ax@@@std@@@std@@@0@0V<lambda_66aca6479765757b8aee270ad1341d1d>@@@Z
_TEXT	SEGMENT
_UFirst$ = 8
_ULast$ = 40
_Count$ = 72
$T1 = 296
_First$ = 352
_Last$ = 360
_Pred$ = 368
??$count_if@V?$_Vector_const_iterator@V?$_Vector_val@U?$_Simple_types@PEAUObject@Detail@NodeEditor@ax@@@std@@@std@@@std@@V<lambda_66aca6479765757b8aee270ad1341d1d>@@@std@@YA_JV?$_Vector_const_iterator@V?$_Vector_val@U?$_Simple_types@PEAUObject@Detail@NodeEditor@ax@@@std@@@std@@@0@0V<lambda_66aca6479765757b8aee270ad1341d1d>@@@Z PROC ; std::count_if<std::_Vector_const_iterator<std::_Vector_val<std::_Simple_types<ax::NodeEditor::Detail::Object *> > >,<lambda_66aca6479765757b8aee270ad1341d1d> >, COMDAT
; File C:\Program Files\Microsoft Visual Studio\2022\Community\VC\Tools\MSVC\14.33.31629\include\algorithm
; Line 469
	mov	BYTE PTR [rsp+24], r8b
	mov	QWORD PTR [rsp+16], rdx
	mov	QWORD PTR [rsp+8], rcx
	push	rbp
	push	rdi
	sub	rsp, 360				; 00000168H
	lea	rbp, QWORD PTR [rsp+32]
	lea	rcx, OFFSET FLAT:__2D625E3F_algorithm
	call	__CheckForDebuggerJustMyCode
; Line 471
	mov	rdx, QWORD PTR _Last$[rbp]
	mov	rcx, QWORD PTR _First$[rbp]
	call	??$_Adl_verify_range@V?$_Vector_const_iterator@V?$_Vector_val@U?$_Simple_types@PEAUObject@Detail@NodeEditor@ax@@@std@@@std@@@std@@V12@@std@@YAXAEBV?$_Vector_const_iterator@V?$_Vector_val@U?$_Simple_types@PEAUObject@Detail@NodeEditor@ax@@@std@@@std@@@0@0@Z ; std::_Adl_verify_range<std::_Vector_const_iterator<std::_Vector_val<std::_Simple_types<ax::NodeEditor::Detail::Object *> > >,std::_Vector_const_iterator<std::_Vector_val<std::_Simple_types<ax::NodeEditor::Detail::Object *> > > >
; Line 472
	mov	rcx, QWORD PTR _First$[rbp]
	call	??$_Get_unwrapped@AEAV?$_Vector_const_iterator@V?$_Vector_val@U?$_Simple_types@PEAUObject@Detail@NodeEditor@ax@@@std@@@std@@@std@@@std@@YA?A_TAEAV?$_Vector_const_iterator@V?$_Vector_val@U?$_Simple_types@PEAUObject@Detail@NodeEditor@ax@@@std@@@std@@@0@@Z ; std::_Get_unwrapped<std::_Vector_const_iterator<std::_Vector_val<std::_Simple_types<ax::NodeEditor::Detail::Object *> > > &>
	mov	QWORD PTR _UFirst$[rbp], rax
; Line 473
	mov	rcx, QWORD PTR _Last$[rbp]
	call	??$_Get_unwrapped@AEAV?$_Vector_const_iterator@V?$_Vector_val@U?$_Simple_types@PEAUObject@Detail@NodeEditor@ax@@@std@@@std@@@std@@@std@@YA?A_TAEAV?$_Vector_const_iterator@V?$_Vector_val@U?$_Simple_types@PEAUObject@Detail@NodeEditor@ax@@@std@@@std@@@0@@Z ; std::_Get_unwrapped<std::_Vector_const_iterator<std::_Vector_val<std::_Simple_types<ax::NodeEditor::Detail::Object *> > > &>
	mov	QWORD PTR _ULast$[rbp], rax
; Line 474
	mov	QWORD PTR _Count$[rbp], 0
; Line 475
	jmp	SHORT $LN4@count_if
$LN2@count_if:
	mov	rax, QWORD PTR _UFirst$[rbp]
	add	rax, 8
	mov	QWORD PTR _UFirst$[rbp], rax
$LN4@count_if:
	mov	rax, QWORD PTR _ULast$[rbp]
	cmp	QWORD PTR _UFirst$[rbp], rax
	je	SHORT $LN3@count_if
; Line 476
	mov	rax, QWORD PTR _UFirst$[rbp]
	mov	rdx, QWORD PTR [rax]
	lea	rcx, QWORD PTR _Pred$[rbp]
	call	??$?RPEAUObject@Detail@NodeEditor@ax@@@<lambda_66aca6479765757b8aee270ad1341d1d>@@QEBA?A_PPEAUObject@Detail@NodeEditor@ax@@@Z ; <lambda_66aca6479765757b8aee270ad1341d1d>::operator()<ax::NodeEditor::Detail::Object *>
	movzx	eax, al
	test	eax, eax
	je	SHORT $LN5@count_if
; Line 477
	mov	rax, QWORD PTR _Count$[rbp]
	inc	rax
	mov	QWORD PTR _Count$[rbp], rax
$LN5@count_if:
; Line 479
	jmp	SHORT $LN2@count_if
$LN3@count_if:
; Line 481
	mov	rax, QWORD PTR _Count$[rbp]
	mov	QWORD PTR $T1[rbp], rax
	mov	rcx, QWORD PTR _First$[rbp]
	call	??1?$_Vector_const_iterator@V?$_Vector_val@U?$_Simple_types@PEAUObject@Detail@NodeEditor@ax@@@std@@@std@@@std@@QEAA@XZ
	npad	1
	mov	rcx, QWORD PTR _Last$[rbp]
	call	??1?$_Vector_const_iterator@V?$_Vector_val@U?$_Simple_types@PEAUObject@Detail@NodeEditor@ax@@@std@@@std@@@std@@QEAA@XZ
	mov	rax, QWORD PTR $T1[rbp]
; Line 482
	lea	rsp, QWORD PTR [rbp+328]
	pop	rdi
	pop	rbp
	ret	0
??$count_if@V?$_Vector_const_iterator@V?$_Vector_val@U?$_Simple_types@PEAUObject@Detail@NodeEditor@ax@@@std@@@std@@@std@@V<lambda_66aca6479765757b8aee270ad1341d1d>@@@std@@YA_JV?$_Vector_const_iterator@V?$_Vector_val@U?$_Simple_types@PEAUObject@Detail@NodeEditor@ax@@@std@@@std@@@0@0V<lambda_66aca6479765757b8aee270ad1341d1d>@@@Z ENDP ; std::count_if<std::_Vector_const_iterator<std::_Vector_val<std::_Simple_types<ax::NodeEditor::Detail::Object *> > >,<lambda_66aca6479765757b8aee270ad1341d1d> >
_TEXT	ENDS
; Function compile flags: /Odtp /RTCsu /ZI
;	COMDAT text$x
text$x	SEGMENT
_UFirst$ = 8
_ULast$ = 40
_Count$ = 72
$T1 = 296
_First$ = 352
_Last$ = 360
_Pred$ = 368
?dtor$0@?0???$count_if@V?$_Vector_const_iterator@V?$_Vector_val@U?$_Simple_types@PEAUObject@Detail@NodeEditor@ax@@@std@@@std@@@std@@V<lambda_66aca6479765757b8aee270ad1341d1d>@@@std@@YA_JV?$_Vector_const_iterator@V?$_Vector_val@U?$_Simple_types@PEAUObject@Detail@NodeEditor@ax@@@std@@@std@@@0@0V<lambda_66aca6479765757b8aee270ad1341d1d>@@@Z@4HA PROC ; `std::count_if<std::_Vector_const_iterator<std::_Vector_val<std::_Simple_types<ax::NodeEditor::Detail::Object *> > >,<lambda_66aca6479765757b8aee270ad1341d1d> >'::`1'::dtor$0
	mov	QWORD PTR [rsp+8], rcx
	mov	QWORD PTR [rsp+16], rdx
	push	rbp
	push	rdi
	sub	rsp, 40					; 00000028H
	lea	rbp, QWORD PTR [rdx+32]
	mov	rcx, QWORD PTR _Last$[rbp]
	call	??1?$_Vector_const_iterator@V?$_Vector_val@U?$_Simple_types@PEAUObject@Detail@NodeEditor@ax@@@std@@@std@@@std@@QEAA@XZ
	add	rsp, 40					; 00000028H
	pop	rdi
	pop	rbp
	ret	0
?dtor$0@?0???$count_if@V?$_Vector_const_iterator@V?$_Vector_val@U?$_Simple_types@PEAUObject@Detail@NodeEditor@ax@@@std@@@std@@@std@@V<lambda_66aca6479765757b8aee270ad1341d1d>@@@std@@YA_JV?$_Vector_const_iterator@V?$_Vector_val@U?$_Simple_types@PEAUObject@Detail@NodeEditor@ax@@@std@@@std@@@0@0V<lambda_66aca6479765757b8aee270ad1341d1d>@@@Z@4HA ENDP ; `std::count_if<std::_Vector_const_iterator<std::_Vector_val<std::_Simple_types<ax::NodeEditor::Detail::Object *> > >,<lambda_66aca6479765757b8aee270ad1341d1d> >'::`1'::dtor$0
text$x	ENDS
; Function compile flags: /Odtp /RTCsu /ZI
;	COMDAT text$x
text$x	SEGMENT
_UFirst$ = 8
_ULast$ = 40
_Count$ = 72
$T1 = 296
_First$ = 352
_Last$ = 360
_Pred$ = 368
?dtor$1@?0???$count_if@V?$_Vector_const_iterator@V?$_Vector_val@U?$_Simple_types@PEAUObject@Detail@NodeEditor@ax@@@std@@@std@@@std@@V<lambda_66aca6479765757b8aee270ad1341d1d>@@@std@@YA_JV?$_Vector_const_iterator@V?$_Vector_val@U?$_Simple_types@PEAUObject@Detail@NodeEditor@ax@@@std@@@std@@@0@0V<lambda_66aca6479765757b8aee270ad1341d1d>@@@Z@4HA PROC ; `std::count_if<std::_Vector_const_iterator<std::_Vector_val<std::_Simple_types<ax::NodeEditor::Detail::Object *> > >,<lambda_66aca6479765757b8aee270ad1341d1d> >'::`1'::dtor$1
	mov	QWORD PTR [rsp+8], rcx
	mov	QWORD PTR [rsp+16], rdx
	push	rbp
	push	rdi
	sub	rsp, 40					; 00000028H
	lea	rbp, QWORD PTR [rdx+32]
	mov	rcx, QWORD PTR _First$[rbp]
	call	??1?$_Vector_const_iterator@V?$_Vector_val@U?$_Simple_types@PEAUObject@Detail@NodeEditor@ax@@@std@@@std@@@std@@QEAA@XZ
	add	rsp, 40					; 00000028H
	pop	rdi
	pop	rbp
	ret	0
?dtor$1@?0???$count_if@V?$_Vector_const_iterator@V?$_Vector_val@U?$_Simple_types@PEAUObject@Detail@NodeEditor@ax@@@std@@@std@@@std@@V<lambda_66aca6479765757b8aee270ad1341d1d>@@@std@@YA_JV?$_Vector_const_iterator@V?$_Vector_val@U?$_Simple_types@PEAUObject@Detail@NodeEditor@ax@@@std@@@std@@@0@0V<lambda_66aca6479765757b8aee270ad1341d1d>@@@Z@4HA ENDP ; `std::count_if<std::_Vector_const_iterator<std::_Vector_val<std::_Simple_types<ax::NodeEditor::Detail::Object *> > >,<lambda_66aca6479765757b8aee270ad1341d1d> >'::`1'::dtor$1
text$x	ENDS
; Function compile flags: /Odtp /RTCsu /ZI
;	COMDAT ??1?$_Vector_const_iterator@V?$_Vector_val@U?$_Simple_types@PEAUObject@Detail@NodeEditor@ax@@@std@@@std@@@std@@QEAA@XZ
_TEXT	SEGMENT
this$ = 224
??1?$_Vector_const_iterator@V?$_Vector_val@U?$_Simple_types@PEAUObject@Detail@NodeEditor@ax@@@std@@@std@@@std@@QEAA@XZ PROC ; std::_Vector_const_iterator<std::_Vector_val<std::_Simple_types<ax::NodeEditor::Detail::Object *> > >::~_Vector_const_iterator<std::_Vector_val<std::_Simple_types<ax::NodeEditor::Detail::Object *> > >, COMDAT
$LN3:
	mov	QWORD PTR [rsp+8], rcx
	push	rbp
	push	rdi
	sub	rsp, 232				; 000000e8H
	lea	rbp, QWORD PTR [rsp+32]
	mov	rcx, QWORD PTR this$[rbp]
	call	??1_Iterator_base12@std@@QEAA@XZ	; std::_Iterator_base12::~_Iterator_base12
	lea	rsp, QWORD PTR [rbp+200]
	pop	rdi
	pop	rbp
	ret	0
??1?$_Vector_const_iterator@V?$_Vector_val@U?$_Simple_types@PEAUObject@Detail@NodeEditor@ax@@@std@@@std@@@std@@QEAA@XZ ENDP ; std::_Vector_const_iterator<std::_Vector_val<std::_Simple_types<ax::NodeEditor::Detail::Object *> > >::~_Vector_const_iterator<std::_Vector_val<std::_Simple_types<ax::NodeEditor::Detail::Object *> > >
_TEXT	ENDS
; Function compile flags: /Odtp /RTCsu /ZI
;	COMDAT ?_Unwrapped@?$_Vector_const_iterator@V?$_Vector_val@U?$_Simple_types@PEAUObject@Detail@NodeEditor@ax@@@std@@@std@@@std@@QEBAPEBQEAUObject@Detail@NodeEditor@ax@@XZ
_TEXT	SEGMENT
this$ = 224
?_Unwrapped@?$_Vector_const_iterator@V?$_Vector_val@U?$_Simple_types@PEAUObject@Detail@NodeEditor@ax@@@std@@@std@@@std@@QEBAPEBQEAUObject@Detail@NodeEditor@ax@@XZ PROC ; std::_Vector_const_iterator<std::_Vector_val<std::_Simple_types<ax::NodeEditor::Detail::Object *> > >::_Unwrapped, COMDAT
; File C:\Program Files\Microsoft Visual Studio\2022\Community\VC\Tools\MSVC\14.33.31629\include\vector
; Line 200
$LN3:
	mov	QWORD PTR [rsp+8], rcx
	push	rbp
	push	rdi
	sub	rsp, 232				; 000000e8H
	lea	rbp, QWORD PTR [rsp+32]
	lea	rcx, OFFSET FLAT:__1EEDDF51_vector
	call	__CheckForDebuggerJustMyCode
; Line 201
	mov	rax, QWORD PTR this$[rbp]
	mov	rcx, QWORD PTR [rax+16]
	call	??$_Unfancy@PEAUObject@Detail@NodeEditor@ax@@@std@@YAPEAPEAUObject@Detail@NodeEditor@ax@@PEAPEAU1234@@Z ; std::_Unfancy<ax::NodeEditor::Detail::Object *>
; Line 202
	lea	rsp, QWORD PTR [rbp+200]
	pop	rdi
	pop	rbp
	ret	0
?_Unwrapped@?$_Vector_const_iterator@V?$_Vector_val@U?$_Simple_types@PEAUObject@Detail@NodeEditor@ax@@@std@@@std@@@std@@QEBAPEBQEAUObject@Detail@NodeEditor@ax@@XZ ENDP ; std::_Vector_const_iterator<std::_Vector_val<std::_Simple_types<ax::NodeEditor::Detail::Object *> > >::_Unwrapped
_TEXT	ENDS
; Function compile flags: /Odtp /RTCsu /ZI
;	COMDAT ?_Verify_range@std@@YAXAEBV?$_Vector_const_iterator@V?$_Vector_val@U?$_Simple_types@PEAUObject@Detail@NodeEditor@ax@@@std@@@std@@@1@0@Z
_TEXT	SEGMENT
tv69 = 192
_First$ = 240
_Last$ = 248
?_Verify_range@std@@YAXAEBV?$_Vector_const_iterator@V?$_Vector_val@U?$_Simple_types@PEAUObject@Detail@NodeEditor@ax@@@std@@@std@@@1@0@Z PROC ; std::_Verify_range, COMDAT
; File C:\Program Files\Microsoft Visual Studio\2022\Community\VC\Tools\MSVC\14.33.31629\include\vector
; Line 192
$LN21:
	mov	QWORD PTR [rsp+16], rdx
	mov	QWORD PTR [rsp+8], rcx
	push	rbp
	push	rdi
	sub	rsp, 264				; 00000108H
	lea	rbp, QWORD PTR [rsp+48]
	lea	rcx, OFFSET FLAT:__1EEDDF51_vector
	call	__CheckForDebuggerJustMyCode
$LN4@Verify_ran:
; Line 193
	mov	rcx, QWORD PTR _First$[rbp]
	call	?_Getcont@_Iterator_base12@std@@QEBAPEBU_Container_base12@2@XZ ; std::_Iterator_base12::_Getcont
	mov	QWORD PTR tv69[rbp], rax
	mov	rcx, QWORD PTR _Last$[rbp]
	call	?_Getcont@_Iterator_base12@std@@QEBAPEBU_Container_base12@2@XZ ; std::_Iterator_base12::_Getcont
	mov	rcx, QWORD PTR tv69[rbp]
	cmp	rcx, rax
	jne	SHORT $LN7@Verify_ran
	jmp	SHORT $LN15@Verify_ran
$LN7@Verify_ran:
	lea	rax, OFFSET FLAT:??_C@_0DI@PBEELKIF@vector?5iterators?5in?5range?5are?5f@
	mov	QWORD PTR [rsp+40], rax
	lea	rax, OFFSET FLAT:??_C@_02DKCKIIND@?$CFs@
	mov	QWORD PTR [rsp+32], rax
	xor	r9d, r9d
	mov	r8d, 193				; 000000c1H
	lea	rdx, OFFSET FLAT:??_C@_0GB@FLOGEF@C?3?2Program?5Files?2Microsoft?5Visu@
	mov	ecx, 2
	call	QWORD PTR __imp__CrtDbgReport
	cmp	eax, 1
	jne	SHORT $LN19@Verify_ran
	int	3
	xor	eax, eax
$LN19@Verify_ran:
	mov	QWORD PTR [rsp+32], 0
	mov	r9d, 193				; 000000c1H
	lea	r8, OFFSET FLAT:??_C@_1MC@LACENGKK@?$AAC?$AA?3?$AA?2?$AAP?$AAr?$AAo?$AAg?$AAr?$AAa?$AAm?$AA?5?$AAF?$AAi?$AAl?$AAe@
	lea	rdx, OFFSET FLAT:??_C@_11LOCGONAA@@
	lea	rcx, OFFSET FLAT:??_C@_1HE@KBMFDAFB@?$AA?$CC?$AAv?$AAe?$AAc?$AAt?$AAo?$AAr?$AA?5?$AAi?$AAt?$AAe?$AAr?$AAa?$AAt?$AAo@
	call	QWORD PTR __imp__invalid_parameter
	xor	eax, eax
	test	eax, eax
	jne	SHORT $LN7@Verify_ran
$LN15@Verify_ran:
	xor	eax, eax
	test	eax, eax
	jne	$LN4@Verify_ran
$LN10@Verify_ran:
; Line 194
	mov	rax, QWORD PTR _First$[rbp]
	mov	rcx, QWORD PTR _Last$[rbp]
	mov	rcx, QWORD PTR [rcx+16]
	cmp	QWORD PTR [rax+16], rcx
	ja	SHORT $LN13@Verify_ran
	jmp	SHORT $LN17@Verify_ran
$LN13@Verify_ran:
	lea	rax, OFFSET FLAT:??_C@_0CB@LIAHLBAO@vector?5iterator?5range?5transpose@
	mov	QWORD PTR [rsp+40], rax
	lea	rax, OFFSET FLAT:??_C@_02DKCKIIND@?$CFs@
	mov	QWORD PTR [rsp+32], rax
	xor	r9d, r9d
	mov	r8d, 194				; 000000c2H
	lea	rdx, OFFSET FLAT:??_C@_0GB@FLOGEF@C?3?2Program?5Files?2Microsoft?5Visu@
	mov	ecx, 2
	call	QWORD PTR __imp__CrtDbgReport
	cmp	eax, 1
	jne	SHORT $LN20@Verify_ran
	int	3
	xor	eax, eax
$LN20@Verify_ran:
	mov	QWORD PTR [rsp+32], 0
	mov	r9d, 194				; 000000c2H
	lea	r8, OFFSET FLAT:??_C@_1MC@LACENGKK@?$AAC?$AA?3?$AA?2?$AAP?$AAr?$AAo?$AAg?$AAr?$AAa?$AAm?$AA?5?$AAF?$AAi?$AAl?$AAe@
	lea	rdx, OFFSET FLAT:??_C@_11LOCGONAA@@
	lea	rcx, OFFSET FLAT:??_C@_1EG@ODKBEHFN@?$AA?$CC?$AAv?$AAe?$AAc?$AAt?$AAo?$AAr?$AA?5?$AAi?$AAt?$AAe?$AAr?$AAa?$AAt?$AAo@
	call	QWORD PTR __imp__invalid_parameter
	xor	eax, eax
	test	eax, eax
	jne	SHORT $LN13@Verify_ran
$LN17@Verify_ran:
	xor	eax, eax
	test	eax, eax
	jne	$LN10@Verify_ran
; Line 195
	lea	rsp, QWORD PTR [rbp+216]
	pop	rdi
	pop	rbp
	ret	0
?_Verify_range@std@@YAXAEBV?$_Vector_const_iterator@V?$_Vector_val@U?$_Simple_types@PEAUObject@Detail@NodeEditor@ax@@@std@@@std@@@1@0@Z ENDP ; std::_Verify_range
_TEXT	ENDS
; Function compile flags: /Odtp /RTCsu /ZI
;	COMDAT ??0?$_Vector_const_iterator@V?$_Vector_val@U?$_Simple_types@PEAUObject@Detail@NodeEditor@ax@@@std@@@std@@@std@@QEAA@PEAPEAUObject@Detail@NodeEditor@ax@@PEBU_Container_base12@1@@Z
_TEXT	SEGMENT
this$ = 224
_Parg$ = 232
_Pvector$ = 240
??0?$_Vector_const_iterator@V?$_Vector_val@U?$_Simple_types@PEAUObject@Detail@NodeEditor@ax@@@std@@@std@@@std@@QEAA@PEAPEAUObject@Detail@NodeEditor@ax@@PEBU_Container_base12@1@@Z PROC ; std::_Vector_const_iterator<std::_Vector_val<std::_Simple_types<ax::NodeEditor::Detail::Object *> > >::_Vector_const_iterator<std::_Vector_val<std::_Simple_types<ax::NodeEditor::Detail::Object *> > >, COMDAT
; File C:\Program Files\Microsoft Visual Studio\2022\Community\VC\Tools\MSVC\14.33.31629\include\vector
; Line 41
$LN3:
	mov	QWORD PTR [rsp+24], r8
	mov	QWORD PTR [rsp+16], rdx
	mov	QWORD PTR [rsp+8], rcx
	push	rbp
	push	rdi
	sub	rsp, 232				; 000000e8H
	lea	rbp, QWORD PTR [rsp+32]
	lea	rcx, OFFSET FLAT:__1EEDDF51_vector
	call	__CheckForDebuggerJustMyCode
	mov	rcx, QWORD PTR this$[rbp]
	call	??0_Iterator_base12@std@@QEAA@XZ	; std::_Iterator_base12::_Iterator_base12
	mov	rax, QWORD PTR this$[rbp]
	mov	rcx, QWORD PTR _Parg$[rbp]
	mov	QWORD PTR [rax+16], rcx
; Line 42
	mov	rdx, QWORD PTR _Pvector$[rbp]
	mov	rcx, QWORD PTR this$[rbp]
	call	?_Adopt@_Iterator_base12@std@@QEAAXPEBU_Container_base12@2@@Z ; std::_Iterator_base12::_Adopt
; Line 43
	mov	rax, QWORD PTR this$[rbp]
	lea	rsp, QWORD PTR [rbp+200]
	pop	rdi
	pop	rbp
	ret	0
??0?$_Vector_const_iterator@V?$_Vector_val@U?$_Simple_types@PEAUObject@Detail@NodeEditor@ax@@@std@@@std@@@std@@QEAA@PEAPEAUObject@Detail@NodeEditor@ax@@PEBU_Container_base12@1@@Z ENDP ; std::_Vector_const_iterator<std::_Vector_val<std::_Simple_types<ax::NodeEditor::Detail::Object *> > >::_Vector_const_iterator<std::_Vector_val<std::_Simple_types<ax::NodeEditor::Detail::Object *> > >
_TEXT	ENDS
; Function compile flags: /Odtp /RTCsu /ZI
;	COMDAT ??$?RPEAUObject@Detail@NodeEditor@ax@@@<lambda_66aca6479765757b8aee270ad1341d1d>@@QEBA?A_PPEAUObject@Detail@NodeEditor@ax@@@Z
_TEXT	SEGMENT
tv69 = 192
this$ = 240
object$ = 248
??$?RPEAUObject@Detail@NodeEditor@ax@@@<lambda_66aca6479765757b8aee270ad1341d1d>@@QEBA?A_PPEAUObject@Detail@NodeEditor@ax@@@Z PROC ; <lambda_66aca6479765757b8aee270ad1341d1d>::operator()<ax::NodeEditor::Detail::Object *>, COMDAT
; File C:\dev\Raisin\Raisin\src\Raisin\imgui\imgui_node_editor_api.cpp
; Line 467
	mov	QWORD PTR [rsp+16], rdx
	mov	QWORD PTR [rsp+8], rcx
	push	rbp
	push	rdi
	sub	rsp, 248				; 000000f8H
	lea	rbp, QWORD PTR [rsp+32]
	lea	rcx, OFFSET FLAT:__13097B8F_imgui_node_editor_api@cpp
	call	__CheckForDebuggerJustMyCode
; Line 466
	mov	rax, QWORD PTR object$[rbp]
	mov	rax, QWORD PTR [rax]
	mov	rcx, QWORD PTR object$[rbp]
	call	QWORD PTR [rax+104]
	test	rax, rax
	je	SHORT $LN3@operator
	mov	DWORD PTR tv69[rbp], 1
	jmp	SHORT $LN4@operator
$LN3@operator:
	mov	DWORD PTR tv69[rbp], 0
$LN4@operator:
	movzx	eax, BYTE PTR tv69[rbp]
; Line 467
	lea	rsp, QWORD PTR [rbp+216]
	pop	rdi
	pop	rbp
	ret	0
??$?RPEAUObject@Detail@NodeEditor@ax@@@<lambda_66aca6479765757b8aee270ad1341d1d>@@QEBA?A_PPEAUObject@Detail@NodeEditor@ax@@@Z ENDP ; <lambda_66aca6479765757b8aee270ad1341d1d>::operator()<ax::NodeEditor::Detail::Object *>
_TEXT	ENDS
; Function compile flags: /Odtp /RTCsu /ZI
;	COMDAT ??__E?Invalid@?$SafePointerType@UObjectId@Detail@NodeEditor@ax@@@Details@NodeEditor@ax@@2UObjectId@Detail@34@B@@YAXXZ
text$di	SEGMENT
??__E?Invalid@?$SafePointerType@UObjectId@Detail@NodeEditor@ax@@@Details@NodeEditor@ax@@2UObjectId@Detail@34@B@@YAXXZ PROC ; `dynamic initializer for 'ax::NodeEditor::Details::SafePointerType<ax::NodeEditor::Detail::ObjectId>::Invalid'', COMDAT
; File C:\dev\Raisin\Raisin\src\Raisin\imgui\imgui_node_editor.h
; Line 472
	push	rbp
	push	rdi
	sub	rsp, 232				; 000000e8H
	lea	rbp, QWORD PTR [rsp+32]
	lea	rcx, OFFSET FLAT:__38B03CD2_imgui_node_editor@h
	call	__CheckForDebuggerJustMyCode
	xor	edx, edx
	lea	rcx, OFFSET FLAT:?Invalid@?$SafePointerType@UObjectId@Detail@NodeEditor@ax@@@Details@NodeEditor@ax@@2UObjectId@Detail@34@B ; ax::NodeEditor::Details::SafePointerType<ax::NodeEditor::Detail::ObjectId>::Invalid
	call	??0ObjectId@Detail@NodeEditor@ax@@QEAA@_K@Z
	lea	rsp, QWORD PTR [rbp+200]
	pop	rdi
	pop	rbp
	ret	0
??__E?Invalid@?$SafePointerType@UObjectId@Detail@NodeEditor@ax@@@Details@NodeEditor@ax@@2UObjectId@Detail@34@B@@YAXXZ ENDP ; `dynamic initializer for 'ax::NodeEditor::Details::SafePointerType<ax::NodeEditor::Detail::ObjectId>::Invalid''
text$di	ENDS
; Function compile flags: /Odtp /RTCsu /ZI
;	COMDAT ??$BuildIdList@$$CBV?$vector@PEAUObject@Detail@NodeEditor@ax@@V?$allocator@PEAUObject@Detail@NodeEditor@ax@@@std@@@std@@ULinkId@NodeEditor@ax@@V<lambda_aae6843b07c1c292b06cefe3dee011c3>@@@@YAHAEBV?$vector@PEAUObject@Detail@NodeEditor@ax@@V?$allocator@PEAUObject@Detail@NodeEditor@ax@@@std@@@std@@PEAULinkId@NodeEditor@ax@@H$$QEAV<lambda_aae6843b07c1c292b06cefe3dee011c3>@@@Z
_TEXT	SEGMENT
count$1 = 4
<range>$L0$2 = 40
<begin>$L0$3 = 72
<end>$L0$4 = 104
object$5 = 136
$T6 = 360
$T7 = 392
$T8 = 440
$T9 = 488
$T10 = 520
$T11 = 568
$T12 = 596
$T13 = 628
tv161 = 648
tv91 = 648
tv146 = 656
tv163 = 664
tv154 = 672
container$ = 720
list$ = 728
listSize$ = 736
accept$ = 744
??$BuildIdList@$$CBV?$vector@PEAUObject@Detail@NodeEditor@ax@@V?$allocator@PEAUObject@Detail@NodeEditor@ax@@@std@@@std@@ULinkId@NodeEditor@ax@@V<lambda_aae6843b07c1c292b06cefe3dee011c3>@@@@YAHAEBV?$vector@PEAUObject@Detail@NodeEditor@ax@@V?$allocator@PEAUObject@Detail@NodeEditor@ax@@@std@@@std@@PEAULinkId@NodeEditor@ax@@H$$QEAV<lambda_aae6843b07c1c292b06cefe3dee011c3>@@@Z PROC ; BuildIdList<std::vector<ax::NodeEditor::Detail::Object *,std::allocator<ax::NodeEditor::Detail::Object *> > const ,ax::NodeEditor::LinkId,<lambda_aae6843b07c1c292b06cefe3dee011c3> >, COMDAT
; File C:\dev\Raisin\Raisin\src\Raisin\imgui\imgui_node_editor_api.cpp
; Line 23
	mov	QWORD PTR [rsp+32], r9
	mov	DWORD PTR [rsp+24], r8d
	mov	QWORD PTR [rsp+16], rdx
	mov	QWORD PTR [rsp+8], rcx
	push	rbp
	push	rdi
	sub	rsp, 728				; 000002d8H
	lea	rbp, QWORD PTR [rsp+32]
	lea	rcx, OFFSET FLAT:__13097B8F_imgui_node_editor_api@cpp
	call	__CheckForDebuggerJustMyCode
; Line 24
	cmp	QWORD PTR list$[rbp], 0
	je	$LN5@BuildIdLis
; Line 26
	mov	DWORD PTR count$1[rbp], 0
; Line 27
	mov	rax, QWORD PTR container$[rbp]
	mov	QWORD PTR <range>$L0$2[rbp], rax
	mov	rcx, QWORD PTR <range>$L0$2[rbp]
	call	?_Unchecked_begin@?$vector@PEAUObject@Detail@NodeEditor@ax@@V?$allocator@PEAUObject@Detail@NodeEditor@ax@@@std@@@std@@QEBAPEBQEAUObject@Detail@NodeEditor@ax@@XZ ; std::vector<ax::NodeEditor::Detail::Object *,std::allocator<ax::NodeEditor::Detail::Object *> >::_Unchecked_begin
	mov	QWORD PTR <begin>$L0$3[rbp], rax
	mov	rcx, QWORD PTR <range>$L0$2[rbp]
	call	?_Unchecked_end@?$vector@PEAUObject@Detail@NodeEditor@ax@@V?$allocator@PEAUObject@Detail@NodeEditor@ax@@@std@@@std@@QEBAPEBQEAUObject@Detail@NodeEditor@ax@@XZ ; std::vector<ax::NodeEditor::Detail::Object *,std::allocator<ax::NodeEditor::Detail::Object *> >::_Unchecked_end
	mov	QWORD PTR <end>$L0$4[rbp], rax
	jmp	SHORT $LN4@BuildIdLis
$LN2@BuildIdLis:
	mov	rax, QWORD PTR <begin>$L0$3[rbp]
	add	rax, 8
	mov	QWORD PTR <begin>$L0$3[rbp], rax
$LN4@BuildIdLis:
	mov	rax, QWORD PTR <end>$L0$4[rbp]
	cmp	QWORD PTR <begin>$L0$3[rbp], rax
	je	$LN3@BuildIdLis
	mov	rax, QWORD PTR <begin>$L0$3[rbp]
	mov	rax, QWORD PTR [rax]
	mov	QWORD PTR object$5[rbp], rax
; Line 29
	cmp	DWORD PTR listSize$[rbp], 0
	jg	SHORT $LN7@BuildIdLis
; Line 30
	jmp	$LN3@BuildIdLis
$LN7@BuildIdLis:
; Line 32
	mov	rdx, QWORD PTR object$5[rbp]
	mov	rcx, QWORD PTR accept$[rbp]
	call	??$?RPEAUObject@Detail@NodeEditor@ax@@@<lambda_aae6843b07c1c292b06cefe3dee011c3>@@QEBA?A_PPEAUObject@Detail@NodeEditor@ax@@@Z ; <lambda_aae6843b07c1c292b06cefe3dee011c3>::operator()<ax::NodeEditor::Detail::Object *>
	movzx	eax, al
	test	eax, eax
	je	SHORT $LN8@BuildIdLis
; Line 34
	mov	rax, QWORD PTR object$5[rbp]
	mov	rax, QWORD PTR [rax]
	mov	rax, QWORD PTR [rax+8]
	mov	QWORD PTR tv91[rbp], rax
	lea	rdx, QWORD PTR $T7[rbp]
	mov	rcx, QWORD PTR object$5[rbp]
	call	QWORD PTR tv91[rbp]
	mov	rcx, rax
	call	??$AsPointer@X@?$SafePointerType@UObjectId@Detail@NodeEditor@ax@@@Details@NodeEditor@ax@@QEBAPEAXXZ ; ax::NodeEditor::Details::SafePointerType<ax::NodeEditor::Detail::ObjectId>::AsPointer<void>
	mov	rdx, rax
	lea	rcx, QWORD PTR $T6[rbp]
	call	??$?0X@LinkId@NodeEditor@ax@@QEAA@PEAX@Z ; ax::NodeEditor::LinkId::LinkId<void>
	mov	rax, QWORD PTR [rax]
	movsxd	rcx, DWORD PTR count$1[rbp]
	mov	rdx, QWORD PTR list$[rbp]
	mov	QWORD PTR [rdx+rcx*8], rax
; Line 35
	mov	eax, DWORD PTR count$1[rbp]
	inc	eax
	mov	DWORD PTR count$1[rbp], eax
; Line 36
	mov	eax, DWORD PTR listSize$[rbp]
	dec	eax
	mov	DWORD PTR listSize$[rbp], eax
$LN8@BuildIdLis:
; Line 37
	jmp	$LN2@BuildIdLis
$LN3@BuildIdLis:
; Line 39
	mov	eax, DWORD PTR count$1[rbp]
	jmp	$LN1@BuildIdLis
; Line 40
	jmp	$LN1@BuildIdLis
$LN5@BuildIdLis:
; Line 42
	mov	rax, QWORD PTR accept$[rbp]
	movzx	eax, BYTE PTR [rax]
	mov	BYTE PTR $T12[rbp], al
	movzx	eax, BYTE PTR $T12[rbp]
	mov	BYTE PTR $T13[rbp], al
	lea	rax, QWORD PTR $T8[rbp]
	mov	QWORD PTR $T9[rbp], rax
	mov	rdx, QWORD PTR $T9[rbp]
	mov	rcx, QWORD PTR container$[rbp]
	call	?end@?$vector@PEAUObject@Detail@NodeEditor@ax@@V?$allocator@PEAUObject@Detail@NodeEditor@ax@@@std@@@std@@QEBA?AV?$_Vector_const_iterator@V?$_Vector_val@U?$_Simple_types@PEAUObject@Detail@NodeEditor@ax@@@std@@@std@@@2@XZ ; std::vector<ax::NodeEditor::Detail::Object *,std::allocator<ax::NodeEditor::Detail::Object *> >::end
	mov	QWORD PTR tv161[rbp], rax
	mov	rax, QWORD PTR tv161[rbp]
	mov	QWORD PTR tv146[rbp], rax
	lea	rax, QWORD PTR $T10[rbp]
	mov	QWORD PTR $T11[rbp], rax
	mov	rdx, QWORD PTR $T11[rbp]
	mov	rcx, QWORD PTR container$[rbp]
	call	?begin@?$vector@PEAUObject@Detail@NodeEditor@ax@@V?$allocator@PEAUObject@Detail@NodeEditor@ax@@@std@@@std@@QEBA?AV?$_Vector_const_iterator@V?$_Vector_val@U?$_Simple_types@PEAUObject@Detail@NodeEditor@ax@@@std@@@std@@@2@XZ ; std::vector<ax::NodeEditor::Detail::Object *,std::allocator<ax::NodeEditor::Detail::Object *> >::begin
	mov	QWORD PTR tv163[rbp], rax
	mov	rax, QWORD PTR tv163[rbp]
	mov	QWORD PTR tv154[rbp], rax
	movzx	r8d, BYTE PTR $T13[rbp]
	mov	rdx, QWORD PTR tv146[rbp]
	mov	rcx, QWORD PTR tv154[rbp]
	call	??$count_if@V?$_Vector_const_iterator@V?$_Vector_val@U?$_Simple_types@PEAUObject@Detail@NodeEditor@ax@@@std@@@std@@@std@@V<lambda_aae6843b07c1c292b06cefe3dee011c3>@@@std@@YA_JV?$_Vector_const_iterator@V?$_Vector_val@U?$_Simple_types@PEAUObject@Detail@NodeEditor@ax@@@std@@@std@@@0@0V<lambda_aae6843b07c1c292b06cefe3dee011c3>@@@Z ; std::count_if<std::_Vector_const_iterator<std::_Vector_val<std::_Simple_types<ax::NodeEditor::Detail::Object *> > >,<lambda_aae6843b07c1c292b06cefe3dee011c3> >
$LN1@BuildIdLis:
; Line 43
	lea	rsp, QWORD PTR [rbp+696]
	pop	rdi
	pop	rbp
	ret	0
??$BuildIdList@$$CBV?$vector@PEAUObject@Detail@NodeEditor@ax@@V?$allocator@PEAUObject@Detail@NodeEditor@ax@@@std@@@std@@ULinkId@NodeEditor@ax@@V<lambda_aae6843b07c1c292b06cefe3dee011c3>@@@@YAHAEBV?$vector@PEAUObject@Detail@NodeEditor@ax@@V?$allocator@PEAUObject@Detail@NodeEditor@ax@@@std@@@std@@PEAULinkId@NodeEditor@ax@@H$$QEAV<lambda_aae6843b07c1c292b06cefe3dee011c3>@@@Z ENDP ; BuildIdList<std::vector<ax::NodeEditor::Detail::Object *,std::allocator<ax::NodeEditor::Detail::Object *> > const ,ax::NodeEditor::LinkId,<lambda_aae6843b07c1c292b06cefe3dee011c3> >
_TEXT	ENDS
; Function compile flags: /Odtp /RTCsu /ZI
;	COMDAT ??$BuildIdList@$$CBV?$vector@PEAUObject@Detail@NodeEditor@ax@@V?$allocator@PEAUObject@Detail@NodeEditor@ax@@@std@@@std@@UNodeId@NodeEditor@ax@@V<lambda_23f1710fff72307b075c6286d6aaa715>@@@@YAHAEBV?$vector@PEAUObject@Detail@NodeEditor@ax@@V?$allocator@PEAUObject@Detail@NodeEditor@ax@@@std@@@std@@PEAUNodeId@NodeEditor@ax@@H$$QEAV<lambda_23f1710fff72307b075c6286d6aaa715>@@@Z
_TEXT	SEGMENT
count$1 = 4
<range>$L0$2 = 40
<begin>$L0$3 = 72
<end>$L0$4 = 104
object$5 = 136
$T6 = 360
$T7 = 392
$T8 = 440
$T9 = 488
$T10 = 520
$T11 = 568
$T12 = 596
$T13 = 628
tv161 = 648
tv91 = 648
tv146 = 656
tv163 = 664
tv154 = 672
container$ = 720
list$ = 728
listSize$ = 736
accept$ = 744
??$BuildIdList@$$CBV?$vector@PEAUObject@Detail@NodeEditor@ax@@V?$allocator@PEAUObject@Detail@NodeEditor@ax@@@std@@@std@@UNodeId@NodeEditor@ax@@V<lambda_23f1710fff72307b075c6286d6aaa715>@@@@YAHAEBV?$vector@PEAUObject@Detail@NodeEditor@ax@@V?$allocator@PEAUObject@Detail@NodeEditor@ax@@@std@@@std@@PEAUNodeId@NodeEditor@ax@@H$$QEAV<lambda_23f1710fff72307b075c6286d6aaa715>@@@Z PROC ; BuildIdList<std::vector<ax::NodeEditor::Detail::Object *,std::allocator<ax::NodeEditor::Detail::Object *> > const ,ax::NodeEditor::NodeId,<lambda_23f1710fff72307b075c6286d6aaa715> >, COMDAT
; File C:\dev\Raisin\Raisin\src\Raisin\imgui\imgui_node_editor_api.cpp
; Line 23
	mov	QWORD PTR [rsp+32], r9
	mov	DWORD PTR [rsp+24], r8d
	mov	QWORD PTR [rsp+16], rdx
	mov	QWORD PTR [rsp+8], rcx
	push	rbp
	push	rdi
	sub	rsp, 728				; 000002d8H
	lea	rbp, QWORD PTR [rsp+32]
	lea	rcx, OFFSET FLAT:__13097B8F_imgui_node_editor_api@cpp
	call	__CheckForDebuggerJustMyCode
; Line 24
	cmp	QWORD PTR list$[rbp], 0
	je	$LN5@BuildIdLis
; Line 26
	mov	DWORD PTR count$1[rbp], 0
; Line 27
	mov	rax, QWORD PTR container$[rbp]
	mov	QWORD PTR <range>$L0$2[rbp], rax
	mov	rcx, QWORD PTR <range>$L0$2[rbp]
