; Listing generated by Microsoft (R) Optimizing Compiler Version 19.33.31630.0 

include listing.inc

INCLUDELIB MSVCRTD
INCLUDELIB OLDNAMES

PUBLIC	?EmptyString@ImGuiTextBuffer@@2PADA		; ImGuiTextBuffer::EmptyString
PUBLIC	?GImGui@@3PEAUImGuiContext@@EA			; GImGui
_BSS	SEGMENT
?EmptyString@ImGuiTextBuffer@@2PADA DB 01H DUP (?)	; ImGuiTextBuffer::EmptyString
	ALIGN	8

?GImGui@@3PEAUImGuiContext@@EA DQ 01H DUP (?)		; GImGui
_BSS	ENDS
msvcjmc	SEGMENT
__A52B8F80_imconfig@h DB 01H
__529D0EAA_concurrencysal@h DB 01H
__7EC34687_sal@h DB 01H
__35A2D2DF_vadefs@h DB 01H
__5F022EB5_vcruntime@h DB 01H
__1B0272D9_corecrt@h DB 01H
__B9985323_float@h DB 01H
__79700276_stdarg@h DB 01H
__13F5961F_stddef@h DB 01H
__61CC25A1_errno@h DB 01H
__74AC4223_vcruntime_string@h DB 01H
__E4C945B4_corecrt_memcpy_s@h DB 01H
__8EAFF484_corecrt_memory@h DB 01H
__6490AEC5_corecrt_wstring@h DB 01H
__E8295E1E_string@h DB 01H
__19139D6C_assert@h DB 01H
__21D911DF_imgui@h DB 01H
__44420885_corecrt_stdio_config@h DB 01H
__AB601D8D_corecrt_wstdio@h DB 01H
__C1EC35D3_stdio@h DB 01H
__45DED006_corecrt_malloc@h DB 01H
__FD6DBD68_corecrt_search@h DB 01H
__E2E33A61_corecrt_wstdlib@h DB 01H
__F3D99286_limits@h DB 01H
__6E5ACABA_stdlib@h DB 01H
__BB16330F_corecrt_math@h DB 01H
__3BF2A406_math@h DB 01H
__F75BE1FA_mmintrin@h DB 01H
__FA77ED4C_malloc@h DB 01H
__DFD742E1_xmmintrin@h DB 01H
__BAB5CB2D_emmintrin@h DB 01H
__6514A3A4_pmmintrin@h DB 01H
__D5CDD026_tmmintrin@h DB 01H
__FCF6C5A5_smmintrin@h DB 01H
__99944C69_nmmintrin@h DB 01H
__4C2FB627_wmmintrin@h DB 01H
__87BBFB20_zmmintrin@h DB 01H
__B0AF59EA_immintrin@h DB 01H
__40756020_imstb_textedit@h DB 01H
__D68E48C9_imgui_internal@h DB 01H
__74484FB3_corecrt_wctype@h DB 01H
__1EC467ED_ctype@h DB 01H
__4DAFBCB9_stdint@h DB 01H
__0ED14FEE_winpackagefamily@h DB 01H
__F92EF742_winapifamily@h DB 01H
__22E515EB_sdkddkver@h DB 01H
__3F7A3B5F_excpt@h DB 01H
__29F49F40_specstrings_undef@h DB 01H
__D0F42932_specstrings_strict@h DB 01H
__F00405FD_sdv_driverspecs@h DB 01H
__173E09CA_driverspecs@h DB 01H
__9A452361_specstrings@h DB 01H
__98517906_kernelspecs@h DB 01H
__D3497022_basetsd@h DB 01H
__7FCB5136_guiddef@h DB 01H
__FF8A9E11_pshpack4@h DB 01H
__D5438902_poppack@h DB 01H
__FB07E2A3_pshpack2@h DB 01H
__F6906775_pshpack8@h DB 01H
__F9415CFA_pshpack1@h DB 01H
__E58C6F1C_apiset@h DB 01H
__A5C52262_ktmtypes@h DB 01H
__FBBA8F9D_winnt@h DB 01H
__A32D3D2C_minwindef@h DB 01H
__7D798299_windef@h DB 01H
__9AE108E9_apisetcconv@h DB 01H
__9CE53D2C_minwinbase@h DB 01H
__5D0AA210_apiquery2@h DB 01H
__4DD4E726_processenv@h DB 01H
__3575CC96_fileapi@h DB 01H
__8EA220E6_fileapifromapp@h DB 01H
__BF9B31FE_debugapi@h DB 01H
__C3AFE134_utilapiset@h DB 01H
__76F69E51_handleapi@h DB 01H
__7E63D784_errhandlingapi@h DB 01H
__FFA7003C_fibersapi@h DB 01H
__8971CECF_namedpipeapi@h DB 01H
__46C9D8A6_profileapi@h DB 01H
__98D4F0A3_heapapi@h DB 01H
__50EF2A88_ioapiset@h DB 01H
__92EA1464_synchapi@h DB 01H
__A53D8AED_interlockedapi@h DB 01H
__B506CAAF_processthreadsapi@h DB 01H
__FF735694_sysinfoapi@h DB 01H
__29589789_memoryapi@h DB 01H
__E9C7A663_enclaveapi@h DB 01H
__D035F9F7_threadpoollegacyapiset@h DB 01H
__C899130C_threadpoolapiset@h DB 01H
__E0441EE7_jobapi@h DB 01H
__CEF86838_jobapi2@h DB 01H
__35AC6B9A_wow64apiset@h DB 01H
__C8AE41A5_libloaderapi@h DB 01H
__CC9E232D_securitybaseapi@h DB 01H
__C9D0C9B8_namespaceapi@h DB 01H
__30FF9CAD_systemtopologyapi@h DB 01H
__4D358795_processtopologyapi@h DB 01H
__40446D10_securityappcontainer@h DB 01H
__3A952EDF_realtimeapiset@h DB 01H
__F4865F4B_winerror@h DB 01H
__53C1BD93_timezoneapi@h DB 01H
__1FFBEDBF_winbase@h DB 01H
__43D3FA34_wingdi@h DB 01H
__D24A7391_tvout@h DB 01H
__7713A6C8_winuser@h DB 01H
__0B345F71_datetimeapi@h DB 01H
__9AC6960C_winnls@h DB 01H
__973A40A8_stringapiset@h DB 01H
__CC46FEE2_wincontypes@h DB 01H
__97D70BE1_consoleapi@h DB 01H
__27EC5E18_consoleapi2@h DB 01H
__262E342F_consoleapi3@h DB 01H
__641DCD70_wincon@h DB 01H
__5A96C7A7_verrsrc@h DB 01H
__B69C6FF2_winver@h DB 01H
__7AEB8C37_reason@h DB 01H
__59F1A8A9_winreg@h DB 01H
__EE0E2B7F_wnnc@h DB 01H
__DCDB7054_winnetwk@h DB 01H
__81DDEDE3_stralign@h DB 01H
__2134D1B4_winsvc@h DB 01H
__11C07376_mcx@h DB 01H
__577CE3E7_ime_cmodes@h DB 01H
__1E72C31E_imm@h DB 01H
__63AA7AF5_Windows@h DB 01H
__1F7F3FD0_imgui@cpp DB 01H
msvcjmc	ENDS
CONST	SEGMENT
?GCrc32LookupTable@@3QBIB DD 00H			; GCrc32LookupTable
	DD	077073096H
	DD	0ee0e612cH
	DD	0990951baH
	DD	076dc419H
	DD	0706af48fH
	DD	0e963a535H
	DD	09e6495a3H
	DD	0edb8832H
	DD	079dcb8a4H
	DD	0e0d5e91eH
	DD	097d2d988H
	DD	09b64c2bH
	DD	07eb17cbdH
	DD	0e7b82d07H
	DD	090bf1d91H
	DD	01db71064H
	DD	06ab020f2H
	DD	0f3b97148H
	DD	084be41deH
	DD	01adad47dH
	DD	06ddde4ebH
	DD	0f4d4b551H
	DD	083d385c7H
	DD	0136c9856H
	DD	0646ba8c0H
	DD	0fd62f97aH
	DD	08a65c9ecH
	DD	014015c4fH
	DD	063066cd9H
	DD	0fa0f3d63H
	DD	08d080df5H
	DD	03b6e20c8H
	DD	04c69105eH
	DD	0d56041e4H
	DD	0a2677172H
	DD	03c03e4d1H
	DD	04b04d447H
	DD	0d20d85fdH
	DD	0a50ab56bH
	DD	035b5a8faH
	DD	042b2986cH
	DD	0dbbbc9d6H
	DD	0acbcf940H
	DD	032d86ce3H
	DD	045df5c75H
	DD	0dcd60dcfH
	DD	0abd13d59H
	DD	026d930acH
	DD	051de003aH
	DD	0c8d75180H
	DD	0bfd06116H
	DD	021b4f4b5H
	DD	056b3c423H
	DD	0cfba9599H
	DD	0b8bda50fH
	DD	02802b89eH
	DD	05f058808H
	DD	0c60cd9b2H
	DD	0b10be924H
	DD	02f6f7c87H
	DD	058684c11H
	DD	0c1611dabH
	DD	0b6662d3dH
	DD	076dc4190H
	DD	01db7106H
	DD	098d220bcH
	DD	0efd5102aH
	DD	071b18589H
	DD	06b6b51fH
	DD	09fbfe4a5H
	DD	0e8b8d433H
	DD	07807c9a2H
	DD	0f00f934H
	DD	09609a88eH
	DD	0e10e9818H
	DD	07f6a0dbbH
	DD	086d3d2dH
	DD	091646c97H
	DD	0e6635c01H
	DD	06b6b51f4H
	DD	01c6c6162H
	DD	0856530d8H
	DD	0f262004eH
	DD	06c0695edH
	DD	01b01a57bH
	DD	08208f4c1H
	DD	0f50fc457H
	DD	065b0d9c6H
	DD	012b7e950H
	DD	08bbeb8eaH
	DD	0fcb9887cH
	DD	062dd1ddfH
	DD	015da2d49H
	DD	08cd37cf3H
	DD	0fbd44c65H
	DD	04db26158H
	DD	03ab551ceH
	DD	0a3bc0074H
	DD	0d4bb30e2H
	DD	04adfa541H
	DD	03dd895d7H
	DD	0a4d1c46dH
	DD	0d3d6f4fbH
	DD	04369e96aH
	DD	0346ed9fcH
	DD	0ad678846H
	DD	0da60b8d0H
	DD	044042d73H
	DD	033031de5H
	DD	0aa0a4c5fH
	DD	0dd0d7cc9H
	DD	05005713cH
	DD	0270241aaH
	DD	0be0b1010H
	DD	0c90c2086H
	DD	05768b525H
	DD	0206f85b3H
	DD	0b966d409H
	DD	0ce61e49fH
	DD	05edef90eH
	DD	029d9c998H
	DD	0b0d09822H
	DD	0c7d7a8b4H
	DD	059b33d17H
	DD	02eb40d81H
	DD	0b7bd5c3bH
	DD	0c0ba6cadH
	DD	0edb88320H
	DD	09abfb3b6H
	DD	03b6e20cH
	DD	074b1d29aH
	DD	0ead54739H
	DD	09dd277afH
	DD	04db2615H
	DD	073dc1683H
	DD	0e3630b12H
	DD	094643b84H
	DD	0d6d6a3eH
	DD	07a6a5aa8H
	DD	0e40ecf0bH
	DD	09309ff9dH
	DD	0a00ae27H
	DD	07d079eb1H
	DD	0f00f9344H
	DD	08708a3d2H
	DD	01e01f268H
	DD	06906c2feH
	DD	0f762575dH
	DD	0806567cbH
	DD	0196c3671H
	DD	06e6b06e7H
	DD	0fed41b76H
	DD	089d32be0H
	DD	010da7a5aH
	DD	067dd4accH
	DD	0f9b9df6fH
	DD	08ebeeff9H
	DD	017b7be43H
	DD	060b08ed5H
	DD	0d6d6a3e8H
	DD	0a1d1937eH
	DD	038d8c2c4H
	DD	04fdff252H
	DD	0d1bb67f1H
	DD	0a6bc5767H
	DD	03fb506ddH
	DD	048b2364bH
	DD	0d80d2bdaH
	DD	0af0a1b4cH
	DD	036034af6H
	DD	041047a60H
	DD	0df60efc3H
	DD	0a867df55H
	DD	0316e8eefH
	DD	04669be79H
	DD	0cb61b38cH
	DD	0bc66831aH
	DD	0256fd2a0H
	DD	05268e236H
	DD	0cc0c7795H
	DD	0bb0b4703H
	DD	0220216b9H
	DD	05505262fH
	DD	0c5ba3bbeH
	DD	0b2bd0b28H
	DD	02bb45a92H
	DD	05cb36a04H
	DD	0c2d7ffa7H
	DD	0b5d0cf31H
	DD	02cd99e8bH
	DD	05bdeae1dH
	DD	09b64c2b0H
	DD	0ec63f226H
	DD	0756aa39cH
	DD	026d930aH
	DD	09c0906a9H
	DD	0eb0e363fH
	DD	072076785H
	DD	05005713H
	DD	095bf4a82H
	DD	0e2b87a14H
	DD	07bb12baeH
	DD	0cb61b38H
	DD	092d28e9bH
	DD	0e5d5be0dH
	DD	07cdcefb7H
	DD	0bdbdf21H
	DD	086d3d2d4H
	DD	0f1d4e242H
	DD	068ddb3f8H
	DD	01fda836eH
	DD	081be16cdH
	DD	0f6b9265bH
	DD	06fb077e1H
	DD	018b74777H
	DD	088085ae6H
	DD	0ff0f6a70H
	DD	066063bcaH
	DD	011010b5cH
	DD	08f659effH
	DD	0f862ae69H
	DD	0616bffd3H
	DD	0166ccf45H
	DD	0a00ae278H
	DD	0d70dd2eeH
	DD	04e048354H
	DD	03903b3c2H
	DD	0a7672661H
	DD	0d06016f7H
	DD	04969474dH
	DD	03e6e77dbH
	DD	0aed16a4aH
	DD	0d9d65adcH
	DD	040df0b66H
	DD	037d83bf0H
	DD	0a9bcae53H
	DD	0debb9ec5H
	DD	047b2cf7fH
	DD	030b5ffe9H
	DD	0bdbdf21cH
	DD	0cabac28aH
	DD	053b39330H
	DD	024b4a3a6H
	DD	0bad03605H
	DD	0cdd70693H
	DD	054de5729H
	DD	023d967bfH
	DD	0b3667a2eH
	DD	0c4614ab8H
	DD	05d681b02H
	DD	02a6f2b94H
	DD	0b40bbe37H
	DD	0c30c8ea1H
	DD	05a05df1bH
	DD	02d02ef8dH
?lengths@?1??ImTextCharFromUtf8@@YAHPEAIPEBD1@Z@4QBDB DB 01H ; `ImTextCharFromUtf8'::`2'::lengths
	DB	01H
	DB	01H
	DB	01H
	DB	01H
	DB	01H
	DB	01H
	DB	01H
	DB	01H
	DB	01H
	DB	01H
	DB	01H
	DB	01H
	DB	01H
	DB	01H
	DB	01H
	DB	00H
	DB	00H
	DB	00H
	DB	00H
	DB	00H
	DB	00H
	DB	00H
	DB	00H
	DB	02H
	DB	02H
	DB	02H
	DB	02H
	DB	03H
	DB	03H
	DB	04H
	DB	00H
?masks@?1??ImTextCharFromUtf8@@YAHPEAIPEBD1@Z@4QBHB DD 00H ; `ImTextCharFromUtf8'::`2'::masks
	DD	07fH
	DD	01fH
	DD	0fH
	DD	07H
	ORG $+4
?mins@?1??ImTextCharFromUtf8@@YAHPEAIPEBD1@Z@4QBIB DD 0400000H ; `ImTextCharFromUtf8'::`2'::mins
	DD	00H
	DD	080H
	DD	0800H
	DD	010000H
	ORG $+4
?shiftc@?1??ImTextCharFromUtf8@@YAHPEAIPEBD1@Z@4QBHB DD 00H ; `ImTextCharFromUtf8'::`2'::shiftc
	DD	012H
	DD	0cH
	DD	06H
	DD	00H
	ORG $+4
?shifte@?1??ImTextCharFromUtf8@@YAHPEAIPEBD1@Z@4QBHB DD 00H ; `ImTextCharFromUtf8'::`2'::shifte
	DD	06H
	DD	04H
	DD	02H
	DD	00H
	ORG $+4
?GStyleVarInfo@@3QBUImGuiStyleVarInfo@@B DD 08H		; GStyleVarInfo
	DD	01H
	DD	00H
	DD	08H
	DD	02H
	DD	04H
	DD	08H
	DD	01H
	DD	0cH
	DD	08H
	DD	01H
	DD	010H
	DD	08H
	DD	02H
	DD	014H
	DD	08H
	DD	02H
	DD	01cH
	DD	08H
	DD	01H
	DD	028H
	DD	08H
	DD	01H
	DD	02cH
	DD	08H
	DD	01H
	DD	030H
	DD	08H
	DD	01H
	DD	034H
	DD	08H
	DD	02H
	DD	038H
	DD	08H
	DD	01H
	DD	040H
	DD	08H
	DD	01H
	DD	044H
	DD	08H
	DD	02H
	DD	048H
	DD	08H
	DD	02H
	DD	050H
	DD	08H
	DD	01H
	DD	068H
	DD	08H
	DD	02H
	DD	058H
	DD	08H
	DD	01H
	DD	070H
	DD	08H
	DD	01H
	DD	074H
	DD	08H
	DD	01H
	DD	078H
	DD	08H
	DD	01H
	DD	07cH
	DD	08H
	DD	01H
	DD	084H
	DD	08H
	DD	02H
	DD	094H
	DD	08H
	DD	02H
	DD	09cH
CONST	ENDS
PUBLIC	??_H@YAXPEAX_K1P6APEAX0@Z@Z			; `vector constructor iterator'
PUBLIC	??0ImVec2@@QEAA@XZ				; ImVec2::ImVec2
PUBLIC	??0ImVec2@@QEAA@MM@Z				; ImVec2::ImVec2
PUBLIC	??AImVec2@@QEAAAEAM_K@Z				; ImVec2::operator[]
PUBLIC	??0ImVec4@@QEAA@XZ				; ImVec4::ImVec4
PUBLIC	??0ImVec4@@QEAA@MMMM@Z				; ImVec4::ImVec4
PUBLIC	?CreateContext@ImGui@@YAPEAUImGuiContext@@PEAUImFontAtlas@@@Z ; ImGui::CreateContext
PUBLIC	?DestroyContext@ImGui@@YAXPEAUImGuiContext@@@Z	; ImGui::DestroyContext
PUBLIC	?GetCurrentContext@ImGui@@YAPEAUImGuiContext@@XZ ; ImGui::GetCurrentContext
PUBLIC	?SetCurrentContext@ImGui@@YAXPEAUImGuiContext@@@Z ; ImGui::SetCurrentContext
PUBLIC	?GetIO@ImGui@@YAAEAUImGuiIO@@XZ			; ImGui::GetIO
PUBLIC	?GetStyle@ImGui@@YAAEAUImGuiStyle@@XZ		; ImGui::GetStyle
PUBLIC	?NewFrame@ImGui@@YAXXZ				; ImGui::NewFrame
PUBLIC	?EndFrame@ImGui@@YAXXZ				; ImGui::EndFrame
PUBLIC	?Render@ImGui@@YAXXZ				; ImGui::Render
PUBLIC	?GetDrawData@ImGui@@YAPEAUImDrawData@@XZ	; ImGui::GetDrawData
PUBLIC	?ShowMetricsWindow@ImGui@@YAXPEA_N@Z		; ImGui::ShowMetricsWindow
PUBLIC	?GetVersion@ImGui@@YAPEBDXZ			; ImGui::GetVersion
PUBLIC	?Begin@ImGui@@YA_NPEBDPEA_NH@Z			; ImGui::Begin
PUBLIC	?End@ImGui@@YAXXZ				; ImGui::End
PUBLIC	?BeginChild@ImGui@@YA_NPEBDAEBUImVec2@@_NH@Z	; ImGui::BeginChild
PUBLIC	?BeginChild@ImGui@@YA_NIAEBUImVec2@@_NH@Z	; ImGui::BeginChild
PUBLIC	?EndChild@ImGui@@YAXXZ				; ImGui::EndChild
PUBLIC	?IsWindowAppearing@ImGui@@YA_NXZ		; ImGui::IsWindowAppearing
PUBLIC	?IsWindowCollapsed@ImGui@@YA_NXZ		; ImGui::IsWindowCollapsed
PUBLIC	?IsWindowFocused@ImGui@@YA_NH@Z			; ImGui::IsWindowFocused
PUBLIC	?IsWindowHovered@ImGui@@YA_NH@Z			; ImGui::IsWindowHovered
PUBLIC	?GetWindowDrawList@ImGui@@YAPEAUImDrawList@@XZ	; ImGui::GetWindowDrawList
PUBLIC	?GetWindowPos@ImGui@@YA?AUImVec2@@XZ		; ImGui::GetWindowPos
PUBLIC	?GetWindowSize@ImGui@@YA?AUImVec2@@XZ		; ImGui::GetWindowSize
PUBLIC	?GetWindowWidth@ImGui@@YAMXZ			; ImGui::GetWindowWidth
PUBLIC	?GetWindowHeight@ImGui@@YAMXZ			; ImGui::GetWindowHeight
PUBLIC	?SetNextWindowPos@ImGui@@YAXAEBUImVec2@@H0@Z	; ImGui::SetNextWindowPos
PUBLIC	?SetNextWindowSize@ImGui@@YAXAEBUImVec2@@H@Z	; ImGui::SetNextWindowSize
PUBLIC	?SetNextWindowSizeConstraints@ImGui@@YAXAEBUImVec2@@0P6AXPEAUImGuiSizeCallbackData@@@ZPEAX@Z ; ImGui::SetNextWindowSizeConstraints
PUBLIC	?SetNextWindowContentSize@ImGui@@YAXAEBUImVec2@@@Z ; ImGui::SetNextWindowContentSize
PUBLIC	?SetNextWindowCollapsed@ImGui@@YAX_NH@Z		; ImGui::SetNextWindowCollapsed
PUBLIC	?SetNextWindowFocus@ImGui@@YAXXZ		; ImGui::SetNextWindowFocus
PUBLIC	?SetNextWindowBgAlpha@ImGui@@YAXM@Z		; ImGui::SetNextWindowBgAlpha
PUBLIC	?SetWindowPos@ImGui@@YAXAEBUImVec2@@H@Z		; ImGui::SetWindowPos
PUBLIC	?SetWindowSize@ImGui@@YAXAEBUImVec2@@H@Z	; ImGui::SetWindowSize
PUBLIC	?SetWindowCollapsed@ImGui@@YAX_NH@Z		; ImGui::SetWindowCollapsed
PUBLIC	?SetWindowFocus@ImGui@@YAXXZ			; ImGui::SetWindowFocus
PUBLIC	?SetWindowFontScale@ImGui@@YAXM@Z		; ImGui::SetWindowFontScale
PUBLIC	?SetWindowPos@ImGui@@YAXPEBDAEBUImVec2@@H@Z	; ImGui::SetWindowPos
PUBLIC	?SetWindowSize@ImGui@@YAXPEBDAEBUImVec2@@H@Z	; ImGui::SetWindowSize
PUBLIC	?SetWindowCollapsed@ImGui@@YAXPEBD_NH@Z		; ImGui::SetWindowCollapsed
PUBLIC	?SetWindowFocus@ImGui@@YAXPEBD@Z		; ImGui::SetWindowFocus
PUBLIC	?GetContentRegionAvail@ImGui@@YA?AUImVec2@@XZ	; ImGui::GetContentRegionAvail
PUBLIC	?GetContentRegionMax@ImGui@@YA?AUImVec2@@XZ	; ImGui::GetContentRegionMax
PUBLIC	?GetWindowContentRegionMin@ImGui@@YA?AUImVec2@@XZ ; ImGui::GetWindowContentRegionMin
PUBLIC	?GetWindowContentRegionMax@ImGui@@YA?AUImVec2@@XZ ; ImGui::GetWindowContentRegionMax
PUBLIC	?GetWindowContentRegionWidth@ImGui@@YAMXZ	; ImGui::GetWindowContentRegionWidth
PUBLIC	?GetScrollX@ImGui@@YAMXZ			; ImGui::GetScrollX
PUBLIC	?GetScrollY@ImGui@@YAMXZ			; ImGui::GetScrollY
PUBLIC	?SetScrollX@ImGui@@YAXM@Z			; ImGui::SetScrollX
PUBLIC	?SetScrollY@ImGui@@YAXM@Z			; ImGui::SetScrollY
PUBLIC	?GetScrollMaxX@ImGui@@YAMXZ			; ImGui::GetScrollMaxX
PUBLIC	?GetScrollMaxY@ImGui@@YAMXZ			; ImGui::GetScrollMaxY
PUBLIC	?SetScrollHereX@ImGui@@YAXM@Z			; ImGui::SetScrollHereX
PUBLIC	?SetScrollHereY@ImGui@@YAXM@Z			; ImGui::SetScrollHereY
PUBLIC	?SetScrollFromPosX@ImGui@@YAXMM@Z		; ImGui::SetScrollFromPosX
PUBLIC	?SetScrollFromPosY@ImGui@@YAXMM@Z		; ImGui::SetScrollFromPosY
PUBLIC	?PushFont@ImGui@@YAXPEAUImFont@@@Z		; ImGui::PushFont
PUBLIC	?PopFont@ImGui@@YAXXZ				; ImGui::PopFont
PUBLIC	?PushStyleColor@ImGui@@YAXHI@Z			; ImGui::PushStyleColor
PUBLIC	?PushStyleColor@ImGui@@YAXHAEBUImVec4@@@Z	; ImGui::PushStyleColor
PUBLIC	?PopStyleColor@ImGui@@YAXH@Z			; ImGui::PopStyleColor
PUBLIC	?PushStyleVar@ImGui@@YAXHM@Z			; ImGui::PushStyleVar
PUBLIC	?PushStyleVar@ImGui@@YAXHAEBUImVec2@@@Z		; ImGui::PushStyleVar
PUBLIC	?PopStyleVar@ImGui@@YAXH@Z			; ImGui::PopStyleVar
PUBLIC	?PushAllowKeyboardFocus@ImGui@@YAX_N@Z		; ImGui::PushAllowKeyboardFocus
PUBLIC	?PopAllowKeyboardFocus@ImGui@@YAXXZ		; ImGui::PopAllowKeyboardFocus
PUBLIC	?PushButtonRepeat@ImGui@@YAX_N@Z		; ImGui::PushButtonRepeat
PUBLIC	?PopButtonRepeat@ImGui@@YAXXZ			; ImGui::PopButtonRepeat
PUBLIC	?PushItemWidth@ImGui@@YAXM@Z			; ImGui::PushItemWidth
PUBLIC	?PopItemWidth@ImGui@@YAXXZ			; ImGui::PopItemWidth
PUBLIC	?SetNextItemWidth@ImGui@@YAXM@Z			; ImGui::SetNextItemWidth
PUBLIC	?CalcItemWidth@ImGui@@YAMXZ			; ImGui::CalcItemWidth
PUBLIC	?PushTextWrapPos@ImGui@@YAXM@Z			; ImGui::PushTextWrapPos
PUBLIC	?PopTextWrapPos@ImGui@@YAXXZ			; ImGui::PopTextWrapPos
PUBLIC	?GetFont@ImGui@@YAPEAUImFont@@XZ		; ImGui::GetFont
PUBLIC	?GetFontSize@ImGui@@YAMXZ			; ImGui::GetFontSize
PUBLIC	?GetFontTexUvWhitePixel@ImGui@@YA?AUImVec2@@XZ	; ImGui::GetFontTexUvWhitePixel
PUBLIC	?GetColorU32@ImGui@@YAIHM@Z			; ImGui::GetColorU32
PUBLIC	?GetColorU32@ImGui@@YAIAEBUImVec4@@@Z		; ImGui::GetColorU32
PUBLIC	?GetColorU32@ImGui@@YAII@Z			; ImGui::GetColorU32
PUBLIC	?GetStyleColorVec4@ImGui@@YAAEBUImVec4@@H@Z	; ImGui::GetStyleColorVec4
PUBLIC	?SameLine@ImGui@@YAXMM@Z			; ImGui::SameLine
PUBLIC	?Indent@ImGui@@YAXM@Z				; ImGui::Indent
PUBLIC	?Unindent@ImGui@@YAXM@Z				; ImGui::Unindent
PUBLIC	?BeginGroup@ImGui@@YAXXZ			; ImGui::BeginGroup
PUBLIC	?EndGroup@ImGui@@YAXXZ				; ImGui::EndGroup
PUBLIC	?GetCursorPos@ImGui@@YA?AUImVec2@@XZ		; ImGui::GetCursorPos
PUBLIC	?GetCursorPosX@ImGui@@YAMXZ			; ImGui::GetCursorPosX
PUBLIC	?GetCursorPosY@ImGui@@YAMXZ			; ImGui::GetCursorPosY
PUBLIC	?SetCursorPos@ImGui@@YAXAEBUImVec2@@@Z		; ImGui::SetCursorPos
PUBLIC	?SetCursorPosX@ImGui@@YAXM@Z			; ImGui::SetCursorPosX
PUBLIC	?SetCursorPosY@ImGui@@YAXM@Z			; ImGui::SetCursorPosY
PUBLIC	?GetCursorStartPos@ImGui@@YA?AUImVec2@@XZ	; ImGui::GetCursorStartPos
PUBLIC	?GetCursorScreenPos@ImGui@@YA?AUImVec2@@XZ	; ImGui::GetCursorScreenPos
PUBLIC	?SetCursorScreenPos@ImGui@@YAXAEBUImVec2@@@Z	; ImGui::SetCursorScreenPos
PUBLIC	?GetTextLineHeight@ImGui@@YAMXZ			; ImGui::GetTextLineHeight
PUBLIC	?GetTextLineHeightWithSpacing@ImGui@@YAMXZ	; ImGui::GetTextLineHeightWithSpacing
PUBLIC	?GetFrameHeight@ImGui@@YAMXZ			; ImGui::GetFrameHeight
PUBLIC	?GetFrameHeightWithSpacing@ImGui@@YAMXZ		; ImGui::GetFrameHeightWithSpacing
PUBLIC	?PushID@ImGui@@YAXPEBD@Z			; ImGui::PushID
PUBLIC	?PushID@ImGui@@YAXPEBD0@Z			; ImGui::PushID
PUBLIC	?PushID@ImGui@@YAXPEBX@Z			; ImGui::PushID
PUBLIC	?PushID@ImGui@@YAXH@Z				; ImGui::PushID
PUBLIC	?PopID@ImGui@@YAXXZ				; ImGui::PopID
PUBLIC	?GetID@ImGui@@YAIPEBD@Z				; ImGui::GetID
PUBLIC	?GetID@ImGui@@YAIPEBD0@Z			; ImGui::GetID
PUBLIC	?GetID@ImGui@@YAIPEBX@Z				; ImGui::GetID
PUBLIC	?BeginTooltip@ImGui@@YAXXZ			; ImGui::BeginTooltip
PUBLIC	?EndTooltip@ImGui@@YAXXZ			; ImGui::EndTooltip
PUBLIC	?SetTooltip@ImGui@@YAXPEBDZZ			; ImGui::SetTooltip
PUBLIC	?SetTooltipV@ImGui@@YAXPEBDPEAD@Z		; ImGui::SetTooltipV
PUBLIC	?BeginPopup@ImGui@@YA_NPEBDH@Z			; ImGui::BeginPopup
PUBLIC	?BeginPopupModal@ImGui@@YA_NPEBDPEA_NH@Z	; ImGui::BeginPopupModal
PUBLIC	?EndPopup@ImGui@@YAXXZ				; ImGui::EndPopup
PUBLIC	?OpenPopup@ImGui@@YAXPEBDH@Z			; ImGui::OpenPopup
PUBLIC	?OpenPopup@ImGui@@YAXIH@Z			; ImGui::OpenPopup
PUBLIC	?OpenPopupOnItemClick@ImGui@@YAXPEBDH@Z		; ImGui::OpenPopupOnItemClick
PUBLIC	?CloseCurrentPopup@ImGui@@YAXXZ			; ImGui::CloseCurrentPopup
PUBLIC	?BeginPopupContextItem@ImGui@@YA_NPEBDH@Z	; ImGui::BeginPopupContextItem
PUBLIC	?BeginPopupContextWindow@ImGui@@YA_NPEBDH@Z	; ImGui::BeginPopupContextWindow
PUBLIC	?BeginPopupContextVoid@ImGui@@YA_NPEBDH@Z	; ImGui::BeginPopupContextVoid
PUBLIC	?IsPopupOpen@ImGui@@YA_NPEBDH@Z			; ImGui::IsPopupOpen
PUBLIC	?LogToTTY@ImGui@@YAXH@Z				; ImGui::LogToTTY
PUBLIC	?LogToFile@ImGui@@YAXHPEBD@Z			; ImGui::LogToFile
PUBLIC	?LogToClipboard@ImGui@@YAXH@Z			; ImGui::LogToClipboard
PUBLIC	?LogFinish@ImGui@@YAXXZ				; ImGui::LogFinish
PUBLIC	?LogButtons@ImGui@@YAXXZ			; ImGui::LogButtons
PUBLIC	?LogText@ImGui@@YAXPEBDZZ			; ImGui::LogText
PUBLIC	?LogTextV@ImGui@@YAXPEBDPEAD@Z			; ImGui::LogTextV
PUBLIC	?BeginDragDropSource@ImGui@@YA_NH@Z		; ImGui::BeginDragDropSource
PUBLIC	?SetDragDropPayload@ImGui@@YA_NPEBDPEBX_KH@Z	; ImGui::SetDragDropPayload
PUBLIC	?EndDragDropSource@ImGui@@YAXXZ			; ImGui::EndDragDropSource
PUBLIC	?BeginDragDropTarget@ImGui@@YA_NXZ		; ImGui::BeginDragDropTarget
PUBLIC	?AcceptDragDropPayload@ImGui@@YAPEBUImGuiPayload@@PEBDH@Z ; ImGui::AcceptDragDropPayload
PUBLIC	?EndDragDropTarget@ImGui@@YAXXZ			; ImGui::EndDragDropTarget
PUBLIC	?GetDragDropPayload@ImGui@@YAPEBUImGuiPayload@@XZ ; ImGui::GetDragDropPayload
PUBLIC	?PushClipRect@ImGui@@YAXAEBUImVec2@@0_N@Z	; ImGui::PushClipRect
PUBLIC	?PopClipRect@ImGui@@YAXXZ			; ImGui::PopClipRect
PUBLIC	?SetItemDefaultFocus@ImGui@@YAXXZ		; ImGui::SetItemDefaultFocus
PUBLIC	?SetKeyboardFocusHere@ImGui@@YAXH@Z		; ImGui::SetKeyboardFocusHere
PUBLIC	?IsItemHovered@ImGui@@YA_NH@Z			; ImGui::IsItemHovered
PUBLIC	?IsItemActive@ImGui@@YA_NXZ			; ImGui::IsItemActive
PUBLIC	?IsItemFocused@ImGui@@YA_NXZ			; ImGui::IsItemFocused
PUBLIC	?IsItemClicked@ImGui@@YA_NH@Z			; ImGui::IsItemClicked
PUBLIC	?IsItemVisible@ImGui@@YA_NXZ			; ImGui::IsItemVisible
PUBLIC	?IsItemEdited@ImGui@@YA_NXZ			; ImGui::IsItemEdited
PUBLIC	?IsItemActivated@ImGui@@YA_NXZ			; ImGui::IsItemActivated
PUBLIC	?IsItemDeactivated@ImGui@@YA_NXZ		; ImGui::IsItemDeactivated
PUBLIC	?IsItemDeactivatedAfterEdit@ImGui@@YA_NXZ	; ImGui::IsItemDeactivatedAfterEdit
PUBLIC	?IsItemToggledOpen@ImGui@@YA_NXZ		; ImGui::IsItemToggledOpen
PUBLIC	?IsAnyItemHovered@ImGui@@YA_NXZ			; ImGui::IsAnyItemHovered
PUBLIC	?IsAnyItemActive@ImGui@@YA_NXZ			; ImGui::IsAnyItemActive
PUBLIC	?IsAnyItemFocused@ImGui@@YA_NXZ			; ImGui::IsAnyItemFocused
PUBLIC	?GetItemRectMin@ImGui@@YA?AUImVec2@@XZ		; ImGui::GetItemRectMin
PUBLIC	?GetItemRectMax@ImGui@@YA?AUImVec2@@XZ		; ImGui::GetItemRectMax
PUBLIC	?GetItemRectSize@ImGui@@YA?AUImVec2@@XZ		; ImGui::GetItemRectSize
PUBLIC	?SetItemAllowOverlap@ImGui@@YAXXZ		; ImGui::SetItemAllowOverlap
PUBLIC	?GetMainViewport@ImGui@@YAPEAUImGuiViewport@@XZ	; ImGui::GetMainViewport
PUBLIC	?IsRectVisible@ImGui@@YA_NAEBUImVec2@@@Z	; ImGui::IsRectVisible
PUBLIC	?IsRectVisible@ImGui@@YA_NAEBUImVec2@@0@Z	; ImGui::IsRectVisible
PUBLIC	?GetTime@ImGui@@YANXZ				; ImGui::GetTime
PUBLIC	?GetFrameCount@ImGui@@YAHXZ			; ImGui::GetFrameCount
PUBLIC	?GetBackgroundDrawList@ImGui@@YAPEAUImDrawList@@XZ ; ImGui::GetBackgroundDrawList
PUBLIC	?GetForegroundDrawList@ImGui@@YAPEAUImDrawList@@XZ ; ImGui::GetForegroundDrawList
PUBLIC	?GetDrawListSharedData@ImGui@@YAPEAUImDrawListSharedData@@XZ ; ImGui::GetDrawListSharedData
PUBLIC	?GetStyleColorName@ImGui@@YAPEBDH@Z		; ImGui::GetStyleColorName
PUBLIC	?SetStateStorage@ImGui@@YAXPEAUImGuiStorage@@@Z	; ImGui::SetStateStorage
PUBLIC	?GetStateStorage@ImGui@@YAPEAUImGuiStorage@@XZ	; ImGui::GetStateStorage
PUBLIC	?CalcListClipping@ImGui@@YAXHMPEAH0@Z		; ImGui::CalcListClipping
PUBLIC	?BeginChildFrame@ImGui@@YA_NIAEBUImVec2@@H@Z	; ImGui::BeginChildFrame
PUBLIC	?EndChildFrame@ImGui@@YAXXZ			; ImGui::EndChildFrame
PUBLIC	?CalcTextSize@ImGui@@YA?AUImVec2@@PEBD0_NM@Z	; ImGui::CalcTextSize
PUBLIC	?ColorConvertU32ToFloat4@ImGui@@YA?AUImVec4@@I@Z ; ImGui::ColorConvertU32ToFloat4
PUBLIC	?ColorConvertFloat4ToU32@ImGui@@YAIAEBUImVec4@@@Z ; ImGui::ColorConvertFloat4ToU32
PUBLIC	?ColorConvertRGBtoHSV@ImGui@@YAXMMMAEAM00@Z	; ImGui::ColorConvertRGBtoHSV
PUBLIC	?ColorConvertHSVtoRGB@ImGui@@YAXMMMAEAM00@Z	; ImGui::ColorConvertHSVtoRGB
PUBLIC	?GetKeyIndex@ImGui@@YAHH@Z			; ImGui::GetKeyIndex
PUBLIC	?IsKeyDown@ImGui@@YA_NH@Z			; ImGui::IsKeyDown
PUBLIC	?IsKeyPressed@ImGui@@YA_NH_N@Z			; ImGui::IsKeyPressed
PUBLIC	?IsKeyReleased@ImGui@@YA_NH@Z			; ImGui::IsKeyReleased
PUBLIC	?GetKeyPressedAmount@ImGui@@YAHHMM@Z		; ImGui::GetKeyPressedAmount
PUBLIC	?CaptureKeyboardFromApp@ImGui@@YAX_N@Z		; ImGui::CaptureKeyboardFromApp
PUBLIC	?IsMouseDown@ImGui@@YA_NH@Z			; ImGui::IsMouseDown
PUBLIC	?IsMouseClicked@ImGui@@YA_NH_N@Z		; ImGui::IsMouseClicked
PUBLIC	?IsMouseReleased@ImGui@@YA_NH@Z			; ImGui::IsMouseReleased
PUBLIC	?IsMouseDoubleClicked@ImGui@@YA_NH@Z		; ImGui::IsMouseDoubleClicked
PUBLIC	?IsMouseHoveringRect@ImGui@@YA_NAEBUImVec2@@0_N@Z ; ImGui::IsMouseHoveringRect
PUBLIC	?IsMousePosValid@ImGui@@YA_NPEBUImVec2@@@Z	; ImGui::IsMousePosValid
PUBLIC	?IsAnyMouseDown@ImGui@@YA_NXZ			; ImGui::IsAnyMouseDown
PUBLIC	?GetMousePos@ImGui@@YA?AUImVec2@@XZ		; ImGui::GetMousePos
PUBLIC	?GetMousePosOnOpeningCurrentPopup@ImGui@@YA?AUImVec2@@XZ ; ImGui::GetMousePosOnOpeningCurrentPopup
PUBLIC	?IsMouseDragging@ImGui@@YA_NHM@Z		; ImGui::IsMouseDragging
PUBLIC	?GetMouseDragDelta@ImGui@@YA?AUImVec2@@HM@Z	; ImGui::GetMouseDragDelta
PUBLIC	?ResetMouseDragDelta@ImGui@@YAXH@Z		; ImGui::ResetMouseDragDelta
PUBLIC	?GetMouseCursor@ImGui@@YAHXZ			; ImGui::GetMouseCursor
PUBLIC	?SetMouseCursor@ImGui@@YAXH@Z			; ImGui::SetMouseCursor
PUBLIC	?CaptureMouseFromApp@ImGui@@YAX_N@Z		; ImGui::CaptureMouseFromApp
PUBLIC	?GetClipboardText@ImGui@@YAPEBDXZ		; ImGui::GetClipboardText
PUBLIC	?SetClipboardText@ImGui@@YAXPEBD@Z		; ImGui::SetClipboardText
PUBLIC	?LoadIniSettingsFromDisk@ImGui@@YAXPEBD@Z	; ImGui::LoadIniSettingsFromDisk
PUBLIC	?LoadIniSettingsFromMemory@ImGui@@YAXPEBD_K@Z	; ImGui::LoadIniSettingsFromMemory
PUBLIC	?SaveIniSettingsToDisk@ImGui@@YAXPEBD@Z		; ImGui::SaveIniSettingsToDisk
PUBLIC	?SaveIniSettingsToMemory@ImGui@@YAPEBDPEA_K@Z	; ImGui::SaveIniSettingsToMemory
PUBLIC	?DebugCheckVersionAndDataLayout@ImGui@@YA_NPEBD_K11111@Z ; ImGui::DebugCheckVersionAndDataLayout
PUBLIC	?SetAllocatorFunctions@ImGui@@YAXP6APEAX_KPEAX@ZP6AX11@Z1@Z ; ImGui::SetAllocatorFunctions
PUBLIC	?GetAllocatorFunctions@ImGui@@YAXPEAP6APEAX_KPEAX@ZPEAP6AX11@ZPEAPEAX@Z ; ImGui::GetAllocatorFunctions
PUBLIC	?MemAlloc@ImGui@@YAPEAX_K@Z			; ImGui::MemAlloc
PUBLIC	?MemFree@ImGui@@YAXPEAX@Z			; ImGui::MemFree
PUBLIC	??2@YAPEAX_KUImNewWrapper@@PEAX@Z		; operator new
PUBLIC	??3@YAXPEAXUImNewWrapper@@0@Z			; operator delete
PUBLIC	??0ImGuiStyle@@QEAA@XZ				; ImGuiStyle::ImGuiStyle
PUBLIC	?ScaleAllSizes@ImGuiStyle@@QEAAXM@Z		; ImGuiStyle::ScaleAllSizes
PUBLIC	?AddInputCharacter@ImGuiIO@@QEAAXI@Z		; ImGuiIO::AddInputCharacter
PUBLIC	?AddInputCharacterUTF16@ImGuiIO@@QEAAXG@Z	; ImGuiIO::AddInputCharacterUTF16
PUBLIC	?AddInputCharactersUTF8@ImGuiIO@@QEAAXPEBD@Z	; ImGuiIO::AddInputCharactersUTF8
PUBLIC	?ClearInputCharacters@ImGuiIO@@QEAAXXZ		; ImGuiIO::ClearInputCharacters
PUBLIC	??0?$ImVector@G@@QEAA@XZ			; ImVector<unsigned short>::ImVector<unsigned short>
PUBLIC	??1?$ImVector@G@@QEAA@XZ			; ImVector<unsigned short>::~ImVector<unsigned short>
PUBLIC	?clear@?$ImVector@G@@QEAAXXZ			; ImVector<unsigned short>::clear
PUBLIC	??A?$ImVector@G@@QEAAAEAGH@Z			; ImVector<unsigned short>::operator[]
PUBLIC	?_grow_capacity@?$ImVector@G@@QEBAHH@Z		; ImVector<unsigned short>::_grow_capacity
PUBLIC	?resize@?$ImVector@G@@QEAAXH@Z			; ImVector<unsigned short>::resize
PUBLIC	?reserve@?$ImVector@G@@QEAAXH@Z			; ImVector<unsigned short>::reserve
PUBLIC	?push_back@?$ImVector@G@@QEAAXAEBG@Z		; ImVector<unsigned short>::push_back
PUBLIC	??0ImGuiIO@@QEAA@XZ				; ImGuiIO::ImGuiIO
PUBLIC	??1ImGuiIO@@QEAA@XZ				; ImGuiIO::~ImGuiIO
PUBLIC	??0ImGuiSizeCallbackData@@QEAA@XZ		; ImGuiSizeCallbackData::ImGuiSizeCallbackData
PUBLIC	??0ImGuiPayload@@QEAA@XZ			; ImGuiPayload::ImGuiPayload
PUBLIC	?Clear@ImGuiPayload@@QEAAXXZ			; ImGuiPayload::Clear
PUBLIC	?IsDataType@ImGuiPayload@@QEBA_NPEBD@Z		; ImGuiPayload::IsDataType
PUBLIC	??0ImGuiTextFilter@@QEAA@PEBD@Z			; ImGuiTextFilter::ImGuiTextFilter
PUBLIC	?Draw@ImGuiTextFilter@@QEAA_NPEBDM@Z		; ImGuiTextFilter::Draw
PUBLIC	?PassFilter@ImGuiTextFilter@@QEBA_NPEBD0@Z	; ImGuiTextFilter::PassFilter
PUBLIC	?Build@ImGuiTextFilter@@QEAAXXZ			; ImGuiTextFilter::Build
PUBLIC	??0ImGuiTextRange@ImGuiTextFilter@@QEAA@PEBD0@Z	; ImGuiTextFilter::ImGuiTextRange::ImGuiTextRange
PUBLIC	?empty@ImGuiTextRange@ImGuiTextFilter@@QEBA_NXZ	; ImGuiTextFilter::ImGuiTextRange::empty
PUBLIC	?split@ImGuiTextRange@ImGuiTextFilter@@QEBAXDPEAU?$ImVector@UImGuiTextRange@ImGuiTextFilter@@@@@Z ; ImGuiTextFilter::ImGuiTextRange::split
PUBLIC	??0?$ImVector@UImGuiTextRange@ImGuiTextFilter@@@@QEAA@XZ ; ImVector<ImGuiTextFilter::ImGuiTextRange>::ImVector<ImGuiTextFilter::ImGuiTextRange>
PUBLIC	??1?$ImVector@UImGuiTextRange@ImGuiTextFilter@@@@QEAA@XZ ; ImVector<ImGuiTextFilter::ImGuiTextRange>::~ImVector<ImGuiTextFilter::ImGuiTextRange>
PUBLIC	?empty@?$ImVector@UImGuiTextRange@ImGuiTextFilter@@@@QEBA_NXZ ; ImVector<ImGuiTextFilter::ImGuiTextRange>::empty
PUBLIC	??A?$ImVector@UImGuiTextRange@ImGuiTextFilter@@@@QEAAAEAUImGuiTextRange@ImGuiTextFilter@@H@Z ; ImVector<ImGuiTextFilter::ImGuiTextRange>::operator[]
PUBLIC	??A?$ImVector@UImGuiTextRange@ImGuiTextFilter@@@@QEBAAEBUImGuiTextRange@ImGuiTextFilter@@H@Z ; ImVector<ImGuiTextFilter::ImGuiTextRange>::operator[]
PUBLIC	?_grow_capacity@?$ImVector@UImGuiTextRange@ImGuiTextFilter@@@@QEBAHH@Z ; ImVector<ImGuiTextFilter::ImGuiTextRange>::_grow_capacity
PUBLIC	?resize@?$ImVector@UImGuiTextRange@ImGuiTextFilter@@@@QEAAXH@Z ; ImVector<ImGuiTextFilter::ImGuiTextRange>::resize
PUBLIC	?reserve@?$ImVector@UImGuiTextRange@ImGuiTextFilter@@@@QEAAXH@Z ; ImVector<ImGuiTextFilter::ImGuiTextRange>::reserve
PUBLIC	?push_back@?$ImVector@UImGuiTextRange@ImGuiTextFilter@@@@QEAAXAEBUImGuiTextRange@ImGuiTextFilter@@@Z ; ImVector<ImGuiTextFilter::ImGuiTextRange>::push_back
PUBLIC	??0?$ImVector@D@@QEAA@XZ			; ImVector<char>::ImVector<char>
PUBLIC	??1?$ImVector@D@@QEAA@XZ			; ImVector<char>::~ImVector<char>
PUBLIC	?clear@?$ImVector@D@@QEAAXXZ			; ImVector<char>::clear
PUBLIC	??A?$ImVector@D@@QEAAAEADH@Z			; ImVector<char>::operator[]
PUBLIC	?front@?$ImVector@D@@QEBAAEBDXZ			; ImVector<char>::front
PUBLIC	?_grow_capacity@?$ImVector@D@@QEBAHH@Z		; ImVector<char>::_grow_capacity
PUBLIC	?resize@?$ImVector@D@@QEAAXH@Z			; ImVector<char>::resize
PUBLIC	?reserve@?$ImVector@D@@QEAAXH@Z			; ImVector<char>::reserve
PUBLIC	?push_back@?$ImVector@D@@QEAAXAEBD@Z		; ImVector<char>::push_back
PUBLIC	??0ImGuiTextBuffer@@QEAA@XZ			; ImGuiTextBuffer::ImGuiTextBuffer
PUBLIC	?begin@ImGuiTextBuffer@@QEBAPEBDXZ		; ImGuiTextBuffer::begin
PUBLIC	?size@ImGuiTextBuffer@@QEBAHXZ			; ImGuiTextBuffer::size
PUBLIC	?empty@ImGuiTextBuffer@@QEBA_NXZ		; ImGuiTextBuffer::empty
PUBLIC	?clear@ImGuiTextBuffer@@QEAAXXZ			; ImGuiTextBuffer::clear
PUBLIC	?reserve@ImGuiTextBuffer@@QEAAXH@Z		; ImGuiTextBuffer::reserve
PUBLIC	?c_str@ImGuiTextBuffer@@QEBAPEBDXZ		; ImGuiTextBuffer::c_str
PUBLIC	?append@ImGuiTextBuffer@@QEAAXPEBD0@Z		; ImGuiTextBuffer::append
PUBLIC	?appendf@ImGuiTextBuffer@@QEAAXPEBDZZ		; ImGuiTextBuffer::appendf
PUBLIC	?appendfv@ImGuiTextBuffer@@QEAAXPEBDPEAD@Z	; ImGuiTextBuffer::appendfv
PUBLIC	??1ImGuiTextBuffer@@QEAA@XZ			; ImGuiTextBuffer::~ImGuiTextBuffer
PUBLIC	??0ImGuiStoragePair@ImGuiStorage@@QEAA@IH@Z	; ImGuiStorage::ImGuiStoragePair::ImGuiStoragePair
PUBLIC	??0ImGuiStoragePair@ImGuiStorage@@QEAA@IM@Z	; ImGuiStorage::ImGuiStoragePair::ImGuiStoragePair
PUBLIC	??0ImGuiStoragePair@ImGuiStorage@@QEAA@IPEAX@Z	; ImGuiStorage::ImGuiStoragePair::ImGuiStoragePair
PUBLIC	??0?$ImVector@UImGuiStoragePair@ImGuiStorage@@@@QEAA@XZ ; ImVector<ImGuiStorage::ImGuiStoragePair>::ImVector<ImGuiStorage::ImGuiStoragePair>
PUBLIC	??1?$ImVector@UImGuiStoragePair@ImGuiStorage@@@@QEAA@XZ ; ImVector<ImGuiStorage::ImGuiStoragePair>::~ImVector<ImGuiStorage::ImGuiStoragePair>
PUBLIC	?clear@?$ImVector@UImGuiStoragePair@ImGuiStorage@@@@QEAAXXZ ; ImVector<ImGuiStorage::ImGuiStoragePair>::clear
PUBLIC	?size_in_bytes@?$ImVector@UImGuiStoragePair@ImGuiStorage@@@@QEBAHXZ ; ImVector<ImGuiStorage::ImGuiStoragePair>::size_in_bytes
PUBLIC	??A?$ImVector@UImGuiStoragePair@ImGuiStorage@@@@QEAAAEAUImGuiStoragePair@ImGuiStorage@@H@Z ; ImVector<ImGuiStorage::ImGuiStoragePair>::operator[]
PUBLIC	?end@?$ImVector@UImGuiStoragePair@ImGuiStorage@@@@QEAAPEAUImGuiStoragePair@ImGuiStorage@@XZ ; ImVector<ImGuiStorage::ImGuiStoragePair>::end
PUBLIC	?end@?$ImVector@UImGuiStoragePair@ImGuiStorage@@@@QEBAPEBUImGuiStoragePair@ImGuiStorage@@XZ ; ImVector<ImGuiStorage::ImGuiStoragePair>::end
PUBLIC	?_grow_capacity@?$ImVector@UImGuiStoragePair@ImGuiStorage@@@@QEBAHH@Z ; ImVector<ImGuiStorage::ImGuiStoragePair>::_grow_capacity
PUBLIC	?reserve@?$ImVector@UImGuiStoragePair@ImGuiStorage@@@@QEAAXH@Z ; ImVector<ImGuiStorage::ImGuiStoragePair>::reserve
PUBLIC	?insert@?$ImVector@UImGuiStoragePair@ImGuiStorage@@@@QEAAPEAUImGuiStoragePair@ImGuiStorage@@PEBU23@AEBU23@@Z ; ImVector<ImGuiStorage::ImGuiStoragePair>::insert
PUBLIC	?Clear@ImGuiStorage@@QEAAXXZ			; ImGuiStorage::Clear
PUBLIC	?GetInt@ImGuiStorage@@QEBAHIH@Z			; ImGuiStorage::GetInt
PUBLIC	?SetInt@ImGuiStorage@@QEAAXIH@Z			; ImGuiStorage::SetInt
PUBLIC	?GetBool@ImGuiStorage@@QEBA_NI_N@Z		; ImGuiStorage::GetBool
PUBLIC	?SetBool@ImGuiStorage@@QEAAXI_N@Z		; ImGuiStorage::SetBool
PUBLIC	?GetFloat@ImGuiStorage@@QEBAMIM@Z		; ImGuiStorage::GetFloat
PUBLIC	?SetFloat@ImGuiStorage@@QEAAXIM@Z		; ImGuiStorage::SetFloat
PUBLIC	?GetVoidPtr@ImGuiStorage@@QEBAPEAXI@Z		; ImGuiStorage::GetVoidPtr
PUBLIC	?SetVoidPtr@ImGuiStorage@@QEAAXIPEAX@Z		; ImGuiStorage::SetVoidPtr
PUBLIC	?GetIntRef@ImGuiStorage@@QEAAPEAHIH@Z		; ImGuiStorage::GetIntRef
PUBLIC	?GetBoolRef@ImGuiStorage@@QEAAPEA_NI_N@Z	; ImGuiStorage::GetBoolRef
PUBLIC	?GetFloatRef@ImGuiStorage@@QEAAPEAMIM@Z		; ImGuiStorage::GetFloatRef
PUBLIC	?GetVoidPtrRef@ImGuiStorage@@QEAAPEAPEAXIPEAX@Z	; ImGuiStorage::GetVoidPtrRef
PUBLIC	?SetAllInt@ImGuiStorage@@QEAAXH@Z		; ImGuiStorage::SetAllInt
PUBLIC	?BuildSortByKey@ImGuiStorage@@QEAAXXZ		; ImGuiStorage::BuildSortByKey
PUBLIC	??0ImGuiStorage@@QEAA@XZ			; ImGuiStorage::ImGuiStorage
PUBLIC	??1ImGuiStorage@@QEAA@XZ			; ImGuiStorage::~ImGuiStorage
PUBLIC	??0ImGuiListClipper@@QEAA@XZ			; ImGuiListClipper::ImGuiListClipper
PUBLIC	??1ImGuiListClipper@@QEAA@XZ			; ImGuiListClipper::~ImGuiListClipper
PUBLIC	?Begin@ImGuiListClipper@@QEAAXHM@Z		; ImGuiListClipper::Begin
PUBLIC	?End@ImGuiListClipper@@QEAAXXZ			; ImGuiListClipper::End
PUBLIC	?Step@ImGuiListClipper@@QEAA_NXZ		; ImGuiListClipper::Step
PUBLIC	??0ImDrawCmdHeader@@QEAA@XZ			; ImDrawCmdHeader::ImDrawCmdHeader
PUBLIC	??0?$ImVector@UImDrawCmd@@@@QEAA@XZ		; ImVector<ImDrawCmd>::ImVector<ImDrawCmd>
PUBLIC	??1?$ImVector@UImDrawCmd@@@@QEAA@XZ		; ImVector<ImDrawCmd>::~ImVector<ImDrawCmd>
PUBLIC	??A?$ImVector@UImDrawCmd@@@@QEAAAEAUImDrawCmd@@H@Z ; ImVector<ImDrawCmd>::operator[]
PUBLIC	?begin@?$ImVector@UImDrawCmd@@@@QEBAPEBUImDrawCmd@@XZ ; ImVector<ImDrawCmd>::begin
PUBLIC	?back@?$ImVector@UImDrawCmd@@@@QEAAAEAUImDrawCmd@@XZ ; ImVector<ImDrawCmd>::back
PUBLIC	?back@?$ImVector@UImDrawCmd@@@@QEBAAEBUImDrawCmd@@XZ ; ImVector<ImDrawCmd>::back
PUBLIC	??0?$ImVector@UImDrawChannel@@@@QEAA@XZ		; ImVector<ImDrawChannel>::ImVector<ImDrawChannel>
PUBLIC	??1?$ImVector@UImDrawChannel@@@@QEAA@XZ		; ImVector<ImDrawChannel>::~ImVector<ImDrawChannel>
PUBLIC	?clear@?$ImVector@UImDrawChannel@@@@QEAAXXZ	; ImVector<ImDrawChannel>::clear
PUBLIC	??0ImDrawListSplitter@@QEAA@XZ			; ImDrawListSplitter::ImDrawListSplitter
PUBLIC	??1ImDrawListSplitter@@QEAA@XZ			; ImDrawListSplitter::~ImDrawListSplitter
PUBLIC	??0?$ImVector@UImDrawVert@@@@QEAA@XZ		; ImVector<ImDrawVert>::ImVector<ImDrawVert>
PUBLIC	??1?$ImVector@UImDrawVert@@@@QEAA@XZ		; ImVector<ImDrawVert>::~ImVector<ImDrawVert>
PUBLIC	?reserve@?$ImVector@UImDrawVert@@@@QEAAXH@Z	; ImVector<ImDrawVert>::reserve
PUBLIC	??0?$ImVector@UImVec4@@@@QEAA@XZ		; ImVector<ImVec4>::ImVector<ImVec4>
PUBLIC	??1?$ImVector@UImVec4@@@@QEAA@XZ		; ImVector<ImVec4>::~ImVector<ImVec4>
PUBLIC	?back@?$ImVector@UImVec4@@@@QEAAAEAUImVec4@@XZ	; ImVector<ImVec4>::back
PUBLIC	??0?$ImVector@PEAX@@QEAA@XZ			; ImVector<void *>::ImVector<void *>
PUBLIC	??1?$ImVector@PEAX@@QEAA@XZ			; ImVector<void *>::~ImVector<void *>
PUBLIC	??0?$ImVector@UImVec2@@@@QEAA@XZ		; ImVector<ImVec2>::ImVector<ImVec2>
PUBLIC	??1?$ImVector@UImVec2@@@@QEAA@XZ		; ImVector<ImVec2>::~ImVector<ImVec2>
PUBLIC	?_grow_capacity@?$ImVector@UImVec2@@@@QEBAHH@Z	; ImVector<ImVec2>::_grow_capacity
PUBLIC	?reserve@?$ImVector@UImVec2@@@@QEAAXH@Z		; ImVector<ImVec2>::reserve
PUBLIC	?push_back@?$ImVector@UImVec2@@@@QEAAXAEBUImVec2@@@Z ; ImVector<ImVec2>::push_back
PUBLIC	??0ImDrawList@@QEAA@PEBUImDrawListSharedData@@@Z ; ImDrawList::ImDrawList
PUBLIC	??1ImDrawList@@QEAA@XZ				; ImDrawList::~ImDrawList
PUBLIC	?PathLineTo@ImDrawList@@QEAAXAEBUImVec2@@@Z	; ImDrawList::PathLineTo
PUBLIC	?PathFillConvex@ImDrawList@@QEAAXI@Z		; ImDrawList::PathFillConvex
PUBLIC	?PathStroke@ImDrawList@@QEAAXIHM@Z		; ImDrawList::PathStroke
PUBLIC	??_GImDrawList@@QEAAPEAXI@Z			; ImDrawList::`scalar deleting destructor'
PUBLIC	??0ImDrawData@@QEAA@XZ				; ImDrawData::ImDrawData
PUBLIC	?Clear@ImDrawData@@QEAAXXZ			; ImDrawData::Clear
PUBLIC	??0?$ImVector@I@@QEAA@XZ			; ImVector<unsigned int>::ImVector<unsigned int>
PUBLIC	??1?$ImVector@I@@QEAA@XZ			; ImVector<unsigned int>::~ImVector<unsigned int>
PUBLIC	?clear@?$ImVector@I@@QEAAXXZ			; ImVector<unsigned int>::clear
PUBLIC	?back@?$ImVector@I@@QEAAAEAIXZ			; ImVector<unsigned int>::back
PUBLIC	?_grow_capacity@?$ImVector@I@@QEBAHH@Z		; ImVector<unsigned int>::_grow_capacity
PUBLIC	?resize@?$ImVector@I@@QEAAXH@Z			; ImVector<unsigned int>::resize
PUBLIC	?reserve@?$ImVector@I@@QEAAXH@Z			; ImVector<unsigned int>::reserve
PUBLIC	?push_back@?$ImVector@I@@QEAAXAEBI@Z		; ImVector<unsigned int>::push_back
PUBLIC	?pop_back@?$ImVector@I@@QEAAXXZ			; ImVector<unsigned int>::pop_back
PUBLIC	?IsBuilt@ImFontAtlas@@QEBA_NXZ			; ImFontAtlas::IsBuilt
PUBLIC	??0?$ImVector@PEAUImFont@@@@QEAA@XZ		; ImVector<ImFont *>::ImVector<ImFont *>
PUBLIC	??1?$ImVector@PEAUImFont@@@@QEAA@XZ		; ImVector<ImFont *>::~ImVector<ImFont *>
PUBLIC	?clear@?$ImVector@PEAUImFont@@@@QEAAXXZ		; ImVector<ImFont *>::clear
PUBLIC	?empty@?$ImVector@PEAUImFont@@@@QEBA_NXZ	; ImVector<ImFont *>::empty
PUBLIC	??A?$ImVector@PEAUImFont@@@@QEAAAEAPEAUImFont@@H@Z ; ImVector<ImFont *>::operator[]
PUBLIC	?back@?$ImVector@PEAUImFont@@@@QEAAAEAPEAUImFont@@XZ ; ImVector<ImFont *>::back
PUBLIC	?_grow_capacity@?$ImVector@PEAUImFont@@@@QEBAHH@Z ; ImVector<ImFont *>::_grow_capacity
PUBLIC	?reserve@?$ImVector@PEAUImFont@@@@QEAAXH@Z	; ImVector<ImFont *>::reserve
PUBLIC	?push_back@?$ImVector@PEAUImFont@@@@QEAAXAEBQEAUImFont@@@Z ; ImVector<ImFont *>::push_back
PUBLIC	?pop_back@?$ImVector@PEAUImFont@@@@QEAAXXZ	; ImVector<ImFont *>::pop_back
PUBLIC	??_GImFontAtlas@@QEAAPEAXI@Z			; ImFontAtlas::`scalar deleting destructor'
PUBLIC	??0?$ImVector@M@@QEAA@XZ			; ImVector<float>::ImVector<float>
PUBLIC	??1?$ImVector@M@@QEAA@XZ			; ImVector<float>::~ImVector<float>
PUBLIC	?clear@?$ImVector@M@@QEAAXXZ			; ImVector<float>::clear
PUBLIC	??A?$ImVector@M@@QEAAAEAMH@Z			; ImVector<float>::operator[]
PUBLIC	?back@?$ImVector@M@@QEAAAEAMXZ			; ImVector<float>::back
PUBLIC	?_grow_capacity@?$ImVector@M@@QEBAHH@Z		; ImVector<float>::_grow_capacity
PUBLIC	?resize@?$ImVector@M@@QEAAXH@Z			; ImVector<float>::resize
PUBLIC	?reserve@?$ImVector@M@@QEAAXH@Z			; ImVector<float>::reserve
PUBLIC	?push_back@?$ImVector@M@@QEAAXAEBM@Z		; ImVector<float>::push_back
PUBLIC	?pop_back@?$ImVector@M@@QEAAXXZ			; ImVector<float>::pop_back
PUBLIC	?IsLoaded@ImFont@@QEBA_NXZ			; ImFont::IsLoaded
PUBLIC	??0ImGuiViewport@@QEAA@XZ			; ImGuiViewport::ImGuiViewport
PUBLIC	?GetCenter@ImGuiViewport@@QEBA?AUImVec2@@XZ	; ImGuiViewport::GetCenter
PUBLIC	__local_stdio_printf_options
PUBLIC	__local_stdio_scanf_options
PUBLIC	_vsnprintf_l
PUBLIC	_vsnprintf
PUBLIC	_vsscanf_l
PUBLIC	sscanf
PUBLIC	fabsf
PUBLIC	?ImHashData@@YAIPEBX_KI@Z			; ImHashData
PUBLIC	?ImHashStr@@YAIPEBD_KI@Z			; ImHashStr
PUBLIC	?ImAlphaBlendColors@@YAIII@Z			; ImAlphaBlendColors
PUBLIC	?ImStricmp@@YAHPEBD0@Z				; ImStricmp
PUBLIC	?ImStrnicmp@@YAHPEBD0_K@Z			; ImStrnicmp
PUBLIC	?ImStrncpy@@YAXPEADPEBD_K@Z			; ImStrncpy
PUBLIC	?ImStrdup@@YAPEADPEBD@Z				; ImStrdup
PUBLIC	?ImStrdupcpy@@YAPEADPEADPEA_KPEBD@Z		; ImStrdupcpy
PUBLIC	?ImStrchrRange@@YAPEBDPEBD0D@Z			; ImStrchrRange
PUBLIC	?ImStrlenW@@YAHPEBG@Z				; ImStrlenW
PUBLIC	?ImStreolRange@@YAPEBDPEBD0@Z			; ImStreolRange
PUBLIC	?ImStrbolW@@YAPEBGPEBG0@Z			; ImStrbolW
PUBLIC	?ImStristr@@YAPEBDPEBD000@Z			; ImStristr
PUBLIC	?ImStrTrimBlanks@@YAXPEAD@Z			; ImStrTrimBlanks
PUBLIC	?ImStrSkipBlank@@YAPEBDPEBD@Z			; ImStrSkipBlank
PUBLIC	?ImFormatString@@YAHPEAD_KPEBDZZ		; ImFormatString
PUBLIC	?ImFormatStringV@@YAHPEAD_KPEBD0@Z		; ImFormatStringV
PUBLIC	?ImTextCharToUtf8@@YAPEBDQEADI@Z		; ImTextCharToUtf8
PUBLIC	?ImTextStrToUtf8@@YAHPEADHPEBG1@Z		; ImTextStrToUtf8
PUBLIC	?ImTextCharFromUtf8@@YAHPEAIPEBD1@Z		; ImTextCharFromUtf8
PUBLIC	?ImTextStrFromUtf8@@YAHPEAGHPEBD1PEAPEBD@Z	; ImTextStrFromUtf8
PUBLIC	?ImTextCountCharsFromUtf8@@YAHPEBD0@Z		; ImTextCountCharsFromUtf8
PUBLIC	?ImTextCountUtf8BytesFromChar@@YAHPEBD0@Z	; ImTextCountUtf8BytesFromChar
PUBLIC	?ImTextCountUtf8BytesFromStr@@YAHPEBG0@Z	; ImTextCountUtf8BytesFromStr
PUBLIC	?ImFileOpen@@YAPEAU_iobuf@@PEBD0@Z		; ImFileOpen
PUBLIC	?ImFileClose@@YA_NPEAU_iobuf@@@Z		; ImFileClose
PUBLIC	?ImFileGetSize@@YA_KPEAU_iobuf@@@Z		; ImFileGetSize
PUBLIC	?ImFileRead@@YA_KPEAX_K1PEAU_iobuf@@@Z		; ImFileRead
PUBLIC	?ImFileWrite@@YA_KPEBX_K1PEAU_iobuf@@@Z		; ImFileWrite
PUBLIC	?ImFileLoadToMemory@@YAPEAXPEBD0PEA_KH@Z	; ImFileLoadToMemory
PUBLIC	?ImBezierCubicClosestPoint@@YA?AUImVec2@@AEBU1@0000H@Z ; ImBezierCubicClosestPoint
PUBLIC	?ImBezierCubicClosestPointCasteljau@@YA?AUImVec2@@AEBU1@0000M@Z ; ImBezierCubicClosestPointCasteljau
PUBLIC	?ImLineClosestPoint@@YA?AUImVec2@@AEBU1@00@Z	; ImLineClosestPoint
PUBLIC	?ImTriangleContainsPoint@@YA_NAEBUImVec2@@000@Z	; ImTriangleContainsPoint
PUBLIC	?ImTriangleClosestPoint@@YA?AUImVec2@@AEBU1@000@Z ; ImTriangleClosestPoint
PUBLIC	?ImTriangleBarycentricCoords@@YAXAEBUImVec2@@000AEAM11@Z ; ImTriangleBarycentricCoords
PUBLIC	?ImTriangleArea@@YAMAEBUImVec2@@00@Z		; ImTriangleArea
PUBLIC	?ImGetDirQuadrantFromDelta@@YAHMM@Z		; ImGetDirQuadrantFromDelta
PUBLIC	??0ImVec1@@QEAA@XZ				; ImVec1::ImVec1
PUBLIC	??0ImVec2ih@@QEAA@XZ				; ImVec2ih::ImVec2ih
PUBLIC	??0ImVec2ih@@QEAA@FF@Z				; ImVec2ih::ImVec2ih
PUBLIC	??0ImVec2ih@@QEAA@AEBUImVec2@@@Z		; ImVec2ih::ImVec2ih
PUBLIC	??0ImRect@@QEAA@XZ				; ImRect::ImRect
PUBLIC	??0ImRect@@QEAA@AEBUImVec2@@0@Z			; ImRect::ImRect
PUBLIC	??0ImRect@@QEAA@AEBUImVec4@@@Z			; ImRect::ImRect
PUBLIC	??0ImRect@@QEAA@MMMM@Z				; ImRect::ImRect
PUBLIC	?GetSize@ImRect@@QEBA?AUImVec2@@XZ		; ImRect::GetSize
PUBLIC	?GetWidth@ImRect@@QEBAMXZ			; ImRect::GetWidth
PUBLIC	?GetHeight@ImRect@@QEBAMXZ			; ImRect::GetHeight
PUBLIC	?GetBL@ImRect@@QEBA?AUImVec2@@XZ		; ImRect::GetBL
PUBLIC	?GetBR@ImRect@@QEBA?AUImVec2@@XZ		; ImRect::GetBR
PUBLIC	?Contains@ImRect@@QEBA_NAEBUImVec2@@@Z		; ImRect::Contains
PUBLIC	?Contains@ImRect@@QEBA_NAEBU1@@Z		; ImRect::Contains
PUBLIC	?Overlaps@ImRect@@QEBA_NAEBU1@@Z		; ImRect::Overlaps
PUBLIC	?Add@ImRect@@QEAAXAEBUImVec2@@@Z		; ImRect::Add
PUBLIC	?Add@ImRect@@QEAAXAEBU1@@Z			; ImRect::Add
PUBLIC	?Expand@ImRect@@QEAAXM@Z			; ImRect::Expand
PUBLIC	?Expand@ImRect@@QEAAXAEBUImVec2@@@Z		; ImRect::Expand
PUBLIC	?TranslateX@ImRect@@QEAAXM@Z			; ImRect::TranslateX
PUBLIC	?TranslateY@ImRect@@QEAAXM@Z			; ImRect::TranslateY
PUBLIC	?ClipWith@ImRect@@QEAAXAEBU1@@Z			; ImRect::ClipWith
PUBLIC	?ClipWithFull@ImRect@@QEAAXAEBU1@@Z		; ImRect::ClipWithFull
PUBLIC	?IsInverted@ImRect@@QEBA_NXZ			; ImRect::IsInverted
PUBLIC	?ToVec4@ImRect@@QEBA?AUImVec4@@XZ		; ImRect::ToVec4
PUBLIC	??0?$ImVector@PEAUImDrawList@@@@QEAA@XZ		; ImVector<ImDrawList *>::ImVector<ImDrawList *>
PUBLIC	??1?$ImVector@PEAUImDrawList@@@@QEAA@XZ		; ImVector<ImDrawList *>::~ImVector<ImDrawList *>
PUBLIC	?empty@?$ImVector@PEAUImDrawList@@@@QEBA_NXZ	; ImVector<ImDrawList *>::empty
PUBLIC	??A?$ImVector@PEAUImDrawList@@@@QEAAAEAPEAUImDrawList@@H@Z ; ImVector<ImDrawList *>::operator[]
PUBLIC	?_grow_capacity@?$ImVector@PEAUImDrawList@@@@QEBAHH@Z ; ImVector<ImDrawList *>::_grow_capacity
PUBLIC	?resize@?$ImVector@PEAUImDrawList@@@@QEAAXH@Z	; ImVector<ImDrawList *>::resize
PUBLIC	?reserve@?$ImVector@PEAUImDrawList@@@@QEAAXH@Z	; ImVector<ImDrawList *>::reserve
PUBLIC	?push_back@?$ImVector@PEAUImDrawList@@@@QEAAXAEBQEAUImDrawList@@@Z ; ImVector<ImDrawList *>::push_back
PUBLIC	?Clear@ImDrawDataBuilder@@QEAAXXZ		; ImDrawDataBuilder::Clear
PUBLIC	?GetDrawListCount@ImDrawDataBuilder@@QEBAHXZ	; ImDrawDataBuilder::GetDrawListCount
PUBLIC	?FlattenIntoSingleLayer@ImDrawDataBuilder@@QEAAXXZ ; ImDrawDataBuilder::FlattenIntoSingleLayer
PUBLIC	??0ImDrawDataBuilder@@QEAA@XZ			; ImDrawDataBuilder::ImDrawDataBuilder
PUBLIC	??1ImDrawDataBuilder@@QEAA@XZ			; ImDrawDataBuilder::~ImDrawDataBuilder
PUBLIC	??0ImGuiColorMod@@QEAA@XZ			; ImGuiColorMod::ImGuiColorMod
PUBLIC	??0ImGuiStyleMod@@QEAA@HM@Z			; ImGuiStyleMod::ImGuiStyleMod
PUBLIC	??0ImGuiStyleMod@@QEAA@HUImVec2@@@Z		; ImGuiStyleMod::ImGuiStyleMod
PUBLIC	??0ImGuiComboPreviewData@@QEAA@XZ		; ImGuiComboPreviewData::ImGuiComboPreviewData
PUBLIC	??0ImGuiMenuColumns@@QEAA@XZ			; ImGuiMenuColumns::ImGuiMenuColumns
PUBLIC	??0ImGuiInputTextState@@QEAA@XZ			; ImGuiInputTextState::ImGuiInputTextState
PUBLIC	?ClearFreeMemory@ImGuiInputTextState@@QEAAXXZ	; ImGuiInputTextState::ClearFreeMemory
PUBLIC	??1ImGuiInputTextState@@QEAA@XZ			; ImGuiInputTextState::~ImGuiInputTextState
PUBLIC	??0ImGuiPopupData@@QEAA@XZ			; ImGuiPopupData::ImGuiPopupData
PUBLIC	??0ImGuiNavItemData@@QEAA@XZ			; ImGuiNavItemData::ImGuiNavItemData
PUBLIC	?Clear@ImGuiNavItemData@@QEAAXXZ		; ImGuiNavItemData::Clear
PUBLIC	??0ImGuiNextWindowData@@QEAA@XZ			; ImGuiNextWindowData::ImGuiNextWindowData
PUBLIC	?ClearFlags@ImGuiNextWindowData@@QEAAXXZ	; ImGuiNextWindowData::ClearFlags
PUBLIC	??0ImGuiNextItemData@@QEAA@XZ			; ImGuiNextItemData::ImGuiNextItemData
PUBLIC	??1?$ImVector@UImGuiOldColumnData@@@@QEAA@XZ	; ImVector<ImGuiOldColumnData>::~ImVector<ImGuiOldColumnData>
PUBLIC	??A?$ImVector@UImGuiOldColumnData@@@@QEAAAEAUImGuiOldColumnData@@H@Z ; ImVector<ImGuiOldColumnData>::operator[]
PUBLIC	??1ImGuiOldColumns@@QEAA@XZ			; ImGuiOldColumns::~ImGuiOldColumns
PUBLIC	??_GImGuiOldColumns@@QEAAPEAXI@Z		; ImGuiOldColumns::`scalar deleting destructor'
PUBLIC	??0ImGuiViewportP@@QEAA@XZ			; ImGuiViewportP::ImGuiViewportP
PUBLIC	??1ImGuiViewportP@@QEAA@XZ			; ImGuiViewportP::~ImGuiViewportP
PUBLIC	?CalcWorkRectPos@ImGuiViewportP@@QEBA?AUImVec2@@AEBU2@@Z ; ImGuiViewportP::CalcWorkRectPos
PUBLIC	?CalcWorkRectSize@ImGuiViewportP@@QEBA?AUImVec2@@AEBU2@0@Z ; ImGuiViewportP::CalcWorkRectSize
PUBLIC	?UpdateWorkRect@ImGuiViewportP@@QEAAXXZ		; ImGuiViewportP::UpdateWorkRect
PUBLIC	?GetMainRect@ImGuiViewportP@@QEBA?AUImRect@@XZ	; ImGuiViewportP::GetMainRect
PUBLIC	?GetWorkRect@ImGuiViewportP@@QEBA?AUImRect@@XZ	; ImGuiViewportP::GetWorkRect
PUBLIC	??_GImGuiViewportP@@QEAAPEAXI@Z			; ImGuiViewportP::`scalar deleting destructor'
PUBLIC	??$IM_DELETE@UImDrawList@@@@YAXPEAUImDrawList@@@Z ; IM_DELETE<ImDrawList>
PUBLIC	??0ImGuiWindowSettings@@QEAA@XZ			; ImGuiWindowSettings::ImGuiWindowSettings
PUBLIC	?GetName@ImGuiWindowSettings@@QEAAPEADXZ	; ImGuiWindowSettings::GetName
PUBLIC	??0ImGuiSettingsHandler@@QEAA@XZ		; ImGuiSettingsHandler::ImGuiSettingsHandler
PUBLIC	??0ImGuiMetricsConfig@@QEAA@XZ			; ImGuiMetricsConfig::ImGuiMetricsConfig
PUBLIC	??0ImGuiStackSizes@@QEAA@XZ			; ImGuiStackSizes::ImGuiStackSizes
PUBLIC	?SetToCurrentState@ImGuiStackSizes@@QEAAXXZ	; ImGuiStackSizes::SetToCurrentState
PUBLIC	?CompareWithCurrentState@ImGuiStackSizes@@QEAAXXZ ; ImGuiStackSizes::CompareWithCurrentState
PUBLIC	??0?$ImVector@PEAUImGuiWindow@@@@QEAA@XZ	; ImVector<ImGuiWindow *>::ImVector<ImGuiWindow *>
PUBLIC	??1?$ImVector@PEAUImGuiWindow@@@@QEAA@XZ	; ImVector<ImGuiWindow *>::~ImVector<ImGuiWindow *>
PUBLIC	?clear@?$ImVector@PEAUImGuiWindow@@@@QEAAXXZ	; ImVector<ImGuiWindow *>::clear
PUBLIC	?clear_delete@?$ImVector@PEAUImGuiWindow@@@@QEAAXXZ ; ImVector<ImGuiWindow *>::clear_delete
PUBLIC	?empty@?$ImVector@PEAUImGuiWindow@@@@QEBA_NXZ	; ImVector<ImGuiWindow *>::empty
PUBLIC	??A?$ImVector@PEAUImGuiWindow@@@@QEAAAEAPEAUImGuiWindow@@H@Z ; ImVector<ImGuiWindow *>::operator[]
PUBLIC	?back@?$ImVector@PEAUImGuiWindow@@@@QEAAAEAPEAUImGuiWindow@@XZ ; ImVector<ImGuiWindow *>::back
PUBLIC	?swap@?$ImVector@PEAUImGuiWindow@@@@QEAAXAEAU1@@Z ; ImVector<ImGuiWindow *>::swap
PUBLIC	?_grow_capacity@?$ImVector@PEAUImGuiWindow@@@@QEBAHH@Z ; ImVector<ImGuiWindow *>::_grow_capacity
PUBLIC	?resize@?$ImVector@PEAUImGuiWindow@@@@QEAAXH@Z	; ImVector<ImGuiWindow *>::resize
PUBLIC	?reserve@?$ImVector@PEAUImGuiWindow@@@@QEAAXH@Z	; ImVector<ImGuiWindow *>::reserve
PUBLIC	?push_back@?$ImVector@PEAUImGuiWindow@@@@QEAAXAEBQEAUImGuiWindow@@@Z ; ImVector<ImGuiWindow *>::push_back
PUBLIC	?pop_back@?$ImVector@PEAUImGuiWindow@@@@QEAAXXZ	; ImVector<ImGuiWindow *>::pop_back
PUBLIC	?push_front@?$ImVector@PEAUImGuiWindow@@@@QEAAXAEBQEAUImGuiWindow@@@Z ; ImVector<ImGuiWindow *>::push_front
PUBLIC	?insert@?$ImVector@PEAUImGuiWindow@@@@QEAAPEAPEAUImGuiWindow@@PEBQEAU2@AEBQEAU2@@Z ; ImVector<ImGuiWindow *>::insert
PUBLIC	??0?$ImVector@UImGuiColorMod@@@@QEAA@XZ		; ImVector<ImGuiColorMod>::ImVector<ImGuiColorMod>
PUBLIC	??1?$ImVector@UImGuiColorMod@@@@QEAA@XZ		; ImVector<ImGuiColorMod>::~ImVector<ImGuiColorMod>
PUBLIC	?clear@?$ImVector@UImGuiColorMod@@@@QEAAXXZ	; ImVector<ImGuiColorMod>::clear
PUBLIC	?back@?$ImVector@UImGuiColorMod@@@@QEAAAEAUImGuiColorMod@@XZ ; ImVector<ImGuiColorMod>::back
PUBLIC	?_grow_capacity@?$ImVector@UImGuiColorMod@@@@QEBAHH@Z ; ImVector<ImGuiColorMod>::_grow_capacity
PUBLIC	?reserve@?$ImVector@UImGuiColorMod@@@@QEAAXH@Z	; ImVector<ImGuiColorMod>::reserve
PUBLIC	?push_back@?$ImVector@UImGuiColorMod@@@@QEAAXAEBUImGuiColorMod@@@Z ; ImVector<ImGuiColorMod>::push_back
PUBLIC	?pop_back@?$ImVector@UImGuiColorMod@@@@QEAAXXZ	; ImVector<ImGuiColorMod>::pop_back
PUBLIC	??0?$ImVector@UImGuiStyleMod@@@@QEAA@XZ		; ImVector<ImGuiStyleMod>::ImVector<ImGuiStyleMod>
PUBLIC	??1?$ImVector@UImGuiStyleMod@@@@QEAA@XZ		; ImVector<ImGuiStyleMod>::~ImVector<ImGuiStyleMod>
PUBLIC	?clear@?$ImVector@UImGuiStyleMod@@@@QEAAXXZ	; ImVector<ImGuiStyleMod>::clear
PUBLIC	?back@?$ImVector@UImGuiStyleMod@@@@QEAAAEAUImGuiStyleMod@@XZ ; ImVector<ImGuiStyleMod>::back
PUBLIC	?_grow_capacity@?$ImVector@UImGuiStyleMod@@@@QEBAHH@Z ; ImVector<ImGuiStyleMod>::_grow_capacity
PUBLIC	?reserve@?$ImVector@UImGuiStyleMod@@@@QEAAXH@Z	; ImVector<ImGuiStyleMod>::reserve
PUBLIC	?push_back@?$ImVector@UImGuiStyleMod@@@@QEAAXAEBUImGuiStyleMod@@@Z ; ImVector<ImGuiStyleMod>::push_back
PUBLIC	?pop_back@?$ImVector@UImGuiStyleMod@@@@QEAAXXZ	; ImVector<ImGuiStyleMod>::pop_back
PUBLIC	??0?$ImVector@H@@QEAA@XZ			; ImVector<int>::ImVector<int>
PUBLIC	??1?$ImVector@H@@QEAA@XZ			; ImVector<int>::~ImVector<int>
PUBLIC	?clear@?$ImVector@H@@QEAAXXZ			; ImVector<int>::clear
PUBLIC	?back@?$ImVector@H@@QEAAAEAHXZ			; ImVector<int>::back
PUBLIC	?_grow_capacity@?$ImVector@H@@QEBAHH@Z		; ImVector<int>::_grow_capacity
PUBLIC	?resize@?$ImVector@H@@QEAAXH@Z			; ImVector<int>::resize
PUBLIC	?reserve@?$ImVector@H@@QEAAXH@Z			; ImVector<int>::reserve
PUBLIC	?push_back@?$ImVector@H@@QEAAXAEBH@Z		; ImVector<int>::push_back
PUBLIC	?pop_back@?$ImVector@H@@QEAAXXZ			; ImVector<int>::pop_back
PUBLIC	??0?$ImVector@UImGuiGroupData@@@@QEAA@XZ	; ImVector<ImGuiGroupData>::ImVector<ImGuiGroupData>
PUBLIC	??1?$ImVector@UImGuiGroupData@@@@QEAA@XZ	; ImVector<ImGuiGroupData>::~ImVector<ImGuiGroupData>
PUBLIC	?clear@?$ImVector@UImGuiGroupData@@@@QEAAXXZ	; ImVector<ImGuiGroupData>::clear
PUBLIC	?back@?$ImVector@UImGuiGroupData@@@@QEAAAEAUImGuiGroupData@@XZ ; ImVector<ImGuiGroupData>::back
PUBLIC	?_grow_capacity@?$ImVector@UImGuiGroupData@@@@QEBAHH@Z ; ImVector<ImGuiGroupData>::_grow_capacity
PUBLIC	?resize@?$ImVector@UImGuiGroupData@@@@QEAAXH@Z	; ImVector<ImGuiGroupData>::resize
PUBLIC	?reserve@?$ImVector@UImGuiGroupData@@@@QEAAXH@Z	; ImVector<ImGuiGroupData>::reserve
PUBLIC	?pop_back@?$ImVector@UImGuiGroupData@@@@QEAAXXZ	; ImVector<ImGuiGroupData>::pop_back
PUBLIC	??0?$ImVector@UImGuiPopupData@@@@QEAA@XZ	; ImVector<ImGuiPopupData>::ImVector<ImGuiPopupData>
PUBLIC	??1?$ImVector@UImGuiPopupData@@@@QEAA@XZ	; ImVector<ImGuiPopupData>::~ImVector<ImGuiPopupData>
PUBLIC	?clear@?$ImVector@UImGuiPopupData@@@@QEAAXXZ	; ImVector<ImGuiPopupData>::clear
PUBLIC	??A?$ImVector@UImGuiPopupData@@@@QEAAAEAUImGuiPopupData@@H@Z ; ImVector<ImGuiPopupData>::operator[]
PUBLIC	?back@?$ImVector@UImGuiPopupData@@@@QEAAAEAUImGuiPopupData@@XZ ; ImVector<ImGuiPopupData>::back
PUBLIC	?_grow_capacity@?$ImVector@UImGuiPopupData@@@@QEBAHH@Z ; ImVector<ImGuiPopupData>::_grow_capacity
PUBLIC	?resize@?$ImVector@UImGuiPopupData@@@@QEAAXH@Z	; ImVector<ImGuiPopupData>::resize
PUBLIC	?reserve@?$ImVector@UImGuiPopupData@@@@QEAAXH@Z	; ImVector<ImGuiPopupData>::reserve
PUBLIC	?push_back@?$ImVector@UImGuiPopupData@@@@QEAAXAEBUImGuiPopupData@@@Z ; ImVector<ImGuiPopupData>::push_back
PUBLIC	?pop_back@?$ImVector@UImGuiPopupData@@@@QEAAXXZ	; ImVector<ImGuiPopupData>::pop_back
PUBLIC	??0?$ImVector@PEAUImGuiViewportP@@@@QEAA@XZ	; ImVector<ImGuiViewportP *>::ImVector<ImGuiViewportP *>
PUBLIC	??1?$ImVector@PEAUImGuiViewportP@@@@QEAA@XZ	; ImVector<ImGuiViewportP *>::~ImVector<ImGuiViewportP *>
PUBLIC	?clear@?$ImVector@PEAUImGuiViewportP@@@@QEAAXXZ	; ImVector<ImGuiViewportP *>::clear
PUBLIC	?clear_delete@?$ImVector@PEAUImGuiViewportP@@@@QEAAXXZ ; ImVector<ImGuiViewportP *>::clear_delete
PUBLIC	??A?$ImVector@PEAUImGuiViewportP@@@@QEAAAEAPEAUImGuiViewportP@@H@Z ; ImVector<ImGuiViewportP *>::operator[]
PUBLIC	?_grow_capacity@?$ImVector@PEAUImGuiViewportP@@@@QEBAHH@Z ; ImVector<ImGuiViewportP *>::_grow_capacity
PUBLIC	?reserve@?$ImVector@PEAUImGuiViewportP@@@@QEAAXH@Z ; ImVector<ImGuiViewportP *>::reserve
PUBLIC	?push_back@?$ImVector@PEAUImGuiViewportP@@@@QEAAXAEBQEAUImGuiViewportP@@@Z ; ImVector<ImGuiViewportP *>::push_back
PUBLIC	??0?$ImVector@E@@QEAA@XZ			; ImVector<unsigned char>::ImVector<unsigned char>
PUBLIC	??1?$ImVector@E@@QEAA@XZ			; ImVector<unsigned char>::~ImVector<unsigned char>
PUBLIC	?clear@?$ImVector@E@@QEAAXXZ			; ImVector<unsigned char>::clear
PUBLIC	?_grow_capacity@?$ImVector@E@@QEBAHH@Z		; ImVector<unsigned char>::_grow_capacity
PUBLIC	?resize@?$ImVector@E@@QEAAXH@Z			; ImVector<unsigned char>::resize
PUBLIC	?reserve@?$ImVector@E@@QEAAXH@Z			; ImVector<unsigned char>::reserve
PUBLIC	??0?$ImVector@UImGuiTable@@@@QEAA@XZ		; ImVector<ImGuiTable>::ImVector<ImGuiTable>
PUBLIC	??1?$ImVector@UImGuiTable@@@@QEAA@XZ		; ImVector<ImGuiTable>::~ImVector<ImGuiTable>
PUBLIC	?clear@?$ImVector@UImGuiTable@@@@QEAAXXZ	; ImVector<ImGuiTable>::clear
PUBLIC	??A?$ImVector@UImGuiTable@@@@QEAAAEAUImGuiTable@@H@Z ; ImVector<ImGuiTable>::operator[]
PUBLIC	??0?$ImPool@UImGuiTable@@@@QEAA@XZ		; ImPool<ImGuiTable>::ImPool<ImGuiTable>
PUBLIC	??1?$ImPool@UImGuiTable@@@@QEAA@XZ		; ImPool<ImGuiTable>::~ImPool<ImGuiTable>
PUBLIC	?GetByIndex@?$ImPool@UImGuiTable@@@@QEAAPEAUImGuiTable@@H@Z ; ImPool<ImGuiTable>::GetByIndex
PUBLIC	?Clear@?$ImPool@UImGuiTable@@@@QEAAXXZ		; ImPool<ImGuiTable>::Clear
PUBLIC	?GetAliveCount@?$ImPool@UImGuiTable@@@@QEBAHXZ	; ImPool<ImGuiTable>::GetAliveCount
PUBLIC	?GetMapSize@?$ImPool@UImGuiTable@@@@QEBAHXZ	; ImPool<ImGuiTable>::GetMapSize
PUBLIC	?TryGetMapData@?$ImPool@UImGuiTable@@@@QEAAPEAUImGuiTable@@H@Z ; ImPool<ImGuiTable>::TryGetMapData
PUBLIC	??0?$ImVector@UImGuiTableTempData@@@@QEAA@XZ	; ImVector<ImGuiTableTempData>::ImVector<ImGuiTableTempData>
PUBLIC	??1?$ImVector@UImGuiTableTempData@@@@QEAA@XZ	; ImVector<ImGuiTableTempData>::~ImVector<ImGuiTableTempData>
PUBLIC	?clear@?$ImVector@UImGuiTableTempData@@@@QEAAXXZ ; ImVector<ImGuiTableTempData>::clear
PUBLIC	?clear_destruct@?$ImVector@UImGuiTableTempData@@@@QEAAXXZ ; ImVector<ImGuiTableTempData>::clear_destruct
PUBLIC	??A?$ImVector@UImGuiTableTempData@@@@QEAAAEAUImGuiTableTempData@@H@Z ; ImVector<ImGuiTableTempData>::operator[]
PUBLIC	??0?$ImVector@UImGuiTabBar@@@@QEAA@XZ		; ImVector<ImGuiTabBar>::ImVector<ImGuiTabBar>
PUBLIC	??1?$ImVector@UImGuiTabBar@@@@QEAA@XZ		; ImVector<ImGuiTabBar>::~ImVector<ImGuiTabBar>
PUBLIC	?clear@?$ImVector@UImGuiTabBar@@@@QEAAXXZ	; ImVector<ImGuiTabBar>::clear
PUBLIC	??A?$ImVector@UImGuiTabBar@@@@QEAAAEAUImGuiTabBar@@H@Z ; ImVector<ImGuiTabBar>::operator[]
PUBLIC	??0?$ImPool@UImGuiTabBar@@@@QEAA@XZ		; ImPool<ImGuiTabBar>::ImPool<ImGuiTabBar>
PUBLIC	??1?$ImPool@UImGuiTabBar@@@@QEAA@XZ		; ImPool<ImGuiTabBar>::~ImPool<ImGuiTabBar>
PUBLIC	?GetByIndex@?$ImPool@UImGuiTabBar@@@@QEAAPEAUImGuiTabBar@@H@Z ; ImPool<ImGuiTabBar>::GetByIndex
PUBLIC	?Clear@?$ImPool@UImGuiTabBar@@@@QEAAXXZ		; ImPool<ImGuiTabBar>::Clear
PUBLIC	?GetAliveCount@?$ImPool@UImGuiTabBar@@@@QEBAHXZ	; ImPool<ImGuiTabBar>::GetAliveCount
PUBLIC	?GetMapSize@?$ImPool@UImGuiTabBar@@@@QEBAHXZ	; ImPool<ImGuiTabBar>::GetMapSize
PUBLIC	?TryGetMapData@?$ImPool@UImGuiTabBar@@@@QEAAPEAUImGuiTabBar@@H@Z ; ImPool<ImGuiTabBar>::TryGetMapData
PUBLIC	??0?$ImVector@UImGuiPtrOrIndex@@@@QEAA@XZ	; ImVector<ImGuiPtrOrIndex>::ImVector<ImGuiPtrOrIndex>
PUBLIC	??1?$ImVector@UImGuiPtrOrIndex@@@@QEAA@XZ	; ImVector<ImGuiPtrOrIndex>::~ImVector<ImGuiPtrOrIndex>
PUBLIC	?clear@?$ImVector@UImGuiPtrOrIndex@@@@QEAAXXZ	; ImVector<ImGuiPtrOrIndex>::clear
PUBLIC	??0?$ImVector@UImGuiShrinkWidthItem@@@@QEAA@XZ	; ImVector<ImGuiShrinkWidthItem>::ImVector<ImGuiShrinkWidthItem>
PUBLIC	??1?$ImVector@UImGuiShrinkWidthItem@@@@QEAA@XZ	; ImVector<ImGuiShrinkWidthItem>::~ImVector<ImGuiShrinkWidthItem>
PUBLIC	?clear@?$ImVector@UImGuiShrinkWidthItem@@@@QEAAXXZ ; ImVector<ImGuiShrinkWidthItem>::clear
PUBLIC	??0?$ImVector@UImGuiSettingsHandler@@@@QEAA@XZ	; ImVector<ImGuiSettingsHandler>::ImVector<ImGuiSettingsHandler>
PUBLIC	??1?$ImVector@UImGuiSettingsHandler@@@@QEAA@XZ	; ImVector<ImGuiSettingsHandler>::~ImVector<ImGuiSettingsHandler>
PUBLIC	?clear@?$ImVector@UImGuiSettingsHandler@@@@QEAAXXZ ; ImVector<ImGuiSettingsHandler>::clear
PUBLIC	??A?$ImVector@UImGuiSettingsHandler@@@@QEAAAEAUImGuiSettingsHandler@@H@Z ; ImVector<ImGuiSettingsHandler>::operator[]
PUBLIC	?_grow_capacity@?$ImVector@UImGuiSettingsHandler@@@@QEBAHH@Z ; ImVector<ImGuiSettingsHandler>::_grow_capacity
PUBLIC	?reserve@?$ImVector@UImGuiSettingsHandler@@@@QEAAXH@Z ; ImVector<ImGuiSettingsHandler>::reserve
PUBLIC	?push_back@?$ImVector@UImGuiSettingsHandler@@@@QEAAXAEBUImGuiSettingsHandler@@@Z ; ImVector<ImGuiSettingsHandler>::push_back
PUBLIC	?clear@?$ImChunkStream@UImGuiWindowSettings@@@@QEAAXXZ ; ImChunkStream<ImGuiWindowSettings>::clear
PUBLIC	?empty@?$ImChunkStream@UImGuiWindowSettings@@@@QEBA_NXZ ; ImChunkStream<ImGuiWindowSettings>::empty
PUBLIC	?size@?$ImChunkStream@UImGuiWindowSettings@@@@QEBAHXZ ; ImChunkStream<ImGuiWindowSettings>::size
PUBLIC	?alloc_chunk@?$ImChunkStream@UImGuiWindowSettings@@@@QEAAPEAUImGuiWindowSettings@@_K@Z ; ImChunkStream<ImGuiWindowSettings>::alloc_chunk
PUBLIC	?begin@?$ImChunkStream@UImGuiWindowSettings@@@@QEAAPEAUImGuiWindowSettings@@XZ ; ImChunkStream<ImGuiWindowSettings>::begin
PUBLIC	?next_chunk@?$ImChunkStream@UImGuiWindowSettings@@@@QEAAPEAUImGuiWindowSettings@@PEAU2@@Z ; ImChunkStream<ImGuiWindowSettings>::next_chunk
PUBLIC	?chunk_size@?$ImChunkStream@UImGuiWindowSettings@@@@QEAAHPEBUImGuiWindowSettings@@@Z ; ImChunkStream<ImGuiWindowSettings>::chunk_size
PUBLIC	?end@?$ImChunkStream@UImGuiWindowSettings@@@@QEAAPEAUImGuiWindowSettings@@XZ ; ImChunkStream<ImGuiWindowSettings>::end
PUBLIC	?offset_from_ptr@?$ImChunkStream@UImGuiWindowSettings@@@@QEAAHPEBUImGuiWindowSettings@@@Z ; ImChunkStream<ImGuiWindowSettings>::offset_from_ptr
PUBLIC	?ptr_from_offset@?$ImChunkStream@UImGuiWindowSettings@@@@QEAAPEAUImGuiWindowSettings@@H@Z ; ImChunkStream<ImGuiWindowSettings>::ptr_from_offset
PUBLIC	??0?$ImChunkStream@UImGuiWindowSettings@@@@QEAA@XZ ; ImChunkStream<ImGuiWindowSettings>::ImChunkStream<ImGuiWindowSettings>
PUBLIC	??1?$ImChunkStream@UImGuiWindowSettings@@@@QEAA@XZ ; ImChunkStream<ImGuiWindowSettings>::~ImChunkStream<ImGuiWindowSettings>
PUBLIC	?size@?$ImChunkStream@UImGuiTableSettings@@@@QEBAHXZ ; ImChunkStream<ImGuiTableSettings>::size
PUBLIC	?begin@?$ImChunkStream@UImGuiTableSettings@@@@QEAAPEAUImGuiTableSettings@@XZ ; ImChunkStream<ImGuiTableSettings>::begin
PUBLIC	?next_chunk@?$ImChunkStream@UImGuiTableSettings@@@@QEAAPEAUImGuiTableSettings@@PEAU2@@Z ; ImChunkStream<ImGuiTableSettings>::next_chunk
PUBLIC	?chunk_size@?$ImChunkStream@UImGuiTableSettings@@@@QEAAHPEBUImGuiTableSettings@@@Z ; ImChunkStream<ImGuiTableSettings>::chunk_size
PUBLIC	?end@?$ImChunkStream@UImGuiTableSettings@@@@QEAAPEAUImGuiTableSettings@@XZ ; ImChunkStream<ImGuiTableSettings>::end
PUBLIC	??0?$ImChunkStream@UImGuiTableSettings@@@@QEAA@XZ ; ImChunkStream<ImGuiTableSettings>::ImChunkStream<ImGuiTableSettings>
PUBLIC	??1?$ImChunkStream@UImGuiTableSettings@@@@QEAA@XZ ; ImChunkStream<ImGuiTableSettings>::~ImChunkStream<ImGuiTableSettings>
PUBLIC	??0?$ImVector@UImGuiContextHook@@@@QEAA@XZ	; ImVector<ImGuiContextHook>::ImVector<ImGuiContextHook>
PUBLIC	??1?$ImVector@UImGuiContextHook@@@@QEAA@XZ	; ImVector<ImGuiContextHook>::~ImVector<ImGuiContextHook>
PUBLIC	??A?$ImVector@UImGuiContextHook@@@@QEAAAEAUImGuiContextHook@@H@Z ; ImVector<ImGuiContextHook>::operator[]
PUBLIC	?back@?$ImVector@UImGuiContextHook@@@@QEAAAEAUImGuiContextHook@@XZ ; ImVector<ImGuiContextHook>::back
PUBLIC	?_grow_capacity@?$ImVector@UImGuiContextHook@@@@QEBAHH@Z ; ImVector<ImGuiContextHook>::_grow_capacity
PUBLIC	?reserve@?$ImVector@UImGuiContextHook@@@@QEAAXH@Z ; ImVector<ImGuiContextHook>::reserve
PUBLIC	?push_back@?$ImVector@UImGuiContextHook@@@@QEAAXAEBUImGuiContextHook@@@Z ; ImVector<ImGuiContextHook>::push_back
PUBLIC	?erase@?$ImVector@UImGuiContextHook@@@@QEAAPEAUImGuiContextHook@@PEBU2@@Z ; ImVector<ImGuiContextHook>::erase
PUBLIC	??0ImGuiContext@@QEAA@PEAUImFontAtlas@@@Z	; ImGuiContext::ImGuiContext
PUBLIC	??1ImGuiContext@@QEAA@XZ			; ImGuiContext::~ImGuiContext
PUBLIC	??_GImGuiContext@@QEAAPEAXI@Z			; ImGuiContext::`scalar deleting destructor'
PUBLIC	??0ImGuiWindowTempData@@QEAA@XZ			; ImGuiWindowTempData::ImGuiWindowTempData
PUBLIC	??1ImGuiWindowTempData@@QEAA@XZ			; ImGuiWindowTempData::~ImGuiWindowTempData
PUBLIC	??0?$ImVector@UImGuiOldColumns@@@@QEAA@XZ	; ImVector<ImGuiOldColumns>::ImVector<ImGuiOldColumns>
PUBLIC	??1?$ImVector@UImGuiOldColumns@@@@QEAA@XZ	; ImVector<ImGuiOldColumns>::~ImVector<ImGuiOldColumns>
PUBLIC	?clear@?$ImVector@UImGuiOldColumns@@@@QEAAXXZ	; ImVector<ImGuiOldColumns>::clear
PUBLIC	?clear_destruct@?$ImVector@UImGuiOldColumns@@@@QEAAXXZ ; ImVector<ImGuiOldColumns>::clear_destruct
PUBLIC	??A?$ImVector@UImGuiOldColumns@@@@QEAAAEAUImGuiOldColumns@@H@Z ; ImVector<ImGuiOldColumns>::operator[]
PUBLIC	??0ImGuiWindow@@QEAA@PEAUImGuiContext@@PEBD@Z	; ImGuiWindow::ImGuiWindow
PUBLIC	??1ImGuiWindow@@QEAA@XZ				; ImGuiWindow::~ImGuiWindow
PUBLIC	?GetID@ImGuiWindow@@QEAAIPEBD0@Z		; ImGuiWindow::GetID
PUBLIC	?GetID@ImGuiWindow@@QEAAIPEBX@Z			; ImGuiWindow::GetID
PUBLIC	?GetID@ImGuiWindow@@QEAAIH@Z			; ImGuiWindow::GetID
PUBLIC	?GetIDNoKeepAlive@ImGuiWindow@@QEAAIPEBD0@Z	; ImGuiWindow::GetIDNoKeepAlive
PUBLIC	?GetIDNoKeepAlive@ImGuiWindow@@QEAAIPEBX@Z	; ImGuiWindow::GetIDNoKeepAlive
PUBLIC	?GetIDNoKeepAlive@ImGuiWindow@@QEAAIH@Z		; ImGuiWindow::GetIDNoKeepAlive
PUBLIC	?GetIDFromRectangle@ImGuiWindow@@QEAAIAEBUImRect@@@Z ; ImGuiWindow::GetIDFromRectangle
PUBLIC	?Rect@ImGuiWindow@@QEBA?AUImRect@@XZ		; ImGuiWindow::Rect
PUBLIC	?CalcFontSize@ImGuiWindow@@QEBAMXZ		; ImGuiWindow::CalcFontSize
PUBLIC	?TitleBarHeight@ImGuiWindow@@QEBAMXZ		; ImGuiWindow::TitleBarHeight
PUBLIC	?TitleBarRect@ImGuiWindow@@QEBA?AUImRect@@XZ	; ImGuiWindow::TitleBarRect
PUBLIC	?MenuBarHeight@ImGuiWindow@@QEBAMXZ		; ImGuiWindow::MenuBarHeight
PUBLIC	?MenuBarRect@ImGuiWindow@@QEBA?AUImRect@@XZ	; ImGuiWindow::MenuBarRect
PUBLIC	??_GImGuiWindow@@QEAAPEAXI@Z			; ImGuiWindow::`scalar deleting destructor'
PUBLIC	??1?$ImVector@UImGuiTabItem@@@@QEAA@XZ		; ImVector<ImGuiTabItem>::~ImVector<ImGuiTabItem>
PUBLIC	??A?$ImVector@UImGuiTabItem@@@@QEAAAEAUImGuiTabItem@@H@Z ; ImVector<ImGuiTabItem>::operator[]
PUBLIC	?GetTabName@ImGuiTabBar@@QEBAPEBDPEBUImGuiTabItem@@@Z ; ImGuiTabBar::GetTabName
PUBLIC	??1ImGuiTabBar@@QEAA@XZ				; ImGuiTabBar::~ImGuiTabBar
PUBLIC	??_GImGuiTabBar@@QEAAPEAXI@Z			; ImGuiTabBar::`scalar deleting destructor'
PUBLIC	??A?$ImSpan@UImGuiTableColumn@@@@QEAAAEAUImGuiTableColumn@@H@Z ; ImSpan<ImGuiTableColumn>::operator[]
PUBLIC	??1?$ImVector@UImGuiTableColumnSortSpecs@@@@QEAA@XZ ; ImVector<ImGuiTableColumnSortSpecs>::~ImVector<ImGuiTableColumnSortSpecs>
PUBLIC	??1ImGuiTable@@QEAA@XZ				; ImGuiTable::~ImGuiTable
PUBLIC	??_GImGuiTable@@QEAAPEAXI@Z			; ImGuiTable::`scalar deleting destructor'
PUBLIC	??1ImGuiTableTempData@@QEAA@XZ			; ImGuiTableTempData::~ImGuiTableTempData
PUBLIC	??_GImGuiTableTempData@@QEAAPEAXI@Z		; ImGuiTableTempData::`scalar deleting destructor'
PUBLIC	?GetCurrentWindowRead@ImGui@@YAPEAUImGuiWindow@@XZ ; ImGui::GetCurrentWindowRead
PUBLIC	?GetCurrentWindow@ImGui@@YAPEAUImGuiWindow@@XZ	; ImGui::GetCurrentWindow
PUBLIC	?FindWindowByID@ImGui@@YAPEAUImGuiWindow@@I@Z	; ImGui::FindWindowByID
PUBLIC	?FindWindowByName@ImGui@@YAPEAUImGuiWindow@@PEBD@Z ; ImGui::FindWindowByName
PUBLIC	?UpdateWindowParentAndRootLinks@ImGui@@YAXPEAUImGuiWindow@@H0@Z ; ImGui::UpdateWindowParentAndRootLinks
PUBLIC	?CalcWindowNextAutoFitSize@ImGui@@YA?AUImVec2@@PEAUImGuiWindow@@@Z ; ImGui::CalcWindowNextAutoFitSize
PUBLIC	?IsWindowChildOf@ImGui@@YA_NPEAUImGuiWindow@@0@Z ; ImGui::IsWindowChildOf
PUBLIC	?IsWindowAbove@ImGui@@YA_NPEAUImGuiWindow@@0@Z	; ImGui::IsWindowAbove
PUBLIC	?IsWindowNavFocusable@ImGui@@YA_NPEAUImGuiWindow@@@Z ; ImGui::IsWindowNavFocusable
PUBLIC	?SetWindowPos@ImGui@@YAXPEAUImGuiWindow@@AEBUImVec2@@H@Z ; ImGui::SetWindowPos
PUBLIC	?SetWindowSize@ImGui@@YAXPEAUImGuiWindow@@AEBUImVec2@@H@Z ; ImGui::SetWindowSize
PUBLIC	?SetWindowCollapsed@ImGui@@YAXPEAUImGuiWindow@@_NH@Z ; ImGui::SetWindowCollapsed
PUBLIC	?SetWindowHitTestHole@ImGui@@YAXPEAUImGuiWindow@@AEBUImVec2@@1@Z ; ImGui::SetWindowHitTestHole
PUBLIC	?FocusWindow@ImGui@@YAXPEAUImGuiWindow@@@Z	; ImGui::FocusWindow
PUBLIC	?FocusTopMostWindowUnderOne@ImGui@@YAXPEAUImGuiWindow@@0@Z ; ImGui::FocusTopMostWindowUnderOne
PUBLIC	?BringWindowToFocusFront@ImGui@@YAXPEAUImGuiWindow@@@Z ; ImGui::BringWindowToFocusFront
PUBLIC	?BringWindowToDisplayFront@ImGui@@YAXPEAUImGuiWindow@@@Z ; ImGui::BringWindowToDisplayFront
PUBLIC	?BringWindowToDisplayBack@ImGui@@YAXPEAUImGuiWindow@@@Z ; ImGui::BringWindowToDisplayBack
PUBLIC	?SetCurrentFont@ImGui@@YAXPEAUImFont@@@Z	; ImGui::SetCurrentFont
PUBLIC	?GetDefaultFont@ImGui@@YAPEAUImFont@@XZ		; ImGui::GetDefaultFont
PUBLIC	?GetForegroundDrawList@ImGui@@YAPEAUImDrawList@@PEAUImGuiWindow@@@Z ; ImGui::GetForegroundDrawList
PUBLIC	?GetBackgroundDrawList@ImGui@@YAPEAUImDrawList@@PEAUImGuiViewport@@@Z ; ImGui::GetBackgroundDrawList
PUBLIC	?GetForegroundDrawList@ImGui@@YAPEAUImDrawList@@PEAUImGuiViewport@@@Z ; ImGui::GetForegroundDrawList
PUBLIC	?Initialize@ImGui@@YAXPEAUImGuiContext@@@Z	; ImGui::Initialize
PUBLIC	?Shutdown@ImGui@@YAXPEAUImGuiContext@@@Z	; ImGui::Shutdown
PUBLIC	?UpdateHoveredWindowAndCaptureFlags@ImGui@@YAXXZ ; ImGui::UpdateHoveredWindowAndCaptureFlags
PUBLIC	?StartMouseMovingWindow@ImGui@@YAXPEAUImGuiWindow@@@Z ; ImGui::StartMouseMovingWindow
PUBLIC	?UpdateMouseMovingWindowNewFrame@ImGui@@YAXXZ	; ImGui::UpdateMouseMovingWindowNewFrame
PUBLIC	?UpdateMouseMovingWindowEndFrame@ImGui@@YAXXZ	; ImGui::UpdateMouseMovingWindowEndFrame
PUBLIC	?AddContextHook@ImGui@@YAIPEAUImGuiContext@@PEBUImGuiContextHook@@@Z ; ImGui::AddContextHook
PUBLIC	?RemoveContextHook@ImGui@@YAXPEAUImGuiContext@@I@Z ; ImGui::RemoveContextHook
PUBLIC	?CallContextHooks@ImGui@@YAXPEAUImGuiContext@@W4ImGuiContextHookType@@@Z ; ImGui::CallContextHooks
PUBLIC	?MarkIniSettingsDirty@ImGui@@YAXXZ		; ImGui::MarkIniSettingsDirty
PUBLIC	?MarkIniSettingsDirty@ImGui@@YAXPEAUImGuiWindow@@@Z ; ImGui::MarkIniSettingsDirty
PUBLIC	?ClearIniSettings@ImGui@@YAXXZ			; ImGui::ClearIniSettings
PUBLIC	?CreateNewWindowSettings@ImGui@@YAPEAUImGuiWindowSettings@@PEBD@Z ; ImGui::CreateNewWindowSettings
PUBLIC	?FindWindowSettings@ImGui@@YAPEAUImGuiWindowSettings@@I@Z ; ImGui::FindWindowSettings
PUBLIC	?FindOrCreateWindowSettings@ImGui@@YAPEAUImGuiWindowSettings@@PEBD@Z ; ImGui::FindOrCreateWindowSettings
PUBLIC	?FindSettingsHandler@ImGui@@YAPEAUImGuiSettingsHandler@@PEBD@Z ; ImGui::FindSettingsHandler
PUBLIC	?SetNextWindowScroll@ImGui@@YAXAEBUImVec2@@@Z	; ImGui::SetNextWindowScroll
PUBLIC	?SetScrollX@ImGui@@YAXPEAUImGuiWindow@@M@Z	; ImGui::SetScrollX
PUBLIC	?SetScrollY@ImGui@@YAXPEAUImGuiWindow@@M@Z	; ImGui::SetScrollY
PUBLIC	?SetScrollFromPosX@ImGui@@YAXPEAUImGuiWindow@@MM@Z ; ImGui::SetScrollFromPosX
PUBLIC	?SetScrollFromPosY@ImGui@@YAXPEAUImGuiWindow@@MM@Z ; ImGui::SetScrollFromPosY
PUBLIC	?ScrollToBringRectIntoView@ImGui@@YA?AUImVec2@@PEAUImGuiWindow@@AEBUImRect@@@Z ; ImGui::ScrollToBringRectIntoView
PUBLIC	?SetActiveID@ImGui@@YAXIPEAUImGuiWindow@@@Z	; ImGui::SetActiveID
PUBLIC	?SetFocusID@ImGui@@YAXIPEAUImGuiWindow@@@Z	; ImGui::SetFocusID
PUBLIC	?ClearActiveID@ImGui@@YAXXZ			; ImGui::ClearActiveID
PUBLIC	?GetHoveredID@ImGui@@YAIXZ			; ImGui::GetHoveredID
PUBLIC	?SetHoveredID@ImGui@@YAXI@Z			; ImGui::SetHoveredID
PUBLIC	?KeepAliveID@ImGui@@YAXI@Z			; ImGui::KeepAliveID
PUBLIC	?MarkItemEdited@ImGui@@YAXI@Z			; ImGui::MarkItemEdited
PUBLIC	?PushOverrideID@ImGui@@YAXI@Z			; ImGui::PushOverrideID
PUBLIC	?GetIDWithSeed@ImGui@@YAIPEBD0I@Z		; ImGui::GetIDWithSeed
PUBLIC	?ItemSize@ImGui@@YAXAEBUImVec2@@M@Z		; ImGui::ItemSize
PUBLIC	?ItemSize@ImGui@@YAXAEBUImRect@@M@Z		; ImGui::ItemSize
PUBLIC	?ItemAdd@ImGui@@YA_NAEBUImRect@@IPEBU2@H@Z	; ImGui::ItemAdd
PUBLIC	?ItemHoverable@ImGui@@YA_NAEBUImRect@@I@Z	; ImGui::ItemHoverable
PUBLIC	?ItemFocusable@ImGui@@YAXPEAUImGuiWindow@@I@Z	; ImGui::ItemFocusable
PUBLIC	?IsClippedEx@ImGui@@YA_NAEBUImRect@@I_N@Z	; ImGui::IsClippedEx
PUBLIC	?SetLastItemData@ImGui@@YAXPEAUImGuiWindow@@IHAEBUImRect@@@Z ; ImGui::SetLastItemData
PUBLIC	?CalcItemSize@ImGui@@YA?AUImVec2@@U2@MM@Z	; ImGui::CalcItemSize
PUBLIC	?CalcWrapWidthForPos@ImGui@@YAMAEBUImVec2@@M@Z	; ImGui::CalcWrapWidthForPos
PUBLIC	?PushMultiItemsWidths@ImGui@@YAXHM@Z		; ImGui::PushMultiItemsWidths
PUBLIC	?PushItemFlag@ImGui@@YAXH_N@Z			; ImGui::PushItemFlag
PUBLIC	?PopItemFlag@ImGui@@YAXXZ			; ImGui::PopItemFlag
PUBLIC	?PushDisabled@ImGui@@YAXXZ			; ImGui::PushDisabled
PUBLIC	?PopDisabled@ImGui@@YAXXZ			; ImGui::PopDisabled
PUBLIC	?IsItemToggledSelection@ImGui@@YA_NXZ		; ImGui::IsItemToggledSelection
PUBLIC	?GetContentRegionMaxAbs@ImGui@@YA?AUImVec2@@XZ	; ImGui::GetContentRegionMaxAbs
PUBLIC	?LogBegin@ImGui@@YAXW4ImGuiLogType@@H@Z		; ImGui::LogBegin
PUBLIC	?LogToBuffer@ImGui@@YAXH@Z			; ImGui::LogToBuffer
PUBLIC	?LogRenderedText@ImGui@@YAXPEBUImVec2@@PEBD1@Z	; ImGui::LogRenderedText
PUBLIC	?LogSetNextTextDecoration@ImGui@@YAXPEBD0@Z	; ImGui::LogSetNextTextDecoration
PUBLIC	?BeginChildEx@ImGui@@YA_NPEBDIAEBUImVec2@@_NH@Z	; ImGui::BeginChildEx
PUBLIC	?OpenPopupEx@ImGui@@YAXIH@Z			; ImGui::OpenPopupEx
PUBLIC	?ClosePopupToLevel@ImGui@@YAXH_N@Z		; ImGui::ClosePopupToLevel
PUBLIC	?ClosePopupsOverWindow@ImGui@@YAXPEAUImGuiWindow@@_N@Z ; ImGui::ClosePopupsOverWindow
PUBLIC	?IsPopupOpen@ImGui@@YA_NIH@Z			; ImGui::IsPopupOpen
PUBLIC	?BeginPopupEx@ImGui@@YA_NIH@Z			; ImGui::BeginPopupEx
PUBLIC	?BeginTooltipEx@ImGui@@YAXHH@Z			; ImGui::BeginTooltipEx
PUBLIC	?GetPopupAllowedExtentRect@ImGui@@YA?AUImRect@@PEAUImGuiWindow@@@Z ; ImGui::GetPopupAllowedExtentRect
PUBLIC	?GetTopMostPopupModal@ImGui@@YAPEAUImGuiWindow@@XZ ; ImGui::GetTopMostPopupModal
PUBLIC	?FindBestWindowPosForPopup@ImGui@@YA?AUImVec2@@PEAUImGuiWindow@@@Z ; ImGui::FindBestWindowPosForPopup
PUBLIC	?FindBestWindowPosForPopupEx@ImGui@@YA?AUImVec2@@AEBU2@0PEAHAEBUImRect@@2W4ImGuiPopupPositionPolicy@@@Z ; ImGui::FindBestWindowPosForPopupEx
PUBLIC	?NavInitWindow@ImGui@@YAXPEAUImGuiWindow@@_N@Z	; ImGui::NavInitWindow
PUBLIC	?NavMoveRequestButNoResultYet@ImGui@@YA_NXZ	; ImGui::NavMoveRequestButNoResultYet
PUBLIC	?NavMoveRequestCancel@ImGui@@YAXXZ		; ImGui::NavMoveRequestCancel
PUBLIC	?NavMoveRequestForward@ImGui@@YAXHHAEBUImRect@@H@Z ; ImGui::NavMoveRequestForward
PUBLIC	?NavMoveRequestTryWrapping@ImGui@@YAXPEAUImGuiWindow@@H@Z ; ImGui::NavMoveRequestTryWrapping
PUBLIC	?GetNavInputAmount@ImGui@@YAMHW4ImGuiInputReadMode@@@Z ; ImGui::GetNavInputAmount
PUBLIC	?GetNavInputAmount2d@ImGui@@YA?AUImVec2@@HW4ImGuiInputReadMode@@MM@Z ; ImGui::GetNavInputAmount2d
PUBLIC	?CalcTypematicRepeatAmount@ImGui@@YAHMMMM@Z	; ImGui::CalcTypematicRepeatAmount
PUBLIC	?ActivateItem@ImGui@@YAXI@Z			; ImGui::ActivateItem
PUBLIC	?SetNavID@ImGui@@YAXIW4ImGuiNavLayer@@IAEBUImRect@@@Z ; ImGui::SetNavID
PUBLIC	?PushFocusScope@ImGui@@YAXI@Z			; ImGui::PushFocusScope
PUBLIC	?PopFocusScope@ImGui@@YAXXZ			; ImGui::PopFocusScope
PUBLIC	?SetItemUsingMouseWheel@ImGui@@YAXXZ		; ImGui::SetItemUsingMouseWheel
PUBLIC	?SetActiveIdUsingNavAndKeys@ImGui@@YAXXZ	; ImGui::SetActiveIdUsingNavAndKeys
PUBLIC	?IsActiveIdUsingNavDir@ImGui@@YA_NH@Z		; ImGui::IsActiveIdUsingNavDir
PUBLIC	?IsActiveIdUsingNavInput@ImGui@@YA_NH@Z		; ImGui::IsActiveIdUsingNavInput
PUBLIC	?IsActiveIdUsingKey@ImGui@@YA_NH@Z		; ImGui::IsActiveIdUsingKey
PUBLIC	?IsMouseDragPastThreshold@ImGui@@YA_NHM@Z	; ImGui::IsMouseDragPastThreshold
PUBLIC	?IsKeyPressedMap@ImGui@@YA_NH_N@Z		; ImGui::IsKeyPressedMap
PUBLIC	?IsNavInputDown@ImGui@@YA_NH@Z			; ImGui::IsNavInputDown
PUBLIC	?IsNavInputTest@ImGui@@YA_NHW4ImGuiInputReadMode@@@Z ; ImGui::IsNavInputTest
PUBLIC	?GetMergedKeyModFlags@ImGui@@YAHXZ		; ImGui::GetMergedKeyModFlags
PUBLIC	?BeginDragDropTargetCustom@ImGui@@YA_NAEBUImRect@@I@Z ; ImGui::BeginDragDropTargetCustom
PUBLIC	?ClearDragDrop@ImGui@@YAXXZ			; ImGui::ClearDragDrop
PUBLIC	?IsDragDropPayloadBeingAccepted@ImGui@@YA_NXZ	; ImGui::IsDragDropPayloadBeingAccepted
PUBLIC	?RenderText@ImGui@@YAXUImVec2@@PEBD1_N@Z	; ImGui::RenderText
PUBLIC	?RenderTextWrapped@ImGui@@YAXUImVec2@@PEBD1M@Z	; ImGui::RenderTextWrapped
PUBLIC	?RenderTextClipped@ImGui@@YAXAEBUImVec2@@0PEBD1PEBU2@0PEBUImRect@@@Z ; ImGui::RenderTextClipped
PUBLIC	?RenderTextClippedEx@ImGui@@YAXPEAUImDrawList@@AEBUImVec2@@1PEBD2PEBU3@1PEBUImRect@@@Z ; ImGui::RenderTextClippedEx
PUBLIC	?RenderTextEllipsis@ImGui@@YAXPEAUImDrawList@@AEBUImVec2@@1MMPEBD2PEBU3@@Z ; ImGui::RenderTextEllipsis
PUBLIC	?RenderFrame@ImGui@@YAXUImVec2@@0I_NM@Z		; ImGui::RenderFrame
PUBLIC	?RenderFrameBorder@ImGui@@YAXUImVec2@@0M@Z	; ImGui::RenderFrameBorder
PUBLIC	?RenderNavHighlight@ImGui@@YAXAEBUImRect@@IH@Z	; ImGui::RenderNavHighlight
PUBLIC	?FindRenderedTextEnd@ImGui@@YAPEBDPEBD0@Z	; ImGui::FindRenderedTextEnd
PUBLIC	?GetWindowResizeCornerID@ImGui@@YAIPEAUImGuiWindow@@H@Z ; ImGui::GetWindowResizeCornerID
PUBLIC	?GetWindowResizeBorderID@ImGui@@YAIPEAUImGuiWindow@@H@Z ; ImGui::GetWindowResizeBorderID
PUBLIC	?GcCompactTransientMiscBuffers@ImGui@@YAXXZ	; ImGui::GcCompactTransientMiscBuffers
PUBLIC	?GcCompactTransientWindowBuffers@ImGui@@YAXPEAUImGuiWindow@@@Z ; ImGui::GcCompactTransientWindowBuffers
PUBLIC	?GcAwakeTransientWindowBuffers@ImGui@@YAXPEAUImGuiWindow@@@Z ; ImGui::GcAwakeTransientWindowBuffers
PUBLIC	?ErrorCheckEndFrameRecover@ImGui@@YAXP6AXPEAXPEBDZZ0@Z ; ImGui::ErrorCheckEndFrameRecover
PUBLIC	?DebugStartItemPicker@ImGui@@YAXXZ		; ImGui::DebugStartItemPicker
PUBLIC	?ShowFontAtlas@ImGui@@YAXPEAUImFontAtlas@@@Z	; ImGui::ShowFontAtlas
PUBLIC	?DebugNodeColumns@ImGui@@YAXPEAUImGuiOldColumns@@@Z ; ImGui::DebugNodeColumns
PUBLIC	?DebugNodeDrawList@ImGui@@YAXPEAUImGuiWindow@@PEBUImDrawList@@PEBD@Z ; ImGui::DebugNodeDrawList
PUBLIC	?DebugNodeDrawCmdShowMeshAndBoundingBox@ImGui@@YAXPEAUImDrawList@@PEBU2@PEBUImDrawCmd@@_N3@Z ; ImGui::DebugNodeDrawCmdShowMeshAndBoundingBox
PUBLIC	?DebugNodeFont@ImGui@@YAXPEAUImFont@@@Z		; ImGui::DebugNodeFont
PUBLIC	?DebugNodeStorage@ImGui@@YAXPEAUImGuiStorage@@PEBD@Z ; ImGui::DebugNodeStorage
PUBLIC	?DebugNodeTabBar@ImGui@@YAXPEAUImGuiTabBar@@PEBD@Z ; ImGui::DebugNodeTabBar
PUBLIC	?DebugNodeWindow@ImGui@@YAXPEAUImGuiWindow@@PEBD@Z ; ImGui::DebugNodeWindow
PUBLIC	?DebugNodeWindowSettings@ImGui@@YAXPEAUImGuiWindowSettings@@@Z ; ImGui::DebugNodeWindowSettings
PUBLIC	?DebugNodeWindowsList@ImGui@@YAXPEAU?$ImVector@PEAUImGuiWindow@@@@PEBD@Z ; ImGui::DebugNodeWindowsList
PUBLIC	?DebugNodeViewport@ImGui@@YAXPEAUImGuiViewportP@@@Z ; ImGui::DebugNodeViewport
PUBLIC	?DebugRenderViewportThumbnail@ImGui@@YAXPEAUImDrawList@@PEAUImGuiViewportP@@AEBUImRect@@@Z ; ImGui::DebugRenderViewportThumbnail
PUBLIC	?GetVarPtr@ImGuiStyleVarInfo@@QEBAPEAXPEAUImGuiStyle@@@Z ; ImGuiStyleVarInfo::GetVarPtr
PUBLIC	??$IM_DELETE@D@@YAXPEAD@Z			; IM_DELETE<char>
PUBLIC	??$IM_DELETE@UImGuiContext@@@@YAXPEAUImGuiContext@@@Z ; IM_DELETE<ImGuiContext>
PUBLIC	??$IM_DELETE@UImFontAtlas@@@@YAXPEAUImFontAtlas@@@Z ; IM_DELETE<ImFontAtlas>
PUBLIC	??$IM_DELETE@UImGuiViewportP@@@@YAXPEAUImGuiViewportP@@@Z ; IM_DELETE<ImGuiViewportP>
PUBLIC	??$IM_DELETE@UImGuiWindow@@@@YAXPEAUImGuiWindow@@@Z ; IM_DELETE<ImGuiWindow>
PUBLIC	__JustMyCode_Default
PUBLIC	??_C@_1FM@JNPAKPFE@?$AAC?$AA?3?$AA?2?$AAd?$AAe?$AAv?$AA?2?$AAR?$AAa?$AAi?$AAs?$AAi?$AAn?$AA?2?$AAR@ ; `string'
PUBLIC	??_C@_1BC@IIGHOJGM@?$AAi?$AAd?$AAx?$AA?5?$AA?$DM?$AA?$DN?$AA?5?$AA1@ ; `string'
PUBLIC	?_OptionsStorage@?1??__local_stdio_printf_options@@9@4_KA ; `__local_stdio_printf_options'::`2'::_OptionsStorage
PUBLIC	?_OptionsStorage@?1??__local_stdio_scanf_options@@9@4_KA ; `__local_stdio_scanf_options'::`2'::_OptionsStorage
PUBLIC	??_C@_1GO@IOCEAJPC@?$AAC?$AA?3?$AA?2?$AAd?$AAe?$AAv?$AA?2?$AAR?$AAa?$AAi?$AAs?$AAi?$AAn?$AA?2?$AAR@ ; `string'
PUBLIC	??_C@_1HM@PJKJLKEH@?$AAt?$AAa?$AAb?$AA?9?$AA?$DO?$AAN?$AAa?$AAm?$AAe?$AAO?$AAf?$AAf?$AAs?$AAe?$AAt@ ; `string'
PUBLIC	??_C@_13COJANIEC@?$AA0@				; `string'
PUBLIC	?__LINE__Var@?0??IsActiveIdUsingKey@ImGui@@YA_NH@Z@4JA ; `ImGui::IsActiveIdUsingKey'::`1'::__LINE__Var
PUBLIC	??_C@_1BC@LLDLMHEG@?$AAk?$AAe?$AAy?$AA?5?$AA?$DM?$AA?5?$AA6?$AA4@ ; `string'
PUBLIC	??_C@_09BJIHMJFE@imgui?4ini@			; `string'
PUBLIC	??_C@_0O@HCOAADPE@imgui_log?4txt@		; `string'
PUBLIC	?__LINE__Var@?0??ImBezierCubicClosestPoint@@YA?AUImVec2@@AEBU2@0000H@Z@4JA ; `ImBezierCubicClosestPoint'::`1'::__LINE__Var
PUBLIC	??_C@_1GA@DBDODNOH@?$AAC?$AA?3?$AA?2?$AAd?$AAe?$AAv?$AA?2?$AAR?$AAa?$AAi?$AAs?$AAi?$AAn?$AA?2?$AAR@ ; `string'
PUBLIC	??_C@_1CC@OJIGCPJC@?$AAn?$AAu?$AAm?$AA_?$AAs?$AAe?$AAg?$AAm?$AAe?$AAn?$AAt?$AAs?$AA?5?$AA?$DO?$AA?5@ ; `string'
PUBLIC	?__LINE__Var@?0??ImBezierCubicClosestPointCasteljau@@YA?AUImVec2@@AEBU2@0000M@Z@4JA ; `ImBezierCubicClosestPointCasteljau'::`1'::__LINE__Var
PUBLIC	??_C@_1CA@PELHDBHK@?$AAt?$AAe?$AAs?$AAs?$AA_?$AAt?$AAo?$AAl?$AA?5?$AA?$DO?$AA?5?$AA0?$AA?4?$AA0?$AAf@ ; `string'
PUBLIC	?__LINE__Var@?0??ImFileLoadToMemory@@YAPEAXPEBD0PEA_KH@Z@4JA ; `ImFileLoadToMemory'::`1'::__LINE__Var
PUBLIC	??_C@_1CC@MDBCLFOC@?$AAf?$AAi?$AAl?$AAe?$AAn?$AAa?$AAm?$AAe?$AA?5?$AA?$CG?$AA?$CG?$AA?5?$AAm?$AAo?$AAd@ ; `string'
PUBLIC	??_C@_00CNPNBAHC@@				; `string'
PUBLIC	?__LINE__Var@?0???1ImGuiListClipper@@QEAA@XZ@4JA ; `ImGuiListClipper::~ImGuiListClipper'::`1'::__LINE__Var
PUBLIC	??_C@_0DA@BHONNBHO@Forgot?5to?5call?5End?$CI?$CJ?0?5or?5to?5Ste@ ; `string'
PUBLIC	??_C@_1IM@IGMMBPBP@?$AAI?$AAt?$AAe?$AAm?$AAs?$AAC?$AAo?$AAu?$AAn?$AAt?$AA?5?$AA?$DN?$AA?$DN?$AA?5?$AA?9@ ; `string'
PUBLIC	?__LINE__Var@?0??Step@ImGuiListClipper@@QEAA_NXZ@4JA ; `ImGuiListClipper::Step'::`1'::__LINE__Var
PUBLIC	??_C@_1CI@EMDFCODN@?$AAI?$AAt?$AAe?$AAm?$AAs?$AAH?$AAe?$AAi?$AAg?$AAh?$AAt?$AA?5?$AA?$DM?$AA?$DN?$AA?5@ ; `string'
PUBLIC	??_C@_0FA@HACOCONG@Unable?5to?5calculate?5item?5height@ ; `string'
PUBLIC	??_C@_1NA@DHHMFPNJ@?$AAI?$AAt?$AAe?$AAm?$AAs?$AAH?$AAe?$AAi?$AAg?$AAh?$AAt?$AA?5?$AA?$DO?$AA?5?$AA0@ ; `string'
PUBLIC	??_C@_1CG@FEFCFAEB@?$AAI?$AAt?$AAe?$AAm?$AAs?$AAH?$AAe?$AAi?$AAg?$AAh?$AAt?$AA?5?$AA?$DO?$AA?5?$AA0@ ; `string'
PUBLIC	?__LINE__Var@?0??GetStyle@ImGui@@YAAEAUImGuiStyle@@XZ@4JA ; `ImGui::GetStyle'::`1'::__LINE__Var
PUBLIC	??_C@_0FJ@JBAFLEHG@No?5current?5context?4?5Did?5you?5cal@ ; `string'
PUBLIC	??_C@_1NE@MGLAEJCB@?$AAG?$AAI?$AAm?$AAG?$AAu?$AAi?$AA?5?$AA?$CB?$AA?$DN?$AA?5?$AA0?$AA?5?$AA?$CG?$AA?$CG?$AA?5@ ; `string'
PUBLIC	?__LINE__Var@?0??GetStyleVarInfo@@YAPEBUImGuiStyleVarInfo@@H@Z@4JA ; `GetStyleVarInfo'::`1'::__LINE__Var
PUBLIC	??_C@_1EM@KGOACLAI@?$AAi?$AAd?$AAx?$AA?5?$AA?$DO?$AA?$DN?$AA?5?$AA0?$AA?5?$AA?$CG?$AA?$CG?$AA?5?$AAi?$AAd?$AAx@ ; `string'
PUBLIC	?__LINE__Var@?0??PushStyleVar@ImGui@@YAXHM@Z@4JA ; `ImGui::PushStyleVar'::`1'::__LINE__Var
PUBLIC	??_C@_1JA@BICGEIG@?$AA0?$AA?5?$AA?$CG?$AA?$CG?$AA?5?$AA?$CC?$AAC?$AAa?$AAl?$AAl?$AAe?$AAd?$AA?5?$AAP?$AAu@ ; `string'
PUBLIC	?__LINE__Var@?0??PushStyleVar@ImGui@@YAXHAEBUImVec2@@@Z@4JA ; `ImGui::PushStyleVar'::`1'::__LINE__Var
PUBLIC	??_C@_1JE@EECEMJDC@?$AA0?$AA?5?$AA?$CG?$AA?$CG?$AA?5?$AA?$CC?$AAC?$AAa?$AAl?$AAl?$AAe?$AAd?$AA?5?$AAP?$AAu@ ; `string'
PUBLIC	?__LINE__Var@?0??GetStyleColorName@ImGui@@YAPEBDH@Z@4JA ; `ImGui::GetStyleColorName'::`1'::__LINE__Var
PUBLIC	??_C@_04OJAHODMC@Text@				; `string'
PUBLIC	??_C@_0N@LNHHFNPK@TextDisabled@			; `string'
PUBLIC	??_C@_08DMKFNKPN@WindowBg@			; `string'
PUBLIC	??_C@_07BLEJOHFO@ChildBg@			; `string'
PUBLIC	??_C@_07LKIIIJHA@PopupBg@			; `string'
PUBLIC	??_C@_06CMOGDIBK@Border@			; `string'
PUBLIC	??_C@_0N@DECGFAEC@BorderShadow@			; `string'
PUBLIC	??_C@_07PJIIOGAC@FrameBg@			; `string'
PUBLIC	??_C@_0P@KIOOHHAC@FrameBgHovered@		; `string'
PUBLIC	??_C@_0O@BGDCDDEA@FrameBgActive@		; `string'
PUBLIC	??_C@_07MMLEKCPI@TitleBg@			; `string'
PUBLIC	??_C@_0O@JHBFJHNE@TitleBgActive@		; `string'
PUBLIC	??_C@_0BB@EGCOMBJG@TitleBgCollapsed@		; `string'
PUBLIC	??_C@_09GEKCKLDE@MenuBarBg@			; `string'
PUBLIC	??_C@_0M@MFDHPFJF@ScrollbarBg@			; `string'
PUBLIC	??_C@_0O@HABIDNBE@ScrollbarGrab@		; `string'
PUBLIC	??_C@_0BF@JFEOOMLL@ScrollbarGrabHovered@	; `string'
PUBLIC	??_C@_0BE@GODMFNCF@ScrollbarGrabActive@		; `string'
PUBLIC	??_C@_09DMKAANGE@CheckMark@			; `string'
PUBLIC	??_C@_0L@LAMBADIC@SliderGrab@			; `string'
PUBLIC	??_C@_0BB@HBOBMOMP@SliderGrabActive@		; `string'
PUBLIC	??_C@_06LKBCGDFD@Button@			; `string'
PUBLIC	??_C@_0O@HBCGNIAI@ButtonHovered@		; `string'
PUBLIC	??_C@_0N@IMHOFKJ@ButtonActive@			; `string'
PUBLIC	??_C@_06OENKJGA@Header@				; `string'
PUBLIC	??_C@_0O@HAINNLMC@HeaderHovered@		; `string'
PUBLIC	??_C@_0N@HILFCJOI@HeaderActive@			; `string'
PUBLIC	??_C@_09IBFEOKHN@Separator@			; `string'
PUBLIC	??_C@_0BB@CHICANJA@SeparatorHovered@		; `string'
PUBLIC	??_C@_0BA@BPNGFOJM@SeparatorActive@		; `string'
PUBLIC	??_C@_0L@NGBDNFNJ@ResizeGrip@			; `string'
PUBLIC	??_C@_0BC@NNEDPMNH@ResizeGripHovered@		; `string'
PUBLIC	??_C@_0BB@NBBKHKIC@ResizeGripActive@		; `string'
PUBLIC	??_C@_03IEAKBACE@Tab@				; `string'
PUBLIC	??_C@_0L@JFDLBKBD@TabHovered@			; `string'
PUBLIC	??_C@_09BLMKPFCF@TabActive@			; `string'
PUBLIC	??_C@_0N@KLEENDFP@TabUnfocused@			; `string'
PUBLIC	??_C@_0BD@JMEALEPP@TabUnfocusedActive@		; `string'
PUBLIC	??_C@_09HDJFFJLL@PlotLines@			; `string'
PUBLIC	??_C@_0BB@OMALNJLN@PlotLinesHovered@		; `string'
PUBLIC	??_C@_0O@EEKOCENA@PlotHistogram@		; `string'
PUBLIC	??_C@_0BF@GJALJGDC@PlotHistogramHovered@	; `string'
PUBLIC	??_C@_0O@OAEMMJAA@TableHeaderBg@		; `string'
PUBLIC	??_C@_0BC@EJINMLMM@TableBorderStrong@		; `string'
PUBLIC	??_C@_0BB@IPAPNNJD@TableBorderLight@		; `string'
PUBLIC	??_C@_0L@LLALIFOE@TableRowBg@			; `string'
PUBLIC	??_C@_0O@FGPLHMKP@TableRowBgAlt@		; `string'
PUBLIC	??_C@_0P@IBBLAEBJ@TextSelectedBg@		; `string'
PUBLIC	??_C@_0P@GDDMCLOI@DragDropTarget@		; `string'
PUBLIC	??_C@_0N@ENCIHEPH@NavHighlight@			; `string'
PUBLIC	??_C@_0BG@MCGDEFOI@NavWindowingHighlight@	; `string'
PUBLIC	??_C@_0BC@JHKONDGH@NavWindowingDimBg@		; `string'
PUBLIC	??_C@_0BB@JOEAHKNC@ModalWindowDimBg@		; `string'
PUBLIC	??_C@_07NBCGADJA@Unknown@			; `string'
PUBLIC	??_C@_05EJCOBEBF@?$CDMOVE@			; `string'
PUBLIC	?__LINE__Var@?0???1ImGuiWindow@@QEAA@XZ@4JA	; `ImGuiWindow::~ImGuiWindow'::`1'::__LINE__Var
PUBLIC	??_C@_1DE@OJBIPCGA@?$AAD?$AAr?$AAa?$AAw?$AAL?$AAi?$AAs?$AAt?$AA?5?$AA?$DN?$AA?$DN?$AA?5?$AA?$CG?$AAD?$AAr@ ; `string'
PUBLIC	?__LINE__Var@?0??MarkItemEdited@ImGui@@YAXI@Z@4JA ; `ImGui::MarkItemEdited'::`1'::__LINE__Var
PUBLIC	??_C@_1HA@DMBDPHAC@?$AAg?$AA?4?$AAA?$AAc?$AAt?$AAi?$AAv?$AAe?$AAI?$AAd?$AA?5?$AA?$DN?$AA?$DN?$AA?5?$AAi@ ; `string'
PUBLIC	?__LINE__Var@?0??IsItemHovered@ImGui@@YA_NH@Z@4JA ; `ImGui::IsItemHovered'::`1'::__LINE__Var
PUBLIC	??_C@_1JO@PPIAHLHG@?$AA?$CI?$AAf?$AAl?$AAa?$AAg?$AAs?$AA?5?$AA?$CG?$AA?5?$AA?$CI?$AAI?$AAm?$AAG?$AAu?$AAi@ ; `string'
PUBLIC	?__LINE__Var@?0??ItemFocusable@ImGui@@YAXPEAUImGuiWindow@@I@Z@4JA ; `ImGui::ItemFocusable'::`1'::__LINE__Var
PUBLIC	??_C@_1EO@PKFFHMKO@?$AAi?$AAd?$AA?5?$AA?$CB?$AA?$DN?$AA?5?$AA0?$AA?5?$AA?$CG?$AA?$CG?$AA?5?$AAi?$AAd?$AA?5?$AA?$DN@ ; `string'
PUBLIC	??_C@_08JKMMBCCO@1?484?5WIP@			; `string'
PUBLIC	?__LINE__Var@?0??AddContextHook@ImGui@@YAIPEAUImGuiContext@@PEBUImGuiContextHook@@@Z@4JA ; `ImGui::AddContextHook'::`1'::__LINE__Var
PUBLIC	??_C@_1LO@DGOFJFDA@?$AAh?$AAo?$AAo?$AAk?$AA?9?$AA?$DO?$AAC?$AAa?$AAl?$AAl?$AAb?$AAa?$AAc?$AAk?$AA?5@ ; `string'
PUBLIC	?__LINE__Var@?0??RemoveContextHook@ImGui@@YAXPEAUImGuiContext@@I@Z@4JA ; `ImGui::RemoveContextHook'::`1'::__LINE__Var
PUBLIC	??_C@_1BK@LEOMHFJC@?$AAh?$AAo?$AAo?$AAk?$AA_?$AAi?$AAd?$AA?5?$AA?$CB?$AA?$DN?$AA?5?$AA0@ ; `string'
PUBLIC	?__LINE__Var@?0??GetIO@ImGui@@YAAEAUImGuiIO@@XZ@4JA ; `ImGui::GetIO'::`1'::__LINE__Var
PUBLIC	?__LINE__Var@?0??GetViewportDrawList@@YAPEAUImDrawList@@PEAUImGuiViewportP@@_KPEBD@Z@4JA ; `GetViewportDrawList'::`1'::__LINE__Var
PUBLIC	??_C@_1KI@ECMHEDEI@?$AAd?$AAr?$AAa?$AAw?$AAl?$AAi?$AAs?$AAt?$AA_?$AAn?$AAo?$AA?5?$AA?$DM?$AA?5?$AA?$CI@ ; `string'
PUBLIC	??_C@_0N@MFFOHPLI@?$CD?$CDBackground@		; `string'
PUBLIC	??_C@_0N@MFHPHIIJ@?$CD?$CDForeground@		; `string'
PUBLIC	?__LINE__Var@?0??UpdateMouseMovingWindowNewFrame@ImGui@@YAXXZ@4JA ; `ImGui::UpdateMouseMovingWindowNewFrame'::`1'::__LINE__Var
PUBLIC	??_C@_1FK@PIJFGHBG@?$AAg?$AA?4?$AAM?$AAo?$AAv?$AAi?$AAn?$AAg?$AAW?$AAi?$AAn?$AAd?$AAo?$AAw?$AA?5@ ; `string'
PUBLIC	?__LINE__Var@?0??NewFrame@ImGui@@YAXXZ@4JA	; `ImGui::NewFrame'::`1'::__LINE__Var
PUBLIC	??_C@_1CG@DCCAIGN@?$AAg?$AA?4?$AAF?$AAo?$AAn?$AAt?$AA?9?$AA?$DO?$AAI?$AAs?$AAL?$AAo?$AAa?$AAd?$AAe@ ; `string'
PUBLIC	??_C@_1FG@PEGMPHDA@?$AAg?$AA?4?$AAW?$AAi?$AAn?$AAd?$AAo?$AAw?$AAs?$AAF?$AAo?$AAc?$AAu?$AAs?$AAO@ ; `string'
PUBLIC	??_C@_0P@IMLDNMEK@Debug?$CD?$CDDefault@		; `string'
PUBLIC	??_C@_1FE@JJEPGBAD@?$AAg?$AA?4?$AAC?$AAu?$AAr?$AAr?$AAe?$AAn?$AAt?$AAW?$AAi?$AAn?$AAd?$AAo?$AAw@ ; `string'
PUBLIC	??_C@_0BC@JHPKFIGH@HoveredId?3?50x?$CF08X@	; `string'
PUBLIC	??_C@_0BM@IIPBLKLJ@Press?5ESC?5to?5abort?5picking?4@ ; `string'
PUBLIC	??_C@_0BM@OPIPEIJO@Click?5to?5break?5in?5debugger?$CB@ ; `string'
PUBLIC	?__LINE__Var@?0??Initialize@ImGui@@YAXPEAUImGuiContext@@@Z@4JA ; `ImGui::Initialize'::`1'::__LINE__Var
PUBLIC	??_C@_1EI@IBBBPCIN@?$AA?$CB?$AAg?$AA?4?$AAI?$AAn?$AAi?$AAt?$AAi?$AAa?$AAl?$AAi?$AAz?$AAe?$AAd?$AA?5@ ; `string'
PUBLIC	??_C@_06BKKJGDHO@Window@			; `string'
PUBLIC	?__LINE__Var@?0??AddDrawListToDrawData@@YAXPEAU?$ImVector@PEAUImDrawList@@@@PEAUImDrawList@@@Z@4JA ; `AddDrawListToDrawData'::`1'::__LINE__Var
PUBLIC	??_C@_1OG@INBPPELJ@?$AAd?$AAr?$AAa?$AAw?$AA_?$AAl?$AAi?$AAs?$AAt?$AA?9?$AA?$DO?$AAV?$AAt?$AAx?$AAB@ ; `string'
PUBLIC	??_C@_1OG@ICPLNDEC@?$AAd?$AAr?$AAa?$AAw?$AA_?$AAl?$AAi?$AAs?$AAt?$AA?9?$AA?$DO?$AAI?$AAd?$AAx?$AAB@ ; `string'
PUBLIC	??_C@_1HI@ENCAIJO@?$AA?$CI?$AAi?$AAn?$AAt?$AA?$CJ?$AAd?$AAr?$AAa?$AAw?$AA_?$AAl?$AAi?$AAs?$AAt?$AA?9@ ; `string'
PUBLIC	??_C@_0EJ@CDENJONN@Too?5many?5vertices?5in?5ImDrawList@ ; `string'
PUBLIC	??_C@_1OI@BGNIEPFI@?$AAd?$AAr?$AAa?$AAw?$AA_?$AAl?$AAi?$AAs?$AAt?$AA?9?$AA?$DO?$AA_?$AAV?$AAt?$AAx@ ; `string'
PUBLIC	?__LINE__Var@?0??EndFrame@ImGui@@YAXXZ@4JA	; `ImGui::EndFrame'::`1'::__LINE__Var
PUBLIC	??_C@_1BM@ICEHPMG@?$AAg?$AA?4?$AAI?$AAn?$AAi?$AAt?$AAi?$AAa?$AAl?$AAi?$AAz?$AAe?$AAd@ ; `string'
PUBLIC	??_C@_0CC@DPHJAHCA@Forgot?5to?5call?5ImGui?3?3NewFrame?$CI@ ; `string'
PUBLIC	??_C@_1HE@BFIFNNBB@?$AAg?$AA?4?$AAW?$AAi?$AAt?$AAh?$AAi?$AAn?$AAF?$AAr?$AAa?$AAm?$AAe?$AAS?$AAc@ ; `string'
PUBLIC	??_C@_03KHICJKCI@?4?4?4@			; `string'
PUBLIC	??_C@_1FO@HCCAMJFH@?$AAg?$AA?4?$AAW?$AAi?$AAn?$AAd?$AAo?$AAw?$AAs?$AA?4?$AAS?$AAi?$AAz?$AAe?$AA?5@ ; `string'
PUBLIC	?__LINE__Var@?0??Render@ImGui@@YAXXZ@4JA	; `ImGui::Render'::`1'::__LINE__Var
PUBLIC	?__LINE__Var@?0??GetKeyIndex@ImGui@@YAHH@Z@4JA	; `ImGui::GetKeyIndex'::`1'::__LINE__Var
PUBLIC	??_C@_1FK@NOIPPDJE@?$AAi?$AAm?$AAg?$AAu?$AAi?$AA_?$AAk?$AAe?$AAy?$AA?5?$AA?$DO?$AA?$DN?$AA?5?$AA0?$AA?5@ ; `string'
PUBLIC	?__LINE__Var@?0??IsKeyDown@ImGui@@YA_NH@Z@4JA	; `ImGui::IsKeyDown'::`1'::__LINE__Var
PUBLIC	??_C@_1ME@GKDHJBBA@?$AAu?$AAs?$AAe?$AAr?$AA_?$AAk?$AAe?$AAy?$AA_?$AAi?$AAn?$AAd?$AAe?$AAx?$AA?5@ ; `string'
PUBLIC	?__LINE__Var@?0??GetKeyPressedAmount@ImGui@@YAHHMM@Z@4JA ; `ImGui::GetKeyPressedAmount'::`1'::__LINE__Var
PUBLIC	??_C@_1LA@MNMNDIA@?$AAk?$AAe?$AAy?$AA_?$AAi?$AAn?$AAd?$AAe?$AAx?$AA?5?$AA?$DO?$AA?$DN?$AA?5?$AA0?$AA?5@ ; `string'
PUBLIC	?__LINE__Var@?0??IsKeyPressed@ImGui@@YA_NH_N@Z@4JA ; `ImGui::IsKeyPressed'::`1'::__LINE__Var
PUBLIC	?__LINE__Var@?0??IsKeyReleased@ImGui@@YA_NH@Z@4JA ; `ImGui::IsKeyReleased'::`1'::__LINE__Var
PUBLIC	?__LINE__Var@?0??IsMouseDown@ImGui@@YA_NH@Z@4JA	; `ImGui::IsMouseDown'::`1'::__LINE__Var
PUBLIC	??_C@_1KI@IKDPMEHK@?$AAb?$AAu?$AAt?$AAt?$AAo?$AAn?$AA?5?$AA?$DO?$AA?$DN?$AA?5?$AA0?$AA?5?$AA?$CG?$AA?$CG?$AA?5@ ; `string'
PUBLIC	?__LINE__Var@?0??IsMouseClicked@ImGui@@YA_NH_N@Z@4JA ; `ImGui::IsMouseClicked'::`1'::__LINE__Var
PUBLIC	?__LINE__Var@?0??IsMouseReleased@ImGui@@YA_NH@Z@4JA ; `ImGui::IsMouseReleased'::`1'::__LINE__Var
PUBLIC	?__LINE__Var@?0??IsMouseDoubleClicked@ImGui@@YA_NH@Z@4JA ; `ImGui::IsMouseDoubleClicked'::`1'::__LINE__Var
PUBLIC	?__LINE__Var@?0??IsMouseDragPastThreshold@ImGui@@YA_NHM@Z@4JA ; `ImGui::IsMouseDragPastThreshold'::`1'::__LINE__Var
PUBLIC	?__LINE__Var@?0??IsMouseDragging@ImGui@@YA_NHM@Z@4JA ; `ImGui::IsMouseDragging'::`1'::__LINE__Var
PUBLIC	?__LINE__Var@?0??IsMousePosValid@ImGui@@YA_NPEBUImVec2@@@Z@4JA ; `ImGui::IsMousePosValid'::`1'::__LINE__Var
PUBLIC	??_C@_1BI@DLHMADOF@?$AAG?$AAI?$AAm?$AAG?$AAu?$AAi?$AA?5?$AA?$CB?$AA?$DN?$AA?5?$AA0@ ; `string'
PUBLIC	?__LINE__Var@?0??GetMouseDragDelta@ImGui@@YA?AUImVec2@@HM@Z@4JA ; `ImGui::GetMouseDragDelta'::`1'::__LINE__Var
PUBLIC	?__LINE__Var@?0??ResetMouseDragDelta@ImGui@@YAXH@Z@4JA ; `ImGui::ResetMouseDragDelta'::`1'::__LINE__Var
PUBLIC	?__LINE__Var@?0??SetActiveIdUsingNavAndKeys@ImGui@@YAXXZ@4JA ; `ImGui::SetActiveIdUsingNavAndKeys'::`1'::__LINE__Var
PUBLIC	??_C@_1CA@MJFBPLLL@?$AAg?$AA?4?$AAA?$AAc?$AAt?$AAi?$AAv?$AAe?$AAI?$AAd?$AA?5?$AA?$CB?$AA?$DN?$AA?5?$AA0@ ; `string'
PUBLIC	??_C@_0L@BDFLDJGI@?$CFs?1?$CFs_?$CF08X@		; `string'
PUBLIC	??_C@_07KBCBAKFA@?$CFs?1?$CF08X@		; `string'
PUBLIC	?__LINE__Var@?0??BeginChild@ImGui@@YA_NIAEBUImVec2@@_NH@Z@4JA ; `ImGui::BeginChild'::`1'::__LINE__Var
PUBLIC	??_C@_1BA@DDOODPOM@?$AAi?$AAd?$AA?5?$AA?$CB?$AA?$DN?$AA?5?$AA0@ ; `string'
PUBLIC	?__LINE__Var@?0??EndChild@ImGui@@YAXXZ@4JA	; `ImGui::EndChild'::`1'::__LINE__Var
PUBLIC	??_C@_1DE@LOOJAFFK@?$AAg?$AA?4?$AAW?$AAi?$AAt?$AAh?$AAi?$AAn?$AAE?$AAn?$AAd?$AAC?$AAh?$AAi?$AAl@ ; `string'
PUBLIC	??_C@_1FK@ONDIMCKL@?$AAw?$AAi?$AAn?$AAd?$AAo?$AAw?$AA?9?$AA?$DO?$AAF?$AAl?$AAa?$AAg?$AAs?$AA?5?$AA?$CG@ ; `string'
PUBLIC	?__LINE__Var@?0??GetResizeBorderRect@@YA?AUImRect@@PEAUImGuiWindow@@HMM@Z@4JA ; `GetResizeBorderRect'::`1'::__LINE__Var
PUBLIC	?__LINE__Var@?0??GetWindowResizeCornerID@ImGui@@YAIPEAUImGuiWindow@@H@Z@4JA ; `ImGui::GetWindowResizeCornerID'::`1'::__LINE__Var
PUBLIC	??_C@_1CA@EBHOHNJC@?$AAn?$AA?5?$AA?$DO?$AA?$DN?$AA?5?$AA0?$AA?5?$AA?$CG?$AA?$CG?$AA?5?$AAn?$AA?5?$AA?$DM?$AA?5?$AA4@ ; `string'
PUBLIC	??_C@_07HDHBJEOI@?$CDRESIZE@			; `string'
PUBLIC	?__LINE__Var@?0??GetWindowResizeBorderID@ImGui@@YAIPEAUImGuiWindow@@H@Z@4JA ; `ImGui::GetWindowResizeBorderID'::`1'::__LINE__Var
PUBLIC	??_C@_1CI@OAHDFFF@?$AAd?$AAi?$AAr?$AA?5?$AA?$DO?$AA?$DN?$AA?5?$AA0?$AA?5?$AA?$CG?$AA?$CG?$AA?5?$AAd?$AAi?$AAr@ ; `string'
PUBLIC	?__LINE__Var@?0??RenderWindowDecorations@ImGui@@YAXPEAUImGuiWindow@@AEBUImRect@@_NHQEBIM@Z@4JA ; `ImGui::RenderWindowDecorations'::`1'::__LINE__Var
PUBLIC	??_C@_1DA@CEGNFBKM@?$AAw?$AAi?$AAn?$AAd?$AAo?$AAw?$AA?9?$AA?$DO?$AAB?$AAe?$AAg?$AAi?$AAn?$AAC?$AAo@ ; `string'
PUBLIC	??_C@_09BJOGEADB@?$CDCOLLAPSE@			; `string'
PUBLIC	??_C@_06KIIKKNMI@?$CDCLOSE@			; `string'
PUBLIC	?__LINE__Var@?0??UpdateWindowParentAndRootLinks@ImGui@@YAXPEAUImGuiWindow@@H0@Z@4JA ; `ImGui::UpdateWindowParentAndRootLinks'::`1'::__LINE__Var
PUBLIC	??_C@_1FI@JBDNHGBD@?$AAw?$AAi?$AAn?$AAd?$AAo?$AAw?$AA?9?$AA?$DO?$AAR?$AAo?$AAo?$AAt?$AAW?$AAi?$AAn@ ; `string'
PUBLIC	?__LINE__Var@?0??Begin@ImGui@@YA_NPEBDPEA_NH@Z@4JA ; `ImGui::Begin'::`1'::__LINE__Var
PUBLIC	??_C@_1DK@CDEKKEL@?$AAn?$AAa?$AAm?$AAe?$AA?5?$AA?$CB?$AA?$DN?$AA?5?$AA0?$AA?5?$AA?$CG?$AA?$CG?$AA?5?$AAn?$AAa@ ; `string'
PUBLIC	??_C@_1CG@FEBKCKMN@?$AAg?$AA?4?$AAW?$AAi?$AAt?$AAh?$AAi?$AAn?$AAF?$AAr?$AAa?$AAm?$AAe?$AAS?$AAc@ ; `string'
PUBLIC	??_C@_1EE@GGBMECGG@?$AAg?$AA?4?$AAF?$AAr?$AAa?$AAm?$AAe?$AAC?$AAo?$AAu?$AAn?$AAt?$AAE?$AAn?$AAd@ ; `string'
PUBLIC	??_C@_1EK@IADLALGG@?$AAf?$AAl?$AAa?$AAg?$AAs?$AA?5?$AA?$CG?$AA?5?$AAI?$AAm?$AAG?$AAu?$AAi?$AAW?$AAi@ ; `string'
PUBLIC	??_C@_1HM@BDHFFAHO@?$AAp?$AAa?$AAr?$AAe?$AAn?$AAt?$AA_?$AAw?$AAi?$AAn?$AAd?$AAo?$AAw?$AA?5?$AA?$CB@ ; `string'
PUBLIC	??_C@_1EO@GBMDJNAA@?$AAp?$AAa?$AAr?$AAe?$AAn?$AAt?$AA_?$AAw?$AAi?$AAn?$AAd?$AAo?$AAw?$AA?5?$AA?$CG@ ; `string'
PUBLIC	??_C@_1KO@GJELMBN@?$AAw?$AAi?$AAn?$AAd?$AAo?$AAw?$AA?9?$AA?$DO?$AAD?$AAr?$AAa?$AAw?$AAL?$AAi?$AAs@ ; `string'
PUBLIC	??_C@_0M@OFKBALAI@?$CDFOCUSSCOPE@		; `string'
PUBLIC	??_C@_1FG@JPKHCDHL@?$AA?$CI?$AAf?$AAl?$AAa?$AAg?$AAs?$AA?5?$AA?$CG?$AA?5?$AAI?$AAm?$AAG?$AAu?$AAi?$AAW@ ; `string'
PUBLIC	?__LINE__Var@?0??End@ImGui@@YAXXZ@4JA		; `ImGui::End'::`1'::__LINE__Var
PUBLIC	??_C@_0BO@JOGPJJCM@Calling?5End?$CI?$CJ?5too?5many?5times?$CB@ ; `string'
PUBLIC	??_C@_1IG@DKOLGHNA@?$AA?$CI?$AAg?$AA?4?$AAC?$AAu?$AAr?$AAr?$AAe?$AAn?$AAt?$AAW?$AAi?$AAn?$AAd?$AAo@ ; `string'
PUBLIC	??_C@_1DM@FOOGCAMP@?$AAg?$AA?4?$AAC?$AAu?$AAr?$AAr?$AAe?$AAn?$AAt?$AAW?$AAi?$AAn?$AAd?$AAo?$AAw@ ; `string'
PUBLIC	??_C@_0CE@DEHLBEMA@Must?5call?5EndChild?$CI?$CJ?5and?5not?5En@ ; `string'
PUBLIC	??_C@_1HI@MIOLBHIM@?$AA?$CI?$AAg?$AA?4?$AAW?$AAi?$AAt?$AAh?$AAi?$AAn?$AAE?$AAn?$AAd?$AAC?$AAh?$AAi@ ; `string'
PUBLIC	?__LINE__Var@?0??BringWindowToFocusFront@ImGui@@YAXPEAUImGuiWindow@@@Z@4JA ; `ImGui::BringWindowToFocusFront'::`1'::__LINE__Var
PUBLIC	??_C@_1DK@MAFHBAAP@?$AAw?$AAi?$AAn?$AAd?$AAo?$AAw?$AA?5?$AA?$DN?$AA?$DN?$AA?5?$AAw?$AAi?$AAn?$AAd?$AAo@ ; `string'
PUBLIC	??_C@_1FC@LPBCMIDE@?$AAg?$AA?4?$AAW?$AAi?$AAn?$AAd?$AAo?$AAw?$AAs?$AAF?$AAo?$AAc?$AAu?$AAs?$AAO@ ; `string'
PUBLIC	??_C@_1FA@BPAOPAIC@?$AAg?$AA?4?$AAW?$AAi?$AAn?$AAd?$AAo?$AAw?$AAs?$AAF?$AAo?$AAc?$AAu?$AAs?$AAO@ ; `string'
PUBLIC	?__LINE__Var@?0??FocusWindow@ImGui@@YAXPEAUImGuiWindow@@@Z@4JA ; `ImGui::FocusWindow'::`1'::__LINE__Var
PUBLIC	??_C@_1EO@CDDKCBBF@?$AAw?$AAi?$AAn?$AAd?$AAo?$AAw?$AA?5?$AA?$DN?$AA?$DN?$AA?5?$AA0?$AA?5?$AA?$HM?$AA?$HM?$AA?5@ ; `string'
PUBLIC	?__LINE__Var@?0??FocusTopMostWindowUnderOne@ImGui@@YAXPEAUImGuiWindow@@0@Z@4JA ; `ImGui::FocusTopMostWindowUnderOne'::`1'::__LINE__Var
PUBLIC	?__LINE__Var@?0??SetCurrentFont@ImGui@@YAXPEAUImFont@@@Z@4JA ; `ImGui::SetCurrentFont'::`1'::__LINE__Var
PUBLIC	??_C@_1DC@JABAIOEL@?$AAf?$AAo?$AAn?$AAt?$AA?5?$AA?$CG?$AA?$CG?$AA?5?$AAf?$AAo?$AAn?$AAt?$AA?9?$AA?$DO?$AAI@ ; `string'
PUBLIC	??_C@_1CG@FNLEAELN@?$AAf?$AAo?$AAn?$AAt?$AA?9?$AA?$DO?$AAS?$AAc?$AAa?$AAl?$AAe?$AA?5?$AA?$DO?$AA?5?$AA0@ ; `string'
PUBLIC	?__LINE__Var@?0??PushItemFlag@ImGui@@YAXH_N@Z@4JA ; `ImGui::PushItemFlag'::`1'::__LINE__Var
PUBLIC	??_C@_1EM@MHLLLNGK@?$AAi?$AAt?$AAe?$AAm?$AA_?$AAf?$AAl?$AAa?$AAg?$AAs?$AA?5?$AA?$DN?$AA?$DN?$AA?5?$AAg@ ; `string'
PUBLIC	?__LINE__Var@?0??PopItemFlag@ImGui@@YAXXZ@4JA	; `ImGui::PopItemFlag'::`1'::__LINE__Var
PUBLIC	??_C@_1DE@LBPOLBMJ@?$AAg?$AA?4?$AAI?$AAt?$AAe?$AAm?$AAF?$AAl?$AAa?$AAg?$AAs?$AAS?$AAt?$AAa?$AAc@ ; `string'
PUBLIC	?__LINE__Var@?0??IsWindowHovered@ImGui@@YA_NH@Z@4JA ; `ImGui::IsWindowHovered'::`1'::__LINE__Var
PUBLIC	??_C@_1GK@LMFCIBAK@?$AA?$CI?$AAf?$AAl?$AAa?$AAg?$AAs?$AA?5?$AA?$CG?$AA?5?$AAI?$AAm?$AAG?$AAu?$AAi?$AAH@ ; `string'
PUBLIC	?__LINE__Var@?0??IsWindowFocused@ImGui@@YA_NH@Z@4JA ; `ImGui::IsWindowFocused'::`1'::__LINE__Var
PUBLIC	??_C@_1CA@CLMFAGNB@?$AAg?$AA?4?$AAC?$AAu?$AAr?$AAr?$AAe?$AAn?$AAt?$AAW?$AAi?$AAn?$AAd?$AAo?$AAw@ ; `string'
PUBLIC	?__LINE__Var@?0??SetWindowPos@ImGui@@YAXPEAUImGuiWindow@@AEBUImVec2@@H@Z@4JA ; `ImGui::SetWindowPos'::`1'::__LINE__Var
PUBLIC	??_C@_1EE@PBEDMJFL@?$AAc?$AAo?$AAn?$AAd?$AA?5?$AA?$DN?$AA?$DN?$AA?5?$AA0?$AA?5?$AA?$HM?$AA?$HM?$AA?5?$AAI?$AAm@ ; `string'
PUBLIC	?__LINE__Var@?0??SetWindowSize@ImGui@@YAXPEAUImGuiWindow@@AEBUImVec2@@H@Z@4JA ; `ImGui::SetWindowSize'::`1'::__LINE__Var
PUBLIC	?__LINE__Var@?0??SetWindowHitTestHole@ImGui@@YAXPEAUImGuiWindow@@AEBUImVec2@@1@Z@4JA ; `ImGui::SetWindowHitTestHole'::`1'::__LINE__Var
PUBLIC	??_C@_1DO@GKCJBPLO@?$AAw?$AAi?$AAn?$AAd?$AAo?$AAw?$AA?9?$AA?$DO?$AAH?$AAi?$AAt?$AAT?$AAe?$AAs?$AAt@ ; `string'
PUBLIC	?__LINE__Var@?0??SetNextWindowPos@ImGui@@YAXAEBUImVec2@@H0@Z@4JA ; `ImGui::SetNextWindowPos'::`1'::__LINE__Var
PUBLIC	?__LINE__Var@?0??SetNextWindowSize@ImGui@@YAXAEBUImVec2@@H@Z@4JA ; `ImGui::SetNextWindowSize'::`1'::__LINE__Var
PUBLIC	?__LINE__Var@?0??SetNextWindowCollapsed@ImGui@@YAX_NH@Z@4JA ; `ImGui::SetNextWindowCollapsed'::`1'::__LINE__Var
PUBLIC	?__LINE__Var@?0??SetWindowFontScale@ImGui@@YAXM@Z@4JA ; `ImGui::SetWindowFontScale'::`1'::__LINE__Var
PUBLIC	??_C@_1BK@JIIMNACC@?$AAs?$AAc?$AAa?$AAl?$AAe?$AA?5?$AA?$DO?$AA?5?$AA0?$AA?4?$AA0?$AAf@ ; `string'
PUBLIC	?__LINE__Var@?0??PopFocusScope@ImGui@@YAXXZ@4JA	; `ImGui::PopFocusScope'::`1'::__LINE__Var
PUBLIC	??_C@_1DG@FEBJKFDF@?$AAg?$AA?4?$AAF?$AAo?$AAc?$AAu?$AAs?$AAS?$AAc?$AAo?$AAp?$AAe?$AAS?$AAt?$AAa@ ; `string'
PUBLIC	?__LINE__Var@?0??SetKeyboardFocusHere@ImGui@@YAXH@Z@4JA ; `ImGui::SetKeyboardFocusHere'::`1'::__LINE__Var
PUBLIC	??_C@_1BK@BEOECDF@?$AAo?$AAf?$AAf?$AAs?$AAe?$AAt?$AA?5?$AA?$DO?$AA?$DN?$AA?5?$AA?9?$AA1@ ; `string'
PUBLIC	?__LINE__Var@?0??PopID@ImGui@@YAXXZ@4JA		; `ImGui::PopID'::`1'::__LINE__Var
PUBLIC	??_C@_1DC@KOOPJPAL@?$AAw?$AAi?$AAn?$AAd?$AAo?$AAw?$AA?9?$AA?$DO?$AAI?$AAD?$AAS?$AAt?$AAa?$AAc?$AAk@ ; `string'
PUBLIC	?__LINE__Var@?0??DebugCheckVersionAndDataLayout@ImGui@@YA_NPEBD_K11111@Z@4JA ; `ImGui::DebugCheckVersionAndDataLayout'::`1'::__LINE__Var
PUBLIC	??_C@_0BL@NJMNENPC@Mismatched?5version?5string?$CB@ ; `string'
PUBLIC	??_C@_1IC@BBJPBEHP@?$AAs?$AAt?$AAr?$AAc?$AAm?$AAp?$AA?$CI?$AAv?$AAe?$AAr?$AAs?$AAi?$AAo?$AAn?$AA?0@ ; `string'
PUBLIC	??_C@_0BK@FMAIDOGC@Mismatched?5struct?5layout?$CB@ ; `string'
PUBLIC	??_C@_1HA@BDEJLFJB@?$AAs?$AAz?$AA_?$AAi?$AAo?$AA?5?$AA?$DN?$AA?$DN?$AA?5?$AAs?$AAi?$AAz?$AAe?$AAo?$AAf@ ; `string'
PUBLIC	??_C@_1HM@KECEGJKN@?$AAs?$AAz?$AA_?$AAs?$AAt?$AAy?$AAl?$AAe?$AA?5?$AA?$DN?$AA?$DN?$AA?5?$AAs?$AAi?$AAz@ ; `string'
PUBLIC	??_C@_1HC@KAEGCKOM@?$AAs?$AAz?$AA_?$AAv?$AAe?$AAc?$AA2?$AA?5?$AA?$DN?$AA?$DN?$AA?5?$AAs?$AAi?$AAz?$AAe@ ; `string'
PUBLIC	??_C@_1HC@CFCKCFEN@?$AAs?$AAz?$AA_?$AAv?$AAe?$AAc?$AA4?$AA?5?$AA?$DN?$AA?$DN?$AA?5?$AAs?$AAi?$AAz?$AAe@ ; `string'
PUBLIC	??_C@_1HK@HMLAJPFG@?$AAs?$AAz?$AA_?$AAv?$AAe?$AAr?$AAt?$AA?5?$AA?$DN?$AA?$DN?$AA?5?$AAs?$AAi?$AAz?$AAe@ ; `string'
PUBLIC	??_C@_1HG@IIMLENED@?$AAs?$AAz?$AA_?$AAi?$AAd?$AAx?$AA?5?$AA?$DN?$AA?$DN?$AA?5?$AAs?$AAi?$AAz?$AAe?$AAo@ ; `string'
PUBLIC	?__LINE__Var@?0??ErrorCheckNewFrameSanityChecks@ImGui@@YAXXZ@4JA ; `ImGui::ErrorCheckNewFrameSanityChecks'::`1'::__LINE__Var
PUBLIC	??_C@_0BL@INIAEKJF@Need?5a?5positive?5DeltaTime?$CB@ ; `string'
PUBLIC	??_C@_1JK@GMCNDFJ@?$AA?$CI?$AAg?$AA?4?$AAI?$AAO?$AA?4?$AAD?$AAe?$AAl?$AAt?$AAa?$AAT?$AAi?$AAm?$AAe@ ; `string'
PUBLIC	??_C@_0EI@GHMDJNFG@Forgot?5to?5call?5Render?$CI?$CJ?5or?5EndF@ ; `string'
PUBLIC	??_C@_1BAM@KGEBLPLP@?$AA?$CI?$AAg?$AA?4?$AAF?$AAr?$AAa?$AAm?$AAe?$AAC?$AAo?$AAu?$AAn?$AAt?$AA?5?$AA?$DN@ ; `string'
PUBLIC	??_C@_0BL@LDNBLEGM@Invalid?5DisplaySize?5value?$CB@ ; `string'
PUBLIC	??_C@_1LC@PGGPGCKP@?$AAg?$AA?4?$AAI?$AAO?$AA?4?$AAD?$AAi?$AAs?$AAp?$AAl?$AAa?$AAy?$AAS?$AAi?$AAz@ ; `string'
PUBLIC	??_C@_0KM@BGIGOFPN@Font?5Atlas?5not?5built?$CB?5Make?5sure@ ; `string'
PUBLIC	??_C@_1BIO@NEOCPKAM@?$AAg?$AA?4?$AAI?$AAO?$AA?4?$AAF?$AAo?$AAn?$AAt?$AAs?$AA?9?$AA?$DO?$AAI?$AAs?$AAB@ ; `string'
PUBLIC	??_C@_0BH@EAJIBGFB@Invalid?5style?5setting?$CB@	; `string'
PUBLIC	??_C@_1IA@HHCKGFKM@?$AAg?$AA?4?$AAS?$AAt?$AAy?$AAl?$AAe?$AA?4?$AAC?$AAu?$AAr?$AAv?$AAe?$AAT?$AAe@ ; `string'
PUBLIC	??_C@_1IM@BBAKCECH@?$AAg?$AA?4?$AAS?$AAt?$AAy?$AAl?$AAe?$AA?4?$AAC?$AAi?$AAr?$AAc?$AAl?$AAe?$AAT@ ; `string'
PUBLIC	??_C@_1JG@HBCMMEC@?$AAg?$AA?4?$AAS?$AAt?$AAy?$AAl?$AAe?$AA?4?$AAA?$AAl?$AAp?$AAh?$AAa?$AA?5?$AA?$DO@ ; `string'
PUBLIC	??_C@_0BH@MHAAAKJO@Invalid?5style?5setting?4@	; `string'
PUBLIC	??_C@_1LO@BODAGONP@?$AAg?$AA?4?$AAS?$AAt?$AAy?$AAl?$AAe?$AA?4?$AAW?$AAi?$AAn?$AAd?$AAo?$AAw?$AAM@ ; `string'
PUBLIC	??_C@_1BDK@FANHHEDI@?$AAg?$AA?4?$AAS?$AAt?$AAy?$AAl?$AAe?$AA?4?$AAW?$AAi?$AAn?$AAd?$AAo?$AAw?$AAM@ ; `string'
PUBLIC	??_C@_0FH@NIAAMBB@io?4KeyMap?$FL?$FN?5contains?5an?5out?5of?5@ ; `string'
PUBLIC	??_C@_1BHO@ICEKAIPC@?$AAg?$AA?4?$AAI?$AAO?$AA?4?$AAK?$AAe?$AAy?$AAM?$AAa?$AAp?$AA?$FL?$AAn?$AA?$FN?$AA?5@ ; `string'
PUBLIC	??_C@_0EA@IDFJHFOM@ImGuiKey_Space?5is?5not?5mapped?0?5r@ ; `string'
PUBLIC	??_C@_1MO@ONPFNFPJ@?$AAg?$AA?4?$AAI?$AAO?$AA?4?$AAK?$AAe?$AAy?$AAM?$AAa?$AAp?$AA?$FL?$AAI?$AAm?$AAG@ ; `string'
PUBLIC	?__LINE__Var@?0??ErrorCheckEndFrameSanityChecks@ImGui@@YAXXZ@4JA ; `ImGui::ErrorCheckEndFrameSanityChecks'::`1'::__LINE__Var
PUBLIC	??_C@_0EH@IKLAPCIG@Mismatching?5io?4KeyCtrl?1io?4KeySh@ ; `string'
PUBLIC	??_C@_1BAE@HHDAPELE@?$AA?$CI?$AAk?$AAe?$AAy?$AA_?$AAm?$AAo?$AAd?$AA_?$AAf?$AAl?$AAa?$AAg?$AAs?$AA?5@ ; `string'
PUBLIC	??_C@_0FI@LNDFABED@Mismatched?5Begin?1BeginChild?5vs?5@ ; `string'
PUBLIC	??_C@_1PM@PNPJAGAO@?$AA?$CI?$AAg?$AA?4?$AAC?$AAu?$AAr?$AAr?$AAe?$AAn?$AAt?$AAW?$AAi?$AAn?$AAd?$AAo@ ; `string'
PUBLIC	??_C@_0FH@BPHEKLEJ@Mismatched?5Begin?1BeginChild?5vs?5@ ; `string'
PUBLIC	??_C@_1PK@KPEOFHN@?$AA?$CI?$AAg?$AA?4?$AAC?$AAu?$AAr?$AAr?$AAe?$AAn?$AAt?$AAW?$AAi?$AAn?$AAd?$AAo@ ; `string'
PUBLIC	??_C@_0BH@DOAAHNFO@Missing?5EndGroup?5call?$CB@	; `string'
PUBLIC	??_C@_1GK@BADAAGFG@?$AA?$CI?$AAg?$AA?4?$AAG?$AAr?$AAo?$AAu?$AAp?$AAS?$AAt?$AAa?$AAc?$AAk?$AA?4?$AAS@ ; `string'
PUBLIC	?__LINE__Var@?0??ErrorCheckEndFrameRecover@ImGui@@YAXP6AXPEAXPEBDZZ0@Z@4JA ; `ImGui::ErrorCheckEndFrameRecover'::`1'::__LINE__Var
PUBLIC	??_C@_0CK@MCEMIAFO@Recovered?5from?5missing?5EndTable@ ; `string'
PUBLIC	??_C@_1BI@JFIKNFKH@?$AAw?$AAi?$AAn?$AAd?$AAo?$AAw?$AA?5?$AA?$CB?$AA?$DN?$AA?5?$AA0@ ; `string'
PUBLIC	??_C@_0CL@PFJDIEBE@Recovered?5from?5missing?5EndTabBa@ ; `string'
PUBLIC	??_C@_0CJ@OIELACHL@Recovered?5from?5missing?5TreePop?$CI@ ; `string'
PUBLIC	??_C@_0CK@EIGPLJIB@Recovered?5from?5missing?5EndGroup@ ; `string'
PUBLIC	??_C@_0CH@CBEJECIE@Recovered?5from?5missing?5PopID?$CI?$CJ?5@ ; `string'
PUBLIC	??_C@_0DP@GKCPPFKN@Recovered?5from?5missing?5PopStyle@ ; `string'
PUBLIC	??_C@_0CN@EFPNNJDL@Recovered?5from?5missing?5PopStyle@ ; `string'
PUBLIC	??_C@_0CP@NEGGJCEB@Recovered?5from?5missing?5PopFocus@ ; `string'
PUBLIC	??_C@_1EE@JEPGGIKH@?$AAg?$AA?4?$AAC?$AAu?$AAr?$AAr?$AAe?$AAn?$AAt?$AAW?$AAi?$AAn?$AAd?$AAo?$AAw@ ; `string'
PUBLIC	??_C@_1DE@IPHBHHKI@?$AAw?$AAi?$AAn?$AAd?$AAo?$AAw?$AA?5?$AA?$DN?$AA?$DN?$AA?5?$AAg?$AA?4?$AAC?$AAu?$AAr@ ; `string'
PUBLIC	??_C@_0CL@PKEBJEJO@Recovered?5from?5missing?5EndChild@ ; `string'
PUBLIC	??_C@_0CG@PCFKFCHL@Recovered?5from?5missing?5End?$CI?$CJ?5fo@ ; `string'
PUBLIC	?__LINE__Var@?0??CompareWithCurrentState@ImGuiStackSizes@@QEAAXXZ@4JA ; `ImGuiStackSizes::CompareWithCurrentState'::`1'::__LINE__Var
PUBLIC	??_C@_0CL@ILEOFLMG@PushID?1PopID?5or?5TreeNode?1TreePo@ ; `string'
PUBLIC	??_C@_1KM@GPENMPEF@?$AAS?$AAi?$AAz?$AAe?$AAO?$AAf?$AAI?$AAD?$AAS?$AAt?$AAa?$AAc?$AAk?$AA?5?$AA?$DN@ ; `string'
PUBLIC	??_C@_0BO@DCHDJEI@BeginGroup?1EndGroup?5Mismatch?$CB@ ; `string'
PUBLIC	??_C@_1JC@FNBHEOLL@?$AAS?$AAi?$AAz?$AAe?$AAO?$AAf?$AAG?$AAr?$AAo?$AAu?$AAp?$AAS?$AAt?$AAa?$AAc@ ; `string'
PUBLIC	??_C@_0DD@CEJDOFG@BeginPopup?1EndPopup?5or?5BeginMen@ ; `string'
PUBLIC	??_C@_1NA@IJOEJOEN@?$AAS?$AAi?$AAz?$AAe?$AAO?$AAf?$AAB?$AAe?$AAg?$AAi?$AAn?$AAP?$AAo?$AAp?$AAu@ ; `string'
PUBLIC	??_C@_0CH@CECAGKKJ@PushStyleColor?1PopStyleColor?5Mi@ ; `string'
PUBLIC	??_C@_1KE@NCANFJNK@?$AAS?$AAi?$AAz?$AAe?$AAO?$AAf?$AAC?$AAo?$AAl?$AAo?$AAr?$AAS?$AAt?$AAa?$AAc@ ; `string'
PUBLIC	??_C@_0CD@DKPEIHNP@PushStyleVar?1PopStyleVar?5Mismat@ ; `string'
PUBLIC	??_C@_1KI@DHADCEOH@?$AAS?$AAi?$AAz?$AAe?$AAO?$AAf?$AAS?$AAt?$AAy?$AAl?$AAe?$AAV?$AAa?$AAr?$AAS@ ; `string'
PUBLIC	??_C@_0BL@JNELFKGN@PushFont?1PopFont?5Mismatch?$CB@ ; `string'
PUBLIC	??_C@_1II@EKMLEPAG@?$AAS?$AAi?$AAz?$AAe?$AAO?$AAf?$AAF?$AAo?$AAn?$AAt?$AAS?$AAt?$AAa?$AAc?$AAk@ ; `string'
PUBLIC	??_C@_0CH@BLGIKBOK@PushFocusScope?1PopFocusScope?5Mi@ ; `string'
PUBLIC	??_C@_1LI@DNMDNCBF@?$AAS?$AAi?$AAz?$AAe?$AAO?$AAf?$AAF?$AAo?$AAc?$AAu?$AAs?$AAS?$AAc?$AAo?$AAp@ ; `string'
PUBLIC	?__LINE__Var@?0??EndGroup@ImGui@@YAXXZ@4JA	; `ImGui::EndGroup'::`1'::__LINE__Var
PUBLIC	??_C@_1CM@HMCHNBOE@?$AAg?$AA?4?$AAG?$AAr?$AAo?$AAu?$AAp?$AAS?$AAt?$AAa?$AAc?$AAk?$AA?4?$AAS?$AAi@ ; `string'
PUBLIC	??_C@_1EE@BNODPOAB@?$AAg?$AAr?$AAo?$AAu?$AAp?$AA_?$AAd?$AAa?$AAt?$AAa?$AA?4?$AAW?$AAi?$AAn?$AAd@ ; `string'
PUBLIC	?__LINE__Var@?0??SetScrollFromPosX@ImGui@@YAXPEAUImGuiWindow@@MM@Z@4JA ; `ImGui::SetScrollFromPosX'::`1'::__LINE__Var
PUBLIC	??_C@_1GC@BIJJIADH@?$AAc?$AAe?$AAn?$AAt?$AAe?$AAr?$AA_?$AAx?$AA_?$AAr?$AAa?$AAt?$AAi?$AAo?$AA?5@ ; `string'
PUBLIC	?__LINE__Var@?0??SetScrollFromPosY@ImGui@@YAXPEAUImGuiWindow@@MM@Z@4JA ; `ImGui::SetScrollFromPosY'::`1'::__LINE__Var
PUBLIC	??_C@_1GC@LDEACFFC@?$AAc?$AAe?$AAn?$AAt?$AAe?$AAr?$AA_?$AAy?$AA_?$AAr?$AAa?$AAt?$AAi?$AAo?$AA?5@ ; `string'
PUBLIC	??_C@_0P@DHLMFJKK@?$CD?$CDTooltip_?$CF02d@	; `string'
PUBLIC	?__LINE__Var@?0??EndTooltip@ImGui@@YAXXZ@4JA	; `ImGui::EndTooltip'::`1'::__LINE__Var
PUBLIC	??_C@_1HC@IKPEGHCP@?$AAG?$AAe?$AAt?$AAC?$AAu?$AAr?$AAr?$AAe?$AAn?$AAt?$AAW?$AAi?$AAn?$AAd?$AAo@ ; `string'
PUBLIC	?__LINE__Var@?0??IsPopupOpen@ImGui@@YA_NIH@Z@4JA ; `ImGui::IsPopupOpen'::`1'::__LINE__Var
PUBLIC	??_C@_1BA@OHMFOIK@?$AAi?$AAd?$AA?5?$AA?$DN?$AA?$DN?$AA?5?$AA0@ ; `string'
PUBLIC	?__LINE__Var@?0??IsPopupOpen@ImGui@@YA_NPEBDH@Z@4JA ; `ImGui::IsPopupOpen'::`1'::__LINE__Var
PUBLIC	??_C@_1KI@JIHIJAJC@?$AA0?$AA?5?$AA?$CG?$AA?$CG?$AA?5?$AA?$CC?$AAC?$AAa?$AAn?$AAn?$AAo?$AAt?$AA?5?$AAu?$AAs@ ; `string'
PUBLIC	?__LINE__Var@?0??ClosePopupsOverWindow@ImGui@@YAXPEAUImGuiWindow@@_N@Z@4JA ; `ImGui::ClosePopupsOverWindow'::`1'::__LINE__Var
PUBLIC	??_C@_1GI@FJFNMD@?$AA?$CI?$AAp?$AAo?$AAp?$AAu?$AAp?$AA?4?$AAW?$AAi?$AAn?$AAd?$AAo?$AAw?$AA?9?$AA?$DO@ ; `string'
PUBLIC	?__LINE__Var@?0??ClosePopupToLevel@ImGui@@YAXH_N@Z@4JA ; `ImGui::ClosePopupToLevel'::`1'::__LINE__Var
PUBLIC	??_C@_1GI@BPADGCJE@?$AAr?$AAe?$AAm?$AAa?$AAi?$AAn?$AAi?$AAn?$AAg?$AA?5?$AA?$DO?$AA?$DN?$AA?5?$AA0?$AA?5@ ; `string'
PUBLIC	??_C@_0M@NANGKBBK@?$CD?$CDMenu_?$CF02d@		; `string'
PUBLIC	??_C@_0N@PIPFDMLM@?$CD?$CDPopup_?$CF08x@	; `string'
PUBLIC	?__LINE__Var@?0??EndPopup@ImGui@@YAXXZ@4JA	; `ImGui::EndPopup'::`1'::__LINE__Var
PUBLIC	??_C@_1EO@MGPJKAKN@?$AAw?$AAi?$AAn?$AAd?$AAo?$AAw?$AA?9?$AA?$DO?$AAF?$AAl?$AAa?$AAg?$AAs?$AA?5?$AA?$CG@ ; `string'
PUBLIC	??_C@_1DG@NPFLFCJJ@?$AAg?$AA?4?$AAB?$AAe?$AAg?$AAi?$AAn?$AAP?$AAo?$AAp?$AAu?$AAp?$AAS?$AAt?$AAa@ ; `string'
PUBLIC	?__LINE__Var@?0??OpenPopupOnItemClick@ImGui@@YAXPEBDH@Z@4JA ; `ImGui::OpenPopupOnItemClick'::`1'::__LINE__Var
PUBLIC	?__LINE__Var@?0??BeginPopupContextItem@ImGui@@YA_NPEBDH@Z@4JA ; `ImGui::BeginPopupContextItem'::`1'::__LINE__Var
PUBLIC	??_C@_0P@DCJGJLLM@window_context@		; `string'
PUBLIC	??_C@_0N@OOFNFKBH@void_context@			; `string'
PUBLIC	?__LINE__Var@?0??FindBestWindowPosForPopup@ImGui@@YA?AUImVec2@@PEAUImGuiWindow@@@Z@4JA ; `ImGui::FindBestWindowPosForPopup'::`1'::__LINE__Var
PUBLIC	??_C@_1DE@NAFIGFGG@?$AAg?$AA?4?$AAC?$AAu?$AAr?$AAr?$AAe?$AAn?$AAt?$AAW?$AAi?$AAn?$AAd?$AAo?$AAw@ ; `string'
PUBLIC	?__LINE__Var@?0??SetNavID@ImGui@@YAXIW4ImGuiNavLayer@@IAEBUImRect@@@Z@4JA ; `ImGui::SetNavID'::`1'::__LINE__Var
PUBLIC	??_C@_1CC@BGDNHLPI@?$AAg?$AA?4?$AAN?$AAa?$AAv?$AAW?$AAi?$AAn?$AAd?$AAo?$AAw?$AA?5?$AA?$CB?$AA?$DN?$AA?5@ ; `string'
PUBLIC	??_C@_1IG@LOIIGJJB@?$AAn?$AAa?$AAv?$AA_?$AAl?$AAa?$AAy?$AAe?$AAr?$AA?5?$AA?$DN?$AA?$DN?$AA?5?$AAI?$AAm@ ; `string'
PUBLIC	?__LINE__Var@?0??SetFocusID@ImGui@@YAXIPEAUImGuiWindow@@@Z@4JA ; `ImGui::SetFocusID'::`1'::__LINE__Var
PUBLIC	?__LINE__Var@?0??NavScoreItem@ImGui@@YA_NPEAUImGuiNavItemData@@UImRect@@@Z@4JA ; `ImGui::NavScoreItem'::`1'::__LINE__Var
PUBLIC	??_C@_1IK@IGCCKHOG@?$AA?$CI?$AAw?$AAi?$AAn?$AAd?$AAo?$AAw?$AA?9?$AA?$DO?$AAF?$AAl?$AAa?$AAg?$AAs?$AA?5@ ; `string'
PUBLIC	?__LINE__Var@?0??NavMoveRequestForward@ImGui@@YAXHHAEBUImRect@@H@Z@4JA ; `ImGui::NavMoveRequestForward'::`1'::__LINE__Var
PUBLIC	??_C@_1GA@HNMFLEAL@?$AAg?$AA?4?$AAN?$AAa?$AAv?$AAM?$AAo?$AAv?$AAe?$AAR?$AAe?$AAq?$AAu?$AAe?$AAs@ ; `string'
PUBLIC	?__LINE__Var@?0??NavUpdateAnyRequestFlag@ImGui@@YAXXZ@4JA ; `ImGui::NavUpdateAnyRequestFlag'::`1'::__LINE__Var
PUBLIC	?__LINE__Var@?0??NavInitWindow@ImGui@@YAXPEAUImGuiWindow@@_N@Z@4JA ; `ImGui::NavInitWindow'::`1'::__LINE__Var
PUBLIC	??_C@_1CM@NGAIJMCF@?$AAw?$AAi?$AAn?$AAd?$AAo?$AAw?$AA?5?$AA?$DN?$AA?$DN?$AA?5?$AAg?$AA?4?$AAN?$AAa?$AAv@ ; `string'
PUBLIC	?__LINE__Var@?0??NavUpdate@ImGui@@YAXXZ@4JA	; `ImGui::NavUpdate'::`1'::__LINE__Var
PUBLIC	??_C@_1CC@PCNOPHOI@?$AAg?$AA?4?$AAN?$AAa?$AAv?$AAM?$AAo?$AAv?$AAe?$AAR?$AAe?$AAq?$AAu?$AAe?$AAs@ ; `string'
PUBLIC	??_C@_1EG@OLANNBKO@?$AAg?$AA?4?$AAN?$AAa?$AAv?$AAL?$AAa?$AAy?$AAe?$AAr?$AA?5?$AA?$DN?$AA?$DN?$AA?5?$AA0@ ; `string'
PUBLIC	??_C@_1DG@HPGLIPGM@?$AAc?$AAh?$AAi?$AAl?$AAd?$AA_?$AAw?$AAi?$AAn?$AAd?$AAo?$AAw?$AA?9?$AA?$DO?$AAC@ ; `string'
PUBLIC	??_C@_1EO@NJCLOIHM@?$AAg?$AA?4?$AAN?$AAa?$AAv?$AAA?$AAc?$AAt?$AAi?$AAv?$AAa?$AAt?$AAe?$AAD?$AAo@ ; `string'
PUBLIC	??_C@_1IG@KDKGHOJC@?$AAg?$AA?4?$AAN?$AAa?$AAv?$AAM?$AAo?$AAv?$AAe?$AAD?$AAi?$AAr?$AA?5?$AA?$CB?$AA?$DN@ ; `string'
PUBLIC	??_C@_1HC@ODAAGLGB@?$AAg?$AA?4?$AAN?$AAa?$AAv?$AAM?$AAo?$AAv?$AAe?$AAR?$AAe?$AAq?$AAu?$AAe?$AAs@ ; `string'
PUBLIC	??_C@_1DO@NFHNJCFP@?$AA?$CB?$AAg?$AA?4?$AAN?$AAa?$AAv?$AAS?$AAc?$AAo?$AAr?$AAi?$AAn?$AAg?$AAR?$AAe@ ; `string'
PUBLIC	?__LINE__Var@?0??NavUpdateMoveResult@ImGui@@YAXXZ@4JA ; `ImGui::NavUpdateMoveResult'::`1'::__LINE__Var
PUBLIC	??_C@_1DM@EKPCIOHK@?$AAg?$AA?4?$AAN?$AAa?$AAv?$AAW?$AAi?$AAn?$AAd?$AAo?$AAw?$AA?5?$AA?$CG?$AA?$CG?$AA?5@ ; `string'
PUBLIC	?__LINE__Var@?0??NavEndFrame@ImGui@@YAXXZ@4JA	; `ImGui::NavEndFrame'::`1'::__LINE__Var
PUBLIC	??_C@_1CA@PADPOC@?$AAm?$AAo?$AAv?$AAe?$AA_?$AAf?$AAl?$AAa?$AAg?$AAs?$AA?5?$AA?$CB?$AA?$DN?$AA?5?$AA0@ ; `string'
PUBLIC	?__LINE__Var@?0??FindWindowFocusIndex@ImGui@@YAHPEAUImGuiWindow@@@Z@4JA ; `ImGui::FindWindowFocusIndex'::`1'::__LINE__Var
PUBLIC	??_C@_1EK@IMFCDJFP@?$AAg?$AA?4?$AAW?$AAi?$AAn?$AAd?$AAo?$AAw?$AAs?$AAF?$AAo?$AAc?$AAu?$AAs?$AAO@ ; `string'
PUBLIC	?__LINE__Var@?0??NavUpdateWindowingHighlightWindow@@YAXH@Z@4JA ; `NavUpdateWindowingHighlightWindow'::`1'::__LINE__Var
PUBLIC	??_C@_1CK@OIBCGJMF@?$AAg?$AA?4?$AAN?$AAa?$AAv?$AAW?$AAi?$AAn?$AAd?$AAo?$AAw?$AAi?$AAn?$AAg?$AAT@ ; `string'
PUBLIC	??_C@_07NPLNEKJH@?$CIPopup?$CJ@			; `string'
PUBLIC	??_C@_0O@BKOLOJFE@?$CD?$CDMainMenuBar@		; `string'
PUBLIC	??_C@_0BA@KDPNEDEH@?$CIMain?5menu?5bar?$CJ@	; `string'
PUBLIC	??_C@_0L@JOJOIPFK@?$CIUntitled?$CJ@		; `string'
PUBLIC	?__LINE__Var@?0??NavUpdateWindowingOverlay@ImGui@@YAXXZ@4JA ; `ImGui::NavUpdateWindowingOverlay'::`1'::__LINE__Var
PUBLIC	??_C@_1DE@DBGGCEBB@?$AAg?$AA?4?$AAN?$AAa?$AAv?$AAW?$AAi?$AAn?$AAd?$AAo?$AAw?$AAi?$AAn?$AAg?$AAT@ ; `string'
PUBLIC	??_C@_0BE@EBHFKNCA@?$CD?$CD?$CDNavWindowingList@ ; `string'
PUBLIC	?__LINE__Var@?0??BeginDragDropSource@ImGui@@YA_NH@Z@4JA ; `ImGui::BeginDragDropSource'::`1'::__LINE__Var
PUBLIC	??_C@_0O@KMAIKFAM@?$CDSourceExtern@		; `string'
PUBLIC	??_C@_1BO@PJLJNAI@?$AAs?$AAo?$AAu?$AAr?$AAc?$AAe?$AA_?$AAi?$AAd?$AA?5?$AA?$CB?$AA?$DN?$AA?5?$AA0@ ; `string'
PUBLIC	?__LINE__Var@?0??EndDragDropSource@ImGui@@YAXXZ@4JA ; `ImGui::EndDragDropSource'::`1'::__LINE__Var
PUBLIC	??_C@_1CC@NMCEOFEI@?$AAg?$AA?4?$AAD?$AAr?$AAa?$AAg?$AAD?$AAr?$AAo?$AAp?$AAA?$AAc?$AAt?$AAi?$AAv@ ; `string'
PUBLIC	??_C@_0CD@GALGOANB@Not?5after?5a?5BeginDragDropSource@ ; `string'
PUBLIC	??_C@_1HO@KPNGOBLC@?$AAg?$AA?4?$AAD?$AAr?$AAa?$AAg?$AAD?$AAr?$AAo?$AAp?$AAW?$AAi?$AAt?$AAh?$AAi@ ; `string'
PUBLIC	?__LINE__Var@?0??SetDragDropPayload@ImGui@@YA_NPEBDPEBX_KH@Z@4JA ; `ImGui::SetDragDropPayload'::`1'::__LINE__Var
PUBLIC	??_C@_1BE@MGJHACMG@?$AAt?$AAy?$AAp?$AAe?$AA?5?$AA?$CB?$AA?$DN?$AA?5?$AA0@ ; `string'
PUBLIC	??_C@_0CP@PLNIIIKE@Payload?5type?5can?5be?5at?5most?532?5@ ; `string'
PUBLIC	??_C@_1BAG@HHAODBGF@?$AAs?$AAt?$AAr?$AAl?$AAe?$AAn?$AA?$CI?$AAt?$AAy?$AAp?$AAe?$AA?$CJ?$AA?5?$AA?$DM?$AA?5@ ; `string'
PUBLIC	??_C@_1HM@NCOAFGFM@?$AA?$CI?$AAd?$AAa?$AAt?$AAa?$AA?5?$AA?$CB?$AA?$DN?$AA?5?$AA0?$AA?5?$AA?$CG?$AA?$CG?$AA?5?$AAd@ ; `string'
PUBLIC	??_C@_1GG@ONMAEHAO@?$AAc?$AAo?$AAn?$AAd?$AA?5?$AA?$DN?$AA?$DN?$AA?5?$AAI?$AAm?$AAG?$AAu?$AAi?$AAC?$AAo@ ; `string'
PUBLIC	??_C@_1CM@DLJODDMB@?$AAp?$AAa?$AAy?$AAl?$AAo?$AAa?$AAd?$AA?4?$AAS?$AAo?$AAu?$AAr?$AAc?$AAe?$AAI@ ; `string'
PUBLIC	?__LINE__Var@?0??BeginDragDropTargetCustom@ImGui@@YA_NAEBUImRect@@I@Z@4JA ; `ImGui::BeginDragDropTargetCustom'::`1'::__LINE__Var
PUBLIC	??_C@_1EA@CHPNIKA@?$AAg?$AA?4?$AAD?$AAr?$AAa?$AAg?$AAD?$AAr?$AAo?$AAp?$AAW?$AAi?$AAt?$AAh?$AAi@ ; `string'
PUBLIC	?__LINE__Var@?0??BeginDragDropTarget@ImGui@@YA_NXZ@4JA ; `ImGui::BeginDragDropTarget'::`1'::__LINE__Var
PUBLIC	?__LINE__Var@?0??AcceptDragDropPayload@ImGui@@YAPEBUImGuiPayload@@PEBDH@Z@4JA ; `ImGui::AcceptDragDropPayload'::`1'::__LINE__Var
PUBLIC	??_C@_1DK@OHFCBLGB@?$AAp?$AAa?$AAy?$AAl?$AAo?$AAa?$AAd?$AA?4?$AAD?$AAa?$AAt?$AAa?$AAF?$AAr?$AAa@ ; `string'
PUBLIC	?__LINE__Var@?0??EndDragDropTarget@ImGui@@YAXXZ@4JA ; `ImGui::EndDragDropTarget'::`1'::__LINE__Var
PUBLIC	??_C@_1CO@LEPEHAFL@?$AAg?$AA?4?$AAD?$AAr?$AAa?$AAg?$AAD?$AAr?$AAo?$AAp?$AAW?$AAi?$AAt?$AAh?$AAi@ ; `string'
PUBLIC	??_C@_02PCIJFNDE@?$AN?6@			; `string'
PUBLIC	??_C@_07LFDEMEGD@?$CF?$CKs?$CF?4?$CKs@		; `string'
PUBLIC	?__LINE__Var@?0??LogBegin@ImGui@@YAXW4ImGuiLogType@@H@Z@4JA ; `ImGui::LogBegin'::`1'::__LINE__Var
PUBLIC	??_C@_1CM@DLAMPOKC@?$AAg?$AA?4?$AAL?$AAo?$AAg?$AAE?$AAn?$AAa?$AAb?$AAl?$AAe?$AAd?$AA?5?$AA?$DN?$AA?$DN@ ; `string'
PUBLIC	??_C@_1BO@HOGBMEAE@?$AAg?$AA?4?$AAL?$AAo?$AAg?$AAF?$AAi?$AAl?$AAe?$AA?5?$AA?$DN?$AA?$DN?$AA?5?$AA0@ ; `string'
PUBLIC	??_C@_1CI@CDGOCLNI@?$AAg?$AA?4?$AAL?$AAo?$AAg?$AAB?$AAu?$AAf?$AAf?$AAe?$AAr?$AA?4?$AAe?$AAm?$AAp@ ; `string'
PUBLIC	?__LINE__Var@?0??LogToFile@ImGui@@YAXHPEBD@Z@4JA ; `ImGui::LogToFile'::`1'::__LINE__Var
PUBLIC	??_C@_02BOGAIONP@ab@				; `string'
PUBLIC	?__LINE__Var@?0??LogFinish@ImGui@@YAXXZ@4JA	; `ImGui::LogFinish'::`1'::__LINE__Var
PUBLIC	??_C@_0L@DMNDGOCF@LogButtons@			; `string'
PUBLIC	??_C@_0L@COILDFG@Log?5To?5TTY@			; `string'
PUBLIC	??_C@_0M@KAEBEAHF@Log?5To?5File@		; `string'
PUBLIC	??_C@_0BB@CPOBJDKM@Log?5To?5Clipboard@		; `string'
PUBLIC	??_C@_0O@CONALMON@Default?5Depth@		; `string'
PUBLIC	?__LINE__Var@?0??UpdateSettings@ImGui@@YAXXZ@4JA ; `ImGui::UpdateSettings'::`1'::__LINE__Var
PUBLIC	??_C@_1DE@BLONNHPO@?$AAg?$AA?4?$AAS?$AAe?$AAt?$AAt?$AAi?$AAn?$AAg?$AAs?$AAW?$AAi?$AAn?$AAd?$AAo@ ; `string'
PUBLIC	??_C@_03OIJOKPOL@?$CD?$CD?$CD@			; `string'
PUBLIC	??_C@_02JDPG@rb@				; `string'
PUBLIC	?__LINE__Var@?0??LoadIniSettingsFromMemory@ImGui@@YAXPEBD_K@Z@4JA ; `ImGui::LoadIniSettingsFromMemory'::`1'::__LINE__Var
PUBLIC	??_C@_02BKFDOEMK@wt@				; `string'
PUBLIC	??_C@_09GOMOMIIP@Pos?$DN?$CFi?0?$CFi@		; `string'
PUBLIC	??_C@_0L@MPPKDMFA@Size?$DN?$CFi?0?$CFi@		; `string'
PUBLIC	??_C@_0N@IAKNMBB@Collapsed?$DN?$CFd@		; `string'
PUBLIC	?__LINE__Var@?0??WindowSettingsHandler_WriteAll@@YAXPEAUImGuiContext@@PEAUImGuiSettingsHandler@@PEAUImGuiTextBuffer@@@Z@4JA ; `WindowSettingsHandler_WriteAll'::`1'::__LINE__Var
PUBLIC	??_C@_1DG@BLKMIOLK@?$AAs?$AAe?$AAt?$AAt?$AAi?$AAn?$AAg?$AAs?$AA?9?$AA?$DO?$AAI?$AAD?$AA?5?$AA?$DN?$AA?$DN@ ; `string'
PUBLIC	??_C@_09HNFDDBIF@?$FL?$CFs?$FN?$FL?$CFs?$FN?6@	; `string'
PUBLIC	??_C@_0L@DDMADIHO@Pos?$DN?$CFd?0?$CFd?6@	; `string'
PUBLIC	??_C@_0M@CFANMDMP@Size?$DN?$CFd?0?$CFd?6@	; `string'
PUBLIC	??_C@_0O@JAFHMCKE@Collapsed?$DN?$CFd?6@		; `string'
PUBLIC	??_C@_01EEMJAFIK@?6@				; `string'
PUBLIC	?__LINE__Var@?0??UpdateViewportsNewFrame@ImGui@@YAXXZ@4JA ; `ImGui::UpdateViewportsNewFrame'::`1'::__LINE__Var
PUBLIC	??_C@_1CM@MPBIDJHA@?$AAg?$AA?4?$AAV?$AAi?$AAe?$AAw?$AAp?$AAo?$AAr?$AAt?$AAs?$AA?4?$AAS?$AAi?$AAz@ ; `string'
PUBLIC	??_C@_03NAEMJKHE@?$CI?$DP?$CJ@			; `string'
PUBLIC	??_C@_0BM@CNHCNFCK@Dear?5ImGui?5Metrics?1Debugger@ ; `string'
PUBLIC	??_C@_0O@NCHBJMJF@Dear?5ImGui?5?$CFs@		; `string'
PUBLIC	??_C@_0CN@EIPBEGMP@Application?5average?5?$CF?43f?5ms?1fra@ ; `string'
PUBLIC	??_C@_0CH@HHKODNBE@?$CFd?5vertices?0?5?$CFd?5indices?5?$CI?$CFd?5tri@ ; `string'
PUBLIC	??_C@_0BP@OPGGNCEP@?$CFd?5active?5windows?5?$CI?$CFd?5visible?$CJ@ ; `string'
PUBLIC	??_C@_0BG@NBPNMJGC@?$CFd?5active?5allocations@	; `string'
PUBLIC	??_C@_09DBGHEPMN@OuterRect@			; `string'
PUBLIC	??_C@_0BB@CJNOCIFN@OuterRectClipped@		; `string'
PUBLIC	??_C@_09PPJHMOMF@InnerRect@			; `string'
PUBLIC	??_C@_0O@BNFMFEHO@InnerClipRect@		; `string'
PUBLIC	??_C@_08FACDBJHD@WorkRect@			; `string'
PUBLIC	??_C@_07HLHPKMFI@Content@			; `string'
PUBLIC	??_C@_0N@FEPIKFED@ContentIdeal@			; `string'
PUBLIC	??_C@_0BC@NDBPEMLC@ContentRegionRect@		; `string'
PUBLIC	??_C@_0N@OPBPMFAC@HostClipRect@			; `string'
PUBLIC	??_C@_0BD@PAHDAJDC@BackgroundClipRect@		; `string'
PUBLIC	??_C@_0M@CDCMPDKG@ColumnsRect@			; `string'
PUBLIC	??_C@_0BA@ODEDLNCO@ColumnsWorkRect@		; `string'
PUBLIC	??_C@_0BA@JACIJDNM@ColumnsClipRect@		; `string'
PUBLIC	??_C@_0BK@BLBFMAOD@ColumnsContentHeadersUsed@	; `string'
PUBLIC	??_C@_0BL@FAEPMJDA@ColumnsContentHeadersIdeal@	; `string'
PUBLIC	??_C@_0BF@HAPEHPAK@ColumnsContentFrozen@	; `string'
PUBLIC	??_C@_0BH@NNGOPODG@ColumnsContentUnfrozen@	; `string'
PUBLIC	??_C@_05OENKALAF@Tools@				; `string'
PUBLIC	??_C@_0O@BDKBPKIH@Item?5Picker?4?4@		; `string'
PUBLIC	??_C@_0IF@BGKDCLHL@Will?5call?5the?5IM_DEBUG_BREAK?$CI?$CJ?5@ ; `string'
PUBLIC	??_C@_0BJ@HJBAEIMP@Show?5windows?5begin?5order@	; `string'
PUBLIC	??_C@_0BI@DIKJGFFM@Show?5windows?5rectangles@	; `string'
PUBLIC	??_C@_0BJ@OFHLDDCB@?$CD?$CDshow_windows_rect_type@ ; `string'
PUBLIC	??_C@_05DMJEEKMI@?8?$CFs?8?3@			; `string'
PUBLIC	??_C@_0DC@MPAIEFII@?$CI?$CF6?41f?0?$CF6?41f?$CJ?5?$CI?$CF6?41f?0?$CF6?41f?$CJ?5Siz@ ; `string'
PUBLIC	??_C@_0CC@NLEJJGFA@Show?5ImDrawCmd?5mesh?5when?5hoveri@ ; `string'
PUBLIC	??_C@_0CM@GCNMPAKG@Show?5ImDrawCmd?5bounding?5boxes?5w@ ; `string'
PUBLIC	??_C@_0BH@GINBNIDO@Show?5tables?5rectangles@	; `string'
PUBLIC	??_C@_0BI@CCENNJPN@?$CD?$CDshow_table_rects_type@ ; `string'
PUBLIC	??_C@_0CD@PGABKCAC@Table?50x?$CF08X?5?$CI?$CFd?5columns?0?5in?5?8?$CF@ ; `string'
PUBLIC	??_C@_0DJ@IFLDIHOJ@?$CI?$CF6?41f?0?$CF6?41f?$CJ?5?$CI?$CF6?41f?0?$CF6?41f?$CJ?5Siz@ ; `string'
PUBLIC	??_C@_07LDLFNPGN@Windows@			; `string'
PUBLIC	??_C@_0P@EHGADCPI@DrawLists?5?$CI?$CFd?$CJ@	; `string'
PUBLIC	??_C@_09KCCHKPGA@DrawLists@			; `string'
PUBLIC	??_C@_08IJNCDCKF@DrawList@			; `string'
PUBLIC	??_C@_0P@HKKCMMOO@Viewports?5?$CI?$CFd?$CJ@	; `string'
PUBLIC	??_C@_09GPOHHJPA@Viewports@			; `string'
PUBLIC	??_C@_0M@CMLJJLKO@Popups?5?$CI?$CFd?$CJ@	; `string'
PUBLIC	??_C@_06ENDEIGLN@Popups@			; `string'
PUBLIC	??_C@_0L@CMJPHOMG@?5ChildMenu@			; `string'
PUBLIC	??_C@_0N@FFCBFAEB@?5ChildWindow@		; `string'
PUBLIC	??_C@_04HIBGFPH@NULL@				; `string'
PUBLIC	??_C@_0CA@FCBKAHPI@PopupID?3?5?$CF08x?0?5Window?3?5?8?$CFs?8?$CFs?$CFs@ ; `string'
PUBLIC	??_C@_0O@JLIGAOM@Tab?5Bars?5?$CI?$CFd?$CJ@	; `string'
PUBLIC	??_C@_07NBICDJOO@TabBars@			; `string'
PUBLIC	??_C@_06PAFCDPCC@TabBar@			; `string'
PUBLIC	??_C@_0M@GKKKBBGH@Tables?5?$CI?$CFd?$CJ@	; `string'
PUBLIC	??_C@_06KOKNHOLC@Tables@			; `string'
PUBLIC	??_C@_0L@IBDLAPEA@Fonts?5?$CI?$CFd?$CJ@		; `string'
PUBLIC	??_C@_05ENDNDI@Fonts@				; `string'
PUBLIC	??_C@_08EEOHOBEO@Settings@			; `string'
PUBLIC	??_C@_05MDNHABIA@Clear@				; `string'
PUBLIC	??_C@_0P@BGFPLLLP@Save?5to?5memory@		; `string'
PUBLIC	??_C@_0N@PMPOLMLD@Save?5to?5disk@		; `string'
PUBLIC	??_C@_04OEDFLLKD@?$CC?$CFs?$CC@			; `string'
PUBLIC	??_C@_06CBHGEMFM@?$DMNULL?$DO@			; `string'
PUBLIC	??_C@_0BI@KCGHKNOH@SettingsDirtyTimer?5?$CF?42f@ ; `string'
PUBLIC	??_C@_0BI@PGENAEOL@Settings?5handlers?3?5?$CI?$CFd?$CJ@ ; `string'
PUBLIC	??_C@_0BB@NEINIHH@SettingsHandlers@		; `string'
PUBLIC	??_C@_02DKCKIIND@?$CFs@				; `string'
PUBLIC	??_C@_0CI@CKIDLOMN@Settings?5packed?5data?3?5Windows?3?5@ ; `string'
PUBLIC	??_C@_0BA@GOMGONFN@SettingsWindows@		; `string'
PUBLIC	??_C@_0CH@GODOBOJJ@Settings?5packed?5data?3?5Tables?3?5?$CF@ ; `string'
PUBLIC	??_C@_0P@NAODIHNN@SettingsTables@		; `string'
PUBLIC	??_C@_0CI@MPNDIPDD@Settings?5unpacked?5data?5?$CI?4ini?$CJ?3?5@ ; `string'
PUBLIC	??_C@_0BA@IEPJFGMP@SettingsIniData@		; `string'
PUBLIC	??_C@_05FJAOFNGD@?$CD?$CDIni@			; `string'
PUBLIC	??_C@_0P@DKNCHHLP@Internal?5state@		; `string'
PUBLIC	??_C@_04OHJIHAFH@None@				; `string'
PUBLIC	??_C@_05PEEFLODH@Mouse@				; `string'
PUBLIC	??_C@_08CPOKIBJK@Keyboard@			; `string'
PUBLIC	??_C@_07FCEHOHKC@Gamepad@			; `string'
PUBLIC	??_C@_03JFAAHAIK@Nav@				; `string'
PUBLIC	??_C@_09HLEDPOBH@Clipboard@			; `string'
PUBLIC	??_C@_09OOMCPLIM@WINDOWING@			; `string'
PUBLIC	??_C@_0BE@NBGIHPGN@HoveredWindow?3?5?8?$CFs?8@	; `string'
PUBLIC	??_C@_0BK@GFBMGONH@HoveredWindow?9?$DORoot?3?5?8?$CFs?8@ ; `string'
PUBLIC	??_C@_0CF@OOIEDAD@HoveredWindowUnderMovingWindow?3@ ; `string'
PUBLIC	??_C@_0BD@HCKEDLME@MovingWindow?3?5?8?$CFs?8@	; `string'
PUBLIC	??_C@_05OOOHNEPI@ITEMS@				; `string'
PUBLIC	??_C@_0EB@PEJDHKLE@ActiveId?3?50x?$CF08X?10x?$CF08X?5?$CI?$CF?42f?5s@ ; `string'
PUBLIC	??_C@_0BF@CPEAOPEJ@ActiveIdWindow?3?5?8?$CFs?8@	; `string'
PUBLIC	??_C@_0EP@NGKPCOLK@ActiveIdUsing?3?5Wheel?3?5?$CFd?0?5NavDi@ ; `string'
PUBLIC	??_C@_0DG@FAAGHPBL@HoveredId?3?50x?$CF08X?10x?$CF08X?5?$CI?$CF?42f?5@ ; `string'
PUBLIC	??_C@_0DJ@OPOHHHAC@DragDrop?3?5?$CFd?0?5SourceId?5?$DN?50x?$CF08X@ ; `string'
PUBLIC	??_C@_09LPFJCNIB@NAV?0FOCUS@			; `string'
PUBLIC	??_C@_0BA@KJPDENCF@NavWindow?3?5?8?$CFs?8@	; `string'
PUBLIC	??_C@_0BM@KFFINKHC@NavId?3?50x?$CF08X?0?5NavLayer?3?5?$CFd@ ; `string'
PUBLIC	??_C@_0BD@HIKDFBG@NavInputSource?3?5?$CFs@	; `string'
PUBLIC	??_C@_0BO@PADIALFI@NavActive?3?5?$CFd?0?5NavVisible?3?5?$CFd@ ; `string'
PUBLIC	??_C@_0CK@FMBJOEO@NavActivateId?3?50x?$CF08X?0?5NavInput@ ; `string'
PUBLIC	??_C@_0DC@PBLGJJAI@NavDisableHighlight?3?5?$CFd?0?5NavDis@ ; `string'
PUBLIC	??_C@_0BJ@GGAKOFG@NavFocusScopeId?5?$DN?50x?$CF08X@ ; `string'
PUBLIC	??_C@_0BJ@HGGGEMAP@NavWindowingTarget?3?5?8?$CFs?8@ ; `string'
PUBLIC	??_C@_02DPKJAMEF@?$CFd@				; `string'
PUBLIC	??_C@_0BN@JPEJHLJM@Atlas?5texture?5?$CI?$CFdx?$CFd?5pixels?$CJ@ ; `string'
PUBLIC	??_C@_0O@KCJLBEBN@Atlas?5texture@		; `string'
PUBLIC	??_C@_0CN@LMOAIACO@Columns?5Id?3?50x?$CF08X?0?5Count?3?5?$CFd?0?5@ ; `string'
PUBLIC	??_C@_0CF@PKFCLBKA@Width?3?5?$CF?41f?5?$CIMinX?3?5?$CF?41f?0?5MaxX?3?5@ ; `string'
PUBLIC	??_C@_0CJ@CPAFBJNN@Column?5?$CF02d?3?5OffsetNorm?5?$CF?43f?5?$CI?$DN@ ; `string'
PUBLIC	??_C@_0CF@IMBENNLG@?$CFs?3?5?8?$CFs?8?5?$CFd?5vtx?0?5?$CFd?5indices?0?5?$CFd@ ; `string'
PUBLIC	??_C@_0BE@LDCFEMCB@CURRENTLY?5APPENDING@	; `string'
PUBLIC	??_C@_0EJ@LNIIFBMO@Warning?3?5owning?5Window?5is?5inact@ ; `string'
PUBLIC	??_C@_0BK@FDNBBNBF@Callback?5?$CFp?0?5user_data?5?$CFp@ ; `string'
PUBLIC	??_C@_0EB@FAPEKKJB@DrawCmd?3?$CF5d?5tris?0?5Tex?50x?$CFp?0?5Cli@ ; `string'
PUBLIC	??_C@_0EE@EGAMBHDK@Mesh?3?5ElemCount?3?5?$CFd?0?5VtxOffset?3@ ; `string'
PUBLIC	??_C@_05HCFPDLGJ@Vert?3@			; `string'
PUBLIC	??_C@_05IFKLLJBC@?5?5?5?5?5@			; `string'
PUBLIC	??_C@_0DG@MPIFBGBG@?$CFs?5?$CF04d?3?5pos?5?$CI?$CF8?42f?0?$CF8?42f?$CJ?0?5uv?5@ ; `string'
PUBLIC	?__LINE__Var@?0??DebugNodeDrawCmdShowMeshAndBoundingBox@ImGui@@YAXPEAUImDrawList@@PEBU3@PEBUImDrawCmd@@_N3@Z@4JA ; `ImGui::DebugNodeDrawCmdShowMeshAndBoundingBox'::`1'::__LINE__Var
PUBLIC	??_C@_1CO@NHFPKPKM@?$AAs?$AAh?$AAo?$AAw?$AA_?$AAm?$AAe?$AAs?$AAh?$AA?5?$AA?$HM?$AA?$HM?$AA?5?$AAs?$AAh@ ; `string'
PUBLIC	??_C@_0CK@IFCNIJMP@Font?3?5?$CC?$CFs?$CC?6?$CF?42f?5px?0?5?$CFd?5glyphs?0?5@ ; `string'
PUBLIC	??_C@_0P@HCLAAKJM@Set?5as?5default@		; `string'
PUBLIC	??_C@_0CM@HCLJNHNJ@The?5quick?5brown?5fox?5jumps?5over?5@ ; `string'
PUBLIC	??_C@_04GGBPDDBN@?$CF?41f@			; `string'
PUBLIC	??_C@_0L@HAJGHBLA@Font?5scale@			; `string'
PUBLIC	??_C@_0BIM@BPPJLJKD@Note?5than?5the?5default?5embedded?5@ ; `string'
PUBLIC	??_C@_0CE@FJCMKHHK@Ascent?3?5?$CFf?0?5Descent?3?5?$CFf?0?5Height@ ; `string'
PUBLIC	??_C@_0CC@FDGLEGDM@Fallback?5character?3?5?8?$CFs?8?5?$CIU?$CL?$CF04@ ; `string'
PUBLIC	??_C@_0CC@FAJAAGEH@Ellipsis?5character?3?5?8?$CFs?8?5?$CIU?$CL?$CF04@ ; `string'
PUBLIC	??_C@_0CE@LLADJGCM@Texture?5Area?3?5about?5?$CFd?5px?5?$HO?$CFdx?$CF@ ; `string'
PUBLIC	??_C@_0EJ@EOFKACMP@Input?5?$CFd?3?5?8?$CFs?8?0?5Oversample?3?5?$CI?$CFd@ ; `string'
PUBLIC	??_C@_0M@NEAHLNMH@Glyphs?5?$CI?$CFd?$CJ@	; `string'
PUBLIC	??_C@_06EBCCDGNI@Glyphs@			; `string'
PUBLIC	??_C@_06IOJPAPEE@glyphs@			; `string'
PUBLIC	??_C@_05OIOMJNBL@glyph@				; `string'
PUBLIC	??_C@_0BH@KIECHKHD@U?$CL?$CF04X?4?4U?$CL?$CF04X?5?$CI?$CFd?5?$CFs?$CJ@ ; `string'
PUBLIC	??_C@_0BC@JMLDGIFC@Codepoint?3?5U?$CL?$CF04X@	; `string'
PUBLIC	??_C@_0M@GDBOFNKK@Visible?3?5?$CFd@		; `string'
PUBLIC	??_C@_0P@JLIDDFIB@AdvanceX?3?5?$CF?41f@		; `string'
PUBLIC	??_C@_0BO@BCFBHCGJ@Pos?3?5?$CI?$CF?42f?0?$CF?42f?$CJ?9?$DO?$CI?$CF?42f?0?$CF?42f?$CJ@ ; `string'
PUBLIC	??_C@_0BN@EHEDNDHJ@UV?3?5?$CI?$CF?43f?0?$CF?43f?$CJ?9?$DO?$CI?$CF?43f?0?$CF?43f?$CJ@ ; `string'
PUBLIC	??_C@_0BJ@EFAEFOHB@?$CFs?3?5?$CFd?5entries?0?5?$CFd?5bytes@ ; `string'
PUBLIC	??_C@_0BL@LEAFLIMO@Key?50x?$CF08X?5Value?5?$HL?5i?3?5?$CFd?5?$HN@ ; `string'
PUBLIC	??_C@_0M@MDILNFHC@?5?$CKInactive?$CK@		; `string'
PUBLIC	??_C@_0BG@BDDHJGDD@?$CFs?50x?$CF08X?5?$CI?$CFd?5tabs?$CJ?$CFs@ ; `string'
PUBLIC	??_C@_04JFAOCLML@?5?5?$HL?5@			; `string'
PUBLIC	??_C@_03BBKEAIF@?$DP?$DP?$DP@			; `string'
PUBLIC	??_C@_02KEGNLNML@?0?5@				; `string'
PUBLIC	??_C@_06BKNPIBKB@?$CFs?8?$CFs?8@		; `string'
PUBLIC	??_C@_06MEIHFGI@?5?4?4?4?5?$HN@			; `string'
PUBLIC	??_C@_03LHCEFAHM@?5?$HN?5@			; `string'
PUBLIC	??_C@_01MNNFJEPP@?$DM@				; `string'
PUBLIC	??_C@_01PPODPGHN@?$DO@				; `string'
PUBLIC	??_C@_0DG@MOHAOPFA@?$CF02d?$CFc?5Tab?50x?$CF08X?5?8?$CFs?8?5Offset?3?5@ ; `string'
PUBLIC	??_C@_0N@IHHEFJLI@Viewport?5?$CD?$CFd@		; `string'
PUBLIC	??_C@_09PLOOGGOG@viewport0@			; `string'
PUBLIC	??_C@_0GJ@COEDEIEA@Main?5Pos?3?5?$CI?$CF?40f?0?$CF?40f?$CJ?0?5Size?3?5?$CI?$CF@ ; `string'
PUBLIC	??_C@_0M@FAFJAKJI@?5OwnedByApp@			; `string'
PUBLIC	??_C@_0BD@FKGIEJBE@?5IsPlatformMonitor@		; `string'
PUBLIC	??_C@_0BC@KGGIDDGG@?5IsPlatformWindow@		; `string'
PUBLIC	??_C@_0BG@LEDJFOBI@Flags?3?50x?$CF04X?5?$DN?$CFs?$CFs?$CFs@ ; `string'
PUBLIC	??_C@_08MGKMCIPB@?$CFs?3?5NULL@			; `string'
PUBLIC	??_C@_09GBCBPCGK@?$CFs?5?8?$CFs?8?$CFs@		; `string'
PUBLIC	??_C@_0DF@KJLKCABL@Note?3?5some?5memory?5buffers?5have?5@ ; `string'
PUBLIC	??_C@_0EP@MJAPPIBI@Pos?3?5?$CI?$CF?41f?0?$CF?41f?$CJ?0?5Size?3?5?$CI?$CF?41f?0?$CF@ ; `string'
PUBLIC	??_C@_0BB@GGEIPOID@AlwaysAutoResize@		; `string'
PUBLIC	??_C@_0M@COLEABDL@NoNavInputs@			; `string'
PUBLIC	??_C@_0O@LAPEOEIJ@NoMouseInputs@		; `string'
PUBLIC	??_C@_0BB@EBNDPMCP@NoSavedSettings?5@		; `string'
PUBLIC	??_C@_0L@OPMMHACC@ChildMenu?5@			; `string'
PUBLIC	??_C@_06IFIMNOLK@Modal?5@			; `string'
PUBLIC	??_C@_06NMKCIICK@Popup?5@			; `string'
PUBLIC	??_C@_08LGECAIGF@Tooltip?5@			; `string'
PUBLIC	??_C@_06MMFPNIIL@Child?5@			; `string'
PUBLIC	??_C@_0CF@HFFEAFCN@Flags?3?50x?$CF08X?5?$CI?$CFs?$CFs?$CFs?$CFs?$CFs?$CFs?$CFs?$CFs@ ; `string'
PUBLIC	??_C@_01NFFPALBN@Y@				; `string'
PUBLIC	??_C@_01MMEEDKFM@X@				; `string'
PUBLIC	??_C@_0CN@OBHMFINH@Scroll?3?5?$CI?$CF?42f?1?$CF?42f?0?$CF?42f?1?$CF?42f?$CJ?5S@ ; `string'
PUBLIC	??_C@_0DO@LPCMGHLI@Active?3?5?$CFd?1?$CFd?0?5WriteAccessed?3?5?$CF@ ; `string'
PUBLIC	??_C@_0EA@JLDPMAKO@Appearing?3?5?$CFd?0?5Hidden?3?5?$CFd?5?$CICanS@ ; `string'
PUBLIC	??_C@_0BH@EDAJMFBI@NavLastIds?$FL?$CFd?$FN?3?50x?$CF08X@ ; `string'
PUBLIC	??_C@_0DC@PKDENGJH@NavLastIds?$FL?$CFd?$FN?3?50x?$CF08X?5at?5?$CL?$CI?$CF?41@ ; `string'
PUBLIC	??_C@_0DD@ILECKNFA@NavLayersActiveMask?3?5?$CFX?0?5NavLas@ ; `string'
PUBLIC	??_C@_0L@EHLMOHOL@RootWindow@			; `string'
PUBLIC	??_C@_0N@BPPHAMMO@ParentWindow@			; `string'
PUBLIC	??_C@_0N@BGDHDNPO@ChildWindows@			; `string'
PUBLIC	??_C@_0BC@FIDDFLAI@Columns?5sets?5?$CI?$CFd?$CJ@ ; `string'
PUBLIC	??_C@_07IBCCJKML@Columns@			; `string'
PUBLIC	??_C@_07PFGLPMIK@Storage@			; `string'
PUBLIC	??_C@_0DC@NLKEEDHM@0x?$CF08X?5?$CC?$CFs?$CC?5Pos?5?$CI?$CFd?0?$CFd?$CJ?5Size?5?$CI?$CF@ ; `string'
PUBLIC	??_C@_07JMKCEEPK@?$CFs?5?$CI?$CFd?$CJ@		; `string'
PUBLIC	??_C@_0BK@GKODIOOH@?$CIIn?5front?9to?9back?5order?3?$CJ@ ; `string'
PUBLIC	??_C@_1DC@DHFOGPCD@?$AAp?$AA?5?$AA?$DO?$AA?$DN?$AA?5?$AAD?$AAa?$AAt?$AAa?$AA?5?$AA?$CG?$AA?$CG?$AA?5?$AAp?$AA?5@ ; `string'
PUBLIC	??_C@_1DO@NPHOAPAC@?$AAi?$AAt?$AA?5?$AA?$DO?$AA?$DN?$AA?5?$AAD?$AAa?$AAt?$AAa?$AA?5?$AA?$CG?$AA?$CG?$AA?5?$AAi@ ; `string'
PUBLIC	??_C@_1CG@GPMNJCJ@?$AAi?$AA?5?$AA?$DO?$AA?$DN?$AA?5?$AA0?$AA?5?$AA?$CG?$AA?$CG?$AA?5?$AAi?$AA?5?$AA?$DM?$AA?5?$AAS@ ; `string'
PUBLIC	??_C@_1BC@KCECIPDP@?$AAS?$AAi?$AAz?$AAe?$AA?5?$AA?$DO?$AA?5?$AA0@ ; `string'
PUBLIC	??_C@_1DE@BDDBABLK@?$AAp?$AA?5?$AA?$DO?$AA?$DN?$AA?5?$AAb?$AAe?$AAg?$AAi?$AAn?$AA?$CI?$AA?$CJ?$AA?5?$AA?$CG?$AA?$CG@ ; `string'
PUBLIC	??_C@_1BE@OEELIPPM@?$AAp?$AA?5?$AA?$DM?$AA?5?$AAe?$AAn?$AAd?$AA?$CI?$AA?$CJ@ ; `string'
PUBLIC	??_C@_1DG@EPOMENA@?$AAo?$AAf?$AAf?$AA?5?$AA?$DO?$AA?$DN?$AA?5?$AA4?$AA?5?$AA?$CG?$AA?$CG?$AA?5?$AAo?$AAf?$AAf@ ; `string'
PUBLIC	??_C@_1EA@INDCAEFK@?$AAi?$AAt?$AA?5?$AA?$DO?$AA?$DN?$AA?5?$AAD?$AAa?$AAt?$AAa?$AA?5?$AA?$CG?$AA?$CG?$AA?5?$AAi@ ; `string'
PUBLIC	__real@00000000
PUBLIC	__real@1e3ce508
PUBLIC	__real@3727c5ac
PUBLIC	__real@38d1b717
PUBLIC	__real@3b808081
PUBLIC	__real@3ba3d70a
PUBLIC	__real@3c23d70a
PUBLIC	__real@3c888889
PUBLIC	__real@3d23d70a
PUBLIC	__real@3d4ccccd
PUBLIC	__real@3dcccccd
PUBLIC	__real@3e000000
PUBLIC	__real@3e19999a
PUBLIC	__real@3e2aaaab
PUBLIC	__real@3e4ccccd
PUBLIC	__real@3e800000
PUBLIC	__real@3e8ccccd
PUBLIC	__real@3e99999a
PUBLIC	__real@3ecccccd
PUBLIC	__real@3f000000
PUBLIC	__real@3f19999a
PUBLIC	__real@3f266666
PUBLIC	__real@3f2b851f
PUBLIC	__real@3f333333
PUBLIC	__real@3f3851ec
PUBLIC	__real@3f400000
PUBLIC	__real@3f490fdb
PUBLIC	__real@3f4ccccd
PUBLIC	__real@3f7fff58
PUBLIC	__real@3f800000
PUBLIC	__real@3f8ccccd
PUBLIC	__real@3fa00000
PUBLIC	__real@3faccccd
PUBLIC	__real@3fc90fdb
PUBLIC	__real@40000000
PUBLIC	__real@40200000
PUBLIC	__real@40400000
PUBLIC	__real@40490fdb
PUBLIC	__real@40600000
PUBLIC	__real@40800000
PUBLIC	__real@4096cbe4
PUBLIC	__real@40a00000
PUBLIC	__real@40c00000
PUBLIC	__real@41000000
PUBLIC	__real@41100000
PUBLIC	__real@41200000
PUBLIC	__real@41400000
PUBLIC	__real@41600000
PUBLIC	__real@41800000
PUBLIC	__real@41980000
PUBLIC	__real@41a00000
PUBLIC	__real@41a80000
PUBLIC	__real@41c00000
PUBLIC	__real@42000000
PUBLIC	__real@420c0000
PUBLIC	__real@42700000
PUBLIC	__real@42a00000
PUBLIC	__real@42c80000
PUBLIC	__real@437f0000
PUBLIC	__real@43c80000
PUBLIC	__real@44160000
PUBLIC	__real@44480000
PUBLIC	__real@447a0000
PUBLIC	__real@7f7fffff
PUBLIC	__real@80800000
PUBLIC	__real@beaaaaab
PUBLIC	__real@bf800000
PUBLIC	__real@c87a0000
PUBLIC	__real@ff7fffff
PUBLIC	__xmm@7fffffffffffffff7fffffffffffffff
PUBLIC	__xmm@80000000800000008000000080000000
EXTRN	??_L@YAXPEAX_K1P6AX0@Z2@Z:PROC			; `eh vector constructor iterator'
EXTRN	??_M@YAXPEAX_K1P6AX0@Z@Z:PROC			; `eh vector destructor iterator'
EXTRN	??3@YAXPEAX_K@Z:PROC				; operator delete
EXTRN	strstr:PROC
EXTRN	__imp_strncpy:PROC
EXTRN	__imp__wassert:PROC
EXTRN	?StyleColorsDark@ImGui@@YAXPEAUImGuiStyle@@@Z:PROC ; ImGui::StyleColorsDark
EXTRN	?Separator@ImGui@@YAXXZ:PROC			; ImGui::Separator
EXTRN	?Dummy@ImGui@@YAXAEBUImVec2@@@Z:PROC		; ImGui::Dummy
EXTRN	?TextUnformatted@ImGui@@YAXPEBD0@Z:PROC		; ImGui::TextUnformatted
EXTRN	?Text@ImGui@@YAXPEBDZZ:PROC			; ImGui::Text
EXTRN	?TextV@ImGui@@YAXPEBDPEAD@Z:PROC		; ImGui::TextV
EXTRN	?TextColored@ImGui@@YAXAEBUImVec4@@PEBDZZ:PROC	; ImGui::TextColored
EXTRN	?TextDisabled@ImGui@@YAXPEBDZZ:PROC		; ImGui::TextDisabled
EXTRN	?BulletText@ImGui@@YAXPEBDZZ:PROC		; ImGui::BulletText
EXTRN	?Button@ImGui@@YA_NPEBDAEBUImVec2@@@Z:PROC	; ImGui::Button
EXTRN	?SmallButton@ImGui@@YA_NPEBD@Z:PROC		; ImGui::SmallButton
EXTRN	?Image@ImGui@@YAXPEAXAEBUImVec2@@11AEBUImVec4@@2@Z:PROC ; ImGui::Image
EXTRN	?Checkbox@ImGui@@YA_NPEBDPEA_N@Z:PROC		; ImGui::Checkbox
EXTRN	?Combo@ImGui@@YA_NPEBDPEAHQEBQEBDHH@Z:PROC	; ImGui::Combo
EXTRN	?DragFloat@ImGui@@YA_NPEBDPEAMMMM0H@Z:PROC	; ImGui::DragFloat
EXTRN	?SliderInt@ImGui@@YA_NPEBDPEAHHH0H@Z:PROC	; ImGui::SliderInt
EXTRN	?InputText@ImGui@@YA_NPEBDPEAD_KHP6AHPEAUImGuiInputTextCallbackData@@@ZPEAX@Z:PROC ; ImGui::InputText
EXTRN	?InputTextMultiline@ImGui@@YA_NPEBDPEAD_KAEBUImVec2@@HP6AHPEAUImGuiInputTextCallbackData@@@ZPEAX@Z:PROC ; ImGui::InputTextMultiline
EXTRN	?TreeNode@ImGui@@YA_NPEBD@Z:PROC		; ImGui::TreeNode
EXTRN	?TreeNode@ImGui@@YA_NPEBD0ZZ:PROC		; ImGui::TreeNode
EXTRN	?TreeNode@ImGui@@YA_NPEBXPEBDZZ:PROC		; ImGui::TreeNode
EXTRN	?TreeNodeEx@ImGui@@YA_NPEBDH0ZZ:PROC		; ImGui::TreeNodeEx
EXTRN	?TreePop@ImGui@@YAXXZ:PROC			; ImGui::TreePop
EXTRN	?GetTreeNodeToLabelSpacing@ImGui@@YAMXZ:PROC	; ImGui::GetTreeNodeToLabelSpacing
EXTRN	?SetNextItemOpen@ImGui@@YAX_NH@Z:PROC		; ImGui::SetNextItemOpen
EXTRN	?Selectable@ImGui@@YA_NPEBD_NHAEBUImVec2@@@Z:PROC ; ImGui::Selectable
EXTRN	?EndTable@ImGui@@YAXXZ:PROC			; ImGui::EndTable
EXTRN	?EndTabBar@ImGui@@YAXXZ:PROC			; ImGui::EndTabBar
EXTRN	?ClearFreeMemory@ImDrawListSplitter@@QEAAXXZ:PROC ; ImDrawListSplitter::ClearFreeMemory
EXTRN	?PushClipRect@ImDrawList@@QEAAXUImVec2@@0_N@Z:PROC ; ImDrawList::PushClipRect
EXTRN	?PopClipRect@ImDrawList@@QEAAXXZ:PROC		; ImDrawList::PopClipRect
EXTRN	?PushTextureID@ImDrawList@@QEAAXPEAX@Z:PROC	; ImDrawList::PushTextureID
EXTRN	?PopTextureID@ImDrawList@@QEAAXXZ:PROC		; ImDrawList::PopTextureID
EXTRN	?AddLine@ImDrawList@@QEAAXAEBUImVec2@@0IM@Z:PROC ; ImDrawList::AddLine
EXTRN	?AddRect@ImDrawList@@QEAAXAEBUImVec2@@0IMHM@Z:PROC ; ImDrawList::AddRect
EXTRN	?AddRectFilled@ImDrawList@@QEAAXAEBUImVec2@@0IMH@Z:PROC ; ImDrawList::AddRectFilled
EXTRN	?AddText@ImDrawList@@QEAAXAEBUImVec2@@IPEBD1@Z:PROC ; ImDrawList::AddText
EXTRN	?AddText@ImDrawList@@QEAAXPEBUImFont@@MAEBUImVec2@@IPEBD2MPEBUImVec4@@@Z:PROC ; ImDrawList::AddText
EXTRN	?AddPolyline@ImDrawList@@QEAAXPEBUImVec2@@HIHM@Z:PROC ; ImDrawList::AddPolyline
EXTRN	?AddConvexPolyFilled@ImDrawList@@QEAAXPEBUImVec2@@HI@Z:PROC ; ImDrawList::AddConvexPolyFilled
EXTRN	?PathArcTo@ImDrawList@@QEAAXAEBUImVec2@@MMMH@Z:PROC ; ImDrawList::PathArcTo
EXTRN	?PathArcToFast@ImDrawList@@QEAAXAEBUImVec2@@MHH@Z:PROC ; ImDrawList::PathArcToFast
EXTRN	?_ResetForNewFrame@ImDrawList@@QEAAXXZ:PROC	; ImDrawList::_ResetForNewFrame
EXTRN	?_ClearFreeMemory@ImDrawList@@QEAAXXZ:PROC	; ImDrawList::_ClearFreeMemory
EXTRN	?_PopUnusedDrawCmd@ImDrawList@@QEAAXXZ:PROC	; ImDrawList::_PopUnusedDrawCmd
EXTRN	??0ImFontAtlas@@QEAA@XZ:PROC			; ImFontAtlas::ImFontAtlas
EXTRN	??1ImFontAtlas@@QEAA@XZ:PROC			; ImFontAtlas::~ImFontAtlas
EXTRN	??0ImFont@@QEAA@XZ:PROC				; ImFont::ImFont
EXTRN	??1ImFont@@QEAA@XZ:PROC				; ImFont::~ImFont
EXTRN	?FindGlyph@ImFont@@QEBAPEBUImFontGlyph@@G@Z:PROC ; ImFont::FindGlyph
EXTRN	?FindGlyphNoFallback@ImFont@@QEBAPEBUImFontGlyph@@G@Z:PROC ; ImFont::FindGlyphNoFallback
EXTRN	?CalcTextSizeA@ImFont@@QEBA?AUImVec2@@MMMPEBD0PEAPEBD@Z:PROC ; ImFont::CalcTextSizeA
EXTRN	?RenderChar@ImFont@@QEBAXPEAUImDrawList@@MUImVec2@@IG@Z:PROC ; ImFont::RenderChar
EXTRN	?IsGlyphRangeUnused@ImFont@@QEAA_NII@Z:PROC	; ImFont::IsGlyphRangeUnused
EXTRN	__imp___acrt_iob_func:PROC
EXTRN	__imp__wfopen:PROC
EXTRN	__imp_fclose:PROC
EXTRN	__imp_fflush:PROC
EXTRN	__imp_fread:PROC
EXTRN	__imp_fseek:PROC
EXTRN	__imp_ftell:PROC
EXTRN	__imp_fwrite:PROC
EXTRN	__imp___stdio_common_vsprintf:PROC
EXTRN	__imp___stdio_common_vsscanf:PROC
EXTRN	__imp_free:PROC
EXTRN	__imp_malloc:PROC
EXTRN	__imp_qsort:PROC
EXTRN	?ImBezierCubicCalc@@YA?AUImVec2@@AEBU1@000M@Z:PROC ; ImBezierCubicCalc
EXTRN	??0ImDrawListSharedData@@QEAA@XZ:PROC		; ImDrawListSharedData::ImDrawListSharedData
EXTRN	?SetCircleTessellationMaxError@ImDrawListSharedData@@QEAAXM@Z:PROC ; ImDrawListSharedData::SetCircleTessellationMaxError
EXTRN	?Update@ImGuiMenuColumns@@QEAAXHM_N@Z:PROC	; ImGuiMenuColumns::Update
EXTRN	?EndColumns@ImGui@@YAXXZ:PROC			; ImGui::EndColumns
EXTRN	?GetColumnOffsetFromNorm@ImGui@@YAMPEBUImGuiOldColumns@@M@Z:PROC ; ImGui::GetColumnOffsetFromNorm
EXTRN	?TableEndRow@ImGui@@YAXPEAUImGuiTable@@@Z:PROC	; ImGui::TableEndRow
EXTRN	?TableGcCompactTransientBuffers@ImGui@@YAXPEAUImGuiTable@@@Z:PROC ; ImGui::TableGcCompactTransientBuffers
EXTRN	?TableGcCompactTransientBuffers@ImGui@@YAXPEAUImGuiTableTempData@@@Z:PROC ; ImGui::TableGcCompactTransientBuffers
EXTRN	?TableGcCompactSettings@ImGui@@YAXXZ:PROC	; ImGui::TableGcCompactSettings
EXTRN	?TableSettingsInstallHandler@ImGui@@YAXPEAUImGuiContext@@@Z:PROC ; ImGui::TableSettingsInstallHandler
EXTRN	?TabBarQueueReorder@ImGui@@YAXPEAUImGuiTabBar@@PEBUImGuiTabItem@@H@Z:PROC ; ImGui::TabBarQueueReorder
EXTRN	?RenderBullet@ImGui@@YAXPEAUImDrawList@@UImVec2@@I@Z:PROC ; ImGui::RenderBullet
EXTRN	?RenderMouseCursor@ImGui@@YAXPEAUImDrawList@@UImVec2@@MHIII@Z:PROC ; ImGui::RenderMouseCursor
EXTRN	?CloseButton@ImGui@@YA_NIAEBUImVec2@@@Z:PROC	; ImGui::CloseButton
EXTRN	?CollapseButton@ImGui@@YA_NIAEBUImVec2@@@Z:PROC	; ImGui::CollapseButton
EXTRN	?Scrollbar@ImGui@@YAXW4ImGuiAxis@@@Z:PROC	; ImGui::Scrollbar
EXTRN	?ButtonBehavior@ImGui@@YA_NAEBUImRect@@IPEA_N1H@Z:PROC ; ImGui::ButtonBehavior
EXTRN	?DebugNodeTable@ImGui@@YAXPEAUImGuiTable@@@Z:PROC ; ImGui::DebugNodeTable
EXTRN	?DebugNodeTableSettings@ImGui@@YAXPEAUImGuiTableSettings@@@Z:PROC ; ImGui::DebugNodeTableSettings
EXTRN	__imp_toupper:PROC
EXTRN	__imp_GlobalAlloc:PROC
EXTRN	__imp_GlobalUnlock:PROC
EXTRN	__imp_GlobalLock:PROC
EXTRN	__imp_GlobalFree:PROC
EXTRN	__imp_OpenClipboard:PROC
EXTRN	__imp_CloseClipboard:PROC
EXTRN	__imp_SetClipboardData:PROC
EXTRN	__imp_GetClipboardData:PROC
EXTRN	__imp_EmptyClipboard:PROC
EXTRN	__imp_MultiByteToWideChar:PROC
EXTRN	__imp_WideCharToMultiByte:PROC
EXTRN	ImmGetContext:PROC
EXTRN	ImmReleaseContext:PROC
EXTRN	ImmSetCompositionWindow:PROC
EXTRN	_RTC_CheckStackVars:PROC
EXTRN	_RTC_InitBase:PROC
EXTRN	_RTC_Shutdown:PROC
EXTRN	__CheckForDebuggerJustMyCode:PROC
EXTRN	__CxxFrameHandler4:PROC
EXTRN	__GSHandlerCheck:PROC
EXTRN	__GSHandlerCheck_EH4:PROC
EXTRN	__chkstk:PROC
EXTRN	__security_check_cookie:PROC
EXTRN	fmodf:PROC
EXTRN	memchr:PROC
EXTRN	memmove:PROC
EXTRN	sqrtf:PROC
EXTRN	__ImageBase:BYTE
EXTRN	__security_cookie:QWORD
EXTRN	_fltused:DWORD
;	COMDAT ?_OptionsStorage@?1??__local_stdio_printf_options@@9@4_KA
_BSS	SEGMENT
?_OptionsStorage@?1??__local_stdio_printf_options@@9@4_KA DQ 01H DUP (?) ; `__local_stdio_printf_options'::`2'::_OptionsStorage
_BSS	ENDS
;	COMDAT ?_OptionsStorage@?1??__local_stdio_scanf_options@@9@4_KA
_BSS	SEGMENT
?_OptionsStorage@?1??__local_stdio_scanf_options@@9@4_KA DQ 01H DUP (?) ; `__local_stdio_scanf_options'::`2'::_OptionsStorage
_BSS	ENDS
_BSS	SEGMENT
?GImAllocatorUserData@@3PEAXEA DQ 01H DUP (?)		; GImAllocatorUserData
?resize_grip_def@@3QBUImGuiResizeGripDef@@B DB 060H DUP (?) ; resize_grip_def
?resize_border_def@@3QBUImGuiResizeBorderDef@@B DB 070H DUP (?) ; resize_border_def
_BSS	ENDS
;	COMDAT pdata
pdata	SEGMENT
$pdata$??_H@YAXPEAX_K1P6APEAX0@Z@Z DD imagerel $LN7
	DD	imagerel $LN7+172
	DD	imagerel $unwind$??_H@YAXPEAX_K1P6APEAX0@Z@Z
pdata	ENDS
;	COMDAT pdata
pdata	SEGMENT
$pdata$??0ImVec2@@QEAA@XZ DD imagerel $LN3
	DD	imagerel $LN3+60
	DD	imagerel $unwind$??0ImVec2@@QEAA@XZ
pdata	ENDS
;	COMDAT pdata
pdata	SEGMENT
$pdata$??0ImVec2@@QEAA@MM@Z DD imagerel $LN3
	DD	imagerel $LN3+76
	DD	imagerel $unwind$??0ImVec2@@QEAA@MM@Z
pdata	ENDS
;	COMDAT pdata
pdata	SEGMENT
$pdata$??AImVec2@@QEAAAEAM_K@Z DD imagerel $LN4
	DD	imagerel $LN4+85
	DD	imagerel $unwind$??AImVec2@@QEAAAEAM_K@Z
pdata	ENDS
;	COMDAT pdata
pdata	SEGMENT
$pdata$??0ImVec4@@QEAA@XZ DD imagerel $LN3
	DD	imagerel $LN3+84
	DD	imagerel $unwind$??0ImVec4@@QEAA@XZ
pdata	ENDS
;	COMDAT pdata
pdata	SEGMENT
$pdata$??0ImVec4@@QEAA@MMMM@Z DD imagerel $LN3
	DD	imagerel $LN3+110
	DD	imagerel $unwind$??0ImVec4@@QEAA@MMMM@Z
pdata	ENDS
;	COMDAT pdata
pdata	SEGMENT
$pdata$?CreateContext@ImGui@@YAPEAUImGuiContext@@PEAUImFontAtlas@@@Z DD imagerel $LN7
	DD	imagerel $LN7+212
	DD	imagerel $unwind$?CreateContext@ImGui@@YAPEAUImGuiContext@@PEAUImFontAtlas@@@Z
pdata	ENDS
;	COMDAT pdata
pdata	SEGMENT
$pdata$?dtor$0@?0??CreateContext@ImGui@@YAPEAUImGuiContext@@PEAUImFontAtlas@@@Z@4HA DD imagerel ?dtor$0@?0??CreateContext@ImGui@@YAPEAUImGuiContext@@PEAUImFontAtlas@@@Z@4HA
	DD	imagerel ?dtor$0@?0??CreateContext@ImGui@@YAPEAUImGuiContext@@PEAUImFontAtlas@@@Z@4HA+56
	DD	imagerel $unwind$?dtor$0@?0??CreateContext@ImGui@@YAPEAUImGuiContext@@PEAUImFontAtlas@@@Z@4HA
pdata	ENDS
;	COMDAT pdata
pdata	SEGMENT
$pdata$?DestroyContext@ImGui@@YAXPEAUImGuiContext@@@Z DD imagerel $LN5
	DD	imagerel $LN5+112
	DD	imagerel $unwind$?DestroyContext@ImGui@@YAXPEAUImGuiContext@@@Z
pdata	ENDS
;	COMDAT pdata
pdata	SEGMENT
$pdata$?GetCurrentContext@ImGui@@YAPEAUImGuiContext@@XZ DD imagerel $LN3
	DD	imagerel $LN3+44
	DD	imagerel $unwind$?GetCurrentContext@ImGui@@YAPEAUImGuiContext@@XZ
pdata	ENDS
;	COMDAT pdata
pdata	SEGMENT
$pdata$?SetCurrentContext@ImGui@@YAXPEAUImGuiContext@@@Z DD imagerel $LN3
	DD	imagerel $LN3+55
	DD	imagerel $unwind$?SetCurrentContext@ImGui@@YAXPEAUImGuiContext@@@Z
pdata	ENDS
;	COMDAT pdata
pdata	SEGMENT
$pdata$?GetIO@ImGui@@YAAEAUImGuiIO@@XZ DD imagerel $LN5
	DD	imagerel $LN5+103
	DD	imagerel $unwind$?GetIO@ImGui@@YAAEAUImGuiIO@@XZ
pdata	ENDS
;	COMDAT pdata
pdata	SEGMENT
$pdata$?GetStyle@ImGui@@YAAEAUImGuiStyle@@XZ DD imagerel $LN5
	DD	imagerel $LN5+105
	DD	imagerel $unwind$?GetStyle@ImGui@@YAAEAUImGuiStyle@@XZ
pdata	ENDS
;	COMDAT pdata
pdata	SEGMENT
$pdata$?NewFrame@ImGui@@YAXXZ DD imagerel $LN60
	DD	imagerel $LN60+3905
	DD	imagerel $unwind$?NewFrame@ImGui@@YAXXZ
pdata	ENDS
;	COMDAT pdata
pdata	SEGMENT
$pdata$?EndFrame@ImGui@@YAXXZ DD imagerel $LN23
	DD	imagerel $LN23+1160
	DD	imagerel $unwind$?EndFrame@ImGui@@YAXXZ
pdata	ENDS
;	COMDAT pdata
pdata	SEGMENT
$pdata$?Render@ImGui@@YAXXZ DD imagerel $LN26
	DD	imagerel $LN26+1314
	DD	imagerel $unwind$?Render@ImGui@@YAXXZ
pdata	ENDS
;	COMDAT pdata
pdata	SEGMENT
$pdata$?GetDrawData@ImGui@@YAPEAUImDrawData@@XZ DD imagerel $LN5
	DD	imagerel $LN5+133
	DD	imagerel $unwind$?GetDrawData@ImGui@@YAPEAUImDrawData@@XZ
pdata	ENDS
;	COMDAT pdata
pdata	SEGMENT
$pdata$?ShowMetricsWindow@ImGui@@YAXPEA_N@Z DD imagerel $LN125
	DD	imagerel $LN125+7658
	DD	imagerel $unwind$?ShowMetricsWindow@ImGui@@YAXPEA_N@Z
pdata	ENDS
;	COMDAT pdata
pdata	SEGMENT
$pdata$?GetVersion@ImGui@@YAPEBDXZ DD imagerel $LN3
	DD	imagerel $LN3+44
	DD	imagerel $unwind$?GetVersion@ImGui@@YAPEBDXZ
pdata	ENDS
;	COMDAT pdata
pdata	SEGMENT
$pdata$?Begin@ImGui@@YA_NPEBDPEA_NH@Z DD imagerel $LN240
	DD	imagerel $LN240+13071
	DD	imagerel $unwind$?Begin@ImGui@@YA_NPEBDPEA_NH@Z
pdata	ENDS
;	COMDAT pdata
pdata	SEGMENT
$pdata$?End@ImGui@@YAXXZ DD imagerel $LN15
	DD	imagerel $LN15+472
	DD	imagerel $unwind$?End@ImGui@@YAXXZ
pdata	ENDS
;	COMDAT pdata
pdata	SEGMENT
$pdata$?BeginChild@ImGui@@YA_NPEBDAEBUImVec2@@_NH@Z DD imagerel $LN3
	DD	imagerel $LN3+123
	DD	imagerel $unwind$?BeginChild@ImGui@@YA_NPEBDAEBUImVec2@@_NH@Z
pdata	ENDS
;	COMDAT pdata
pdata	SEGMENT
$pdata$?BeginChild@ImGui@@YA_NIAEBUImVec2@@_NH@Z DD imagerel $LN4
	DD	imagerel $LN4+135
	DD	imagerel $unwind$?BeginChild@ImGui@@YA_NIAEBUImVec2@@_NH@Z
pdata	ENDS
;	COMDAT pdata
pdata	SEGMENT
$pdata$?EndChild@ImGui@@YAXXZ DD imagerel $LN14
	DD	imagerel $LN14+878
	DD	imagerel $unwind$?EndChild@ImGui@@YAXXZ
pdata	ENDS
;	COMDAT pdata
pdata	SEGMENT
$pdata$?IsWindowAppearing@ImGui@@YA_NXZ DD imagerel $LN3
	DD	imagerel $LN3+57
	DD	imagerel $unwind$?IsWindowAppearing@ImGui@@YA_NXZ
pdata	ENDS
;	COMDAT pdata
pdata	SEGMENT
$pdata$?IsWindowCollapsed@ImGui@@YA_NXZ DD imagerel $LN3
	DD	imagerel $LN3+57
	DD	imagerel $unwind$?IsWindowCollapsed@ImGui@@YA_NXZ
pdata	ENDS
;	COMDAT pdata
pdata	SEGMENT
$pdata$?IsWindowFocused@ImGui@@YA_NH@Z DD imagerel $LN21
	DD	imagerel $LN21+494
	DD	imagerel $unwind$?IsWindowFocused@ImGui@@YA_NH@Z
pdata	ENDS
;	COMDAT pdata
pdata	SEGMENT
$pdata$?IsWindowHovered@ImGui@@YA_NH@Z DD imagerel $LN19
	DD	imagerel $LN19+430
	DD	imagerel $unwind$?IsWindowHovered@ImGui@@YA_NH@Z
pdata	ENDS
;	COMDAT pdata
pdata	SEGMENT
$pdata$?GetWindowDrawList@ImGui@@YAPEAUImDrawList@@XZ DD imagerel $LN3
	DD	imagerel $LN3+57
	DD	imagerel $unwind$?GetWindowDrawList@ImGui@@YAPEAUImDrawList@@XZ
pdata	ENDS
;	COMDAT pdata
pdata	SEGMENT
$pdata$?GetWindowPos@ImGui@@YA?AUImVec2@@XZ DD imagerel $LN3
	DD	imagerel $LN3+92
	DD	imagerel $unwind$?GetWindowPos@ImGui@@YA?AUImVec2@@XZ
pdata	ENDS
;	COMDAT pdata
pdata	SEGMENT
$pdata$?GetWindowSize@ImGui@@YA?AUImVec2@@XZ DD imagerel $LN3
	DD	imagerel $LN3+75
	DD	imagerel $unwind$?GetWindowSize@ImGui@@YA?AUImVec2@@XZ
pdata	ENDS
;	COMDAT pdata
pdata	SEGMENT
$pdata$?GetWindowWidth@ImGui@@YAMXZ DD imagerel $LN3
	DD	imagerel $LN3+64
	DD	imagerel $unwind$?GetWindowWidth@ImGui@@YAMXZ
pdata	ENDS
;	COMDAT pdata
pdata	SEGMENT
$pdata$?GetWindowHeight@ImGui@@YAMXZ DD imagerel $LN3
	DD	imagerel $LN3+64
	DD	imagerel $unwind$?GetWindowHeight@ImGui@@YAMXZ
pdata	ENDS
;	COMDAT pdata
pdata	SEGMENT
$pdata$?SetNextWindowPos@ImGui@@YAXAEBUImVec2@@H0@Z DD imagerel $LN6
	DD	imagerel $LN6+236
	DD	imagerel $unwind$?SetNextWindowPos@ImGui@@YAXAEBUImVec2@@H0@Z
pdata	ENDS
;	COMDAT pdata
pdata	SEGMENT
$pdata$?SetNextWindowSize@ImGui@@YAXAEBUImVec2@@H@Z DD imagerel $LN6
	DD	imagerel $LN6+210
	DD	imagerel $unwind$?SetNextWindowSize@ImGui@@YAXAEBUImVec2@@H@Z
pdata	ENDS
;	COMDAT pdata
pdata	SEGMENT
$pdata$?SetNextWindowSizeConstraints@ImGui@@YAXAEBUImVec2@@0P6AXPEAUImGuiSizeCallbackData@@@ZPEAX@Z DD imagerel $LN3
	DD	imagerel $LN3+175
	DD	imagerel $unwind$?SetNextWindowSizeConstraints@ImGui@@YAXAEBUImVec2@@0P6AXPEAUImGuiSizeCallbackData@@@ZPEAX@Z
pdata	ENDS
;	COMDAT pdata
pdata	SEGMENT
$pdata$?SetNextWindowContentSize@ImGui@@YAXAEBUImVec2@@@Z DD imagerel $LN3
	DD	imagerel $LN3+108
	DD	imagerel $unwind$?SetNextWindowContentSize@ImGui@@YAXAEBUImVec2@@@Z
pdata	ENDS
;	COMDAT pdata
pdata	SEGMENT
$pdata$?SetNextWindowCollapsed@ImGui@@YAX_NH@Z DD imagerel $LN6
	DD	imagerel $LN6+205
	DD	imagerel $unwind$?SetNextWindowCollapsed@ImGui@@YAX_NH@Z
pdata	ENDS
;	COMDAT pdata
pdata	SEGMENT
$pdata$?SetNextWindowFocus@ImGui@@YAXXZ DD imagerel $LN3
	DD	imagerel $LN3+71
	DD	imagerel $unwind$?SetNextWindowFocus@ImGui@@YAXXZ
pdata	ENDS
;	COMDAT pdata
pdata	SEGMENT
$pdata$?SetNextWindowBgAlpha@ImGui@@YAXM@Z DD imagerel $LN3
	DD	imagerel $LN3+96
	DD	imagerel $unwind$?SetNextWindowBgAlpha@ImGui@@YAXM@Z
pdata	ENDS
;	COMDAT pdata
pdata	SEGMENT
$pdata$?SetWindowPos@ImGui@@YAXAEBUImVec2@@H@Z DD imagerel $LN3
	DD	imagerel $LN3+77
	DD	imagerel $unwind$?SetWindowPos@ImGui@@YAXAEBUImVec2@@H@Z
pdata	ENDS
;	COMDAT pdata
pdata	SEGMENT
$pdata$?SetWindowSize@ImGui@@YAXAEBUImVec2@@H@Z DD imagerel $LN3
	DD	imagerel $LN3+78
	DD	imagerel $unwind$?SetWindowSize@ImGui@@YAXAEBUImVec2@@H@Z
pdata	ENDS
;	COMDAT pdata
pdata	SEGMENT
$pdata$?SetWindowCollapsed@ImGui@@YAX_NH@Z DD imagerel $LN3
	DD	imagerel $LN3+77
	DD	imagerel $unwind$?SetWindowCollapsed@ImGui@@YAX_NH@Z
pdata	ENDS
;	COMDAT pdata
pdata	SEGMENT
$pdata$?SetWindowFocus@ImGui@@YAXXZ DD imagerel $LN3
	DD	imagerel $LN3+56
	DD	imagerel $unwind$?SetWindowFocus@ImGui@@YAXXZ
pdata	ENDS
;	COMDAT pdata
pdata	SEGMENT
$pdata$?SetWindowFontScale@ImGui@@YAXM@Z DD imagerel $LN4
	DD	imagerel $LN4+189
	DD	imagerel $unwind$?SetWindowFontScale@ImGui@@YAXM@Z
pdata	ENDS
;	COMDAT pdata
pdata	SEGMENT
$pdata$?SetWindowPos@ImGui@@YAXPEBDAEBUImVec2@@H@Z DD imagerel $LN4
	DD	imagerel $LN4+97
	DD	imagerel $unwind$?SetWindowPos@ImGui@@YAXPEBDAEBUImVec2@@H@Z
pdata	ENDS
;	COMDAT pdata
pdata	SEGMENT
$pdata$?SetWindowSize@ImGui@@YAXPEBDAEBUImVec2@@H@Z DD imagerel $LN4
	DD	imagerel $LN4+97
	DD	imagerel $unwind$?SetWindowSize@ImGui@@YAXPEBDAEBUImVec2@@H@Z
pdata	ENDS
;	COMDAT pdata
pdata	SEGMENT
$pdata$?SetWindowCollapsed@ImGui@@YAXPEBD_NH@Z DD imagerel $LN4
	DD	imagerel $LN4+96
	DD	imagerel $unwind$?SetWindowCollapsed@ImGui@@YAXPEBD_NH@Z
pdata	ENDS
;	COMDAT pdata
pdata	SEGMENT
$pdata$?SetWindowFocus@ImGui@@YAXPEBD@Z DD imagerel $LN6
	DD	imagerel $LN6+92
	DD	imagerel $unwind$?SetWindowFocus@ImGui@@YAXPEBD@Z
pdata	ENDS
;	COMDAT pdata
pdata	SEGMENT
$pdata$?GetContentRegionAvail@ImGui@@YA?AUImVec2@@XZ DD imagerel $LN3
	DD	imagerel $LN3+120
	DD	imagerel $unwind$?GetContentRegionAvail@ImGui@@YA?AUImVec2@@XZ
pdata	ENDS
;	COMDAT pdata
pdata	SEGMENT
$pdata$?GetContentRegionMax@ImGui@@YA?AUImVec2@@XZ DD imagerel $LN5
	DD	imagerel $LN5+255
	DD	imagerel $unwind$?GetContentRegionMax@ImGui@@YA?AUImVec2@@XZ
pdata	ENDS
;	COMDAT pdata
pdata	SEGMENT
$pdata$?GetWindowContentRegionMin@ImGui@@YA?AUImVec2@@XZ DD imagerel $LN3
	DD	imagerel $LN3+103
	DD	imagerel $unwind$?GetWindowContentRegionMin@ImGui@@YA?AUImVec2@@XZ
pdata	ENDS
;	COMDAT pdata
pdata	SEGMENT
$pdata$?GetWindowContentRegionMax@ImGui@@YA?AUImVec2@@XZ DD imagerel $LN3
	DD	imagerel $LN3+103
	DD	imagerel $unwind$?GetWindowContentRegionMax@ImGui@@YA?AUImVec2@@XZ
pdata	ENDS
;	COMDAT pdata
pdata	SEGMENT
$pdata$?GetWindowContentRegionWidth@ImGui@@YAMXZ DD imagerel $LN3
	DD	imagerel $LN3+73
	DD	imagerel $unwind$?GetWindowContentRegionWidth@ImGui@@YAMXZ
pdata	ENDS
;	COMDAT pdata
pdata	SEGMENT
$pdata$?GetScrollX@ImGui@@YAMXZ DD imagerel $LN3
	DD	imagerel $LN3+64
	DD	imagerel $unwind$?GetScrollX@ImGui@@YAMXZ
pdata	ENDS
;	COMDAT pdata
pdata	SEGMENT
$pdata$?GetScrollY@ImGui@@YAMXZ DD imagerel $LN3
	DD	imagerel $LN3+64
	DD	imagerel $unwind$?GetScrollY@ImGui@@YAMXZ
pdata	ENDS
;	COMDAT pdata
pdata	SEGMENT
$pdata$?SetScrollX@ImGui@@YAXM@Z DD imagerel $LN3
	DD	imagerel $LN3+77
	DD	imagerel $unwind$?SetScrollX@ImGui@@YAXM@Z
pdata	ENDS
;	COMDAT pdata
pdata	SEGMENT
$pdata$?SetScrollY@ImGui@@YAXM@Z DD imagerel $LN3
	DD	imagerel $LN3+77
	DD	imagerel $unwind$?SetScrollY@ImGui@@YAXM@Z
pdata	ENDS
;	COMDAT pdata
pdata	SEGMENT
$pdata$?GetScrollMaxX@ImGui@@YAMXZ DD imagerel $LN3
	DD	imagerel $LN3+64
	DD	imagerel $unwind$?GetScrollMaxX@ImGui@@YAMXZ
pdata	ENDS
;	COMDAT pdata
pdata	SEGMENT
$pdata$?GetScrollMaxY@ImGui@@YAMXZ DD imagerel $LN3
	DD	imagerel $LN3+64
	DD	imagerel $unwind$?GetScrollMaxY@ImGui@@YAMXZ
pdata	ENDS
;	COMDAT pdata
pdata	SEGMENT
$pdata$?SetScrollHereX@ImGui@@YAXM@Z DD imagerel $LN3
	DD	imagerel $LN3+238
	DD	imagerel $unwind$?SetScrollHereX@ImGui@@YAXM@Z
pdata	ENDS
;	COMDAT pdata
pdata	SEGMENT
$pdata$?SetScrollHereY@ImGui@@YAXM@Z DD imagerel $LN3
	DD	imagerel $LN3+253
	DD	imagerel $unwind$?SetScrollHereY@ImGui@@YAXM@Z
pdata	ENDS
;	COMDAT pdata
pdata	SEGMENT
$pdata$?SetScrollFromPosX@ImGui@@YAXMM@Z DD imagerel $LN3
	DD	imagerel $LN3+91
	DD	imagerel $unwind$?SetScrollFromPosX@ImGui@@YAXMM@Z
pdata	ENDS
;	COMDAT pdata
pdata	SEGMENT
$pdata$?SetScrollFromPosY@ImGui@@YAXMM@Z DD imagerel $LN3
	DD	imagerel $LN3+91
	DD	imagerel $unwind$?SetScrollFromPosY@ImGui@@YAXMM@Z
pdata	ENDS
;	COMDAT pdata
pdata	SEGMENT
$pdata$?PushFont@ImGui@@YAXPEAUImFont@@@Z DD imagerel $LN4
	DD	imagerel $LN4+174
	DD	imagerel $unwind$?PushFont@ImGui@@YAXPEAUImFont@@@Z
pdata	ENDS
;	COMDAT pdata
pdata	SEGMENT
$pdata$?PopFont@ImGui@@YAXXZ DD imagerel $LN5
	DD	imagerel $LN5+168
	DD	imagerel $unwind$?PopFont@ImGui@@YAXXZ
pdata	ENDS
;	COMDAT pdata
pdata	SEGMENT
$pdata$?PushStyleColor@ImGui@@YAXHI@Z DD imagerel $LN3
	DD	imagerel $LN3+268
	DD	imagerel $unwind$?PushStyleColor@ImGui@@YAXHI@Z
pdata	ENDS
;	COMDAT pdata
pdata	SEGMENT
$pdata$?PushStyleColor@ImGui@@YAXHAEBUImVec4@@@Z DD imagerel $LN3
	DD	imagerel $LN3+255
	DD	imagerel $unwind$?PushStyleColor@ImGui@@YAXHAEBUImVec4@@@Z
pdata	ENDS
;	COMDAT pdata
pdata	SEGMENT
$pdata$?PopStyleColor@ImGui@@YAXH@Z DD imagerel $LN5
	DD	imagerel $LN5+156
	DD	imagerel $unwind$?PopStyleColor@ImGui@@YAXH@Z
pdata	ENDS
;	COMDAT pdata
pdata	SEGMENT
$pdata$?PushStyleVar@ImGui@@YAXHM@Z DD imagerel $LN5
	DD	imagerel $LN5+233
	DD	imagerel $unwind$?PushStyleVar@ImGui@@YAXHM@Z
pdata	ENDS
;	COMDAT pdata
pdata	SEGMENT
$pdata$?PushStyleVar@ImGui@@YAXHAEBUImVec2@@@Z DD imagerel $LN5
	DD	imagerel $LN5+232
	DD	imagerel $unwind$?PushStyleVar@ImGui@@YAXHAEBUImVec2@@@Z
pdata	ENDS
;	COMDAT pdata
pdata	SEGMENT
$pdata$?PopStyleVar@ImGui@@YAXH@Z DD imagerel $LN8
	DD	imagerel $LN8+318
	DD	imagerel $unwind$?PopStyleVar@ImGui@@YAXH@Z
pdata	ENDS
;	COMDAT pdata
pdata	SEGMENT
$pdata$?PushAllowKeyboardFocus@ImGui@@YAX_N@Z DD imagerel $LN5
	DD	imagerel $LN5+84
	DD	imagerel $unwind$?PushAllowKeyboardFocus@ImGui@@YAX_N@Z
pdata	ENDS
;	COMDAT pdata
pdata	SEGMENT
$pdata$?PopAllowKeyboardFocus@ImGui@@YAXXZ DD imagerel $LN3
	DD	imagerel $LN3+42
	DD	imagerel $unwind$?PopAllowKeyboardFocus@ImGui@@YAXXZ
pdata	ENDS
;	COMDAT pdata
pdata	SEGMENT
$pdata$?PushButtonRepeat@ImGui@@YAX_N@Z DD imagerel $LN3
	DD	imagerel $LN3+57
	DD	imagerel $unwind$?PushButtonRepeat@ImGui@@YAX_N@Z
pdata	ENDS
;	COMDAT pdata
pdata	SEGMENT
$pdata$?PopButtonRepeat@ImGui@@YAXXZ DD imagerel $LN3
	DD	imagerel $LN3+42
	DD	imagerel $unwind$?PopButtonRepeat@ImGui@@YAXXZ
pdata	ENDS
;	COMDAT pdata
pdata	SEGMENT
$pdata$?PushItemWidth@ImGui@@YAXM@Z DD imagerel $LN5
	DD	imagerel $LN5+210
	DD	imagerel $unwind$?PushItemWidth@ImGui@@YAXM@Z
pdata	ENDS
;	COMDAT pdata
pdata	SEGMENT
$pdata$?PopItemWidth@ImGui@@YAXXZ DD imagerel $LN3
	DD	imagerel $LN3+98
	DD	imagerel $unwind$?PopItemWidth@ImGui@@YAXXZ
pdata	ENDS
;	COMDAT pdata
pdata	SEGMENT
$pdata$?SetNextItemWidth@ImGui@@YAXM@Z DD imagerel $LN3
	DD	imagerel $LN3+96
	DD	imagerel $unwind$?SetNextItemWidth@ImGui@@YAXM@Z
pdata	ENDS
;	COMDAT pdata
pdata	SEGMENT
$pdata$?CalcItemWidth@ImGui@@YAMXZ DD imagerel $LN6
	DD	imagerel $LN6+208
	DD	imagerel $unwind$?CalcItemWidth@ImGui@@YAMXZ
pdata	ENDS
;	COMDAT pdata
pdata	SEGMENT
$pdata$?PushTextWrapPos@ImGui@@YAXM@Z DD imagerel $LN3
	DD	imagerel $LN3+113
	DD	imagerel $unwind$?PushTextWrapPos@ImGui@@YAXM@Z
pdata	ENDS
;	COMDAT pdata
pdata	SEGMENT
$pdata$?PopTextWrapPos@ImGui@@YAXXZ DD imagerel $LN3
	DD	imagerel $LN3+98
	DD	imagerel $unwind$?PopTextWrapPos@ImGui@@YAXXZ
pdata	ENDS
;	COMDAT pdata
pdata	SEGMENT
$pdata$?GetFont@ImGui@@YAPEAUImFont@@XZ DD imagerel $LN3
	DD	imagerel $LN3+51
	DD	imagerel $unwind$?GetFont@ImGui@@YAPEAUImFont@@XZ
pdata	ENDS
;	COMDAT pdata
pdata	SEGMENT
$pdata$?GetFontSize@ImGui@@YAMXZ DD imagerel $LN3
	DD	imagerel $LN3+52
	DD	imagerel $unwind$?GetFontSize@ImGui@@YAMXZ
pdata	ENDS
;	COMDAT pdata
pdata	SEGMENT
$pdata$?GetFontTexUvWhitePixel@ImGui@@YA?AUImVec2@@XZ DD imagerel $LN3
	DD	imagerel $LN3+72
	DD	imagerel $unwind$?GetFontTexUvWhitePixel@ImGui@@YA?AUImVec2@@XZ
pdata	ENDS
;	COMDAT pdata
pdata	SEGMENT
$pdata$?GetColorU32@ImGui@@YAIHM@Z DD imagerel $LN3
	DD	imagerel $LN3+222
	DD	imagerel $unwind$?GetColorU32@ImGui@@YAIHM@Z
pdata	ENDS
;	COMDAT pdata
pdata	SEGMENT
$pdata$?GetColorU32@ImGui@@YAIAEBUImVec4@@@Z DD imagerel $LN3
	DD	imagerel $LN3+187
	DD	imagerel $unwind$?GetColorU32@ImGui@@YAIAEBUImVec4@@@Z
pdata	ENDS
;	COMDAT pdata
pdata	SEGMENT
$pdata$?GetColorU32@ImGui@@YAII@Z DD imagerel $LN4
	DD	imagerel $LN4+142
	DD	imagerel $unwind$?GetColorU32@ImGui@@YAII@Z
pdata	ENDS
;	COMDAT pdata
pdata	SEGMENT
$pdata$?GetStyleColorVec4@ImGui@@YAAEBUImVec4@@H@Z DD imagerel $LN3
	DD	imagerel $LN3+80
	DD	imagerel $unwind$?GetStyleColorVec4@ImGui@@YAAEBUImVec4@@H@Z
pdata	ENDS
;	COMDAT pdata
pdata	SEGMENT
$pdata$?SameLine@ImGui@@YAXMM@Z DD imagerel $LN9
	DD	imagerel $LN9+360
	DD	imagerel $unwind$?SameLine@ImGui@@YAXMM@Z
pdata	ENDS
;	COMDAT pdata
pdata	SEGMENT
$pdata$?Indent@ImGui@@YAXM@Z DD imagerel $LN6
	DD	imagerel $LN6+196
	DD	imagerel $unwind$?Indent@ImGui@@YAXM@Z
pdata	ENDS
;	COMDAT pdata
pdata	SEGMENT
$pdata$?Unindent@ImGui@@YAXM@Z DD imagerel $LN6
	DD	imagerel $LN6+196
	DD	imagerel $unwind$?Unindent@ImGui@@YAXM@Z
pdata	ENDS
;	COMDAT pdata
pdata	SEGMENT
$pdata$?BeginGroup@ImGui@@YAXXZ DD imagerel $LN6
	DD	imagerel $LN6+499
	DD	imagerel $unwind$?BeginGroup@ImGui@@YAXXZ
pdata	ENDS
;	COMDAT pdata
pdata	SEGMENT
$pdata$?EndGroup@ImGui@@YAXXZ DD imagerel $LN19
	DD	imagerel $LN19+1072
	DD	imagerel $unwind$?EndGroup@ImGui@@YAXXZ
pdata	ENDS
;	COMDAT pdata
pdata	SEGMENT
$pdata$?GetCursorPos@ImGui@@YA?AUImVec2@@XZ DD imagerel $LN3
	DD	imagerel $LN3+131
	DD	imagerel $unwind$?GetCursorPos@ImGui@@YA?AUImVec2@@XZ
pdata	ENDS
;	COMDAT pdata
pdata	SEGMENT
$pdata$?GetCursorPosX@ImGui@@YAMXZ DD imagerel $LN3
	DD	imagerel $LN3+76
	DD	imagerel $unwind$?GetCursorPosX@ImGui@@YAMXZ
pdata	ENDS
;	COMDAT pdata
pdata	SEGMENT
$pdata$?GetCursorPosY@ImGui@@YAMXZ DD imagerel $LN3
	DD	imagerel $LN3+76
	DD	imagerel $unwind$?GetCursorPosY@ImGui@@YAMXZ
pdata	ENDS
;	COMDAT pdata
pdata	SEGMENT
$pdata$?SetCursorPos@ImGui@@YAXAEBUImVec2@@@Z DD imagerel $LN3
	DD	imagerel $LN3+173
	DD	imagerel $unwind$?SetCursorPos@ImGui@@YAXAEBUImVec2@@@Z
pdata	ENDS
;	COMDAT pdata
pdata	SEGMENT
$pdata$?SetCursorPosX@ImGui@@YAXM@Z DD imagerel $LN3
	DD	imagerel $LN3+130
	DD	imagerel $unwind$?SetCursorPosX@ImGui@@YAXM@Z
pdata	ENDS
;	COMDAT pdata
pdata	SEGMENT
$pdata$?SetCursorPosY@ImGui@@YAXM@Z DD imagerel $LN3
	DD	imagerel $LN3+130
	DD	imagerel $unwind$?SetCursorPosY@ImGui@@YAXM@Z
pdata	ENDS
;	COMDAT pdata
pdata	SEGMENT
$pdata$?GetCursorStartPos@ImGui@@YA?AUImVec2@@XZ DD imagerel $LN3
	DD	imagerel $LN3+94
	DD	imagerel $unwind$?GetCursorStartPos@ImGui@@YA?AUImVec2@@XZ
pdata	ENDS
;	COMDAT pdata
pdata	SEGMENT
$pdata$?GetCursorScreenPos@ImGui@@YA?AUImVec2@@XZ DD imagerel $LN3
	DD	imagerel $LN3+78
	DD	imagerel $unwind$?GetCursorScreenPos@ImGui@@YA?AUImVec2@@XZ
pdata	ENDS
;	COMDAT pdata
pdata	SEGMENT
$pdata$?SetCursorScreenPos@ImGui@@YAXAEBUImVec2@@@Z DD imagerel $LN3
	DD	imagerel $LN3+124
	DD	imagerel $unwind$?SetCursorScreenPos@ImGui@@YAXAEBUImVec2@@@Z
pdata	ENDS
;	COMDAT pdata
pdata	SEGMENT
$pdata$?GetTextLineHeight@ImGui@@YAMXZ DD imagerel $LN3
	DD	imagerel $LN3+60
	DD	imagerel $unwind$?GetTextLineHeight@ImGui@@YAMXZ
pdata	ENDS
;	COMDAT pdata
pdata	SEGMENT
$pdata$?GetTextLineHeightWithSpacing@ImGui@@YAMXZ DD imagerel $LN3
	DD	imagerel $LN3+72
	DD	imagerel $unwind$?GetTextLineHeightWithSpacing@ImGui@@YAMXZ
pdata	ENDS
;	COMDAT pdata
pdata	SEGMENT
$pdata$?GetFrameHeight@ImGui@@YAMXZ DD imagerel $LN3
	DD	imagerel $LN3+87
	DD	imagerel $unwind$?GetFrameHeight@ImGui@@YAMXZ
pdata	ENDS
;	COMDAT pdata
pdata	SEGMENT
$pdata$?GetFrameHeightWithSpacing@ImGui@@YAMXZ DD imagerel $LN3
	DD	imagerel $LN3+99
	DD	imagerel $unwind$?GetFrameHeightWithSpacing@ImGui@@YAMXZ
pdata	ENDS
;	COMDAT pdata
pdata	SEGMENT
$pdata$?PushID@ImGui@@YAXPEBD@Z DD imagerel $LN3
	DD	imagerel $LN3+195
	DD	imagerel $unwind$?PushID@ImGui@@YAXPEBD@Z
pdata	ENDS
;	COMDAT pdata
pdata	SEGMENT
$pdata$?PushID@ImGui@@YAXPEBD0@Z DD imagerel $LN3
	DD	imagerel $LN3+204
	DD	imagerel $unwind$?PushID@ImGui@@YAXPEBD0@Z
pdata	ENDS
;	COMDAT pdata
pdata	SEGMENT
$pdata$?PushID@ImGui@@YAXPEBX@Z DD imagerel $LN3
	DD	imagerel $LN3+192
	DD	imagerel $unwind$?PushID@ImGui@@YAXPEBX@Z
pdata	ENDS
;	COMDAT pdata
pdata	SEGMENT
$pdata$?PushID@ImGui@@YAXH@Z DD imagerel $LN3
	DD	imagerel $LN3+189
	DD	imagerel $unwind$?PushID@ImGui@@YAXH@Z
pdata	ENDS
;	COMDAT pdata
pdata	SEGMENT
$pdata$?PopID@ImGui@@YAXXZ DD imagerel $LN4
	DD	imagerel $LN4+120
	DD	imagerel $unwind$?PopID@ImGui@@YAXXZ
pdata	ENDS
;	COMDAT pdata
pdata	SEGMENT
$pdata$?GetID@ImGui@@YAIPEBD@Z DD imagerel $LN3
	DD	imagerel $LN3+78
	DD	imagerel $unwind$?GetID@ImGui@@YAIPEBD@Z
pdata	ENDS
;	COMDAT pdata
pdata	SEGMENT
$pdata$?GetID@ImGui@@YAIPEBD0@Z DD imagerel $LN3
	DD	imagerel $LN3+87
	DD	imagerel $unwind$?GetID@ImGui@@YAIPEBD0@Z
pdata	ENDS
;	COMDAT pdata
pdata	SEGMENT
$pdata$?GetID@ImGui@@YAIPEBX@Z DD imagerel $LN3
	DD	imagerel $LN3+75
	DD	imagerel $unwind$?GetID@ImGui@@YAIPEBX@Z
pdata	ENDS
;	COMDAT pdata
pdata	SEGMENT
$pdata$?BeginTooltip@ImGui@@YAXXZ DD imagerel $LN3
	DD	imagerel $LN3+46
	DD	imagerel $unwind$?BeginTooltip@ImGui@@YAXXZ
pdata	ENDS
;	COMDAT pdata
pdata	SEGMENT
$pdata$?EndTooltip@ImGui@@YAXXZ DD imagerel $LN4
	DD	imagerel $LN4+92
	DD	imagerel $unwind$?EndTooltip@ImGui@@YAXXZ
pdata	ENDS
;	COMDAT pdata
pdata	SEGMENT
$pdata$?SetTooltip@ImGui@@YAXPEBDZZ DD imagerel $LN3
	DD	imagerel $LN3+164
	DD	imagerel $unwind$?SetTooltip@ImGui@@YAXPEBDZZ
pdata	ENDS
;	COMDAT pdata
pdata	SEGMENT
$pdata$?SetTooltipV@ImGui@@YAXPEBDPEAD@Z DD imagerel $LN3
	DD	imagerel $LN3+82
	DD	imagerel $unwind$?SetTooltipV@ImGui@@YAXPEBDPEAD@Z
pdata	ENDS
;	COMDAT pdata
pdata	SEGMENT
$pdata$?BeginPopup@ImGui@@YA_NPEBDH@Z DD imagerel $LN4
	DD	imagerel $LN4+170
	DD	imagerel $unwind$?BeginPopup@ImGui@@YA_NPEBDH@Z
pdata	ENDS
;	COMDAT pdata
pdata	SEGMENT
$pdata$?BeginPopupModal@ImGui@@YA_NPEBDPEA_NH@Z DD imagerel $LN8
	DD	imagerel $LN8+377
	DD	imagerel $unwind$?BeginPopupModal@ImGui@@YA_NPEBDPEA_NH@Z
pdata	ENDS
;	COMDAT pdata
pdata	SEGMENT
$pdata$?EndPopup@ImGui@@YAXXZ DD imagerel $LN8
	DD	imagerel $LN8+283
	DD	imagerel $unwind$?EndPopup@ImGui@@YAXXZ
pdata	ENDS
;	COMDAT pdata
pdata	SEGMENT
$pdata$?OpenPopup@ImGui@@YAXPEBDH@Z DD imagerel $LN3
	DD	imagerel $LN3+109
	DD	imagerel $unwind$?OpenPopup@ImGui@@YAXPEBDH@Z
pdata	ENDS
;	COMDAT pdata
pdata	SEGMENT
$pdata$?OpenPopup@ImGui@@YAXIH@Z DD imagerel $LN3
	DD	imagerel $LN3+61
	DD	imagerel $unwind$?OpenPopup@ImGui@@YAXIH@Z
pdata	ENDS
;	COMDAT pdata
pdata	SEGMENT
$pdata$?OpenPopupOnItemClick@ImGui@@YAXPEBDH@Z DD imagerel $LN7
	DD	imagerel $LN7+227
	DD	imagerel $unwind$?OpenPopupOnItemClick@ImGui@@YAXPEBDH@Z
pdata	ENDS
;	COMDAT pdata
pdata	SEGMENT
$pdata$?CloseCurrentPopup@ImGui@@YAXXZ DD imagerel $LN12
	DD	imagerel $LN12+405
	DD	imagerel $unwind$?CloseCurrentPopup@ImGui@@YAXXZ
pdata	ENDS
;	COMDAT pdata
pdata	SEGMENT
$pdata$?BeginPopupContextItem@ImGui@@YA_NPEBDH@Z DD imagerel $LN8
	DD	imagerel $LN8+258
	DD	imagerel $unwind$?BeginPopupContextItem@ImGui@@YA_NPEBDH@Z
pdata	ENDS
;	COMDAT pdata
pdata	SEGMENT
$pdata$?BeginPopupContextWindow@ImGui@@YA_NPEBDH@Z DD imagerel $LN7
	DD	imagerel $LN7+205
	DD	imagerel $unwind$?BeginPopupContextWindow@ImGui@@YA_NPEBDH@Z
pdata	ENDS
;	COMDAT pdata
pdata	SEGMENT
$pdata$?BeginPopupContextVoid@ImGui@@YA_NPEBDH@Z DD imagerel $LN6
	DD	imagerel $LN6+190
	DD	imagerel $unwind$?BeginPopupContextVoid@ImGui@@YA_NPEBDH@Z
pdata	ENDS
;	COMDAT pdata
pdata	SEGMENT
$pdata$?IsPopupOpen@ImGui@@YA_NPEBDH@Z DD imagerel $LN7
	DD	imagerel $LN7+213
	DD	imagerel $unwind$?IsPopupOpen@ImGui@@YA_NPEBDH@Z
pdata	ENDS
;	COMDAT pdata
pdata	SEGMENT
$pdata$?LogToTTY@ImGui@@YAXH@Z DD imagerel $LN4
	DD	imagerel $LN4+106
	DD	imagerel $unwind$?LogToTTY@ImGui@@YAXH@Z
pdata	ENDS
;	COMDAT pdata
pdata	SEGMENT
$pdata$?LogToFile@ImGui@@YAXHPEBD@Z DD imagerel $LN9
	DD	imagerel $LN9+240
	DD	imagerel $unwind$?LogToFile@ImGui@@YAXHPEBD@Z
pdata	ENDS
;	COMDAT pdata
pdata	SEGMENT
$pdata$?LogToClipboard@ImGui@@YAXH@Z DD imagerel $LN4
	DD	imagerel $LN4+84
	DD	imagerel $unwind$?LogToClipboard@ImGui@@YAXH@Z
pdata	ENDS
;	COMDAT pdata
pdata	SEGMENT
$pdata$?LogFinish@ImGui@@YAXXZ DD imagerel $LN13
	DD	imagerel $LN13+327
	DD	imagerel $unwind$?LogFinish@ImGui@@YAXXZ
pdata	ENDS
;	COMDAT pdata
pdata	SEGMENT
$pdata$?LogButtons@ImGui@@YAXXZ DD imagerel $LN6
	DD	imagerel $LN6+353
	DD	imagerel $unwind$?LogButtons@ImGui@@YAXXZ
pdata	ENDS
;	COMDAT pdata
pdata	SEGMENT
$pdata$?LogText@ImGui@@YAXPEBDZZ DD imagerel $LN4
	DD	imagerel $LN4+196
	DD	imagerel $unwind$?LogText@ImGui@@YAXPEBDZZ
pdata	ENDS
;	COMDAT pdata
pdata	SEGMENT
$pdata$?LogTextV@ImGui@@YAXPEBDPEAD@Z DD imagerel $LN4
	DD	imagerel $LN4+97
	DD	imagerel $unwind$?LogTextV@ImGui@@YAXPEBDPEAD@Z
pdata	ENDS
;	COMDAT pdata
pdata	SEGMENT
$pdata$?BeginDragDropSource@ImGui@@YA_NH@Z DD imagerel $LN25
	DD	imagerel $LN25+1045
	DD	imagerel $unwind$?BeginDragDropSource@ImGui@@YA_NH@Z
pdata	ENDS
;	COMDAT pdata
pdata	SEGMENT
$pdata$?SetDragDropPayload@ImGui@@YA_NPEBDPEBX_KH@Z DD imagerel $LN21
	DD	imagerel $LN21+788
	DD	imagerel $unwind$?SetDragDropPayload@ImGui@@YA_NPEBDPEBX_KH@Z
pdata	ENDS
;	COMDAT pdata
pdata	SEGMENT
$pdata$?EndDragDropSource@ImGui@@YAXXZ DD imagerel $LN8
	DD	imagerel $LN8+209
	DD	imagerel $unwind$?EndDragDropSource@ImGui@@YAXXZ
pdata	ENDS
;	COMDAT pdata
pdata	SEGMENT
$pdata$?BeginDragDropTarget@ImGui@@YA_NXZ DD imagerel $LN12
	DD	imagerel $LN12+408
	DD	imagerel $unwind$?BeginDragDropTarget@ImGui@@YA_NXZ
pdata	ENDS
;	COMDAT pdata
pdata	SEGMENT
$pdata$?AcceptDragDropPayload@ImGui@@YAPEBUImGuiPayload@@PEBDH@Z DD imagerel $LN13
	DD	imagerel $LN13+925
	DD	imagerel $unwind$?AcceptDragDropPayload@ImGui@@YAPEBUImGuiPayload@@PEBDH@Z
pdata	ENDS
;	COMDAT pdata
pdata	SEGMENT
$pdata$?EndDragDropTarget@ImGui@@YAXXZ DD imagerel $LN5
	DD	imagerel $LN5+157
	DD	imagerel $unwind$?EndDragDropTarget@ImGui@@YAXXZ
pdata	ENDS
;	COMDAT pdata
pdata	SEGMENT
$pdata$?GetDragDropPayload@ImGui@@YAPEBUImGuiPayload@@XZ DD imagerel $LN5
	DD	imagerel $LN5+100
	DD	imagerel $unwind$?GetDragDropPayload@ImGui@@YAPEBUImGuiPayload@@XZ
pdata	ENDS
;	COMDAT pdata
pdata	SEGMENT
$pdata$?PushClipRect@ImGui@@YAXAEBUImVec2@@0_N@Z DD imagerel $LN3
	DD	imagerel $LN3+186
	DD	imagerel $unwind$?PushClipRect@ImGui@@YAXAEBUImVec2@@0_N@Z
pdata	ENDS
;	COMDAT pdata
pdata	SEGMENT
$pdata$?PopClipRect@ImGui@@YAXXZ DD imagerel $LN3
	DD	imagerel $LN3+130
	DD	imagerel $unwind$?PopClipRect@ImGui@@YAXXZ
pdata	ENDS
;	COMDAT pdata
pdata	SEGMENT
$pdata$?SetItemDefaultFocus@ImGui@@YAXXZ DD imagerel $LN7
	DD	imagerel $LN7+367
	DD	imagerel $unwind$?SetItemDefaultFocus@ImGui@@YAXXZ
pdata	ENDS
;	COMDAT pdata
pdata	SEGMENT
$pdata$?SetKeyboardFocusHere@ImGui@@YAXH@Z DD imagerel $LN4
	DD	imagerel $LN4+167
	DD	imagerel $unwind$?SetKeyboardFocusHere@ImGui@@YAXH@Z
pdata	ENDS
;	COMDAT pdata
pdata	SEGMENT
$pdata$?IsItemHovered@ImGui@@YA_NH@Z DD imagerel $LN13
	DD	imagerel $LN13+420
	DD	imagerel $unwind$?IsItemHovered@ImGui@@YA_NH@Z
pdata	ENDS
;	COMDAT pdata
pdata	SEGMENT
$pdata$?IsItemActive@ImGui@@YA_NXZ DD imagerel $LN6
	DD	imagerel $LN6+131
	DD	imagerel $unwind$?IsItemActive@ImGui@@YA_NXZ
pdata	ENDS
;	COMDAT pdata
pdata	SEGMENT
$pdata$?IsItemFocused@ImGui@@YA_NXZ DD imagerel $LN5
	DD	imagerel $LN5+104
	DD	imagerel $unwind$?IsItemFocused@ImGui@@YA_NXZ
pdata	ENDS
;	COMDAT pdata
pdata	SEGMENT
$pdata$?IsItemClicked@ImGui@@YA_NH@Z DD imagerel $LN5
	DD	imagerel $LN5+103
	DD	imagerel $unwind$?IsItemClicked@ImGui@@YA_NH@Z
pdata	ENDS
;	COMDAT pdata
pdata	SEGMENT
$pdata$?IsItemVisible@ImGui@@YA_NXZ DD imagerel $LN3
	DD	imagerel $LN3+88
	DD	imagerel $unwind$?IsItemVisible@ImGui@@YA_NXZ
pdata	ENDS
;	COMDAT pdata
pdata	SEGMENT
$pdata$?IsItemEdited@ImGui@@YA_NXZ DD imagerel $LN5
	DD	imagerel $LN5+92
	DD	imagerel $unwind$?IsItemEdited@ImGui@@YA_NXZ
pdata	ENDS
;	COMDAT pdata
pdata	SEGMENT
$pdata$?IsItemActivated@ImGui@@YA_NXZ DD imagerel $LN5
	DD	imagerel $LN5+126
	DD	imagerel $unwind$?IsItemActivated@ImGui@@YA_NXZ
pdata	ENDS
;	COMDAT pdata
pdata	SEGMENT
$pdata$?IsItemDeactivated@ImGui@@YA_NXZ DD imagerel $LN8
	DD	imagerel $LN8+214
	DD	imagerel $unwind$?IsItemDeactivated@ImGui@@YA_NXZ
pdata	ENDS
;	COMDAT pdata
pdata	SEGMENT
$pdata$?IsItemDeactivatedAfterEdit@ImGui@@YA_NXZ DD imagerel $LN7
	DD	imagerel $LN7+132
	DD	imagerel $unwind$?IsItemDeactivatedAfterEdit@ImGui@@YA_NXZ
pdata	ENDS
;	COMDAT pdata
pdata	SEGMENT
$pdata$?IsItemToggledOpen@ImGui@@YA_NXZ DD imagerel $LN5
	DD	imagerel $LN5+95
	DD	imagerel $unwind$?IsItemToggledOpen@ImGui@@YA_NXZ
pdata	ENDS
;	COMDAT pdata
pdata	SEGMENT
$pdata$?IsAnyItemHovered@ImGui@@YA_NXZ DD imagerel $LN5
	DD	imagerel $LN5+103
	DD	imagerel $unwind$?IsAnyItemHovered@ImGui@@YA_NXZ
pdata	ENDS
;	COMDAT pdata
pdata	SEGMENT
$pdata$?IsAnyItemActive@ImGui@@YA_NXZ DD imagerel $LN5
	DD	imagerel $LN5+90
	DD	imagerel $unwind$?IsAnyItemActive@ImGui@@YA_NXZ
pdata	ENDS
;	COMDAT pdata
pdata	SEGMENT
$pdata$?IsAnyItemFocused@ImGui@@YA_NXZ DD imagerel $LN5
	DD	imagerel $LN5+105
	DD	imagerel $unwind$?IsAnyItemFocused@ImGui@@YA_NXZ
pdata	ENDS
;	COMDAT pdata
pdata	SEGMENT
$pdata$?GetItemRectMin@ImGui@@YA?AUImVec2@@XZ DD imagerel $LN3
	DD	imagerel $LN3+78
	DD	imagerel $unwind$?GetItemRectMin@ImGui@@YA?AUImVec2@@XZ
pdata	ENDS
;	COMDAT pdata
pdata	SEGMENT
$pdata$?GetItemRectMax@ImGui@@YA?AUImVec2@@XZ DD imagerel $LN3
	DD	imagerel $LN3+78
	DD	imagerel $unwind$?GetItemRectMax@ImGui@@YA?AUImVec2@@XZ
pdata	ENDS
;	COMDAT pdata
pdata	SEGMENT
$pdata$?GetItemRectSize@ImGui@@YA?AUImVec2@@XZ DD imagerel $LN3
	DD	imagerel $LN3+93
	DD	imagerel $unwind$?GetItemRectSize@ImGui@@YA?AUImVec2@@XZ
pdata	ENDS
;	COMDAT pdata
pdata	SEGMENT
$pdata$?SetItemAllowOverlap@ImGui@@YAXXZ DD imagerel $LN5
	DD	imagerel $LN5+120
	DD	imagerel $unwind$?SetItemAllowOverlap@ImGui@@YAXXZ
pdata	ENDS
;	COMDAT pdata
pdata	SEGMENT
$pdata$?GetMainViewport@ImGui@@YAPEAUImGuiViewport@@XZ DD imagerel $LN3
	DD	imagerel $LN3+82
	DD	imagerel $unwind$?GetMainViewport@ImGui@@YAPEAUImGuiViewport@@XZ
pdata	ENDS
;	COMDAT pdata
pdata	SEGMENT
$pdata$?IsRectVisible@ImGui@@YA_NAEBUImVec2@@@Z DD imagerel $LN3
	DD	imagerel $LN3+152
	DD	imagerel $unwind$?IsRectVisible@ImGui@@YA_NAEBUImVec2@@@Z
pdata	ENDS
;	COMDAT pdata
pdata	SEGMENT
$pdata$?IsRectVisible@ImGui@@YA_NAEBUImVec2@@0@Z DD imagerel $LN3
	DD	imagerel $LN3+122
	DD	imagerel $unwind$?IsRectVisible@ImGui@@YA_NAEBUImVec2@@0@Z
pdata	ENDS
;	COMDAT pdata
pdata	SEGMENT
$pdata$?GetTime@ImGui@@YANXZ DD imagerel $LN3
	DD	imagerel $LN3+52
	DD	imagerel $unwind$?GetTime@ImGui@@YANXZ
pdata	ENDS
;	COMDAT pdata
pdata	SEGMENT
$pdata$?GetFrameCount@ImGui@@YAHXZ DD imagerel $LN3
	DD	imagerel $LN3+50
	DD	imagerel $unwind$?GetFrameCount@ImGui@@YAHXZ
pdata	ENDS
;	COMDAT pdata
pdata	SEGMENT
$pdata$?GetBackgroundDrawList@ImGui@@YAPEAUImDrawList@@XZ DD imagerel $LN3
	DD	imagerel $LN3+87
	DD	imagerel $unwind$?GetBackgroundDrawList@ImGui@@YAPEAUImDrawList@@XZ
pdata	ENDS
;	COMDAT pdata
pdata	SEGMENT
$pdata$?GetForegroundDrawList@ImGui@@YAPEAUImDrawList@@XZ DD imagerel $LN3
	DD	imagerel $LN3+87
	DD	imagerel $unwind$?GetForegroundDrawList@ImGui@@YAPEAUImDrawList@@XZ
pdata	ENDS
;	COMDAT pdata
pdata	SEGMENT
$pdata$?GetDrawListSharedData@ImGui@@YAPEAUImDrawListSharedData@@XZ DD imagerel $LN3
	DD	imagerel $LN3+50
	DD	imagerel $unwind$?GetDrawListSharedData@ImGui@@YAPEAUImDrawListSharedData@@XZ
pdata	ENDS
;	COMDAT pdata
pdata	SEGMENT
$pdata$?GetStyleColorName@ImGui@@YAPEBDH@Z DD imagerel $LN60
	DD	imagerel $LN60+960
	DD	imagerel $unwind$?GetStyleColorName@ImGui@@YAPEBDH@Z
pdata	ENDS
;	COMDAT pdata
pdata	SEGMENT
$pdata$?SetStateStorage@ImGui@@YAXPEAUImGuiStorage@@@Z DD imagerel $LN5
	DD	imagerel $LN5+120
	DD	imagerel $unwind$?SetStateStorage@ImGui@@YAXPEAUImGuiStorage@@@Z
pdata	ENDS
;	COMDAT pdata
pdata	SEGMENT
$pdata$?GetStateStorage@ImGui@@YAPEAUImGuiStorage@@XZ DD imagerel $LN3
	DD	imagerel $LN3+66
	DD	imagerel $unwind$?GetStateStorage@ImGui@@YAPEAUImGuiStorage@@XZ
pdata	ENDS
;	COMDAT pdata
pdata	SEGMENT
$pdata$?CalcListClipping@ImGui@@YAXHMPEAH0@Z DD imagerel $LN9
	DD	imagerel $LN9+753
	DD	imagerel $unwind$?CalcListClipping@ImGui@@YAXHMPEAH0@Z
pdata	ENDS
;	COMDAT pdata
pdata	SEGMENT
$pdata$?BeginChildFrame@ImGui@@YA_NIAEBUImVec2@@H@Z DD imagerel $LN3
	DD	imagerel $LN3+230
	DD	imagerel $unwind$?BeginChildFrame@ImGui@@YA_NIAEBUImVec2@@H@Z
pdata	ENDS
;	COMDAT pdata
pdata	SEGMENT
$pdata$?EndChildFrame@ImGui@@YAXXZ DD imagerel $LN3
	DD	imagerel $LN3+42
	DD	imagerel $unwind$?EndChildFrame@ImGui@@YAXXZ
pdata	ENDS
;	COMDAT pdata
pdata	SEGMENT
$pdata$?CalcTextSize@ImGui@@YA?AUImVec2@@PEBD0_NM@Z DD imagerel $LN6
	DD	imagerel $LN6+399
	DD	imagerel $unwind$?CalcTextSize@ImGui@@YA?AUImVec2@@PEBD0_NM@Z
pdata	ENDS
;	COMDAT pdata
pdata	SEGMENT
$pdata$?ColorConvertU32ToFloat4@ImGui@@YA?AUImVec4@@I@Z DD imagerel $LN3
	DD	imagerel $LN3+206
	DD	imagerel $unwind$?ColorConvertU32ToFloat4@ImGui@@YA?AUImVec4@@I@Z
pdata	ENDS
;	COMDAT pdata
pdata	SEGMENT
$pdata$?ColorConvertFloat4ToU32@ImGui@@YAIAEBUImVec4@@@Z DD imagerel $LN3
	DD	imagerel $LN3+233
	DD	imagerel $unwind$?ColorConvertFloat4ToU32@ImGui@@YAIAEBUImVec4@@@Z
pdata	ENDS
;	COMDAT pdata
pdata	SEGMENT
$pdata$?ColorConvertRGBtoHSV@ImGui@@YAXMMMAEAM00@Z DD imagerel $LN7
	DD	imagerel $LN7+369
	DD	imagerel $unwind$?ColorConvertRGBtoHSV@ImGui@@YAXMMMAEAM00@Z
pdata	ENDS
;	COMDAT pdata
pdata	SEGMENT
$pdata$?ColorConvertHSVtoRGB@ImGui@@YAXMMMAEAM00@Z DD imagerel $LN14
	DD	imagerel $LN14+772
	DD	imagerel $unwind$?ColorConvertHSVtoRGB@ImGui@@YAXMMMAEAM00@Z
pdata	ENDS
;	COMDAT pdata
pdata	SEGMENT
$pdata$?GetKeyIndex@ImGui@@YAHH@Z DD imagerel $LN5
	DD	imagerel $LN5+117
	DD	imagerel $unwind$?GetKeyIndex@ImGui@@YAHH@Z
pdata	ENDS
;	COMDAT pdata
pdata	SEGMENT
$pdata$?IsKeyDown@ImGui@@YA_NH@Z DD imagerel $LN6
	DD	imagerel $LN6+138
	DD	imagerel $unwind$?IsKeyDown@ImGui@@YA_NH@Z
pdata	ENDS
;	COMDAT pdata
pdata	SEGMENT
$pdata$?IsKeyPressed@ImGui@@YA_NH_N@Z DD imagerel $LN10
	DD	imagerel $LN10+272
	DD	imagerel $unwind$?IsKeyPressed@ImGui@@YA_NH_N@Z
pdata	ENDS
;	COMDAT pdata
pdata	SEGMENT
$pdata$?IsKeyReleased@ImGui@@YA_NH@Z DD imagerel $LN8
	DD	imagerel $LN8+203
	DD	imagerel $unwind$?IsKeyReleased@ImGui@@YA_NH@Z
pdata	ENDS
;	COMDAT pdata
pdata	SEGMENT
$pdata$?GetKeyPressedAmount@ImGui@@YAHHMM@Z DD imagerel $LN6
	DD	imagerel $LN6+196
	DD	imagerel $unwind$?GetKeyPressedAmount@ImGui@@YAHHMM@Z
pdata	ENDS
;	COMDAT pdata
pdata	SEGMENT
$pdata$?CaptureKeyboardFromApp@ImGui@@YAX_N@Z DD imagerel $LN5
	DD	imagerel $LN5+92
	DD	imagerel $unwind$?CaptureKeyboardFromApp@ImGui@@YAX_N@Z
pdata	ENDS
;	COMDAT pdata
pdata	SEGMENT
$pdata$?IsMouseDown@ImGui@@YA_NH@Z DD imagerel $LN5
	DD	imagerel $LN5+122
	DD	imagerel $unwind$?IsMouseDown@ImGui@@YA_NH@Z
pdata	ENDS
;	COMDAT pdata
pdata	SEGMENT
$pdata$?IsMouseClicked@ImGui@@YA_NH_N@Z DD imagerel $LN8
	DD	imagerel $LN8+271
	DD	imagerel $unwind$?IsMouseClicked@ImGui@@YA_NH_N@Z
pdata	ENDS
;	COMDAT pdata
pdata	SEGMENT
$pdata$?IsMouseReleased@ImGui@@YA_NH@Z DD imagerel $LN5
	DD	imagerel $LN5+122
	DD	imagerel $unwind$?IsMouseReleased@ImGui@@YA_NH@Z
pdata	ENDS
;	COMDAT pdata
pdata	SEGMENT
$pdata$?IsMouseDoubleClicked@ImGui@@YA_NH@Z DD imagerel $LN5
	DD	imagerel $LN5+122
	DD	imagerel $unwind$?IsMouseDoubleClicked@ImGui@@YA_NH@Z
pdata	ENDS
;	COMDAT pdata
pdata	SEGMENT
$pdata$?IsMouseHoveringRect@ImGui@@YA_NAEBUImVec2@@0_N@Z DD imagerel $LN5
	DD	imagerel $LN5+334
	DD	imagerel $unwind$?IsMouseHoveringRect@ImGui@@YA_NAEBUImVec2@@0_N@Z
pdata	ENDS
;	COMDAT pdata
pdata	SEGMENT
$pdata$?IsMousePosValid@ImGui@@YA_NPEBUImVec2@@@Z DD imagerel $LN8
	DD	imagerel $LN8+306
	DD	imagerel $unwind$?IsMousePosValid@ImGui@@YA_NPEBUImVec2@@@Z
pdata	ENDS
;	COMDAT pdata
pdata	SEGMENT
$pdata$?IsAnyMouseDown@ImGui@@YA_NXZ DD imagerel $LN7
	DD	imagerel $LN7+99
	DD	imagerel $unwind$?IsAnyMouseDown@ImGui@@YA_NXZ
pdata	ENDS
;	COMDAT pdata
pdata	SEGMENT
$pdata$?GetMousePos@ImGui@@YA?AUImVec2@@XZ DD imagerel $LN3
	DD	imagerel $LN3+80
	DD	imagerel $unwind$?GetMousePos@ImGui@@YA?AUImVec2@@XZ
pdata	ENDS
;	COMDAT pdata
pdata	SEGMENT
$pdata$?GetMousePosOnOpeningCurrentPopup@ImGui@@YA?AUImVec2@@XZ DD imagerel $LN4
	DD	imagerel $LN4+159
	DD	imagerel $unwind$?GetMousePosOnOpeningCurrentPopup@ImGui@@YA?AUImVec2@@XZ
pdata	ENDS
;	COMDAT pdata
pdata	SEGMENT
$pdata$?IsMouseDragging@ImGui@@YA_NHM@Z DD imagerel $LN6
	DD	imagerel $LN6+155
	DD	imagerel $unwind$?IsMouseDragging@ImGui@@YA_NHM@Z
pdata	ENDS
;	COMDAT pdata
pdata	SEGMENT
$pdata$?GetMouseDragDelta@ImGui@@YA?AUImVec2@@HM@Z DD imagerel $LN10
	DD	imagerel $LN10+375
	DD	imagerel $unwind$?GetMouseDragDelta@ImGui@@YA?AUImVec2@@HM@Z
pdata	ENDS
;	COMDAT pdata
pdata	SEGMENT
$pdata$?ResetMouseDragDelta@ImGui@@YAXH@Z DD imagerel $LN5
	DD	imagerel $LN5+133
	DD	imagerel $unwind$?ResetMouseDragDelta@ImGui@@YAXH@Z
pdata	ENDS
;	COMDAT pdata
pdata	SEGMENT
$pdata$?GetMouseCursor@ImGui@@YAHXZ DD imagerel $LN3
	DD	imagerel $LN3+50
	DD	imagerel $unwind$?GetMouseCursor@ImGui@@YAHXZ
pdata	ENDS
;	COMDAT pdata
pdata	SEGMENT
$pdata$?SetMouseCursor@ImGui@@YAXH@Z DD imagerel $LN3
	DD	imagerel $LN3+59
	DD	imagerel $unwind$?SetMouseCursor@ImGui@@YAXH@Z
pdata	ENDS
;	COMDAT pdata
pdata	SEGMENT
$pdata$?CaptureMouseFromApp@ImGui@@YAX_N@Z DD imagerel $LN5
	DD	imagerel $LN5+92
	DD	imagerel $unwind$?CaptureMouseFromApp@ImGui@@YAX_N@Z
pdata	ENDS
;	COMDAT pdata
pdata	SEGMENT
$pdata$?GetClipboardText@ImGui@@YAPEBDXZ DD imagerel $LN5
	DD	imagerel $LN5+127
	DD	imagerel $unwind$?GetClipboardText@ImGui@@YAPEBDXZ
pdata	ENDS
;	COMDAT pdata
pdata	SEGMENT
$pdata$?SetClipboardText@ImGui@@YAXPEBD@Z DD imagerel $LN4
	DD	imagerel $LN4+108
	DD	imagerel $unwind$?SetClipboardText@ImGui@@YAXPEBD@Z
pdata	ENDS
;	COMDAT pdata
pdata	SEGMENT
$pdata$?LoadIniSettingsFromDisk@ImGui@@YAXPEBD@Z DD imagerel $LN4
	DD	imagerel $LN4+183
	DD	imagerel $unwind$?LoadIniSettingsFromDisk@ImGui@@YAXPEBD@Z
pdata	ENDS
;	COMDAT pdata
pdata	SEGMENT
$pdata$?LoadIniSettingsFromMemory@ImGui@@YAXPEBD_K@Z DD imagerel $LN32
	DD	imagerel $LN32+1423
	DD	imagerel $unwind$?LoadIniSettingsFromMemory@ImGui@@YAXPEBD_K@Z
pdata	ENDS
;	COMDAT pdata
pdata	SEGMENT
$pdata$?SaveIniSettingsToDisk@ImGui@@YAXPEBD@Z DD imagerel $LN5
	DD	imagerel $LN5+236
	DD	imagerel $unwind$?SaveIniSettingsToDisk@ImGui@@YAXPEBD@Z
pdata	ENDS
;	COMDAT pdata
pdata	SEGMENT
$pdata$?SaveIniSettingsToMemory@ImGui@@YAPEBDPEA_K@Z DD imagerel $LN7
	DD	imagerel $LN7+311
	DD	imagerel $unwind$?SaveIniSettingsToMemory@ImGui@@YAPEBDPEA_K@Z
pdata	ENDS
;	COMDAT pdata
pdata	SEGMENT
$pdata$?DebugCheckVersionAndDataLayout@ImGui@@YA_NPEBD_K11111@Z DD imagerel $LN32
	DD	imagerel $LN32+669
	DD	imagerel $unwind$?DebugCheckVersionAndDataLayout@ImGui@@YA_NPEBD_K11111@Z
pdata	ENDS
;	COMDAT pdata
pdata	SEGMENT
$pdata$?SetAllocatorFunctions@ImGui@@YAXP6APEAX_KPEAX@ZP6AX11@Z1@Z DD imagerel $LN3
	DD	imagerel $LN3+93
	DD	imagerel $unwind$?SetAllocatorFunctions@ImGui@@YAXP6APEAX_KPEAX@ZP6AX11@Z1@Z
pdata	ENDS
;	COMDAT pdata
pdata	SEGMENT
$pdata$?GetAllocatorFunctions@ImGui@@YAXPEAP6APEAX_KPEAX@ZPEAP6AX11@ZPEAPEAX@Z DD imagerel $LN3
	DD	imagerel $LN3+102
	DD	imagerel $unwind$?GetAllocatorFunctions@ImGui@@YAXPEAP6APEAX_KPEAX@ZPEAP6AX11@ZPEAPEAX@Z
pdata	ENDS
;	COMDAT pdata
pdata	SEGMENT
$pdata$?MemAlloc@ImGui@@YAPEAX_K@Z DD imagerel $LN4
	DD	imagerel $LN4+115
	DD	imagerel $unwind$?MemAlloc@ImGui@@YAPEAX_K@Z
pdata	ENDS
;	COMDAT pdata
pdata	SEGMENT
$pdata$?MemFree@ImGui@@YAXPEAX@Z DD imagerel $LN5
	DD	imagerel $LN5+125
	DD	imagerel $unwind$?MemFree@ImGui@@YAXPEAX@Z
pdata	ENDS
;	COMDAT pdata
pdata	SEGMENT
$pdata$??2@YAPEAX_KUImNewWrapper@@PEAX@Z DD imagerel $LN3
	DD	imagerel $LN3+57
	DD	imagerel $unwind$??2@YAPEAX_KUImNewWrapper@@PEAX@Z
pdata	ENDS
;	COMDAT pdata
pdata	SEGMENT
$pdata$??3@YAXPEAXUImNewWrapper@@0@Z DD imagerel $LN3
	DD	imagerel $LN3+50
	DD	imagerel $unwind$??3@YAXPEAXUImNewWrapper@@0@Z
pdata	ENDS
;	COMDAT pdata
pdata	SEGMENT
$pdata$??0ImGuiStyle@@QEAA@XZ DD imagerel $LN3
	DD	imagerel $LN3+1319
	DD	imagerel $unwind$??0ImGuiStyle@@QEAA@XZ
pdata	ENDS
;	COMDAT pdata
pdata	SEGMENT
$pdata$?ScaleAllSizes@ImGuiStyle@@QEAAXM@Z DD imagerel $LN6
	DD	imagerel $LN6+1226
	DD	imagerel $unwind$?ScaleAllSizes@ImGuiStyle@@QEAAXM@Z
pdata	ENDS
;	COMDAT pdata
pdata	SEGMENT
$pdata$?AddInputCharacter@ImGuiIO@@QEAAXI@Z DD imagerel $LN6
	DD	imagerel $LN6+144
	DD	imagerel $unwind$?AddInputCharacter@ImGuiIO@@QEAAXI@Z
pdata	ENDS
;	COMDAT pdata
pdata	SEGMENT
$pdata$?AddInputCharacterUTF16@ImGuiIO@@QEAAXG@Z DD imagerel $LN9
	DD	imagerel $LN9+429
	DD	imagerel $unwind$?AddInputCharacterUTF16@ImGuiIO@@QEAAXG@Z
pdata	ENDS
;	COMDAT pdata
pdata	SEGMENT
$pdata$?AddInputCharactersUTF8@ImGuiIO@@QEAAXPEBD@Z DD imagerel $LN6
	DD	imagerel $LN6+239
	DD	imagerel $unwind$?AddInputCharactersUTF8@ImGuiIO@@QEAAXPEBD@Z
pdata	ENDS
;	COMDAT pdata
pdata	SEGMENT
$pdata$?ClearInputCharacters@ImGuiIO@@QEAAXXZ DD imagerel $LN3
	DD	imagerel $LN3+75
	DD	imagerel $unwind$?ClearInputCharacters@ImGuiIO@@QEAAXXZ
pdata	ENDS
;	COMDAT pdata
pdata	SEGMENT
$pdata$??0?$ImVector@G@@QEAA@XZ DD imagerel $LN3
	DD	imagerel $LN3+90
	DD	imagerel $unwind$??0?$ImVector@G@@QEAA@XZ
pdata	ENDS
;	COMDAT pdata
pdata	SEGMENT
$pdata$??1?$ImVector@G@@QEAA@XZ DD imagerel $LN4
	DD	imagerel $LN4+72
	DD	imagerel $unwind$??1?$ImVector@G@@QEAA@XZ
pdata	ENDS
;	COMDAT pdata
pdata	SEGMENT
$pdata$?clear@?$ImVector@G@@QEAAXXZ DD imagerel $LN4
	DD	imagerel $LN4+113
	DD	imagerel $unwind$?clear@?$ImVector@G@@QEAAXXZ
pdata	ENDS
;	COMDAT pdata
pdata	SEGMENT
$pdata$??A?$ImVector@G@@QEAAAEAGH@Z DD imagerel $LN5
	DD	imagerel $LN5+121
	DD	imagerel $unwind$??A?$ImVector@G@@QEAAAEAGH@Z
pdata	ENDS
;	COMDAT pdata
pdata	SEGMENT
$pdata$?_grow_capacity@?$ImVector@G@@QEBAHH@Z DD imagerel $LN7
	DD	imagerel $LN7+150
	DD	imagerel $unwind$?_grow_capacity@?$ImVector@G@@QEBAHH@Z
pdata	ENDS
;	COMDAT pdata
pdata	SEGMENT
$pdata$?resize@?$ImVector@G@@QEAAXH@Z DD imagerel $LN4
	DD	imagerel $LN4+110
	DD	imagerel $unwind$?resize@?$ImVector@G@@QEAAXH@Z
pdata	ENDS
;	COMDAT pdata
pdata	SEGMENT
$pdata$?reserve@?$ImVector@G@@QEAAXH@Z DD imagerel $LN5
	DD	imagerel $LN5+183
	DD	imagerel $unwind$?reserve@?$ImVector@G@@QEAAXH@Z
pdata	ENDS
;	COMDAT pdata
pdata	SEGMENT
$pdata$?push_back@?$ImVector@G@@QEAAXAEBG@Z DD imagerel $LN4
	DD	imagerel $LN4+161
	DD	imagerel $unwind$?push_back@?$ImVector@G@@QEAAXAEBG@Z
pdata	ENDS
;	COMDAT pdata
pdata	SEGMENT
$pdata$??0ImGuiIO@@QEAA@XZ DD imagerel $LN16
	DD	imagerel $LN16+1288
	DD	imagerel $unwind$??0ImGuiIO@@QEAA@XZ
pdata	ENDS
;	COMDAT pdata
pdata	SEGMENT
$pdata$?dtor$0@?0???0ImGuiIO@@QEAA@XZ@4HA DD imagerel ?dtor$0@?0???0ImGuiIO@@QEAA@XZ@4HA
	DD	imagerel ?dtor$0@?0???0ImGuiIO@@QEAA@XZ@4HA+46
	DD	imagerel $unwind$?dtor$0@?0???0ImGuiIO@@QEAA@XZ@4HA
pdata	ENDS
;	COMDAT pdata
pdata	SEGMENT
$pdata$??1ImGuiIO@@QEAA@XZ DD imagerel $LN3
	DD	imagerel $LN3+50
	DD	imagerel $unwind$??1ImGuiIO@@QEAA@XZ
pdata	ENDS
;	COMDAT pdata
pdata	SEGMENT
$pdata$??0ImGuiSizeCallbackData@@QEAA@XZ DD imagerel $LN3
	DD	imagerel $LN3+93
	DD	imagerel $unwind$??0ImGuiSizeCallbackData@@QEAA@XZ
pdata	ENDS
;	COMDAT pdata
pdata	SEGMENT
$pdata$??0ImGuiPayload@@QEAA@XZ DD imagerel $LN3
	DD	imagerel $LN3+60
	DD	imagerel $unwind$??0ImGuiPayload@@QEAA@XZ
pdata	ENDS
;	COMDAT pdata
pdata	SEGMENT
$pdata$?Clear@ImGuiPayload@@QEAAXXZ DD imagerel $LN3
	DD	imagerel $LN3+156
	DD	imagerel $unwind$?Clear@ImGuiPayload@@QEAAXXZ
pdata	ENDS
;	COMDAT pdata
pdata	SEGMENT
$pdata$?IsDataType@ImGuiPayload@@QEBA_NPEBD@Z DD imagerel $LN8
	DD	imagerel $LN8+137
	DD	imagerel $unwind$?IsDataType@ImGuiPayload@@QEBA_NPEBD@Z
pdata	ENDS
;	COMDAT pdata
pdata	SEGMENT
$pdata$??0ImGuiTextFilter@@QEAA@PEBD@Z DD imagerel $LN6
	DD	imagerel $LN6+164
	DD	imagerel $unwind$??0ImGuiTextFilter@@QEAA@PEBD@Z
pdata	ENDS
;	COMDAT pdata
pdata	SEGMENT
$pdata$?dtor$0@?0???0ImGuiTextFilter@@QEAA@PEBD@Z@4HA DD imagerel ?dtor$0@?0???0ImGuiTextFilter@@QEAA@PEBD@Z@4HA
	DD	imagerel ?dtor$0@?0???0ImGuiTextFilter@@QEAA@PEBD@Z@4HA+46
	DD	imagerel $unwind$?dtor$0@?0???0ImGuiTextFilter@@QEAA@PEBD@Z@4HA
pdata	ENDS
;	COMDAT pdata
pdata	SEGMENT
$pdata$?Draw@ImGuiTextFilter@@QEAA_NPEBDM@Z DD imagerel $LN6
	DD	imagerel $LN6+160
	DD	imagerel $unwind$?Draw@ImGuiTextFilter@@QEAA_NPEBDM@Z
pdata	ENDS
;	COMDAT pdata
pdata	SEGMENT
$pdata$?PassFilter@ImGuiTextFilter@@QEBA_NPEBD0@Z DD imagerel $LN14
	DD	imagerel $LN14+352
	DD	imagerel $unwind$?PassFilter@ImGuiTextFilter@@QEBA_NPEBD0@Z
pdata	ENDS
;	COMDAT pdata
pdata	SEGMENT
$pdata$?Build@ImGuiTextFilter@@QEAAXXZ DD imagerel $LN13
	DD	imagerel $LN13+613
	DD	imagerel $unwind$?Build@ImGuiTextFilter@@QEAAXXZ
pdata	ENDS
;	COMDAT pdata
pdata	SEGMENT
$pdata$??0ImGuiTextRange@ImGuiTextFilter@@QEAA@PEBD0@Z DD imagerel $LN3
	DD	imagerel $LN3+93
	DD	imagerel $unwind$??0ImGuiTextRange@ImGuiTextFilter@@QEAA@PEBD0@Z
pdata	ENDS
;	COMDAT pdata
pdata	SEGMENT
$pdata$?empty@ImGuiTextRange@ImGuiTextFilter@@QEBA_NXZ DD imagerel $LN5
	DD	imagerel $LN5+93
	DD	imagerel $unwind$?empty@ImGuiTextRange@ImGuiTextFilter@@QEBA_NXZ
pdata	ENDS
;	COMDAT pdata
pdata	SEGMENT
$pdata$?split@ImGuiTextRange@ImGuiTextFilter@@QEBAXDPEAU?$ImVector@UImGuiTextRange@ImGuiTextFilter@@@@@Z DD imagerel $LN7
	DD	imagerel $LN7+225
	DD	imagerel $unwind$?split@ImGuiTextRange@ImGuiTextFilter@@QEBAXDPEAU?$ImVector@UImGuiTextRange@ImGuiTextFilter@@@@@Z
pdata	ENDS
;	COMDAT pdata
pdata	SEGMENT
$pdata$??0?$ImVector@UImGuiTextRange@ImGuiTextFilter@@@@QEAA@XZ DD imagerel $LN3
	DD	imagerel $LN3+90
	DD	imagerel $unwind$??0?$ImVector@UImGuiTextRange@ImGuiTextFilter@@@@QEAA@XZ
pdata	ENDS
;	COMDAT pdata
pdata	SEGMENT
$pdata$??1?$ImVector@UImGuiTextRange@ImGuiTextFilter@@@@QEAA@XZ DD imagerel $LN4
	DD	imagerel $LN4+72
	DD	imagerel $unwind$??1?$ImVector@UImGuiTextRange@ImGuiTextFilter@@@@QEAA@XZ
pdata	ENDS
;	COMDAT pdata
pdata	SEGMENT
$pdata$?empty@?$ImVector@UImGuiTextRange@ImGuiTextFilter@@@@QEBA_NXZ DD imagerel $LN5
	DD	imagerel $LN5+82
	DD	imagerel $unwind$?empty@?$ImVector@UImGuiTextRange@ImGuiTextFilter@@@@QEBA_NXZ
pdata	ENDS
;	COMDAT pdata
pdata	SEGMENT
$pdata$??A?$ImVector@UImGuiTextRange@ImGuiTextFilter@@@@QEAAAEAUImGuiTextRange@ImGuiTextFilter@@H@Z DD imagerel $LN5
	DD	imagerel $LN5+121
	DD	imagerel $unwind$??A?$ImVector@UImGuiTextRange@ImGuiTextFilter@@@@QEAAAEAUImGuiTextRange@ImGuiTextFilter@@H@Z
pdata	ENDS
;	COMDAT pdata
pdata	SEGMENT
$pdata$??A?$ImVector@UImGuiTextRange@ImGuiTextFilter@@@@QEBAAEBUImGuiTextRange@ImGuiTextFilter@@H@Z DD imagerel $LN5
	DD	imagerel $LN5+121
	DD	imagerel $unwind$??A?$ImVector@UImGuiTextRange@ImGuiTextFilter@@@@QEBAAEBUImGuiTextRange@ImGuiTextFilter@@H@Z
pdata	ENDS
;	COMDAT pdata
pdata	SEGMENT
$pdata$?_grow_capacity@?$ImVector@UImGuiTextRange@ImGuiTextFilter@@@@QEBAHH@Z DD imagerel $LN7
	DD	imagerel $LN7+150
	DD	imagerel $unwind$?_grow_capacity@?$ImVector@UImGuiTextRange@ImGuiTextFilter@@@@QEBAHH@Z
pdata	ENDS
;	COMDAT pdata
pdata	SEGMENT
$pdata$?resize@?$ImVector@UImGuiTextRange@ImGuiTextFilter@@@@QEAAXH@Z DD imagerel $LN4
	DD	imagerel $LN4+110
	DD	imagerel $unwind$?resize@?$ImVector@UImGuiTextRange@ImGuiTextFilter@@@@QEAAXH@Z
pdata	ENDS
;	COMDAT pdata
pdata	SEGMENT
$pdata$?reserve@?$ImVector@UImGuiTextRange@ImGuiTextFilter@@@@QEAAXH@Z DD imagerel $LN5
	DD	imagerel $LN5+185
	DD	imagerel $unwind$?reserve@?$ImVector@UImGuiTextRange@ImGuiTextFilter@@@@QEAAXH@Z
pdata	ENDS
;	COMDAT pdata
pdata	SEGMENT
$pdata$?push_back@?$ImVector@UImGuiTextRange@ImGuiTextFilter@@@@QEAAXAEBUImGuiTextRange@ImGuiTextFilter@@@Z DD imagerel $LN4
	DD	imagerel $LN4+171
	DD	imagerel $unwind$?push_back@?$ImVector@UImGuiTextRange@ImGuiTextFilter@@@@QEAAXAEBUImGuiTextRange@ImGuiTextFilter@@@Z
pdata	ENDS
;	COMDAT pdata
pdata	SEGMENT
$pdata$??0?$ImVector@D@@QEAA@XZ DD imagerel $LN3
	DD	imagerel $LN3+90
	DD	imagerel $unwind$??0?$ImVector@D@@QEAA@XZ
pdata	ENDS
;	COMDAT pdata
pdata	SEGMENT
$pdata$??1?$ImVector@D@@QEAA@XZ DD imagerel $LN4
	DD	imagerel $LN4+72
	DD	imagerel $unwind$??1?$ImVector@D@@QEAA@XZ
pdata	ENDS
;	COMDAT pdata
pdata	SEGMENT
$pdata$?clear@?$ImVector@D@@QEAAXXZ DD imagerel $LN4
	DD	imagerel $LN4+113
	DD	imagerel $unwind$?clear@?$ImVector@D@@QEAAXXZ
pdata	ENDS
;	COMDAT pdata
pdata	SEGMENT
$pdata$??A?$ImVector@D@@QEAAAEADH@Z DD imagerel $LN5
	DD	imagerel $LN5+123
	DD	imagerel $unwind$??A?$ImVector@D@@QEAAAEADH@Z
pdata	ENDS
;	COMDAT pdata
pdata	SEGMENT
$pdata$?front@?$ImVector@D@@QEBAAEBDXZ DD imagerel $LN4
	DD	imagerel $LN4+101
	DD	imagerel $unwind$?front@?$ImVector@D@@QEBAAEBDXZ
pdata	ENDS
;	COMDAT pdata
pdata	SEGMENT
$pdata$?_grow_capacity@?$ImVector@D@@QEBAHH@Z DD imagerel $LN7
	DD	imagerel $LN7+150
	DD	imagerel $unwind$?_grow_capacity@?$ImVector@D@@QEBAHH@Z
pdata	ENDS
;	COMDAT pdata
pdata	SEGMENT
$pdata$?resize@?$ImVector@D@@QEAAXH@Z DD imagerel $LN4
	DD	imagerel $LN4+110
	DD	imagerel $unwind$?resize@?$ImVector@D@@QEAAXH@Z
pdata	ENDS
;	COMDAT pdata
pdata	SEGMENT
$pdata$?reserve@?$ImVector@D@@QEAAXH@Z DD imagerel $LN5
	DD	imagerel $LN5+177
	DD	imagerel $unwind$?reserve@?$ImVector@D@@QEAAXH@Z
pdata	ENDS
;	COMDAT pdata
pdata	SEGMENT
$pdata$?push_back@?$ImVector@D@@QEAAXAEBD@Z DD imagerel $LN4
	DD	imagerel $LN4+160
	DD	imagerel $unwind$?push_back@?$ImVector@D@@QEAAXAEBD@Z
pdata	ENDS
;	COMDAT pdata
pdata	SEGMENT
$pdata$??0ImGuiTextBuffer@@QEAA@XZ DD imagerel $LN4
	DD	imagerel $LN4+63
	DD	imagerel $unwind$??0ImGuiTextBuffer@@QEAA@XZ
pdata	ENDS
;	COMDAT pdata
pdata	SEGMENT
$pdata$?begin@ImGuiTextBuffer@@QEBAPEBDXZ DD imagerel $LN5
	DD	imagerel $LN5+100
	DD	imagerel $unwind$?begin@ImGuiTextBuffer@@QEBAPEBDXZ
pdata	ENDS
;	COMDAT pdata
pdata	SEGMENT
$pdata$?size@ImGuiTextBuffer@@QEBAHXZ DD imagerel $LN5
	DD	imagerel $LN5+88
	DD	imagerel $unwind$?size@ImGuiTextBuffer@@QEBAHXZ
pdata	ENDS
;	COMDAT pdata
pdata	SEGMENT
$pdata$?empty@ImGuiTextBuffer@@QEBA_NXZ DD imagerel $LN5
	DD	imagerel $LN5+82
	DD	imagerel $unwind$?empty@ImGuiTextBuffer@@QEBA_NXZ
pdata	ENDS
;	COMDAT pdata
pdata	SEGMENT
$pdata$?clear@ImGuiTextBuffer@@QEAAXXZ DD imagerel $LN3
	DD	imagerel $LN3+56
	DD	imagerel $unwind$?clear@ImGuiTextBuffer@@QEAAXXZ
pdata	ENDS
;	COMDAT pdata
pdata	SEGMENT
$pdata$?reserve@ImGuiTextBuffer@@QEAAXH@Z DD imagerel $LN3
	DD	imagerel $LN3+77
	DD	imagerel $unwind$?reserve@ImGuiTextBuffer@@QEAAXH@Z
pdata	ENDS
;	COMDAT pdata
pdata	SEGMENT
$pdata$?c_str@ImGuiTextBuffer@@QEBAPEBDXZ DD imagerel $LN5
	DD	imagerel $LN5+96
	DD	imagerel $unwind$?c_str@ImGuiTextBuffer@@QEBAPEBDXZ
pdata	ENDS
;	COMDAT pdata
pdata	SEGMENT
$pdata$?append@ImGuiTextBuffer@@QEAAXPEBD0@Z DD imagerel $LN11
	DD	imagerel $LN11+459
	DD	imagerel $unwind$?append@ImGuiTextBuffer@@QEAAXPEBD0@Z
pdata	ENDS
;	COMDAT pdata
pdata	SEGMENT
$pdata$?appendf@ImGuiTextBuffer@@QEAAXPEBDZZ DD imagerel $LN3
	DD	imagerel $LN3+171
	DD	imagerel $unwind$?appendf@ImGuiTextBuffer@@QEAAXPEBDZZ
pdata	ENDS
;	COMDAT pdata
pdata	SEGMENT
$pdata$?appendfv@ImGuiTextBuffer@@QEAAXPEBDPEAD@Z DD imagerel $LN9
	DD	imagerel $LN9+387
	DD	imagerel $unwind$?appendfv@ImGuiTextBuffer@@QEAAXPEBDPEAD@Z
pdata	ENDS
;	COMDAT pdata
pdata	SEGMENT
$pdata$??1ImGuiTextBuffer@@QEAA@XZ DD imagerel $LN3
	DD	imagerel $LN3+44
	DD	imagerel $unwind$??1ImGuiTextBuffer@@QEAA@XZ
pdata	ENDS
;	COMDAT pdata
pdata	SEGMENT
$pdata$??0ImGuiStoragePair@ImGuiStorage@@QEAA@IH@Z DD imagerel $LN3
	DD	imagerel $LN3+88
	DD	imagerel $unwind$??0ImGuiStoragePair@ImGuiStorage@@QEAA@IH@Z
pdata	ENDS
;	COMDAT pdata
pdata	SEGMENT
$pdata$??0ImGuiStoragePair@ImGuiStorage@@QEAA@IM@Z DD imagerel $LN3
	DD	imagerel $LN3+93
	DD	imagerel $unwind$??0ImGuiStoragePair@ImGuiStorage@@QEAA@IM@Z
pdata	ENDS
;	COMDAT pdata
pdata	SEGMENT
$pdata$??0ImGuiStoragePair@ImGuiStorage@@QEAA@IPEAX@Z DD imagerel $LN3
	DD	imagerel $LN3+90
	DD	imagerel $unwind$??0ImGuiStoragePair@ImGuiStorage@@QEAA@IPEAX@Z
pdata	ENDS
;	COMDAT pdata
pdata	SEGMENT
$pdata$??0?$ImVector@UImGuiStoragePair@ImGuiStorage@@@@QEAA@XZ DD imagerel $LN3
	DD	imagerel $LN3+90
	DD	imagerel $unwind$??0?$ImVector@UImGuiStoragePair@ImGuiStorage@@@@QEAA@XZ
pdata	ENDS
;	COMDAT pdata
pdata	SEGMENT
$pdata$??1?$ImVector@UImGuiStoragePair@ImGuiStorage@@@@QEAA@XZ DD imagerel $LN4
	DD	imagerel $LN4+72
	DD	imagerel $unwind$??1?$ImVector@UImGuiStoragePair@ImGuiStorage@@@@QEAA@XZ
pdata	ENDS
;	COMDAT pdata
pdata	SEGMENT
$pdata$?clear@?$ImVector@UImGuiStoragePair@ImGuiStorage@@@@QEAAXXZ DD imagerel $LN4
	DD	imagerel $LN4+113
	DD	imagerel $unwind$?clear@?$ImVector@UImGuiStoragePair@ImGuiStorage@@@@QEAAXXZ
pdata	ENDS
;	COMDAT pdata
pdata	SEGMENT
$pdata$?size_in_bytes@?$ImVector@UImGuiStoragePair@ImGuiStorage@@@@QEBAHXZ DD imagerel $LN3
	DD	imagerel $LN3+51
	DD	imagerel $unwind$?size_in_bytes@?$ImVector@UImGuiStoragePair@ImGuiStorage@@@@QEBAHXZ
pdata	ENDS
;	COMDAT pdata
pdata	SEGMENT
$pdata$??A?$ImVector@UImGuiStoragePair@ImGuiStorage@@@@QEAAAEAUImGuiStoragePair@ImGuiStorage@@H@Z DD imagerel $LN5
	DD	imagerel $LN5+121
	DD	imagerel $unwind$??A?$ImVector@UImGuiStoragePair@ImGuiStorage@@@@QEAAAEAUImGuiStoragePair@ImGuiStorage@@H@Z
pdata	ENDS
;	COMDAT pdata
pdata	SEGMENT
$pdata$?end@?$ImVector@UImGuiStoragePair@ImGuiStorage@@@@QEAAPEAUImGuiStoragePair@ImGuiStorage@@XZ DD imagerel $LN3
	DD	imagerel $LN3+66
	DD	imagerel $unwind$?end@?$ImVector@UImGuiStoragePair@ImGuiStorage@@@@QEAAPEAUImGuiStoragePair@ImGuiStorage@@XZ
pdata	ENDS
;	COMDAT pdata
pdata	SEGMENT
$pdata$?end@?$ImVector@UImGuiStoragePair@ImGuiStorage@@@@QEBAPEBUImGuiStoragePair@ImGuiStorage@@XZ DD imagerel $LN3
	DD	imagerel $LN3+66
	DD	imagerel $unwind$?end@?$ImVector@UImGuiStoragePair@ImGuiStorage@@@@QEBAPEBUImGuiStoragePair@ImGuiStorage@@XZ
pdata	ENDS
;	COMDAT pdata
pdata	SEGMENT
$pdata$?_grow_capacity@?$ImVector@UImGuiStoragePair@ImGuiStorage@@@@QEBAHH@Z DD imagerel $LN7
	DD	imagerel $LN7+150
	DD	imagerel $unwind$?_grow_capacity@?$ImVector@UImGuiStoragePair@ImGuiStorage@@@@QEBAHH@Z
pdata	ENDS
;	COMDAT pdata
pdata	SEGMENT
$pdata$?reserve@?$ImVector@UImGuiStoragePair@ImGuiStorage@@@@QEAAXH@Z DD imagerel $LN5
	DD	imagerel $LN5+185
	DD	imagerel $unwind$?reserve@?$ImVector@UImGuiStoragePair@ImGuiStorage@@@@QEAAXH@Z
pdata	ENDS
;	COMDAT pdata
pdata	SEGMENT
$pdata$?insert@?$ImVector@UImGuiStoragePair@ImGuiStorage@@@@QEAAPEAUImGuiStoragePair@ImGuiStorage@@PEBU23@AEBU23@@Z DD imagerel $LN7
	DD	imagerel $LN7+396
	DD	imagerel $unwind$?insert@?$ImVector@UImGuiStoragePair@ImGuiStorage@@@@QEAAPEAUImGuiStoragePair@ImGuiStorage@@PEBU23@AEBU23@@Z
pdata	ENDS
;	COMDAT pdata
pdata	SEGMENT
$pdata$?Clear@ImGuiStorage@@QEAAXXZ DD imagerel $LN3
	DD	imagerel $LN3+56
	DD	imagerel $unwind$?Clear@ImGuiStorage@@QEAAXXZ
pdata	ENDS
;	COMDAT pdata
pdata	SEGMENT
$pdata$?GetInt@ImGuiStorage@@QEBAHIH@Z DD imagerel $LN5
	DD	imagerel $LN5+125
	DD	imagerel $unwind$?GetInt@ImGuiStorage@@QEBAHIH@Z
pdata	ENDS
;	COMDAT pdata
pdata	SEGMENT
$pdata$?SetInt@ImGuiStorage@@QEAAXIH@Z DD imagerel $LN5
	DD	imagerel $LN5+183
	DD	imagerel $unwind$?SetInt@ImGuiStorage@@QEAAXIH@Z
pdata	ENDS
;	COMDAT pdata
pdata	SEGMENT
$pdata$?GetBool@ImGuiStorage@@QEBA_NI_N@Z DD imagerel $LN7
	DD	imagerel $LN7+141
	DD	imagerel $unwind$?GetBool@ImGuiStorage@@QEBA_NI_N@Z
pdata	ENDS
;	COMDAT pdata
pdata	SEGMENT
$pdata$?SetBool@ImGuiStorage@@QEAAXI_N@Z DD imagerel $LN5
	DD	imagerel $LN5+108
	DD	imagerel $unwind$?SetBool@ImGuiStorage@@QEAAXI_N@Z
pdata	ENDS
;	COMDAT pdata
pdata	SEGMENT
$pdata$?GetFloat@ImGuiStorage@@QEBAMIM@Z DD imagerel $LN5
	DD	imagerel $LN5+130
	DD	imagerel $unwind$?GetFloat@ImGuiStorage@@QEBAMIM@Z
pdata	ENDS
;	COMDAT pdata
pdata	SEGMENT
$pdata$?SetFloat@ImGuiStorage@@QEAAXIM@Z DD imagerel $LN5
	DD	imagerel $LN5+189
	DD	imagerel $unwind$?SetFloat@ImGuiStorage@@QEAAXIM@Z
pdata	ENDS
;	COMDAT pdata
pdata	SEGMENT
$pdata$?GetVoidPtr@ImGuiStorage@@QEBAPEAXI@Z DD imagerel $LN5
	DD	imagerel $LN5+117
	DD	imagerel $unwind$?GetVoidPtr@ImGuiStorage@@QEBAPEAXI@Z
pdata	ENDS
;	COMDAT pdata
pdata	SEGMENT
$pdata$?SetVoidPtr@ImGuiStorage@@QEAAXIPEAX@Z DD imagerel $LN5
	DD	imagerel $LN5+185
	DD	imagerel $unwind$?SetVoidPtr@ImGuiStorage@@QEAAXIPEAX@Z
pdata	ENDS
;	COMDAT pdata
pdata	SEGMENT
$pdata$?GetIntRef@ImGuiStorage@@QEAAPEAHIH@Z DD imagerel $LN5
	DD	imagerel $LN5+180
	DD	imagerel $unwind$?GetIntRef@ImGuiStorage@@QEAAPEAHIH@Z
pdata	ENDS
;	COMDAT pdata
pdata	SEGMENT
$pdata$?GetBoolRef@ImGuiStorage@@QEAAPEA_NI_N@Z DD imagerel $LN5
	DD	imagerel $LN5+108
	DD	imagerel $unwind$?GetBoolRef@ImGuiStorage@@QEAAPEA_NI_N@Z
pdata	ENDS
;	COMDAT pdata
pdata	SEGMENT
$pdata$?GetFloatRef@ImGuiStorage@@QEAAPEAMIM@Z DD imagerel $LN5
	DD	imagerel $LN5+182
	DD	imagerel $unwind$?GetFloatRef@ImGuiStorage@@QEAAPEAMIM@Z
pdata	ENDS
;	COMDAT pdata
pdata	SEGMENT
$pdata$?GetVoidPtrRef@ImGuiStorage@@QEAAPEAPEAXIPEAX@Z DD imagerel $LN5
	DD	imagerel $LN5+180
	DD	imagerel $unwind$?GetVoidPtrRef@ImGuiStorage@@QEAAPEAPEAXIPEAX@Z
pdata	ENDS
;	COMDAT pdata
pdata	SEGMENT
$pdata$?SetAllInt@ImGuiStorage@@QEAAXH@Z DD imagerel $LN6
	DD	imagerel $LN6+116
	DD	imagerel $unwind$?SetAllInt@ImGuiStorage@@QEAAXH@Z
pdata	ENDS
;	COMDAT pdata
pdata	SEGMENT
$pdata$?BuildSortByKey@ImGuiStorage@@QEAAXXZ DD imagerel $LN4
	DD	imagerel $LN4+96
	DD	imagerel $unwind$?BuildSortByKey@ImGuiStorage@@QEAAXXZ
pdata	ENDS
;	COMDAT pdata
pdata	SEGMENT
$pdata$??0ImGuiStorage@@QEAA@XZ DD imagerel $LN4
	DD	imagerel $LN4+51
	DD	imagerel $unwind$??0ImGuiStorage@@QEAA@XZ
pdata	ENDS
;	COMDAT pdata
pdata	SEGMENT
$pdata$??1ImGuiStorage@@QEAA@XZ DD imagerel $LN3
	DD	imagerel $LN3+44
	DD	imagerel $unwind$??1ImGuiStorage@@QEAA@XZ
pdata	ENDS
;	COMDAT pdata
pdata	SEGMENT
$pdata$??0ImGuiListClipper@@QEAA@XZ DD imagerel $LN3
	DD	imagerel $LN3+78
	DD	imagerel $unwind$??0ImGuiListClipper@@QEAA@XZ
pdata	ENDS
;	COMDAT pdata
pdata	SEGMENT
$pdata$??1ImGuiListClipper@@QEAA@XZ DD imagerel $LN5
	DD	imagerel $LN5+99
	DD	imagerel $unwind$??1ImGuiListClipper@@QEAA@XZ
pdata	ENDS
;	COMDAT pdata
pdata	SEGMENT
$pdata$?Begin@ImGuiListClipper@@QEAAXHM@Z DD imagerel $LN5
	DD	imagerel $LN5+238
	DD	imagerel $unwind$?Begin@ImGuiListClipper@@QEAAXHM@Z
pdata	ENDS
;	COMDAT pdata
pdata	SEGMENT
$pdata$?End@ImGuiListClipper@@QEAAXXZ DD imagerel $LN5
	DD	imagerel $LN5+189
	DD	imagerel $unwind$?End@ImGuiListClipper@@QEAAXXZ
pdata	ENDS
;	COMDAT pdata
pdata	SEGMENT
$pdata$?Step@ImGuiListClipper@@QEAA_NXZ DD imagerel $LN22
	DD	imagerel $LN22+1192
	DD	imagerel $unwind$?Step@ImGuiListClipper@@QEAA_NXZ
pdata	ENDS
;	COMDAT pdata
pdata	SEGMENT
$pdata$??0ImDrawCmdHeader@@QEAA@XZ DD imagerel $LN3
	DD	imagerel $LN3+51
	DD	imagerel $unwind$??0ImDrawCmdHeader@@QEAA@XZ
pdata	ENDS
;	COMDAT pdata
pdata	SEGMENT
$pdata$??0?$ImVector@UImDrawCmd@@@@QEAA@XZ DD imagerel $LN3
	DD	imagerel $LN3+90
	DD	imagerel $unwind$??0?$ImVector@UImDrawCmd@@@@QEAA@XZ
pdata	ENDS
;	COMDAT pdata
pdata	SEGMENT
$pdata$??1?$ImVector@UImDrawCmd@@@@QEAA@XZ DD imagerel $LN4
	DD	imagerel $LN4+72
	DD	imagerel $unwind$??1?$ImVector@UImDrawCmd@@@@QEAA@XZ
pdata	ENDS
;	COMDAT pdata
pdata	SEGMENT
$pdata$??A?$ImVector@UImDrawCmd@@@@QEAAAEAUImDrawCmd@@H@Z DD imagerel $LN5
	DD	imagerel $LN5+121
	DD	imagerel $unwind$??A?$ImVector@UImDrawCmd@@@@QEAAAEAUImDrawCmd@@H@Z
pdata	ENDS
;	COMDAT pdata
pdata	SEGMENT
$pdata$?begin@?$ImVector@UImDrawCmd@@@@QEBAPEBUImDrawCmd@@XZ DD imagerel $LN3
	DD	imagerel $LN3+52
	DD	imagerel $unwind$?begin@?$ImVector@UImDrawCmd@@@@QEBAPEBUImDrawCmd@@XZ
pdata	ENDS
;	COMDAT pdata
pdata	SEGMENT
$pdata$?back@?$ImVector@UImDrawCmd@@@@QEAAAEAUImDrawCmd@@XZ DD imagerel $LN4
	DD	imagerel $LN4+109
	DD	imagerel $unwind$?back@?$ImVector@UImDrawCmd@@@@QEAAAEAUImDrawCmd@@XZ
pdata	ENDS
;	COMDAT pdata
pdata	SEGMENT
$pdata$?back@?$ImVector@UImDrawCmd@@@@QEBAAEBUImDrawCmd@@XZ DD imagerel $LN4
	DD	imagerel $LN4+109
	DD	imagerel $unwind$?back@?$ImVector@UImDrawCmd@@@@QEBAAEBUImDrawCmd@@XZ
pdata	ENDS
;	COMDAT pdata
pdata	SEGMENT
$pdata$??0?$ImVector@UImDrawChannel@@@@QEAA@XZ DD imagerel $LN3
	DD	imagerel $LN3+90
	DD	imagerel $unwind$??0?$ImVector@UImDrawChannel@@@@QEAA@XZ
pdata	ENDS
;	COMDAT pdata
pdata	SEGMENT
$pdata$??1?$ImVector@UImDrawChannel@@@@QEAA@XZ DD imagerel $LN4
	DD	imagerel $LN4+72
	DD	imagerel $unwind$??1?$ImVector@UImDrawChannel@@@@QEAA@XZ
pdata	ENDS
;	COMDAT pdata
pdata	SEGMENT
$pdata$?clear@?$ImVector@UImDrawChannel@@@@QEAAXXZ DD imagerel $LN4
	DD	imagerel $LN4+113
	DD	imagerel $unwind$?clear@?$ImVector@UImDrawChannel@@@@QEAAXXZ
pdata	ENDS
;	COMDAT pdata
pdata	SEGMENT
$pdata$??0ImDrawListSplitter@@QEAA@XZ DD imagerel $LN4
	DD	imagerel $LN4+83
	DD	imagerel $unwind$??0ImDrawListSplitter@@QEAA@XZ
pdata	ENDS
;	COMDAT pdata
pdata	SEGMENT
$pdata$??1ImDrawListSplitter@@QEAA@XZ DD imagerel $LN3
	DD	imagerel $LN3+73
	DD	imagerel $unwind$??1ImDrawListSplitter@@QEAA@XZ
pdata	ENDS
;	COMDAT pdata
pdata	SEGMENT
$pdata$??0?$ImVector@UImDrawVert@@@@QEAA@XZ DD imagerel $LN3
	DD	imagerel $LN3+90
	DD	imagerel $unwind$??0?$ImVector@UImDrawVert@@@@QEAA@XZ
pdata	ENDS
;	COMDAT pdata
pdata	SEGMENT
$pdata$??1?$ImVector@UImDrawVert@@@@QEAA@XZ DD imagerel $LN4
	DD	imagerel $LN4+72
	DD	imagerel $unwind$??1?$ImVector@UImDrawVert@@@@QEAA@XZ
pdata	ENDS
;	COMDAT pdata
pdata	SEGMENT
$pdata$?reserve@?$ImVector@UImDrawVert@@@@QEAAXH@Z DD imagerel $LN5
	DD	imagerel $LN5+185
	DD	imagerel $unwind$?reserve@?$ImVector@UImDrawVert@@@@QEAAXH@Z
pdata	ENDS
;	COMDAT pdata
pdata	SEGMENT
$pdata$??0?$ImVector@UImVec4@@@@QEAA@XZ DD imagerel $LN3
	DD	imagerel $LN3+90
	DD	imagerel $unwind$??0?$ImVector@UImVec4@@@@QEAA@XZ
pdata	ENDS
;	COMDAT pdata
pdata	SEGMENT
$pdata$??1?$ImVector@UImVec4@@@@QEAA@XZ DD imagerel $LN4
	DD	imagerel $LN4+72
	DD	imagerel $unwind$??1?$ImVector@UImVec4@@@@QEAA@XZ
pdata	ENDS
;	COMDAT pdata
pdata	SEGMENT
$pdata$?back@?$ImVector@UImVec4@@@@QEAAAEAUImVec4@@XZ DD imagerel $LN4
	DD	imagerel $LN4+109
	DD	imagerel $unwind$?back@?$ImVector@UImVec4@@@@QEAAAEAUImVec4@@XZ
pdata	ENDS
;	COMDAT pdata
pdata	SEGMENT
$pdata$??0?$ImVector@PEAX@@QEAA@XZ DD imagerel $LN3
	DD	imagerel $LN3+90
	DD	imagerel $unwind$??0?$ImVector@PEAX@@QEAA@XZ
pdata	ENDS
;	COMDAT pdata
pdata	SEGMENT
$pdata$??1?$ImVector@PEAX@@QEAA@XZ DD imagerel $LN4
	DD	imagerel $LN4+72
	DD	imagerel $unwind$??1?$ImVector@PEAX@@QEAA@XZ
pdata	ENDS
;	COMDAT pdata
pdata	SEGMENT
$pdata$??0?$ImVector@UImVec2@@@@QEAA@XZ DD imagerel $LN3
	DD	imagerel $LN3+90
	DD	imagerel $unwind$??0?$ImVector@UImVec2@@@@QEAA@XZ
pdata	ENDS
;	COMDAT pdata
pdata	SEGMENT
$pdata$??1?$ImVector@UImVec2@@@@QEAA@XZ DD imagerel $LN4
	DD	imagerel $LN4+72
	DD	imagerel $unwind$??1?$ImVector@UImVec2@@@@QEAA@XZ
pdata	ENDS
;	COMDAT pdata
pdata	SEGMENT
$pdata$?_grow_capacity@?$ImVector@UImVec2@@@@QEBAHH@Z DD imagerel $LN7
	DD	imagerel $LN7+150
	DD	imagerel $unwind$?_grow_capacity@?$ImVector@UImVec2@@@@QEBAHH@Z
pdata	ENDS
;	COMDAT pdata
pdata	SEGMENT
$pdata$?reserve@?$ImVector@UImVec2@@@@QEAAXH@Z DD imagerel $LN5
	DD	imagerel $LN5+185
	DD	imagerel $unwind$?reserve@?$ImVector@UImVec2@@@@QEAAXH@Z
pdata	ENDS
;	COMDAT pdata
pdata	SEGMENT
$pdata$?push_back@?$ImVector@UImVec2@@@@QEAAXAEBUImVec2@@@Z DD imagerel $LN4
	DD	imagerel $LN4+161
	DD	imagerel $unwind$?push_back@?$ImVector@UImVec2@@@@QEAAXAEBUImVec2@@@Z
pdata	ENDS
;	COMDAT pdata
pdata	SEGMENT
$pdata$??0ImDrawList@@QEAA@PEBUImDrawListSharedData@@@Z DD imagerel $LN10
	DD	imagerel $LN10+245
	DD	imagerel $unwind$??0ImDrawList@@QEAA@PEBUImDrawListSharedData@@@Z
pdata	ENDS
;	COMDAT pdata
pdata	SEGMENT
$pdata$?dtor$0@?0???0ImDrawList@@QEAA@PEBUImDrawListSharedData@@@Z@4HA DD imagerel ?dtor$0@?0???0ImDrawList@@QEAA@PEBUImDrawListSharedData@@@Z@4HA
	DD	imagerel ?dtor$0@?0???0ImDrawList@@QEAA@PEBUImDrawListSharedData@@@Z@4HA+39
	DD	imagerel $unwind$?dtor$0@?0???0ImDrawList@@QEAA@PEBUImDrawListSharedData@@@Z@4HA
pdata	ENDS
;	COMDAT pdata
pdata	SEGMENT
$pdata$?dtor$1@?0???0ImDrawList@@QEAA@PEBUImDrawListSharedData@@@Z@4HA DD imagerel ?dtor$1@?0???0ImDrawList@@QEAA@PEBUImDrawListSharedData@@@Z@4HA
	DD	imagerel ?dtor$1@?0???0ImDrawList@@QEAA@PEBUImDrawListSharedData@@@Z@4HA+43
	DD	imagerel $unwind$?dtor$1@?0???0ImDrawList@@QEAA@PEBUImDrawListSharedData@@@Z@4HA
pdata	ENDS
;	COMDAT pdata
pdata	SEGMENT
$pdata$?dtor$2@?0???0ImDrawList@@QEAA@PEBUImDrawListSharedData@@@Z@4HA DD imagerel ?dtor$2@?0???0ImDrawList@@QEAA@PEBUImDrawListSharedData@@@Z@4HA
	DD	imagerel ?dtor$2@?0???0ImDrawList@@QEAA@PEBUImDrawListSharedData@@@Z@4HA+43
	DD	imagerel $unwind$?dtor$2@?0???0ImDrawList@@QEAA@PEBUImDrawListSharedData@@@Z@4HA
pdata	ENDS
;	COMDAT pdata
pdata	SEGMENT
$pdata$?dtor$3@?0???0ImDrawList@@QEAA@PEBUImDrawListSharedData@@@Z@4HA DD imagerel ?dtor$3@?0???0ImDrawList@@QEAA@PEBUImDrawListSharedData@@@Z@4HA
	DD	imagerel ?dtor$3@?0???0ImDrawList@@QEAA@PEBUImDrawListSharedData@@@Z@4HA+43
	DD	imagerel $unwind$?dtor$3@?0???0ImDrawList@@QEAA@PEBUImDrawListSharedData@@@Z@4HA
pdata	ENDS
;	COMDAT pdata
pdata	SEGMENT
$pdata$?dtor$4@?0???0ImDrawList@@QEAA@PEBUImDrawListSharedData@@@Z@4HA DD imagerel ?dtor$4@?0???0ImDrawList@@QEAA@PEBUImDrawListSharedData@@@Z@4HA
	DD	imagerel ?dtor$4@?0???0ImDrawList@@QEAA@PEBUImDrawListSharedData@@@Z@4HA+43
	DD	imagerel $unwind$?dtor$4@?0???0ImDrawList@@QEAA@PEBUImDrawListSharedData@@@Z@4HA
pdata	ENDS
;	COMDAT pdata
pdata	SEGMENT
$pdata$?dtor$5@?0???0ImDrawList@@QEAA@PEBUImDrawListSharedData@@@Z@4HA DD imagerel ?dtor$5@?0???0ImDrawList@@QEAA@PEBUImDrawListSharedData@@@Z@4HA
	DD	imagerel ?dtor$5@?0???0ImDrawList@@QEAA@PEBUImDrawListSharedData@@@Z@4HA+43
	DD	imagerel $unwind$?dtor$5@?0???0ImDrawList@@QEAA@PEBUImDrawListSharedData@@@Z@4HA
pdata	ENDS
;	COMDAT pdata
pdata	SEGMENT
$pdata$??1ImDrawList@@QEAA@XZ DD imagerel $LN3
	DD	imagerel $LN3+185
	DD	imagerel $unwind$??1ImDrawList@@QEAA@XZ
pdata	ENDS
;	COMDAT pdata
pdata	SEGMENT
$pdata$?PathLineTo@ImDrawList@@QEAAXAEBUImVec2@@@Z DD imagerel $LN3
	DD	imagerel $LN3+83
	DD	imagerel $unwind$?PathLineTo@ImDrawList@@QEAAXAEBUImVec2@@@Z
pdata	ENDS
;	COMDAT pdata
pdata	SEGMENT
$pdata$?PathFillConvex@ImDrawList@@QEAAXI@Z DD imagerel $LN3
	DD	imagerel $LN3+103
	DD	imagerel $unwind$?PathFillConvex@ImDrawList@@QEAAXI@Z
pdata	ENDS
;	COMDAT pdata
pdata	SEGMENT
$pdata$?PathStroke@ImDrawList@@QEAAXIHM@Z DD imagerel $LN3
	DD	imagerel $LN3+138
	DD	imagerel $unwind$?PathStroke@ImDrawList@@QEAAXIHM@Z
pdata	ENDS
;	COMDAT pdata
pdata	SEGMENT
$pdata$??_GImDrawList@@QEAAPEAXI@Z DD imagerel $LN4
	DD	imagerel $LN4+82
	DD	imagerel $unwind$??_GImDrawList@@QEAAPEAXI@Z
pdata	ENDS
;	COMDAT pdata
pdata	SEGMENT
$pdata$??0ImDrawData@@QEAA@XZ DD imagerel $LN3
	DD	imagerel $LN3+117
	DD	imagerel $unwind$??0ImDrawData@@QEAA@XZ
pdata	ENDS
;	COMDAT pdata
pdata	SEGMENT
$pdata$?Clear@ImDrawData@@QEAAXXZ DD imagerel $LN3
	DD	imagerel $LN3+57
	DD	imagerel $unwind$?Clear@ImDrawData@@QEAAXXZ
pdata	ENDS
;	COMDAT pdata
pdata	SEGMENT
$pdata$??0?$ImVector@I@@QEAA@XZ DD imagerel $LN3
	DD	imagerel $LN3+90
	DD	imagerel $unwind$??0?$ImVector@I@@QEAA@XZ
pdata	ENDS
;	COMDAT pdata
pdata	SEGMENT
$pdata$??1?$ImVector@I@@QEAA@XZ DD imagerel $LN4
	DD	imagerel $LN4+72
	DD	imagerel $unwind$??1?$ImVector@I@@QEAA@XZ
pdata	ENDS
;	COMDAT pdata
pdata	SEGMENT
$pdata$?clear@?$ImVector@I@@QEAAXXZ DD imagerel $LN4
	DD	imagerel $LN4+113
	DD	imagerel $unwind$?clear@?$ImVector@I@@QEAAXXZ
pdata	ENDS
;	COMDAT pdata
pdata	SEGMENT
$pdata$?back@?$ImVector@I@@QEAAAEAIXZ DD imagerel $LN4
	DD	imagerel $LN4+109
	DD	imagerel $unwind$?back@?$ImVector@I@@QEAAAEAIXZ
pdata	ENDS
;	COMDAT pdata
pdata	SEGMENT
$pdata$?_grow_capacity@?$ImVector@I@@QEBAHH@Z DD imagerel $LN7
	DD	imagerel $LN7+150
	DD	imagerel $unwind$?_grow_capacity@?$ImVector@I@@QEBAHH@Z
pdata	ENDS
;	COMDAT pdata
pdata	SEGMENT
$pdata$?resize@?$ImVector@I@@QEAAXH@Z DD imagerel $LN4
	DD	imagerel $LN4+110
	DD	imagerel $unwind$?resize@?$ImVector@I@@QEAAXH@Z
pdata	ENDS
;	COMDAT pdata
pdata	SEGMENT
$pdata$?reserve@?$ImVector@I@@QEAAXH@Z DD imagerel $LN5
	DD	imagerel $LN5+185
	DD	imagerel $unwind$?reserve@?$ImVector@I@@QEAAXH@Z
pdata	ENDS
;	COMDAT pdata
pdata	SEGMENT
$pdata$?push_back@?$ImVector@I@@QEAAXAEBI@Z DD imagerel $LN4
	DD	imagerel $LN4+159
	DD	imagerel $unwind$?push_back@?$ImVector@I@@QEAAXAEBI@Z
pdata	ENDS
;	COMDAT pdata
pdata	SEGMENT
$pdata$?pop_back@?$ImVector@I@@QEAAXXZ DD imagerel $LN4
	DD	imagerel $LN4+101
	DD	imagerel $unwind$?pop_back@?$ImVector@I@@QEAAXXZ
pdata	ENDS
;	COMDAT pdata
pdata	SEGMENT
$pdata$?IsBuilt@ImFontAtlas@@QEBA_NXZ DD imagerel $LN5
	DD	imagerel $LN5+98
	DD	imagerel $unwind$?IsBuilt@ImFontAtlas@@QEBA_NXZ
pdata	ENDS
;	COMDAT pdata
pdata	SEGMENT
$pdata$??0?$ImVector@PEAUImFont@@@@QEAA@XZ DD imagerel $LN3
	DD	imagerel $LN3+90
	DD	imagerel $unwind$??0?$ImVector@PEAUImFont@@@@QEAA@XZ
pdata	ENDS
;	COMDAT pdata
pdata	SEGMENT
$pdata$??1?$ImVector@PEAUImFont@@@@QEAA@XZ DD imagerel $LN4
	DD	imagerel $LN4+72
	DD	imagerel $unwind$??1?$ImVector@PEAUImFont@@@@QEAA@XZ
pdata	ENDS
;	COMDAT pdata
pdata	SEGMENT
$pdata$?clear@?$ImVector@PEAUImFont@@@@QEAAXXZ DD imagerel $LN4
	DD	imagerel $LN4+113
	DD	imagerel $unwind$?clear@?$ImVector@PEAUImFont@@@@QEAAXXZ
pdata	ENDS
;	COMDAT pdata
pdata	SEGMENT
$pdata$?empty@?$ImVector@PEAUImFont@@@@QEBA_NXZ DD imagerel $LN5
	DD	imagerel $LN5+82
	DD	imagerel $unwind$?empty@?$ImVector@PEAUImFont@@@@QEBA_NXZ
pdata	ENDS
;	COMDAT pdata
pdata	SEGMENT
$pdata$??A?$ImVector@PEAUImFont@@@@QEAAAEAPEAUImFont@@H@Z DD imagerel $LN5
	DD	imagerel $LN5+121
	DD	imagerel $unwind$??A?$ImVector@PEAUImFont@@@@QEAAAEAPEAUImFont@@H@Z
pdata	ENDS
;	COMDAT pdata
pdata	SEGMENT
$pdata$?back@?$ImVector@PEAUImFont@@@@QEAAAEAPEAUImFont@@XZ DD imagerel $LN4
	DD	imagerel $LN4+109
	DD	imagerel $unwind$?back@?$ImVector@PEAUImFont@@@@QEAAAEAPEAUImFont@@XZ
pdata	ENDS
;	COMDAT pdata
pdata	SEGMENT
$pdata$?_grow_capacity@?$ImVector@PEAUImFont@@@@QEBAHH@Z DD imagerel $LN7
	DD	imagerel $LN7+150
	DD	imagerel $unwind$?_grow_capacity@?$ImVector@PEAUImFont@@@@QEBAHH@Z
pdata	ENDS
;	COMDAT pdata
pdata	SEGMENT
$pdata$?reserve@?$ImVector@PEAUImFont@@@@QEAAXH@Z DD imagerel $LN5
	DD	imagerel $LN5+185
	DD	imagerel $unwind$?reserve@?$ImVector@PEAUImFont@@@@QEAAXH@Z
pdata	ENDS
;	COMDAT pdata
pdata	SEGMENT
$pdata$?push_back@?$ImVector@PEAUImFont@@@@QEAAXAEBQEAUImFont@@@Z DD imagerel $LN4
	DD	imagerel $LN4+161
	DD	imagerel $unwind$?push_back@?$ImVector@PEAUImFont@@@@QEAAXAEBQEAUImFont@@@Z
pdata	ENDS
;	COMDAT pdata
pdata	SEGMENT
$pdata$?pop_back@?$ImVector@PEAUImFont@@@@QEAAXXZ DD imagerel $LN4
	DD	imagerel $LN4+101
	DD	imagerel $unwind$?pop_back@?$ImVector@PEAUImFont@@@@QEAAXXZ
pdata	ENDS
;	COMDAT pdata
pdata	SEGMENT
$pdata$??_GImFontAtlas@@QEAAPEAXI@Z DD imagerel $LN4
	DD	imagerel $LN4+82
	DD	imagerel $unwind$??_GImFontAtlas@@QEAAPEAXI@Z
pdata	ENDS
;	COMDAT pdata
pdata	SEGMENT
$pdata$??0?$ImVector@M@@QEAA@XZ DD imagerel $LN3
	DD	imagerel $LN3+90
	DD	imagerel $unwind$??0?$ImVector@M@@QEAA@XZ
pdata	ENDS
;	COMDAT pdata
pdata	SEGMENT
$pdata$??1?$ImVector@M@@QEAA@XZ DD imagerel $LN4
	DD	imagerel $LN4+72
	DD	imagerel $unwind$??1?$ImVector@M@@QEAA@XZ
pdata	ENDS
;	COMDAT pdata
pdata	SEGMENT
$pdata$?clear@?$ImVector@M@@QEAAXXZ DD imagerel $LN4
	DD	imagerel $LN4+113
	DD	imagerel $unwind$?clear@?$ImVector@M@@QEAAXXZ
pdata	ENDS
;	COMDAT pdata
pdata	SEGMENT
$pdata$??A?$ImVector@M@@QEAAAEAMH@Z DD imagerel $LN5
	DD	imagerel $LN5+121
	DD	imagerel $unwind$??A?$ImVector@M@@QEAAAEAMH@Z
pdata	ENDS
;	COMDAT pdata
pdata	SEGMENT
$pdata$?back@?$ImVector@M@@QEAAAEAMXZ DD imagerel $LN4
	DD	imagerel $LN4+109
	DD	imagerel $unwind$?back@?$ImVector@M@@QEAAAEAMXZ
pdata	ENDS
;	COMDAT pdata
pdata	SEGMENT
$pdata$?_grow_capacity@?$ImVector@M@@QEBAHH@Z DD imagerel $LN7
	DD	imagerel $LN7+150
	DD	imagerel $unwind$?_grow_capacity@?$ImVector@M@@QEBAHH@Z
pdata	ENDS
;	COMDAT pdata
pdata	SEGMENT
$pdata$?resize@?$ImVector@M@@QEAAXH@Z DD imagerel $LN4
	DD	imagerel $LN4+110
	DD	imagerel $unwind$?resize@?$ImVector@M@@QEAAXH@Z
pdata	ENDS
;	COMDAT pdata
pdata	SEGMENT
$pdata$?reserve@?$ImVector@M@@QEAAXH@Z DD imagerel $LN5
	DD	imagerel $LN5+185
	DD	imagerel $unwind$?reserve@?$ImVector@M@@QEAAXH@Z
pdata	ENDS
;	COMDAT pdata
pdata	SEGMENT
$pdata$?push_back@?$ImVector@M@@QEAAXAEBM@Z DD imagerel $LN4
	DD	imagerel $LN4+159
	DD	imagerel $unwind$?push_back@?$ImVector@M@@QEAAXAEBM@Z
pdata	ENDS
;	COMDAT pdata
pdata	SEGMENT
$pdata$?pop_back@?$ImVector@M@@QEAAXXZ DD imagerel $LN4
	DD	imagerel $LN4+101
	DD	imagerel $unwind$?pop_back@?$ImVector@M@@QEAAXXZ
pdata	ENDS
;	COMDAT pdata
pdata	SEGMENT
$pdata$?IsLoaded@ImFont@@QEBA_NXZ DD imagerel $LN5
	DD	imagerel $LN5+84
	DD	imagerel $unwind$?IsLoaded@ImFont@@QEBA_NXZ
pdata	ENDS
;	COMDAT pdata
pdata	SEGMENT
$pdata$??0ImGuiViewport@@QEAA@XZ DD imagerel $LN3
	DD	imagerel $LN3+140
	DD	imagerel $unwind$??0ImGuiViewport@@QEAA@XZ
pdata	ENDS
;	COMDAT pdata
pdata	SEGMENT
$pdata$?GetCenter@ImGuiViewport@@QEBA?AUImVec2@@XZ DD imagerel $LN3
	DD	imagerel $LN3+146
	DD	imagerel $unwind$?GetCenter@ImGuiViewport@@QEBA?AUImVec2@@XZ
pdata	ENDS
;	COMDAT pdata
pdata	SEGMENT
$pdata$__local_stdio_printf_options DD imagerel $LN3
	DD	imagerel $LN3+44
	DD	imagerel $unwind$__local_stdio_printf_options
pdata	ENDS
;	COMDAT pdata
pdata	SEGMENT
$pdata$__local_stdio_scanf_options DD imagerel $LN3
	DD	imagerel $LN3+44
	DD	imagerel $unwind$__local_stdio_scanf_options
pdata	ENDS
;	COMDAT pdata
pdata	SEGMENT
$pdata$_vsnprintf_l DD imagerel $LN5
	DD	imagerel $LN5+158
	DD	imagerel $unwind$_vsnprintf_l
pdata	ENDS
;	COMDAT pdata
pdata	SEGMENT
$pdata$_vsnprintf DD imagerel $LN3
	DD	imagerel $LN3+97
	DD	imagerel $unwind$_vsnprintf
pdata	ENDS
;	COMDAT pdata
pdata	SEGMENT
$pdata$_vsscanf_l DD imagerel $LN3
	DD	imagerel $LN3+115
	DD	imagerel $unwind$_vsscanf_l
pdata	ENDS
;	COMDAT pdata
pdata	SEGMENT
$pdata$sscanf DD imagerel $LN3
	DD	imagerel $LN3+184
	DD	imagerel $unwind$sscanf
pdata	ENDS
;	COMDAT pdata
pdata	SEGMENT
$pdata$fabsf DD	imagerel $LN3
	DD	imagerel $LN3+61
	DD	imagerel $unwind$fabsf
pdata	ENDS
;	COMDAT pdata
pdata	SEGMENT
$pdata$?ImHashData@@YAIPEBX_KI@Z DD imagerel $LN7
	DD	imagerel $LN7+225
	DD	imagerel $unwind$?ImHashData@@YAIPEBX_KI@Z
pdata	ENDS
;	COMDAT pdata
pdata	SEGMENT
$pdata$?ImHashStr@@YAIPEBD_KI@Z DD imagerel $LN13
	DD	imagerel $LN13+494
	DD	imagerel $unwind$?ImHashStr@@YAIPEBD_KI@Z
pdata	ENDS
;	COMDAT pdata
pdata	SEGMENT
$pdata$?ImAlphaBlendColors@@YAIII@Z DD imagerel $LN3
	DD	imagerel $LN3+226
	DD	imagerel $unwind$?ImAlphaBlendColors@@YAIII@Z
pdata	ENDS
;	COMDAT pdata
pdata	SEGMENT
$pdata$?ImIsPowerOfTwo@@YA_NH@Z DD imagerel ?ImIsPowerOfTwo@@YA_NH@Z
	DD	imagerel ?ImIsPowerOfTwo@@YA_NH@Z+100
	DD	imagerel $unwind$?ImIsPowerOfTwo@@YA_NH@Z
pdata	ENDS
;	COMDAT pdata
pdata	SEGMENT
$pdata$?ImStricmp@@YAHPEBD0@Z DD imagerel $LN5
	DD	imagerel $LN5+158
	DD	imagerel $unwind$?ImStricmp@@YAHPEBD0@Z
pdata	ENDS
;	COMDAT pdata
pdata	SEGMENT
$pdata$?ImStrnicmp@@YAHPEBD0_K@Z DD imagerel $LN5
	DD	imagerel $LN5+204
	DD	imagerel $unwind$?ImStrnicmp@@YAHPEBD0_K@Z
pdata	ENDS
;	COMDAT pdata
pdata	SEGMENT
$pdata$?ImStrncpy@@YAXPEADPEBD_K@Z DD imagerel $LN5
	DD	imagerel $LN5+130
	DD	imagerel $unwind$?ImStrncpy@@YAXPEADPEBD_K@Z
pdata	ENDS
;	COMDAT pdata
pdata	SEGMENT
$pdata$?ImStrdup@@YAPEADPEBD@Z DD imagerel $LN4
	DD	imagerel $LN4+152
	DD	imagerel $unwind$?ImStrdup@@YAPEADPEBD@Z
pdata	ENDS
;	COMDAT pdata
pdata	SEGMENT
$pdata$?ImStrdupcpy@@YAPEADPEADPEA_KPEBD@Z DD imagerel $LN9
	DD	imagerel $LN9+317
	DD	imagerel $unwind$?ImStrdupcpy@@YAPEADPEADPEA_KPEBD@Z
pdata	ENDS
;	COMDAT pdata
pdata	SEGMENT
$pdata$?ImStrchrRange@@YAPEBDPEBD0D@Z DD imagerel $LN3
	DD	imagerel $LN3+103
	DD	imagerel $unwind$?ImStrchrRange@@YAPEBDPEBD0D@Z
pdata	ENDS
;	COMDAT pdata
pdata	SEGMENT
$pdata$?ImStrlenW@@YAHPEBG@Z DD imagerel $LN5
	DD	imagerel $LN5+107
	DD	imagerel $unwind$?ImStrlenW@@YAHPEBG@Z
pdata	ENDS
;	COMDAT pdata
pdata	SEGMENT
$pdata$?ImStreolRange@@YAPEBDPEBD0@Z DD imagerel $LN5
	DD	imagerel $LN5+131
	DD	imagerel $unwind$?ImStreolRange@@YAPEBDPEBD0@Z
pdata	ENDS
;	COMDAT pdata
pdata	SEGMENT
$pdata$?ImStrbolW@@YAPEBGPEBG0@Z DD imagerel $LN5
	DD	imagerel $LN5+114
	DD	imagerel $unwind$?ImStrbolW@@YAPEBGPEBG0@Z
pdata	ENDS
;	COMDAT pdata
pdata	SEGMENT
$pdata$?ImStristr@@YAPEBDPEBD000@Z DD imagerel $LN15
	DD	imagerel $LN15+413
	DD	imagerel $unwind$?ImStristr@@YAPEBDPEBD000@Z
pdata	ENDS
;	COMDAT pdata
pdata	SEGMENT
$pdata$?ImStrTrimBlanks@@YAXPEAD@Z DD imagerel $LN12
	DD	imagerel $LN12+279
	DD	imagerel $unwind$?ImStrTrimBlanks@@YAXPEAD@Z
pdata	ENDS
;	COMDAT pdata
pdata	SEGMENT
$pdata$?ImStrSkipBlank@@YAPEBDPEBD@Z DD imagerel $LN6
	DD	imagerel $LN6+117
	DD	imagerel $unwind$?ImStrSkipBlank@@YAPEBDPEBD@Z
pdata	ENDS
;	COMDAT pdata
pdata	SEGMENT
$pdata$?ImFormatString@@YAHPEAD_KPEBDZZ DD imagerel $LN6
	DD	imagerel $LN6+248
	DD	imagerel $unwind$?ImFormatString@@YAHPEAD_KPEBDZZ
pdata	ENDS
;	COMDAT pdata
pdata	SEGMENT
$pdata$?ImFormatStringV@@YAHPEAD_KPEBD0@Z DD imagerel $LN6
	DD	imagerel $LN6+153
	DD	imagerel $unwind$?ImFormatStringV@@YAHPEAD_KPEBD0@Z
pdata	ENDS
;	COMDAT pdata
pdata	SEGMENT
$pdata$?ImCharIsBlankA@@YA_ND@Z DD imagerel ?ImCharIsBlankA@@YA_ND@Z
	DD	imagerel ?ImCharIsBlankA@@YA_ND@Z+93
	DD	imagerel $unwind$?ImCharIsBlankA@@YA_ND@Z
pdata	ENDS
;	COMDAT pdata
pdata	SEGMENT
$pdata$?ImTextCharToUtf8@@YAPEBDQEADI@Z DD imagerel $LN3
	DD	imagerel $LN3+94
	DD	imagerel $unwind$?ImTextCharToUtf8@@YAPEBDQEADI@Z
pdata	ENDS
;	COMDAT pdata
pdata	SEGMENT
$pdata$?ImTextStrToUtf8@@YAHPEADHPEBG1@Z DD imagerel $LN8
	DD	imagerel $LN8+307
	DD	imagerel $unwind$?ImTextStrToUtf8@@YAHPEADHPEBG1@Z
pdata	ENDS
;	COMDAT pdata
pdata	SEGMENT
$pdata$?ImTextCharFromUtf8@@YAHPEAIPEBD1@Z DD imagerel $LN29
	DD	imagerel $LN29+1256
	DD	imagerel $unwind$?ImTextCharFromUtf8@@YAHPEAIPEBD1@Z
pdata	ENDS
;	COMDAT pdata
pdata	SEGMENT
$pdata$?ImTextStrFromUtf8@@YAHPEAGHPEBD1PEAPEBD@Z DD imagerel $LN8
	DD	imagerel $LN8+358
	DD	imagerel $unwind$?ImTextStrFromUtf8@@YAHPEAGHPEBD1PEAPEBD@Z
pdata	ENDS
;	COMDAT pdata
pdata	SEGMENT
$pdata$?ImTextCountCharsFromUtf8@@YAHPEBD0@Z DD imagerel $LN7
	DD	imagerel $LN7+236
	DD	imagerel $unwind$?ImTextCountCharsFromUtf8@@YAHPEBD0@Z
pdata	ENDS
;	COMDAT pdata
pdata	SEGMENT
$pdata$?ImTextCountUtf8BytesFromChar@@YAHPEBD0@Z DD imagerel $LN3
	DD	imagerel $LN3+155
	DD	imagerel $unwind$?ImTextCountUtf8BytesFromChar@@YAHPEBD0@Z
pdata	ENDS
;	COMDAT pdata
pdata	SEGMENT
$pdata$?ImTextCountUtf8BytesFromStr@@YAHPEBG0@Z DD imagerel $LN8
	DD	imagerel $LN8+178
	DD	imagerel $unwind$?ImTextCountUtf8BytesFromStr@@YAHPEBG0@Z
pdata	ENDS
;	COMDAT pdata
pdata	SEGMENT
$pdata$??D@YA?AUImVec2@@AEBU0@M@Z DD imagerel ??D@YA?AUImVec2@@AEBU0@M@Z
	DD	imagerel ??D@YA?AUImVec2@@AEBU0@M@Z+87
	DD	imagerel $unwind$??D@YA?AUImVec2@@AEBU0@M@Z
pdata	ENDS
;	COMDAT pdata
pdata	SEGMENT
$pdata$??K@YA?AUImVec2@@AEBU0@M@Z DD imagerel ??K@YA?AUImVec2@@AEBU0@M@Z
	DD	imagerel ??K@YA?AUImVec2@@AEBU0@M@Z+87
	DD	imagerel $unwind$??K@YA?AUImVec2@@AEBU0@M@Z
pdata	ENDS
;	COMDAT pdata
pdata	SEGMENT
$pdata$??H@YA?AUImVec2@@AEBU0@0@Z DD imagerel ??H@YA?AUImVec2@@AEBU0@0@Z
	DD	imagerel ??H@YA?AUImVec2@@AEBU0@0@Z+93
	DD	imagerel $unwind$??H@YA?AUImVec2@@AEBU0@0@Z
pdata	ENDS
;	COMDAT pdata
pdata	SEGMENT
$pdata$??G@YA?AUImVec2@@AEBU0@0@Z DD imagerel ??G@YA?AUImVec2@@AEBU0@0@Z
	DD	imagerel ??G@YA?AUImVec2@@AEBU0@0@Z+93
	DD	imagerel $unwind$??G@YA?AUImVec2@@AEBU0@0@Z
pdata	ENDS
;	COMDAT pdata
pdata	SEGMENT
$pdata$??D@YA?AUImVec2@@AEBU0@0@Z DD imagerel ??D@YA?AUImVec2@@AEBU0@0@Z
	DD	imagerel ??D@YA?AUImVec2@@AEBU0@0@Z+93
	DD	imagerel $unwind$??D@YA?AUImVec2@@AEBU0@0@Z
pdata	ENDS
;	COMDAT pdata
pdata	SEGMENT
$pdata$??K@YA?AUImVec2@@AEBU0@0@Z DD imagerel ??K@YA?AUImVec2@@AEBU0@0@Z
	DD	imagerel ??K@YA?AUImVec2@@AEBU0@0@Z+93
	DD	imagerel $unwind$??K@YA?AUImVec2@@AEBU0@0@Z
pdata	ENDS
;	COMDAT pdata
pdata	SEGMENT
$pdata$??X@YAAEAUImVec2@@AEAU0@M@Z DD imagerel ??X@YAAEAUImVec2@@AEAU0@M@Z
	DD	imagerel ??X@YAAEAUImVec2@@AEAU0@M@Z+87
	DD	imagerel $unwind$??X@YAAEAUImVec2@@AEAU0@M@Z
pdata	ENDS
;	COMDAT pdata
pdata	SEGMENT
$pdata$??Y@YAAEAUImVec2@@AEAU0@AEBU0@@Z DD imagerel ??Y@YAAEAUImVec2@@AEAU0@AEBU0@@Z
	DD	imagerel ??Y@YAAEAUImVec2@@AEAU0@AEBU0@@Z+93
	DD	imagerel $unwind$??Y@YAAEAUImVec2@@AEAU0@AEBU0@@Z
pdata	ENDS
;	COMDAT pdata
pdata	SEGMENT
$pdata$??Z@YAAEAUImVec2@@AEAU0@AEBU0@@Z DD imagerel ??Z@YAAEAUImVec2@@AEAU0@AEBU0@@Z
	DD	imagerel ??Z@YAAEAUImVec2@@AEAU0@AEBU0@@Z+93
	DD	imagerel $unwind$??Z@YAAEAUImVec2@@AEAU0@AEBU0@@Z
pdata	ENDS
;	COMDAT pdata
pdata	SEGMENT
$pdata$?ImFileOpen@@YAPEAU_iobuf@@PEBD0@Z DD imagerel $LN4
	DD	imagerel $LN4+427
	DD	imagerel $unwind$?ImFileOpen@@YAPEAU_iobuf@@PEBD0@Z
pdata	ENDS
;	COMDAT pdata
pdata	SEGMENT
$pdata$?dtor$0@?0??ImFileOpen@@YAPEAU_iobuf@@PEBD0@Z@4HA DD imagerel ?dtor$0@?0??ImFileOpen@@YAPEAU_iobuf@@PEBD0@Z@4HA
	DD	imagerel ?dtor$0@?0??ImFileOpen@@YAPEAU_iobuf@@PEBD0@Z@4HA+36
	DD	imagerel $unwind$?dtor$0@?0??ImFileOpen@@YAPEAU_iobuf@@PEBD0@Z@4HA
pdata	ENDS
;	COMDAT pdata
pdata	SEGMENT
$pdata$?ImFileClose@@YA_NPEAU_iobuf@@@Z DD imagerel $LN5
	DD	imagerel $LN5+87
	DD	imagerel $unwind$?ImFileClose@@YA_NPEAU_iobuf@@@Z
pdata	ENDS
;	COMDAT pdata
pdata	SEGMENT
$pdata$?ImFileGetSize@@YA_KPEAU_iobuf@@@Z DD imagerel $LN5
	DD	imagerel $LN5+178
	DD	imagerel $unwind$?ImFileGetSize@@YA_KPEAU_iobuf@@@Z
pdata	ENDS
;	COMDAT pdata
pdata	SEGMENT
$pdata$?ImFileRead@@YA_KPEAX_K1PEAU_iobuf@@@Z DD imagerel $LN3
	DD	imagerel $LN3+90
	DD	imagerel $unwind$?ImFileRead@@YA_KPEAX_K1PEAU_iobuf@@@Z
pdata	ENDS
;	COMDAT pdata
pdata	SEGMENT
$pdata$?ImFileWrite@@YA_KPEBX_K1PEAU_iobuf@@@Z DD imagerel $LN3
	DD	imagerel $LN3+90
	DD	imagerel $unwind$?ImFileWrite@@YA_KPEBX_K1PEAU_iobuf@@@Z
pdata	ENDS
;	COMDAT pdata
pdata	SEGMENT
$pdata$?ImFileLoadToMemory@@YAPEAXPEBD0PEA_KH@Z DD imagerel $LN12
	DD	imagerel $LN12+396
	DD	imagerel $unwind$?ImFileLoadToMemory@@YAPEAXPEBD0PEA_KH@Z
pdata	ENDS
;	COMDAT pdata
pdata	SEGMENT
$pdata$?ImMin@@YA?AUImVec2@@AEBU1@0@Z DD imagerel ?ImMin@@YA?AUImVec2@@AEBU1@0@Z
	DD	imagerel ?ImMin@@YA?AUImVec2@@AEBU1@0@Z+160
	DD	imagerel $unwind$?ImMin@@YA?AUImVec2@@AEBU1@0@Z
pdata	ENDS
;	COMDAT pdata
pdata	SEGMENT
$pdata$?ImMax@@YA?AUImVec2@@AEBU1@0@Z DD imagerel ?ImMax@@YA?AUImVec2@@AEBU1@0@Z
	DD	imagerel ?ImMax@@YA?AUImVec2@@AEBU1@0@Z+160
	DD	imagerel $unwind$?ImMax@@YA?AUImVec2@@AEBU1@0@Z
pdata	ENDS
;	COMDAT pdata
pdata	SEGMENT
$pdata$?ImClamp@@YA?AUImVec2@@AEBU1@0U1@@Z DD imagerel ?ImClamp@@YA?AUImVec2@@AEBU1@0U1@@Z
	DD	imagerel ?ImClamp@@YA?AUImVec2@@AEBU1@0U1@@Z+238
	DD	imagerel $unwind$?ImClamp@@YA?AUImVec2@@AEBU1@0U1@@Z
pdata	ENDS
;	COMDAT pdata
pdata	SEGMENT
$pdata$?ImLerp@@YA?AUImVec2@@AEBU1@00@Z DD imagerel ?ImLerp@@YA?AUImVec2@@AEBU1@00@Z
	DD	imagerel ?ImLerp@@YA?AUImVec2@@AEBU1@00@Z+146
	DD	imagerel $unwind$?ImLerp@@YA?AUImVec2@@AEBU1@00@Z
pdata	ENDS
;	COMDAT pdata
pdata	SEGMENT
$pdata$?ImSaturate@@YAMM@Z DD imagerel ?ImSaturate@@YAMM@Z
	DD	imagerel ?ImSaturate@@YAMM@Z+107
	DD	imagerel $unwind$?ImSaturate@@YAMM@Z
pdata	ENDS
;	COMDAT pdata
pdata	SEGMENT
$pdata$?ImLengthSqr@@YAMAEBUImVec2@@@Z DD imagerel ?ImLengthSqr@@YAMAEBUImVec2@@@Z
	DD	imagerel ?ImLengthSqr@@YAMAEBUImVec2@@@Z+71
	DD	imagerel $unwind$?ImLengthSqr@@YAMAEBUImVec2@@@Z
pdata	ENDS
;	COMDAT pdata
pdata	SEGMENT
$pdata$?ImFloor@@YAMM@Z DD imagerel ?ImFloor@@YAMM@Z
	DD	imagerel ?ImFloor@@YAMM@Z+43
	DD	imagerel $unwind$?ImFloor@@YAMM@Z
pdata	ENDS
;	COMDAT pdata
pdata	SEGMENT
$pdata$?ImFloor@@YA?AUImVec2@@AEBU1@@Z DD imagerel ?ImFloor@@YA?AUImVec2@@AEBU1@@Z
	DD	imagerel ?ImFloor@@YA?AUImVec2@@AEBU1@@Z+79
	DD	imagerel $unwind$?ImFloor@@YA?AUImVec2@@AEBU1@@Z
pdata	ENDS
;	COMDAT pdata
pdata	SEGMENT
$pdata$?ImModPositive@@YAHHH@Z DD imagerel ?ImModPositive@@YAHHH@Z
	DD	imagerel ?ImModPositive@@YAHHH@Z+52
	DD	imagerel $unwind$?ImModPositive@@YAHHH@Z
pdata	ENDS
;	COMDAT pdata
pdata	SEGMENT
$pdata$??$ImMin@M@@YAMMM@Z DD imagerel ??$ImMin@M@@YAMMM@Z
	DD	imagerel ??$ImMin@M@@YAMMM@Z+107
	DD	imagerel $unwind$??$ImMin@M@@YAMMM@Z
pdata	ENDS
;	COMDAT pdata
pdata	SEGMENT
$pdata$??$ImMax@M@@YAMMM@Z DD imagerel ??$ImMax@M@@YAMMM@Z
	DD	imagerel ??$ImMax@M@@YAMMM@Z+107
	DD	imagerel $unwind$??$ImMax@M@@YAMMM@Z
pdata	ENDS
;	COMDAT pdata
pdata	SEGMENT
$pdata$?ImBezierCubicClosestPoint@@YA?AUImVec2@@AEBU1@0000H@Z DD imagerel $LN8
	DD	imagerel $LN8+503
	DD	imagerel $unwind$?ImBezierCubicClosestPoint@@YA?AUImVec2@@AEBU1@0000H@Z
pdata	ENDS
;	COMDAT pdata
pdata	SEGMENT
$pdata$?ImBezierCubicClosestPointCasteljau@@YA?AUImVec2@@AEBU1@0000M@Z DD imagerel $LN4
	DD	imagerel $LN4+428
	DD	imagerel $unwind$?ImBezierCubicClosestPointCasteljau@@YA?AUImVec2@@AEBU1@0000M@Z
pdata	ENDS
;	COMDAT pdata
pdata	SEGMENT
$pdata$?ImLineClosestPoint@@YA?AUImVec2@@AEBU1@00@Z DD imagerel $LN5
	DD	imagerel $LN5+390
	DD	imagerel $unwind$?ImLineClosestPoint@@YA?AUImVec2@@AEBU1@00@Z
pdata	ENDS
;	COMDAT pdata
pdata	SEGMENT
$pdata$?ImTriangleContainsPoint@@YA_NAEBUImVec2@@000@Z DD imagerel $LN11
	DD	imagerel $LN11+541
	DD	imagerel $unwind$?ImTriangleContainsPoint@@YA_NAEBUImVec2@@000@Z
pdata	ENDS
;	COMDAT pdata
pdata	SEGMENT
$pdata$?ImTriangleClosestPoint@@YA?AUImVec2@@AEBU1@000@Z DD imagerel $LN5
	DD	imagerel $LN5+483
	DD	imagerel $unwind$?ImTriangleClosestPoint@@YA?AUImVec2@@AEBU1@000@Z
pdata	ENDS
;	COMDAT pdata
pdata	SEGMENT
$pdata$?ImTriangleBarycentricCoords@@YAXAEBUImVec2@@000AEAM11@Z DD imagerel $LN3
	DD	imagerel $LN3+348
	DD	imagerel $unwind$?ImTriangleBarycentricCoords@@YAXAEBUImVec2@@000AEAM11@Z
pdata	ENDS
;	COMDAT pdata
pdata	SEGMENT
$pdata$?ImTriangleArea@@YAMAEBUImVec2@@00@Z DD imagerel $LN3
	DD	imagerel $LN3+198
	DD	imagerel $unwind$?ImTriangleArea@@YAMAEBUImVec2@@00@Z
pdata	ENDS
;	COMDAT pdata
pdata	SEGMENT
$pdata$?ImGetDirQuadrantFromDelta@@YAHMM@Z DD imagerel $LN8
	DD	imagerel $LN8+187
	DD	imagerel $unwind$?ImGetDirQuadrantFromDelta@@YAHMM@Z
pdata	ENDS
;	COMDAT pdata
pdata	SEGMENT
$pdata$??0ImVec1@@QEAA@XZ DD imagerel $LN3
	DD	imagerel $LN3+48
	DD	imagerel $unwind$??0ImVec1@@QEAA@XZ
pdata	ENDS
;	COMDAT pdata
pdata	SEGMENT
$pdata$??0ImVec2ih@@QEAA@XZ DD imagerel $LN3
	DD	imagerel $LN3+56
	DD	imagerel $unwind$??0ImVec2ih@@QEAA@XZ
pdata	ENDS
;	COMDAT pdata
pdata	SEGMENT
$pdata$??0ImVec2ih@@QEAA@FF@Z DD imagerel $LN3
	DD	imagerel $LN3+71
	DD	imagerel $unwind$??0ImVec2ih@@QEAA@FF@Z
pdata	ENDS
;	COMDAT pdata
pdata	SEGMENT
$pdata$??0ImVec2ih@@QEAA@AEBUImVec2@@@Z DD imagerel $LN3
	DD	imagerel $LN3+74
	DD	imagerel $unwind$??0ImVec2ih@@QEAA@AEBUImVec2@@@Z
pdata	ENDS
;	COMDAT pdata
pdata	SEGMENT
$pdata$??0ImRect@@QEAA@XZ DD imagerel $LN3
	DD	imagerel $LN3+87
	DD	imagerel $unwind$??0ImRect@@QEAA@XZ
pdata	ENDS
;	COMDAT pdata
pdata	SEGMENT
$pdata$??0ImRect@@QEAA@AEBUImVec2@@0@Z DD imagerel $LN3
	DD	imagerel $LN3+76
	DD	imagerel $unwind$??0ImRect@@QEAA@AEBUImVec2@@0@Z
pdata	ENDS
;	COMDAT pdata
pdata	SEGMENT
$pdata$??0ImRect@@QEAA@AEBUImVec4@@@Z DD imagerel $LN3
	DD	imagerel $LN3+115
	DD	imagerel $unwind$??0ImRect@@QEAA@AEBUImVec4@@@Z
pdata	ENDS
;	COMDAT pdata
pdata	SEGMENT
$pdata$??0ImRect@@QEAA@MMMM@Z DD imagerel $LN3
	DD	imagerel $LN3+116
	DD	imagerel $unwind$??0ImRect@@QEAA@MMMM@Z
pdata	ENDS
;	COMDAT pdata
pdata	SEGMENT
$pdata$?GetSize@ImRect@@QEBA?AUImVec2@@XZ DD imagerel $LN3
	DD	imagerel $LN3+89
	DD	imagerel $unwind$?GetSize@ImRect@@QEBA?AUImVec2@@XZ
pdata	ENDS
;	COMDAT pdata
pdata	SEGMENT
$pdata$?GetWidth@ImRect@@QEBAMXZ DD imagerel $LN3
	DD	imagerel $LN3+50
	DD	imagerel $unwind$?GetWidth@ImRect@@QEBAMXZ
pdata	ENDS
;	COMDAT pdata
pdata	SEGMENT
$pdata$?GetHeight@ImRect@@QEBAMXZ DD imagerel $LN3
	DD	imagerel $LN3+51
	DD	imagerel $unwind$?GetHeight@ImRect@@QEBAMXZ
pdata	ENDS
;	COMDAT pdata
pdata	SEGMENT
$pdata$?GetBL@ImRect@@QEBA?AUImVec2@@XZ DD imagerel $LN3
	DD	imagerel $LN3+68
	DD	imagerel $unwind$?GetBL@ImRect@@QEBA?AUImVec2@@XZ
pdata	ENDS
;	COMDAT pdata
pdata	SEGMENT
$pdata$?GetBR@ImRect@@QEBA?AUImVec2@@XZ DD imagerel $LN3
	DD	imagerel $LN3+57
	DD	imagerel $unwind$?GetBR@ImRect@@QEBA?AUImVec2@@XZ
pdata	ENDS
;	COMDAT pdata
pdata	SEGMENT
$pdata$?Contains@ImRect@@QEBA_NAEBUImVec2@@@Z DD imagerel $LN5
	DD	imagerel $LN5+131
	DD	imagerel $unwind$?Contains@ImRect@@QEBA_NAEBUImVec2@@@Z
pdata	ENDS
;	COMDAT pdata
pdata	SEGMENT
$pdata$?Contains@ImRect@@QEBA_NAEBU1@@Z DD imagerel $LN5
	DD	imagerel $LN5+132
	DD	imagerel $unwind$?Contains@ImRect@@QEBA_NAEBU1@@Z
pdata	ENDS
;	COMDAT pdata
pdata	SEGMENT
$pdata$?Overlaps@ImRect@@QEBA_NAEBU1@@Z DD imagerel $LN5
	DD	imagerel $LN5+132
	DD	imagerel $unwind$?Overlaps@ImRect@@QEBA_NAEBU1@@Z
pdata	ENDS
;	COMDAT pdata
pdata	SEGMENT
$pdata$?Add@ImRect@@QEAAXAEBUImVec2@@@Z DD imagerel $LN7
	DD	imagerel $LN7+180
	DD	imagerel $unwind$?Add@ImRect@@QEAAXAEBUImVec2@@@Z
pdata	ENDS
;	COMDAT pdata
pdata	SEGMENT
$pdata$?Add@ImRect@@QEAAXAEBU1@@Z DD imagerel $LN7
	DD	imagerel $LN7+182
	DD	imagerel $unwind$?Add@ImRect@@QEAAXAEBU1@@Z
pdata	ENDS
;	COMDAT pdata
pdata	SEGMENT
$pdata$?Expand@ImRect@@QEAAXM@Z DD imagerel $LN3
	DD	imagerel $LN3+129
	DD	imagerel $unwind$?Expand@ImRect@@QEAAXM@Z
pdata	ENDS
;	COMDAT pdata
pdata	SEGMENT
$pdata$?Expand@ImRect@@QEAAXAEBUImVec2@@@Z DD imagerel $LN3
	DD	imagerel $LN3+142
	DD	imagerel $unwind$?Expand@ImRect@@QEAAXAEBUImVec2@@@Z
pdata	ENDS
;	COMDAT pdata
pdata	SEGMENT
$pdata$?TranslateX@ImRect@@QEAAXM@Z DD imagerel $LN3
	DD	imagerel $LN3+83
	DD	imagerel $unwind$?TranslateX@ImRect@@QEAAXM@Z
pdata	ENDS
;	COMDAT pdata
pdata	SEGMENT
$pdata$?TranslateY@ImRect@@QEAAXM@Z DD imagerel $LN3
	DD	imagerel $LN3+85
	DD	imagerel $unwind$?TranslateY@ImRect@@QEAAXM@Z
pdata	ENDS
;	COMDAT pdata
pdata	SEGMENT
$pdata$?ClipWith@ImRect@@QEAAXAEBU1@@Z DD imagerel $LN3
	DD	imagerel $LN3+113
	DD	imagerel $unwind$?ClipWith@ImRect@@QEAAXAEBU1@@Z
pdata	ENDS
;	COMDAT pdata
pdata	SEGMENT
$pdata$?ClipWithFull@ImRect@@QEAAXAEBU1@@Z DD imagerel $LN3
	DD	imagerel $LN3+125
	DD	imagerel $unwind$?ClipWithFull@ImRect@@QEAAXAEBU1@@Z
pdata	ENDS
;	COMDAT pdata
pdata	SEGMENT
$pdata$?IsInverted@ImRect@@QEBA_NXZ DD imagerel $LN5
	DD	imagerel $LN5+90
	DD	imagerel $unwind$?IsInverted@ImRect@@QEBA_NXZ
pdata	ENDS
;	COMDAT pdata
pdata	SEGMENT
$pdata$?ToVec4@ImRect@@QEBA?AUImVec4@@XZ DD imagerel $LN3
	DD	imagerel $LN3+92
	DD	imagerel $unwind$?ToVec4@ImRect@@QEBA?AUImVec4@@XZ
pdata	ENDS
;	COMDAT pdata
pdata	SEGMENT
$pdata$??0?$ImVector@PEAUImDrawList@@@@QEAA@XZ DD imagerel $LN3
	DD	imagerel $LN3+90
	DD	imagerel $unwind$??0?$ImVector@PEAUImDrawList@@@@QEAA@XZ
pdata	ENDS
;	COMDAT pdata
pdata	SEGMENT
$pdata$??1?$ImVector@PEAUImDrawList@@@@QEAA@XZ DD imagerel $LN4
	DD	imagerel $LN4+72
	DD	imagerel $unwind$??1?$ImVector@PEAUImDrawList@@@@QEAA@XZ
pdata	ENDS
;	COMDAT pdata
pdata	SEGMENT
$pdata$?empty@?$ImVector@PEAUImDrawList@@@@QEBA_NXZ DD imagerel $LN5
	DD	imagerel $LN5+82
	DD	imagerel $unwind$?empty@?$ImVector@PEAUImDrawList@@@@QEBA_NXZ
pdata	ENDS
;	COMDAT pdata
pdata	SEGMENT
$pdata$??A?$ImVector@PEAUImDrawList@@@@QEAAAEAPEAUImDrawList@@H@Z DD imagerel $LN5
	DD	imagerel $LN5+121
	DD	imagerel $unwind$??A?$ImVector@PEAUImDrawList@@@@QEAAAEAPEAUImDrawList@@H@Z
pdata	ENDS
;	COMDAT pdata
pdata	SEGMENT
$pdata$?_grow_capacity@?$ImVector@PEAUImDrawList@@@@QEBAHH@Z DD imagerel $LN7
	DD	imagerel $LN7+150
	DD	imagerel $unwind$?_grow_capacity@?$ImVector@PEAUImDrawList@@@@QEBAHH@Z
pdata	ENDS
;	COMDAT pdata
pdata	SEGMENT
$pdata$?resize@?$ImVector@PEAUImDrawList@@@@QEAAXH@Z DD imagerel $LN4
	DD	imagerel $LN4+110
	DD	imagerel $unwind$?resize@?$ImVector@PEAUImDrawList@@@@QEAAXH@Z
pdata	ENDS
;	COMDAT pdata
pdata	SEGMENT
$pdata$?reserve@?$ImVector@PEAUImDrawList@@@@QEAAXH@Z DD imagerel $LN5
	DD	imagerel $LN5+185
	DD	imagerel $unwind$?reserve@?$ImVector@PEAUImDrawList@@@@QEAAXH@Z
pdata	ENDS
;	COMDAT pdata
pdata	SEGMENT
$pdata$?push_back@?$ImVector@PEAUImDrawList@@@@QEAAXAEBQEAUImDrawList@@@Z DD imagerel $LN4
	DD	imagerel $LN4+161
	DD	imagerel $unwind$?push_back@?$ImVector@PEAUImDrawList@@@@QEAAXAEBQEAUImDrawList@@@Z
pdata	ENDS
;	COMDAT pdata
pdata	SEGMENT
$pdata$?Clear@ImDrawDataBuilder@@QEAAXXZ DD imagerel $LN6
	DD	imagerel $LN6+108
	DD	imagerel $unwind$?Clear@ImDrawDataBuilder@@QEAAXXZ
pdata	ENDS
;	COMDAT pdata
pdata	SEGMENT
$pdata$?GetDrawListCount@ImDrawDataBuilder@@QEBAHXZ DD imagerel $LN6
	DD	imagerel $LN6+104
	DD	imagerel $unwind$?GetDrawListCount@ImDrawDataBuilder@@QEBAHXZ
pdata	ENDS
;	COMDAT pdata
pdata	SEGMENT
$pdata$?FlattenIntoSingleLayer@ImDrawDataBuilder@@QEAAXXZ DD imagerel $LN10
	DD	imagerel $LN10+393
	DD	imagerel $unwind$?FlattenIntoSingleLayer@ImDrawDataBuilder@@QEAAXXZ
pdata	ENDS
;	COMDAT pdata
pdata	SEGMENT
$pdata$??0ImDrawDataBuilder@@QEAA@XZ DD imagerel $LN4
	DD	imagerel $LN4+81
	DD	imagerel $unwind$??0ImDrawDataBuilder@@QEAA@XZ
pdata	ENDS
;	COMDAT pdata
pdata	SEGMENT
$pdata$??1ImDrawDataBuilder@@QEAA@XZ DD imagerel $LN3
	DD	imagerel $LN3+63
	DD	imagerel $unwind$??1ImDrawDataBuilder@@QEAA@XZ
pdata	ENDS
;	COMDAT pdata
pdata	SEGMENT
$pdata$??0ImGuiColorMod@@QEAA@XZ DD imagerel $LN3
	DD	imagerel $LN3+55
	DD	imagerel $unwind$??0ImGuiColorMod@@QEAA@XZ
pdata	ENDS
;	COMDAT pdata
pdata	SEGMENT
$pdata$??0ImGuiStyleMod@@QEAA@HM@Z DD imagerel $LN3
	DD	imagerel $LN3+103
	DD	imagerel $unwind$??0ImGuiStyleMod@@QEAA@HM@Z
pdata	ENDS
;	COMDAT pdata
pdata	SEGMENT
$pdata$??0ImGuiStyleMod@@QEAA@HUImVec2@@@Z DD imagerel $LN3
	DD	imagerel $LN3+132
	DD	imagerel $unwind$??0ImGuiStyleMod@@QEAA@HUImVec2@@@Z
pdata	ENDS
;	COMDAT pdata
pdata	SEGMENT
$pdata$??0ImGuiComboPreviewData@@QEAA@XZ DD imagerel $LN3
	DD	imagerel $LN3+136
	DD	imagerel $unwind$??0ImGuiComboPreviewData@@QEAA@XZ
pdata	ENDS
;	COMDAT pdata
pdata	SEGMENT
$pdata$??0ImGuiMenuColumns@@QEAA@XZ DD imagerel $LN3
	DD	imagerel $LN3+64
	DD	imagerel $unwind$??0ImGuiMenuColumns@@QEAA@XZ
pdata	ENDS
;	COMDAT pdata
pdata	SEGMENT
$pdata$??0ImGuiInputTextState@@QEAA@XZ DD imagerel $LN6
	DD	imagerel $LN6+123
	DD	imagerel $unwind$??0ImGuiInputTextState@@QEAA@XZ
pdata	ENDS
;	COMDAT pdata
pdata	SEGMENT
$pdata$?dtor$0@?0???0ImGuiInputTextState@@QEAA@XZ@4HA DD imagerel ?dtor$0@?0???0ImGuiInputTextState@@QEAA@XZ@4HA
	DD	imagerel ?dtor$0@?0???0ImGuiInputTextState@@QEAA@XZ@4HA+43
	DD	imagerel $unwind$?dtor$0@?0???0ImGuiInputTextState@@QEAA@XZ@4HA
pdata	ENDS
;	COMDAT pdata
pdata	SEGMENT
$pdata$?dtor$1@?0???0ImGuiInputTextState@@QEAA@XZ@4HA DD imagerel ?dtor$1@?0???0ImGuiInputTextState@@QEAA@XZ@4HA
	DD	imagerel ?dtor$1@?0???0ImGuiInputTextState@@QEAA@XZ@4HA+43
	DD	imagerel $unwind$?dtor$1@?0???0ImGuiInputTextState@@QEAA@XZ@4HA
pdata	ENDS
;	COMDAT pdata
pdata	SEGMENT
$pdata$?ClearFreeMemory@ImGuiInputTextState@@QEAAXXZ DD imagerel $LN3
	DD	imagerel $LN3+98
	DD	imagerel $unwind$?ClearFreeMemory@ImGuiInputTextState@@QEAAXXZ
pdata	ENDS
;	COMDAT pdata
pdata	SEGMENT
$pdata$??1ImGuiInputTextState@@QEAA@XZ DD imagerel $LN3
	DD	imagerel $LN3+86
	DD	imagerel $unwind$??1ImGuiInputTextState@@QEAA@XZ
pdata	ENDS
;	COMDAT pdata
pdata	SEGMENT
$pdata$??$ImMin@H@@YAHHH@Z DD imagerel ??$ImMin@H@@YAHHH@Z
	DD	imagerel ??$ImMin@H@@YAHHH@Z+90
	DD	imagerel $unwind$??$ImMin@H@@YAHHH@Z
pdata	ENDS
;	COMDAT pdata
pdata	SEGMENT
$pdata$??0ImGuiPopupData@@QEAA@XZ DD imagerel $LN3
	DD	imagerel $LN3+116
	DD	imagerel $unwind$??0ImGuiPopupData@@QEAA@XZ
pdata	ENDS
;	COMDAT pdata
pdata	SEGMENT
$pdata$??0ImGuiNavItemData@@QEAA@XZ DD imagerel $LN3
	DD	imagerel $LN3+79
	DD	imagerel $unwind$??0ImGuiNavItemData@@QEAA@XZ
pdata	ENDS
;	COMDAT pdata
pdata	SEGMENT
$pdata$?Clear@ImGuiNavItemData@@QEAAXXZ DD imagerel $LN3
	DD	imagerel $LN3+178
	DD	imagerel $unwind$?Clear@ImGuiNavItemData@@QEAAXXZ
pdata	ENDS
;	COMDAT pdata
pdata	SEGMENT
$pdata$??0ImGuiNextWindowData@@QEAA@XZ DD imagerel $LN3
	DD	imagerel $LN3+197
	DD	imagerel $unwind$??0ImGuiNextWindowData@@QEAA@XZ
pdata	ENDS
;	COMDAT pdata
pdata	SEGMENT
$pdata$?ClearFlags@ImGuiNextWindowData@@QEAAXXZ DD imagerel $LN3
	DD	imagerel $LN3+54
	DD	imagerel $unwind$?ClearFlags@ImGuiNextWindowData@@QEAAXXZ
pdata	ENDS
;	COMDAT pdata
pdata	SEGMENT
$pdata$??0ImGuiNextItemData@@QEAA@XZ DD imagerel $LN3
	DD	imagerel $LN3+64
	DD	imagerel $unwind$??0ImGuiNextItemData@@QEAA@XZ
pdata	ENDS
;	COMDAT pdata
pdata	SEGMENT
$pdata$??1?$ImVector@UImGuiOldColumnData@@@@QEAA@XZ DD imagerel $LN4
	DD	imagerel $LN4+72
	DD	imagerel $unwind$??1?$ImVector@UImGuiOldColumnData@@@@QEAA@XZ
pdata	ENDS
;	COMDAT pdata
pdata	SEGMENT
$pdata$??A?$ImVector@UImGuiOldColumnData@@@@QEAAAEAUImGuiOldColumnData@@H@Z DD imagerel $LN5
	DD	imagerel $LN5+121
	DD	imagerel $unwind$??A?$ImVector@UImGuiOldColumnData@@@@QEAAAEAUImGuiOldColumnData@@H@Z
pdata	ENDS
;	COMDAT pdata
pdata	SEGMENT
$pdata$??1ImGuiOldColumns@@QEAA@XZ DD imagerel $LN3
	DD	imagerel $LN3+67
	DD	imagerel $unwind$??1ImGuiOldColumns@@QEAA@XZ
pdata	ENDS
;	COMDAT pdata
pdata	SEGMENT
$pdata$??_GImGuiOldColumns@@QEAAPEAXI@Z DD imagerel $LN4
	DD	imagerel $LN4+82
	DD	imagerel $unwind$??_GImGuiOldColumns@@QEAAPEAXI@Z
pdata	ENDS
;	COMDAT pdata
pdata	SEGMENT
$pdata$??0ImGuiViewportP@@QEAA@XZ DD imagerel $LN4
	DD	imagerel $LN4+281
	DD	imagerel $unwind$??0ImGuiViewportP@@QEAA@XZ
pdata	ENDS
;	COMDAT pdata
pdata	SEGMENT
$pdata$?dtor$0@?0???0ImGuiViewportP@@QEAA@XZ@4HA DD imagerel ?dtor$0@?0???0ImGuiViewportP@@QEAA@XZ@4HA
	DD	imagerel ?dtor$0@?0???0ImGuiViewportP@@QEAA@XZ@4HA+43
	DD	imagerel $unwind$?dtor$0@?0???0ImGuiViewportP@@QEAA@XZ@4HA
pdata	ENDS
;	COMDAT pdata
pdata	SEGMENT
$pdata$??1ImGuiViewportP@@QEAA@XZ DD imagerel $LN5
	DD	imagerel $LN5+161
	DD	imagerel $unwind$??1ImGuiViewportP@@QEAA@XZ
pdata	ENDS
;	COMDAT pdata
pdata	SEGMENT
$pdata$?CalcWorkRectPos@ImGuiViewportP@@QEBA?AUImVec2@@AEBU2@@Z DD imagerel $LN3
	DD	imagerel $LN3+120
	DD	imagerel $unwind$?CalcWorkRectPos@ImGuiViewportP@@QEBA?AUImVec2@@AEBU2@@Z
pdata	ENDS
;	COMDAT pdata
pdata	SEGMENT
$pdata$?CalcWorkRectSize@ImGuiViewportP@@QEBA?AUImVec2@@AEBU2@0@Z DD imagerel $LN3
	DD	imagerel $LN3+199
	DD	imagerel $unwind$?CalcWorkRectSize@ImGuiViewportP@@QEBA?AUImVec2@@AEBU2@0@Z
pdata	ENDS
;	COMDAT pdata
pdata	SEGMENT
$pdata$?UpdateWorkRect@ImGuiViewportP@@QEAAXXZ DD imagerel $LN3
	DD	imagerel $LN3+156
	DD	imagerel $unwind$?UpdateWorkRect@ImGuiViewportP@@QEAAXXZ
pdata	ENDS
;	COMDAT pdata
pdata	SEGMENT
$pdata$?GetMainRect@ImGuiViewportP@@QEBA?AUImRect@@XZ DD imagerel $LN3
	DD	imagerel $LN3+146
	DD	imagerel $unwind$?GetMainRect@ImGuiViewportP@@QEBA?AUImRect@@XZ
pdata	ENDS
;	COMDAT pdata
pdata	SEGMENT
$pdata$?GetWorkRect@ImGuiViewportP@@QEBA?AUImRect@@XZ DD imagerel $LN3
	DD	imagerel $LN3+146
	DD	imagerel $unwind$?GetWorkRect@ImGuiViewportP@@QEBA?AUImRect@@XZ
pdata	ENDS
;	COMDAT pdata
pdata	SEGMENT
$pdata$??_GImGuiViewportP@@QEAAPEAXI@Z DD imagerel $LN4
	DD	imagerel $LN4+82
	DD	imagerel $unwind$??_GImGuiViewportP@@QEAAPEAXI@Z
pdata	ENDS
;	COMDAT pdata
pdata	SEGMENT
$pdata$??$IM_DELETE@UImDrawList@@@@YAXPEAUImDrawList@@@Z DD imagerel $LN4
	DD	imagerel $LN4+77
	DD	imagerel $unwind$??$IM_DELETE@UImDrawList@@@@YAXPEAUImDrawList@@@Z
pdata	ENDS
;	COMDAT pdata
pdata	SEGMENT
$pdata$??0ImGuiWindowSettings@@QEAA@XZ DD imagerel $LN3
	DD	imagerel $LN3+102
	DD	imagerel $unwind$??0ImGuiWindowSettings@@QEAA@XZ
pdata	ENDS
;	COMDAT pdata
pdata	SEGMENT
$pdata$?GetName@ImGuiWindowSettings@@QEAAPEADXZ DD imagerel $LN3
	DD	imagerel $LN3+52
	DD	imagerel $unwind$?GetName@ImGuiWindowSettings@@QEAAPEADXZ
pdata	ENDS
;	COMDAT pdata
pdata	SEGMENT
$pdata$??0ImGuiSettingsHandler@@QEAA@XZ DD imagerel $LN3
	DD	imagerel $LN3+64
	DD	imagerel $unwind$??0ImGuiSettingsHandler@@QEAA@XZ
pdata	ENDS
;	COMDAT pdata
pdata	SEGMENT
$pdata$??0ImGuiMetricsConfig@@QEAA@XZ DD imagerel $LN3
	DD	imagerel $LN3+130
	DD	imagerel $unwind$??0ImGuiMetricsConfig@@QEAA@XZ
pdata	ENDS
;	COMDAT pdata
pdata	SEGMENT
$pdata$??0ImGuiStackSizes@@QEAA@XZ DD imagerel $LN3
	DD	imagerel $LN3+64
	DD	imagerel $unwind$??0ImGuiStackSizes@@QEAA@XZ
pdata	ENDS
;	COMDAT pdata
pdata	SEGMENT
$pdata$?SetToCurrentState@ImGuiStackSizes@@QEAAXXZ DD imagerel $LN3
	DD	imagerel $LN3+220
	DD	imagerel $unwind$?SetToCurrentState@ImGuiStackSizes@@QEAAXXZ
pdata	ENDS
;	COMDAT pdata
pdata	SEGMENT
$pdata$?CompareWithCurrentState@ImGuiStackSizes@@QEAAXXZ DD imagerel $LN17
	DD	imagerel $LN17+549
	DD	imagerel $unwind$?CompareWithCurrentState@ImGuiStackSizes@@QEAAXXZ
pdata	ENDS
;	COMDAT pdata
pdata	SEGMENT
$pdata$??0?$ImVector@PEAUImGuiWindow@@@@QEAA@XZ DD imagerel $LN3
	DD	imagerel $LN3+90
	DD	imagerel $unwind$??0?$ImVector@PEAUImGuiWindow@@@@QEAA@XZ
pdata	ENDS
;	COMDAT pdata
pdata	SEGMENT
$pdata$??1?$ImVector@PEAUImGuiWindow@@@@QEAA@XZ DD imagerel $LN4
	DD	imagerel $LN4+72
	DD	imagerel $unwind$??1?$ImVector@PEAUImGuiWindow@@@@QEAA@XZ
pdata	ENDS
;	COMDAT pdata
pdata	SEGMENT
$pdata$?clear@?$ImVector@PEAUImGuiWindow@@@@QEAAXXZ DD imagerel $LN4
	DD	imagerel $LN4+113
	DD	imagerel $unwind$?clear@?$ImVector@PEAUImGuiWindow@@@@QEAAXXZ
pdata	ENDS
;	COMDAT pdata
pdata	SEGMENT
$pdata$?clear_delete@?$ImVector@PEAUImGuiWindow@@@@QEAAXXZ DD imagerel $LN6
	DD	imagerel $LN6+110
	DD	imagerel $unwind$?clear_delete@?$ImVector@PEAUImGuiWindow@@@@QEAAXXZ
pdata	ENDS
;	COMDAT pdata
pdata	SEGMENT
$pdata$?empty@?$ImVector@PEAUImGuiWindow@@@@QEBA_NXZ DD imagerel $LN5
	DD	imagerel $LN5+82
	DD	imagerel $unwind$?empty@?$ImVector@PEAUImGuiWindow@@@@QEBA_NXZ
pdata	ENDS
;	COMDAT pdata
pdata	SEGMENT
$pdata$??A?$ImVector@PEAUImGuiWindow@@@@QEAAAEAPEAUImGuiWindow@@H@Z DD imagerel $LN5
	DD	imagerel $LN5+121
	DD	imagerel $unwind$??A?$ImVector@PEAUImGuiWindow@@@@QEAAAEAPEAUImGuiWindow@@H@Z
pdata	ENDS
;	COMDAT pdata
pdata	SEGMENT
$pdata$?back@?$ImVector@PEAUImGuiWindow@@@@QEAAAEAPEAUImGuiWindow@@XZ DD imagerel $LN4
	DD	imagerel $LN4+109
	DD	imagerel $unwind$?back@?$ImVector@PEAUImGuiWindow@@@@QEAAAEAPEAUImGuiWindow@@XZ
pdata	ENDS
;	COMDAT pdata
pdata	SEGMENT
$pdata$?swap@?$ImVector@PEAUImGuiWindow@@@@QEAAXAEAU1@@Z DD imagerel $LN3
	DD	imagerel $LN3+186
	DD	imagerel $unwind$?swap@?$ImVector@PEAUImGuiWindow@@@@QEAAXAEAU1@@Z
pdata	ENDS
;	COMDAT pdata
pdata	SEGMENT
$pdata$?_grow_capacity@?$ImVector@PEAUImGuiWindow@@@@QEBAHH@Z DD imagerel $LN7
	DD	imagerel $LN7+150
	DD	imagerel $unwind$?_grow_capacity@?$ImVector@PEAUImGuiWindow@@@@QEBAHH@Z
pdata	ENDS
;	COMDAT pdata
pdata	SEGMENT
$pdata$?resize@?$ImVector@PEAUImGuiWindow@@@@QEAAXH@Z DD imagerel $LN4
	DD	imagerel $LN4+110
	DD	imagerel $unwind$?resize@?$ImVector@PEAUImGuiWindow@@@@QEAAXH@Z
pdata	ENDS
;	COMDAT pdata
pdata	SEGMENT
$pdata$?reserve@?$ImVector@PEAUImGuiWindow@@@@QEAAXH@Z DD imagerel $LN5
	DD	imagerel $LN5+185
	DD	imagerel $unwind$?reserve@?$ImVector@PEAUImGuiWindow@@@@QEAAXH@Z
pdata	ENDS
;	COMDAT pdata
pdata	SEGMENT
$pdata$?push_back@?$ImVector@PEAUImGuiWindow@@@@QEAAXAEBQEAUImGuiWindow@@@Z DD imagerel $LN4
	DD	imagerel $LN4+161
	DD	imagerel $unwind$?push_back@?$ImVector@PEAUImGuiWindow@@@@QEAAXAEBQEAUImGuiWindow@@@Z
pdata	ENDS
;	COMDAT pdata
pdata	SEGMENT
$pdata$?pop_back@?$ImVector@PEAUImGuiWindow@@@@QEAAXXZ DD imagerel $LN4
	DD	imagerel $LN4+101
	DD	imagerel $unwind$?pop_back@?$ImVector@PEAUImGuiWindow@@@@QEAAXXZ
pdata	ENDS
;	COMDAT pdata
pdata	SEGMENT
$pdata$?push_front@?$ImVector@PEAUImGuiWindow@@@@QEAAXAEBQEAUImGuiWindow@@@Z DD imagerel $LN5
	DD	imagerel $LN5+109
	DD	imagerel $unwind$?push_front@?$ImVector@PEAUImGuiWindow@@@@QEAAXAEBQEAUImGuiWindow@@@Z
pdata	ENDS
;	COMDAT pdata
pdata	SEGMENT
$pdata$?insert@?$ImVector@PEAUImGuiWindow@@@@QEAAPEAPEAUImGuiWindow@@PEBQEAU2@AEBQEAU2@@Z DD imagerel $LN7
	DD	imagerel $LN7+394
	DD	imagerel $unwind$?insert@?$ImVector@PEAUImGuiWindow@@@@QEAAPEAPEAUImGuiWindow@@PEBQEAU2@AEBQEAU2@@Z
pdata	ENDS
;	COMDAT pdata
pdata	SEGMENT
$pdata$??0?$ImVector@UImGuiColorMod@@@@QEAA@XZ DD imagerel $LN3
	DD	imagerel $LN3+90
	DD	imagerel $unwind$??0?$ImVector@UImGuiColorMod@@@@QEAA@XZ
pdata	ENDS
;	COMDAT pdata
pdata	SEGMENT
$pdata$??1?$ImVector@UImGuiColorMod@@@@QEAA@XZ DD imagerel $LN4
	DD	imagerel $LN4+72
	DD	imagerel $unwind$??1?$ImVector@UImGuiColorMod@@@@QEAA@XZ
pdata	ENDS
;	COMDAT pdata
pdata	SEGMENT
$pdata$?clear@?$ImVector@UImGuiColorMod@@@@QEAAXXZ DD imagerel $LN4
	DD	imagerel $LN4+113
	DD	imagerel $unwind$?clear@?$ImVector@UImGuiColorMod@@@@QEAAXXZ
pdata	ENDS
;	COMDAT pdata
pdata	SEGMENT
$pdata$?back@?$ImVector@UImGuiColorMod@@@@QEAAAEAUImGuiColorMod@@XZ DD imagerel $LN4
	DD	imagerel $LN4+109
	DD	imagerel $unwind$?back@?$ImVector@UImGuiColorMod@@@@QEAAAEAUImGuiColorMod@@XZ
pdata	ENDS
;	COMDAT pdata
pdata	SEGMENT
$pdata$?_grow_capacity@?$ImVector@UImGuiColorMod@@@@QEBAHH@Z DD imagerel $LN7
	DD	imagerel $LN7+150
	DD	imagerel $unwind$?_grow_capacity@?$ImVector@UImGuiColorMod@@@@QEBAHH@Z
pdata	ENDS
;	COMDAT pdata
pdata	SEGMENT
$pdata$?reserve@?$ImVector@UImGuiColorMod@@@@QEAAXH@Z DD imagerel $LN5
	DD	imagerel $LN5+185
	DD	imagerel $unwind$?reserve@?$ImVector@UImGuiColorMod@@@@QEAAXH@Z
pdata	ENDS
;	COMDAT pdata
pdata	SEGMENT
$pdata$?push_back@?$ImVector@UImGuiColorMod@@@@QEAAXAEBUImGuiColorMod@@@Z DD imagerel $LN4
	DD	imagerel $LN4+171
	DD	imagerel $unwind$?push_back@?$ImVector@UImGuiColorMod@@@@QEAAXAEBUImGuiColorMod@@@Z
pdata	ENDS
;	COMDAT pdata
pdata	SEGMENT
$pdata$?pop_back@?$ImVector@UImGuiColorMod@@@@QEAAXXZ DD imagerel $LN4
	DD	imagerel $LN4+101
	DD	imagerel $unwind$?pop_back@?$ImVector@UImGuiColorMod@@@@QEAAXXZ
pdata	ENDS
;	COMDAT pdata
pdata	SEGMENT
$pdata$??0?$ImVector@UImGuiStyleMod@@@@QEAA@XZ DD imagerel $LN3
	DD	imagerel $LN3+90
	DD	imagerel $unwind$??0?$ImVector@UImGuiStyleMod@@@@QEAA@XZ
pdata	ENDS
;	COMDAT pdata
pdata	SEGMENT
$pdata$??1?$ImVector@UImGuiStyleMod@@@@QEAA@XZ DD imagerel $LN4
	DD	imagerel $LN4+72
	DD	imagerel $unwind$??1?$ImVector@UImGuiStyleMod@@@@QEAA@XZ
pdata	ENDS
;	COMDAT pdata
pdata	SEGMENT
$pdata$?clear@?$ImVector@UImGuiStyleMod@@@@QEAAXXZ DD imagerel $LN4
	DD	imagerel $LN4+113
	DD	imagerel $unwind$?clear@?$ImVector@UImGuiStyleMod@@@@QEAAXXZ
pdata	ENDS
;	COMDAT pdata
pdata	SEGMENT
$pdata$?back@?$ImVector@UImGuiStyleMod@@@@QEAAAEAUImGuiStyleMod@@XZ DD imagerel $LN4
	DD	imagerel $LN4+109
	DD	imagerel $unwind$?back@?$ImVector@UImGuiStyleMod@@@@QEAAAEAUImGuiStyleMod@@XZ
pdata	ENDS
;	COMDAT pdata
pdata	SEGMENT
$pdata$?_grow_capacity@?$ImVector@UImGuiStyleMod@@@@QEBAHH@Z DD imagerel $LN7
	DD	imagerel $LN7+150
	DD	imagerel $unwind$?_grow_capacity@?$ImVector@UImGuiStyleMod@@@@QEBAHH@Z
pdata	ENDS
;	COMDAT pdata
pdata	SEGMENT
$pdata$?reserve@?$ImVector@UImGuiStyleMod@@@@QEAAXH@Z DD imagerel $LN5
	DD	imagerel $LN5+185
	DD	imagerel $unwind$?reserve@?$ImVector@UImGuiStyleMod@@@@QEAAXH@Z
pdata	ENDS
;	COMDAT pdata
pdata	SEGMENT
$pdata$?push_back@?$ImVector@UImGuiStyleMod@@@@QEAAXAEBUImGuiStyleMod@@@Z DD imagerel $LN4
	DD	imagerel $LN4+171
	DD	imagerel $unwind$?push_back@?$ImVector@UImGuiStyleMod@@@@QEAAXAEBUImGuiStyleMod@@@Z
pdata	ENDS
;	COMDAT pdata
pdata	SEGMENT
$pdata$?pop_back@?$ImVector@UImGuiStyleMod@@@@QEAAXXZ DD imagerel $LN4
	DD	imagerel $LN4+101
	DD	imagerel $unwind$?pop_back@?$ImVector@UImGuiStyleMod@@@@QEAAXXZ
pdata	ENDS
;	COMDAT pdata
pdata	SEGMENT
$pdata$??0?$ImVector@H@@QEAA@XZ DD imagerel $LN3
	DD	imagerel $LN3+90
	DD	imagerel $unwind$??0?$ImVector@H@@QEAA@XZ
pdata	ENDS
;	COMDAT pdata
pdata	SEGMENT
$pdata$??1?$ImVector@H@@QEAA@XZ DD imagerel $LN4
	DD	imagerel $LN4+72
	DD	imagerel $unwind$??1?$ImVector@H@@QEAA@XZ
pdata	ENDS
;	COMDAT pdata
pdata	SEGMENT
$pdata$?clear@?$ImVector@H@@QEAAXXZ DD imagerel $LN4
	DD	imagerel $LN4+113
	DD	imagerel $unwind$?clear@?$ImVector@H@@QEAAXXZ
pdata	ENDS
;	COMDAT pdata
pdata	SEGMENT
$pdata$?back@?$ImVector@H@@QEAAAEAHXZ DD imagerel $LN4
	DD	imagerel $LN4+109
	DD	imagerel $unwind$?back@?$ImVector@H@@QEAAAEAHXZ
pdata	ENDS
;	COMDAT pdata
pdata	SEGMENT
$pdata$?_grow_capacity@?$ImVector@H@@QEBAHH@Z DD imagerel $LN7
	DD	imagerel $LN7+150
	DD	imagerel $unwind$?_grow_capacity@?$ImVector@H@@QEBAHH@Z
pdata	ENDS
;	COMDAT pdata
pdata	SEGMENT
$pdata$?resize@?$ImVector@H@@QEAAXH@Z DD imagerel $LN4
	DD	imagerel $LN4+110
	DD	imagerel $unwind$?resize@?$ImVector@H@@QEAAXH@Z
pdata	ENDS
;	COMDAT pdata
pdata	SEGMENT
$pdata$?reserve@?$ImVector@H@@QEAAXH@Z DD imagerel $LN5
	DD	imagerel $LN5+185
	DD	imagerel $unwind$?reserve@?$ImVector@H@@QEAAXH@Z
pdata	ENDS
;	COMDAT pdata
pdata	SEGMENT
$pdata$?push_back@?$ImVector@H@@QEAAXAEBH@Z DD imagerel $LN4
	DD	imagerel $LN4+159
	DD	imagerel $unwind$?push_back@?$ImVector@H@@QEAAXAEBH@Z
pdata	ENDS
;	COMDAT pdata
pdata	SEGMENT
$pdata$?pop_back@?$ImVector@H@@QEAAXXZ DD imagerel $LN4
	DD	imagerel $LN4+101
	DD	imagerel $unwind$?pop_back@?$ImVector@H@@QEAAXXZ
pdata	ENDS
;	COMDAT pdata
pdata	SEGMENT
$pdata$??0?$ImVector@UImGuiGroupData@@@@QEAA@XZ DD imagerel $LN3
	DD	imagerel $LN3+90
	DD	imagerel $unwind$??0?$ImVector@UImGuiGroupData@@@@QEAA@XZ
pdata	ENDS
;	COMDAT pdata
pdata	SEGMENT
$pdata$??1?$ImVector@UImGuiGroupData@@@@QEAA@XZ DD imagerel $LN4
	DD	imagerel $LN4+72
	DD	imagerel $unwind$??1?$ImVector@UImGuiGroupData@@@@QEAA@XZ
pdata	ENDS
;	COMDAT pdata
pdata	SEGMENT
$pdata$?clear@?$ImVector@UImGuiGroupData@@@@QEAAXXZ DD imagerel $LN4
	DD	imagerel $LN4+113
	DD	imagerel $unwind$?clear@?$ImVector@UImGuiGroupData@@@@QEAAXXZ
pdata	ENDS
;	COMDAT pdata
pdata	SEGMENT
$pdata$?back@?$ImVector@UImGuiGroupData@@@@QEAAAEAUImGuiGroupData@@XZ DD imagerel $LN4
	DD	imagerel $LN4+109
	DD	imagerel $unwind$?back@?$ImVector@UImGuiGroupData@@@@QEAAAEAUImGuiGroupData@@XZ
pdata	ENDS
;	COMDAT pdata
pdata	SEGMENT
$pdata$?_grow_capacity@?$ImVector@UImGuiGroupData@@@@QEBAHH@Z DD imagerel $LN7
	DD	imagerel $LN7+150
	DD	imagerel $unwind$?_grow_capacity@?$ImVector@UImGuiGroupData@@@@QEBAHH@Z
pdata	ENDS
;	COMDAT pdata
pdata	SEGMENT
$pdata$?resize@?$ImVector@UImGuiGroupData@@@@QEAAXH@Z DD imagerel $LN4
	DD	imagerel $LN4+110
	DD	imagerel $unwind$?resize@?$ImVector@UImGuiGroupData@@@@QEAAXH@Z
pdata	ENDS
;	COMDAT pdata
pdata	SEGMENT
$pdata$?reserve@?$ImVector@UImGuiGroupData@@@@QEAAXH@Z DD imagerel $LN5
	DD	imagerel $LN5+185
	DD	imagerel $unwind$?reserve@?$ImVector@UImGuiGroupData@@@@QEAAXH@Z
pdata	ENDS
;	COMDAT pdata
pdata	SEGMENT
$pdata$?pop_back@?$ImVector@UImGuiGroupData@@@@QEAAXXZ DD imagerel $LN4
	DD	imagerel $LN4+101
	DD	imagerel $unwind$?pop_back@?$ImVector@UImGuiGroupData@@@@QEAAXXZ
pdata	ENDS
;	COMDAT pdata
pdata	SEGMENT
$pdata$??0?$ImVector@UImGuiPopupData@@@@QEAA@XZ DD imagerel $LN3
	DD	imagerel $LN3+90
	DD	imagerel $unwind$??0?$ImVector@UImGuiPopupData@@@@QEAA@XZ
pdata	ENDS
;	COMDAT pdata
pdata	SEGMENT
$pdata$??1?$ImVector@UImGuiPopupData@@@@QEAA@XZ DD imagerel $LN4
	DD	imagerel $LN4+72
	DD	imagerel $unwind$??1?$ImVector@UImGuiPopupData@@@@QEAA@XZ
pdata	ENDS
;	COMDAT pdata
pdata	SEGMENT
$pdata$?clear@?$ImVector@UImGuiPopupData@@@@QEAAXXZ DD imagerel $LN4
	DD	imagerel $LN4+113
	DD	imagerel $unwind$?clear@?$ImVector@UImGuiPopupData@@@@QEAAXXZ
pdata	ENDS
;	COMDAT pdata
pdata	SEGMENT
$pdata$??A?$ImVector@UImGuiPopupData@@@@QEAAAEAUImGuiPopupData@@H@Z DD imagerel $LN5
	DD	imagerel $LN5+121
	DD	imagerel $unwind$??A?$ImVector@UImGuiPopupData@@@@QEAAAEAUImGuiPopupData@@H@Z
pdata	ENDS
;	COMDAT pdata
pdata	SEGMENT
$pdata$?back@?$ImVector@UImGuiPopupData@@@@QEAAAEAUImGuiPopupData@@XZ DD imagerel $LN4
	DD	imagerel $LN4+109
	DD	imagerel $unwind$?back@?$ImVector@UImGuiPopupData@@@@QEAAAEAUImGuiPopupData@@XZ
pdata	ENDS
;	COMDAT pdata
pdata	SEGMENT
$pdata$?_grow_capacity@?$ImVector@UImGuiPopupData@@@@QEBAHH@Z DD imagerel $LN7
	DD	imagerel $LN7+150
	DD	imagerel $unwind$?_grow_capacity@?$ImVector@UImGuiPopupData@@@@QEBAHH@Z
pdata	ENDS
;	COMDAT pdata
pdata	SEGMENT
$pdata$?resize@?$ImVector@UImGuiPopupData@@@@QEAAXH@Z DD imagerel $LN4
	DD	imagerel $LN4+110
	DD	imagerel $unwind$?resize@?$ImVector@UImGuiPopupData@@@@QEAAXH@Z
pdata	ENDS
;	COMDAT pdata
pdata	SEGMENT
$pdata$?reserve@?$ImVector@UImGuiPopupData@@@@QEAAXH@Z DD imagerel $LN5
	DD	imagerel $LN5+185
	DD	imagerel $unwind$?reserve@?$ImVector@UImGuiPopupData@@@@QEAAXH@Z
pdata	ENDS
;	COMDAT pdata
pdata	SEGMENT
$pdata$?push_back@?$ImVector@UImGuiPopupData@@@@QEAAXAEBUImGuiPopupData@@@Z DD imagerel $LN4
	DD	imagerel $LN4+171
	DD	imagerel $unwind$?push_back@?$ImVector@UImGuiPopupData@@@@QEAAXAEBUImGuiPopupData@@@Z
pdata	ENDS
;	COMDAT pdata
pdata	SEGMENT
$pdata$?pop_back@?$ImVector@UImGuiPopupData@@@@QEAAXXZ DD imagerel $LN4
	DD	imagerel $LN4+101
	DD	imagerel $unwind$?pop_back@?$ImVector@UImGuiPopupData@@@@QEAAXXZ
pdata	ENDS
;	COMDAT pdata
pdata	SEGMENT
$pdata$??0?$ImVector@PEAUImGuiViewportP@@@@QEAA@XZ DD imagerel $LN3
	DD	imagerel $LN3+90
	DD	imagerel $unwind$??0?$ImVector@PEAUImGuiViewportP@@@@QEAA@XZ
pdata	ENDS
;	COMDAT pdata
pdata	SEGMENT
$pdata$??1?$ImVector@PEAUImGuiViewportP@@@@QEAA@XZ DD imagerel $LN4
	DD	imagerel $LN4+72
	DD	imagerel $unwind$??1?$ImVector@PEAUImGuiViewportP@@@@QEAA@XZ
pdata	ENDS
;	COMDAT pdata
pdata	SEGMENT
$pdata$?clear@?$ImVector@PEAUImGuiViewportP@@@@QEAAXXZ DD imagerel $LN4
	DD	imagerel $LN4+113
	DD	imagerel $unwind$?clear@?$ImVector@PEAUImGuiViewportP@@@@QEAAXXZ
pdata	ENDS
;	COMDAT pdata
pdata	SEGMENT
$pdata$?clear_delete@?$ImVector@PEAUImGuiViewportP@@@@QEAAXXZ DD imagerel $LN6
	DD	imagerel $LN6+110
	DD	imagerel $unwind$?clear_delete@?$ImVector@PEAUImGuiViewportP@@@@QEAAXXZ
pdata	ENDS
;	COMDAT pdata
pdata	SEGMENT
$pdata$??A?$ImVector@PEAUImGuiViewportP@@@@QEAAAEAPEAUImGuiViewportP@@H@Z DD imagerel $LN5
	DD	imagerel $LN5+121
	DD	imagerel $unwind$??A?$ImVector@PEAUImGuiViewportP@@@@QEAAAEAPEAUImGuiViewportP@@H@Z
pdata	ENDS
;	COMDAT pdata
pdata	SEGMENT
$pdata$?_grow_capacity@?$ImVector@PEAUImGuiViewportP@@@@QEBAHH@Z DD imagerel $LN7
	DD	imagerel $LN7+150
	DD	imagerel $unwind$?_grow_capacity@?$ImVector@PEAUImGuiViewportP@@@@QEBAHH@Z
pdata	ENDS
;	COMDAT pdata
pdata	SEGMENT
$pdata$?reserve@?$ImVector@PEAUImGuiViewportP@@@@QEAAXH@Z DD imagerel $LN5
	DD	imagerel $LN5+185
	DD	imagerel $unwind$?reserve@?$ImVector@PEAUImGuiViewportP@@@@QEAAXH@Z
pdata	ENDS
;	COMDAT pdata
pdata	SEGMENT
$pdata$?push_back@?$ImVector@PEAUImGuiViewportP@@@@QEAAXAEBQEAUImGuiViewportP@@@Z DD imagerel $LN4
	DD	imagerel $LN4+161
	DD	imagerel $unwind$?push_back@?$ImVector@PEAUImGuiViewportP@@@@QEAAXAEBQEAUImGuiViewportP@@@Z
pdata	ENDS
;	COMDAT pdata
pdata	SEGMENT
$pdata$??0?$ImVector@E@@QEAA@XZ DD imagerel $LN3
	DD	imagerel $LN3+90
	DD	imagerel $unwind$??0?$ImVector@E@@QEAA@XZ
pdata	ENDS
;	COMDAT pdata
pdata	SEGMENT
$pdata$??1?$ImVector@E@@QEAA@XZ DD imagerel $LN4
	DD	imagerel $LN4+72
	DD	imagerel $unwind$??1?$ImVector@E@@QEAA@XZ
pdata	ENDS
;	COMDAT pdata
pdata	SEGMENT
$pdata$?clear@?$ImVector@E@@QEAAXXZ DD imagerel $LN4
	DD	imagerel $LN4+113
	DD	imagerel $unwind$?clear@?$ImVector@E@@QEAAXXZ
pdata	ENDS
;	COMDAT pdata
pdata	SEGMENT
$pdata$?_grow_capacity@?$ImVector@E@@QEBAHH@Z DD imagerel $LN7
	DD	imagerel $LN7+150
	DD	imagerel $unwind$?_grow_capacity@?$ImVector@E@@QEBAHH@Z
pdata	ENDS
;	COMDAT pdata
pdata	SEGMENT
$pdata$?resize@?$ImVector@E@@QEAAXH@Z DD imagerel $LN4
	DD	imagerel $LN4+110
	DD	imagerel $unwind$?resize@?$ImVector@E@@QEAAXH@Z
pdata	ENDS
;	COMDAT pdata
pdata	SEGMENT
$pdata$?reserve@?$ImVector@E@@QEAAXH@Z DD imagerel $LN5
	DD	imagerel $LN5+177
	DD	imagerel $unwind$?reserve@?$ImVector@E@@QEAAXH@Z
pdata	ENDS
;	COMDAT pdata
pdata	SEGMENT
$pdata$??0?$ImVector@UImGuiTable@@@@QEAA@XZ DD imagerel $LN3
	DD	imagerel $LN3+90
	DD	imagerel $unwind$??0?$ImVector@UImGuiTable@@@@QEAA@XZ
pdata	ENDS
;	COMDAT pdata
pdata	SEGMENT
$pdata$??1?$ImVector@UImGuiTable@@@@QEAA@XZ DD imagerel $LN4
