; Listing generated by Microsoft (R) Optimizing Compiler Version 19.33.31630.0 

include listing.inc

INCLUDELIB MSVCRTD
INCLUDELIB OLDNAMES

PUBLIC	??_C@_02HJNLAKPP@S8@				; `string'
PUBLIC	??_C@_02DPKJAMEF@?$CFd@				; `string'
PUBLIC	??_C@_02HNFGHGEN@U8@				; `string'
PUBLIC	??_C@_02GMHACPFF@?$CFu@				; `string'
PUBLIC	??_C@_03KLLGJOHN@S16@				; `string'
PUBLIC	??_C@_03IONNMBKB@U16@				; `string'
PUBLIC	??_C@_03MMFOIPBH@S32@				; `string'
PUBLIC	??_C@_03OJDFNAML@U32@				; `string'
PUBLIC	??_C@_03JMMPOKHK@S64@				; `string'
PUBLIC	??_C@_05LLAMLEHD@?$CFI64d@			; `string'
PUBLIC	??_C@_03LJKELFKG@U64@				; `string'
PUBLIC	??_C@_05OINFJHGD@?$CFI64u@			; `string'
PUBLIC	??_C@_05KNFBNCOH@float@				; `string'
PUBLIC	??_C@_04GFJLOHHD@?$CF?43f@			; `string'
PUBLIC	??_C@_02NJPGOMH@?$CFf@				; `string'
PUBLIC	??_C@_06BNJCAIGJ@double@			; `string'
PUBLIC	??_C@_03DLDNIBIK@?$CFlf@			; `string'
PUBLIC	??_C@_03CEFFAPNG@?$CD?$CDX@			; `string'
PUBLIC	??_C@_03DNEODOJH@?$CD?$CDY@			; `string'
PUBLIC	??_C@_03BGGDGNFE@?$CD?$CDZ@			; `string'
PUBLIC	??_C@_03KDMNBDBJ@?$CD?$CDW@			; `string'
PUBLIC	??_C@_03GOOLIKIF@?$CF3d@			; `string'
PUBLIC	??_C@_05FELKPNOB@R?3?$CF3d@			; `string'
PUBLIC	??_C@_05HKBGOMJ@G?3?$CF3d@			; `string'
PUBLIC	??_C@_05FHGMPPHK@B?3?$CF3d@			; `string'
PUBLIC	??_C@_05NBPIINNE@A?3?$CF3d@			; `string'
PUBLIC	??_C@_05PGPHNMBM@H?3?$CF3d@			; `string'
PUBLIC	??_C@_05JPOGCOEE@S?3?$CF3d@			; `string'
PUBLIC	??_C@_05MPCLLPPH@V?3?$CF3d@			; `string'
PUBLIC	??_C@_05ONBKDNLK@?$CF0?43f@			; `string'
PUBLIC	??_C@_07CCOKENNH@R?3?$CF0?43f@			; `string'
PUBLIC	??_C@_07BGLBHCJI@G?3?$CF0?43f@			; `string'
PUBLIC	??_C@_07FOFBHMPM@B?3?$CF0?43f@			; `string'
PUBLIC	??_C@_07NANOHLBP@A?3?$CF0?43f@			; `string'
PUBLIC	??_C@_07MPJBGADE@H?3?$CF0?43f@			; `string'
PUBLIC	??_C@_07OOEAENEJ@S?3?$CF0?43f@			; `string'
PUBLIC	??_C@_07KGKAEDCN@V?3?$CF0?43f@			; `string'
msvcjmc	SEGMENT
__A52B8F80_imconfig@h DB 01H
__529D0EAA_concurrencysal@h DB 01H
__7EC34687_sal@h DB 01H
__35A2D2DF_vadefs@h DB 01H
__5F022EB5_vcruntime@h DB 01H
__1B0272D9_corecrt@h DB 01H
__B9985323_float@h DB 01H
__79700276_stdarg@h DB 01H
__13F5961F_stddef@h DB 01H
__61CC25A1_errno@h DB 01H
__74AC4223_vcruntime_string@h DB 01H
__E4C945B4_corecrt_memcpy_s@h DB 01H
__8EAFF484_corecrt_memory@h DB 01H
__6490AEC5_corecrt_wstring@h DB 01H
__E8295E1E_string@h DB 01H
__19139D6C_assert@h DB 01H
__21D911DF_imgui@h DB 01H
__44420885_corecrt_stdio_config@h DB 01H
__AB601D8D_corecrt_wstdio@h DB 01H
__C1EC35D3_stdio@h DB 01H
__45DED006_corecrt_malloc@h DB 01H
__FD6DBD68_corecrt_search@h DB 01H
__E2E33A61_corecrt_wstdlib@h DB 01H
__F3D99286_limits@h DB 01H
__6E5ACABA_stdlib@h DB 01H
__BB16330F_corecrt_math@h DB 01H
__3BF2A406_math@h DB 01H
__F75BE1FA_mmintrin@h DB 01H
__FA77ED4C_malloc@h DB 01H
__DFD742E1_xmmintrin@h DB 01H
__BAB5CB2D_emmintrin@h DB 01H
__6514A3A4_pmmintrin@h DB 01H
__D5CDD026_tmmintrin@h DB 01H
__FCF6C5A5_smmintrin@h DB 01H
__99944C69_nmmintrin@h DB 01H
__4C2FB627_wmmintrin@h DB 01H
__87BBFB20_zmmintrin@h DB 01H
__B0AF59EA_immintrin@h DB 01H
__40756020_imstb_textedit@h DB 01H
__D68E48C9_imgui_internal@h DB 01H
__74484FB3_corecrt_wctype@h DB 01H
__1EC467ED_ctype@h DB 01H
__4DAFBCB9_stdint@h DB 01H
__938265FB_imgui_widgets@cpp DB 01H
msvcjmc	ENDS
;	COMDAT ??_C@_07KGKAEDCN@V?3?$CF0?43f@
CONST	SEGMENT
??_C@_07KGKAEDCN@V?3?$CF0?43f@ DB 'V:%0.3f', 00H	; `string'
CONST	ENDS
;	COMDAT ??_C@_07OOEAENEJ@S?3?$CF0?43f@
CONST	SEGMENT
??_C@_07OOEAENEJ@S?3?$CF0?43f@ DB 'S:%0.3f', 00H	; `string'
CONST	ENDS
;	COMDAT ??_C@_07MPJBGADE@H?3?$CF0?43f@
CONST	SEGMENT
??_C@_07MPJBGADE@H?3?$CF0?43f@ DB 'H:%0.3f', 00H	; `string'
CONST	ENDS
;	COMDAT ??_C@_07NANOHLBP@A?3?$CF0?43f@
CONST	SEGMENT
??_C@_07NANOHLBP@A?3?$CF0?43f@ DB 'A:%0.3f', 00H	; `string'
CONST	ENDS
;	COMDAT ??_C@_07FOFBHMPM@B?3?$CF0?43f@
CONST	SEGMENT
??_C@_07FOFBHMPM@B?3?$CF0?43f@ DB 'B:%0.3f', 00H	; `string'
CONST	ENDS
;	COMDAT ??_C@_07BGLBHCJI@G?3?$CF0?43f@
CONST	SEGMENT
??_C@_07BGLBHCJI@G?3?$CF0?43f@ DB 'G:%0.3f', 00H	; `string'
CONST	ENDS
;	COMDAT ??_C@_07CCOKENNH@R?3?$CF0?43f@
CONST	SEGMENT
??_C@_07CCOKENNH@R?3?$CF0?43f@ DB 'R:%0.3f', 00H	; `string'
CONST	ENDS
;	COMDAT ??_C@_05ONBKDNLK@?$CF0?43f@
CONST	SEGMENT
??_C@_05ONBKDNLK@?$CF0?43f@ DB '%0.3f', 00H		; `string'
CONST	ENDS
;	COMDAT ??_C@_05MPCLLPPH@V?3?$CF3d@
CONST	SEGMENT
??_C@_05MPCLLPPH@V?3?$CF3d@ DB 'V:%3d', 00H		; `string'
CONST	ENDS
;	COMDAT ??_C@_05JPOGCOEE@S?3?$CF3d@
CONST	SEGMENT
??_C@_05JPOGCOEE@S?3?$CF3d@ DB 'S:%3d', 00H		; `string'
CONST	ENDS
;	COMDAT ??_C@_05PGPHNMBM@H?3?$CF3d@
CONST	SEGMENT
??_C@_05PGPHNMBM@H?3?$CF3d@ DB 'H:%3d', 00H		; `string'
CONST	ENDS
;	COMDAT ??_C@_05NBPIINNE@A?3?$CF3d@
CONST	SEGMENT
??_C@_05NBPIINNE@A?3?$CF3d@ DB 'A:%3d', 00H		; `string'
CONST	ENDS
;	COMDAT ??_C@_05FHGMPPHK@B?3?$CF3d@
CONST	SEGMENT
??_C@_05FHGMPPHK@B?3?$CF3d@ DB 'B:%3d', 00H		; `string'
CONST	ENDS
;	COMDAT ??_C@_05HKBGOMJ@G?3?$CF3d@
CONST	SEGMENT
??_C@_05HKBGOMJ@G?3?$CF3d@ DB 'G:%3d', 00H		; `string'
CONST	ENDS
;	COMDAT ??_C@_05FELKPNOB@R?3?$CF3d@
CONST	SEGMENT
??_C@_05FELKPNOB@R?3?$CF3d@ DB 'R:%3d', 00H		; `string'
CONST	ENDS
;	COMDAT ??_C@_03GOOLIKIF@?$CF3d@
CONST	SEGMENT
??_C@_03GOOLIKIF@?$CF3d@ DB '%3d', 00H			; `string'
CONST	ENDS
;	COMDAT ??_C@_03KDMNBDBJ@?$CD?$CDW@
CONST	SEGMENT
??_C@_03KDMNBDBJ@?$CD?$CDW@ DB '##W', 00H		; `string'
CONST	ENDS
;	COMDAT ??_C@_03BGGDGNFE@?$CD?$CDZ@
CONST	SEGMENT
??_C@_03BGGDGNFE@?$CD?$CDZ@ DB '##Z', 00H		; `string'
CONST	ENDS
;	COMDAT ??_C@_03DNEODOJH@?$CD?$CDY@
CONST	SEGMENT
??_C@_03DNEODOJH@?$CD?$CDY@ DB '##Y', 00H		; `string'
CONST	ENDS
;	COMDAT ??_C@_03CEFFAPNG@?$CD?$CDX@
CONST	SEGMENT
??_C@_03CEFFAPNG@?$CD?$CDX@ DB '##X', 00H		; `string'
CONST	ENDS
;	COMDAT ??_C@_03DLDNIBIK@?$CFlf@
CONST	SEGMENT
??_C@_03DLDNIBIK@?$CFlf@ DB '%lf', 00H			; `string'
CONST	ENDS
;	COMDAT ??_C@_06BNJCAIGJ@double@
CONST	SEGMENT
??_C@_06BNJCAIGJ@double@ DB 'double', 00H		; `string'
CONST	ENDS
;	COMDAT ??_C@_02NJPGOMH@?$CFf@
CONST	SEGMENT
??_C@_02NJPGOMH@?$CFf@ DB '%f', 00H			; `string'
CONST	ENDS
;	COMDAT ??_C@_04GFJLOHHD@?$CF?43f@
CONST	SEGMENT
??_C@_04GFJLOHHD@?$CF?43f@ DB '%.3f', 00H		; `string'
CONST	ENDS
;	COMDAT ??_C@_05KNFBNCOH@float@
CONST	SEGMENT
??_C@_05KNFBNCOH@float@ DB 'float', 00H			; `string'
CONST	ENDS
;	COMDAT ??_C@_05OINFJHGD@?$CFI64u@
CONST	SEGMENT
??_C@_05OINFJHGD@?$CFI64u@ DB '%I64u', 00H		; `string'
CONST	ENDS
;	COMDAT ??_C@_03LJKELFKG@U64@
CONST	SEGMENT
??_C@_03LJKELFKG@U64@ DB 'U64', 00H			; `string'
CONST	ENDS
;	COMDAT ??_C@_05LLAMLEHD@?$CFI64d@
CONST	SEGMENT
??_C@_05LLAMLEHD@?$CFI64d@ DB '%I64d', 00H		; `string'
CONST	ENDS
;	COMDAT ??_C@_03JMMPOKHK@S64@
CONST	SEGMENT
??_C@_03JMMPOKHK@S64@ DB 'S64', 00H			; `string'
CONST	ENDS
;	COMDAT ??_C@_03OJDFNAML@U32@
CONST	SEGMENT
??_C@_03OJDFNAML@U32@ DB 'U32', 00H			; `string'
CONST	ENDS
;	COMDAT ??_C@_03MMFOIPBH@S32@
CONST	SEGMENT
??_C@_03MMFOIPBH@S32@ DB 'S32', 00H			; `string'
CONST	ENDS
;	COMDAT ??_C@_03IONNMBKB@U16@
CONST	SEGMENT
??_C@_03IONNMBKB@U16@ DB 'U16', 00H			; `string'
CONST	ENDS
;	COMDAT ??_C@_03KLLGJOHN@S16@
CONST	SEGMENT
??_C@_03KLLGJOHN@S16@ DB 'S16', 00H			; `string'
CONST	ENDS
;	COMDAT ??_C@_02GMHACPFF@?$CFu@
CONST	SEGMENT
??_C@_02GMHACPFF@?$CFu@ DB '%u', 00H			; `string'
CONST	ENDS
;	COMDAT ??_C@_02HNFGHGEN@U8@
CONST	SEGMENT
??_C@_02HNFGHGEN@U8@ DB 'U8', 00H			; `string'
CONST	ENDS
;	COMDAT ??_C@_02DPKJAMEF@?$CFd@
CONST	SEGMENT
??_C@_02DPKJAMEF@?$CFd@ DB '%d', 00H			; `string'
CONST	ENDS
;	COMDAT ??_C@_02HJNLAKPP@S8@
CONST	SEGMENT
??_C@_02HJNLAKPP@S8@ DB 'S8', 00H			; `string'
CONST	ENDS
CONST	SEGMENT
?GDataTypeInfo@@3QBUImGuiDataTypeInfo@@B DQ 0000000000000001H ; GDataTypeInfo
	DQ	FLAT:??_C@_02HJNLAKPP@S8@
	DQ	FLAT:??_C@_02DPKJAMEF@?$CFd@
	DQ	FLAT:??_C@_02DPKJAMEF@?$CFd@
	DQ	0000000000000001H
	DQ	FLAT:??_C@_02HNFGHGEN@U8@
	DQ	FLAT:??_C@_02GMHACPFF@?$CFu@
	DQ	FLAT:??_C@_02GMHACPFF@?$CFu@
	DQ	0000000000000002H
	DQ	FLAT:??_C@_03KLLGJOHN@S16@
	DQ	FLAT:??_C@_02DPKJAMEF@?$CFd@
	DQ	FLAT:??_C@_02DPKJAMEF@?$CFd@
	DQ	0000000000000002H
	DQ	FLAT:??_C@_03IONNMBKB@U16@
	DQ	FLAT:??_C@_02GMHACPFF@?$CFu@
	DQ	FLAT:??_C@_02GMHACPFF@?$CFu@
	DQ	0000000000000004H
	DQ	FLAT:??_C@_03MMFOIPBH@S32@
	DQ	FLAT:??_C@_02DPKJAMEF@?$CFd@
	DQ	FLAT:??_C@_02DPKJAMEF@?$CFd@
	DQ	0000000000000004H
	DQ	FLAT:??_C@_03OJDFNAML@U32@
	DQ	FLAT:??_C@_02GMHACPFF@?$CFu@
	DQ	FLAT:??_C@_02GMHACPFF@?$CFu@
	DQ	0000000000000008H
	DQ	FLAT:??_C@_03JMMPOKHK@S64@
	DQ	FLAT:??_C@_05LLAMLEHD@?$CFI64d@
	DQ	FLAT:??_C@_05LLAMLEHD@?$CFI64d@
	DQ	0000000000000008H
	DQ	FLAT:??_C@_03LJKELFKG@U64@
	DQ	FLAT:??_C@_05OINFJHGD@?$CFI64u@
	DQ	FLAT:??_C@_05OINFJHGD@?$CFI64u@
	DQ	0000000000000004H
	DQ	FLAT:??_C@_05KNFBNCOH@float@
	DQ	FLAT:??_C@_04GFJLOHHD@?$CF?43f@
	DQ	FLAT:??_C@_02NJPGOMH@?$CFf@
	DQ	0000000000000008H
	DQ	FLAT:??_C@_06BNJCAIGJ@double@
	DQ	FLAT:??_C@_02NJPGOMH@?$CFf@
	DQ	FLAT:??_C@_03DLDNIBIK@?$CFlf@
?min_steps@?1??GetMinimumStepAtDecimalPrecision@@YAMH@Z@4QBMB DD 03f800000r ; 1 ; `GetMinimumStepAtDecimalPrecision'::`2'::min_steps
	DD	03dcccccdr			; 0.1
	DD	03c23d70ar			; 0.01
	DD	03a83126fr			; 0.001
	DD	038d1b717r			; 0.0001
	DD	03727c5acr			; 1e-05
	DD	0358637bdr			; 1e-06
	DD	033d6bf95r			; 1e-07
	DD	0322bcc77r			; 1e-08
	DD	03089705fr			; 1e-09
CONST	ENDS
PUBLIC	??_H@YAXPEAX_K1P6APEAX0@Z@Z			; `vector constructor iterator'
PUBLIC	??0ImVec2@@QEAA@XZ				; ImVec2::ImVec2
PUBLIC	??0ImVec2@@QEAA@MM@Z				; ImVec2::ImVec2
PUBLIC	??AImVec2@@QEBAM_K@Z				; ImVec2::operator[]
PUBLIC	??AImVec2@@QEAAAEAM_K@Z				; ImVec2::operator[]
PUBLIC	??0ImVec4@@QEAA@XZ				; ImVec4::ImVec4
PUBLIC	??0ImVec4@@QEAA@MMMM@Z				; ImVec4::ImVec4
PUBLIC	?Separator@ImGui@@YAXXZ				; ImGui::Separator
PUBLIC	?NewLine@ImGui@@YAXXZ				; ImGui::NewLine
PUBLIC	?Spacing@ImGui@@YAXXZ				; ImGui::Spacing
PUBLIC	?Dummy@ImGui@@YAXAEBUImVec2@@@Z			; ImGui::Dummy
PUBLIC	?AlignTextToFramePadding@ImGui@@YAXXZ		; ImGui::AlignTextToFramePadding
PUBLIC	?TextUnformatted@ImGui@@YAXPEBD0@Z		; ImGui::TextUnformatted
PUBLIC	?Text@ImGui@@YAXPEBDZZ				; ImGui::Text
PUBLIC	?TextV@ImGui@@YAXPEBDPEAD@Z			; ImGui::TextV
PUBLIC	?TextColored@ImGui@@YAXAEBUImVec4@@PEBDZZ	; ImGui::TextColored
PUBLIC	?TextColoredV@ImGui@@YAXAEBUImVec4@@PEBDPEAD@Z	; ImGui::TextColoredV
PUBLIC	?TextDisabled@ImGui@@YAXPEBDZZ			; ImGui::TextDisabled
PUBLIC	?TextDisabledV@ImGui@@YAXPEBDPEAD@Z		; ImGui::TextDisabledV
PUBLIC	?TextWrapped@ImGui@@YAXPEBDZZ			; ImGui::TextWrapped
PUBLIC	?TextWrappedV@ImGui@@YAXPEBDPEAD@Z		; ImGui::TextWrappedV
PUBLIC	?LabelText@ImGui@@YAXPEBD0ZZ			; ImGui::LabelText
PUBLIC	?LabelTextV@ImGui@@YAXPEBD0PEAD@Z		; ImGui::LabelTextV
PUBLIC	?BulletText@ImGui@@YAXPEBDZZ			; ImGui::BulletText
PUBLIC	?BulletTextV@ImGui@@YAXPEBDPEAD@Z		; ImGui::BulletTextV
PUBLIC	?Button@ImGui@@YA_NPEBDAEBUImVec2@@@Z		; ImGui::Button
PUBLIC	?SmallButton@ImGui@@YA_NPEBD@Z			; ImGui::SmallButton
PUBLIC	?InvisibleButton@ImGui@@YA_NPEBDAEBUImVec2@@H@Z	; ImGui::InvisibleButton
PUBLIC	?ArrowButton@ImGui@@YA_NPEBDH@Z			; ImGui::ArrowButton
PUBLIC	?Image@ImGui@@YAXPEAXAEBUImVec2@@11AEBUImVec4@@2@Z ; ImGui::Image
PUBLIC	?ImageButton@ImGui@@YA_NPEAXAEBUImVec2@@11HAEBUImVec4@@2@Z ; ImGui::ImageButton
PUBLIC	?Checkbox@ImGui@@YA_NPEBDPEA_N@Z		; ImGui::Checkbox
PUBLIC	?CheckboxFlags@ImGui@@YA_NPEBDPEAHH@Z		; ImGui::CheckboxFlags
PUBLIC	?CheckboxFlags@ImGui@@YA_NPEBDPEAII@Z		; ImGui::CheckboxFlags
PUBLIC	?RadioButton@ImGui@@YA_NPEBD_N@Z		; ImGui::RadioButton
PUBLIC	?RadioButton@ImGui@@YA_NPEBDPEAHH@Z		; ImGui::RadioButton
PUBLIC	?ProgressBar@ImGui@@YAXMAEBUImVec2@@PEBD@Z	; ImGui::ProgressBar
PUBLIC	?Bullet@ImGui@@YAXXZ				; ImGui::Bullet
PUBLIC	?BeginCombo@ImGui@@YA_NPEBD0H@Z			; ImGui::BeginCombo
PUBLIC	?EndCombo@ImGui@@YAXXZ				; ImGui::EndCombo
PUBLIC	?Combo@ImGui@@YA_NPEBDPEAHQEBQEBDHH@Z		; ImGui::Combo
PUBLIC	?Combo@ImGui@@YA_NPEBDPEAH0H@Z			; ImGui::Combo
PUBLIC	?Combo@ImGui@@YA_NPEBDPEAHP6A_NPEAXHPEAPEBD@Z2HH@Z ; ImGui::Combo
PUBLIC	?DragFloat@ImGui@@YA_NPEBDPEAMMMM0H@Z		; ImGui::DragFloat
PUBLIC	?DragFloat2@ImGui@@YA_NPEBDQEAMMMM0H@Z		; ImGui::DragFloat2
PUBLIC	?DragFloat3@ImGui@@YA_NPEBDQEAMMMM0H@Z		; ImGui::DragFloat3
PUBLIC	?DragFloat4@ImGui@@YA_NPEBDQEAMMMM0H@Z		; ImGui::DragFloat4
PUBLIC	?DragFloatRange2@ImGui@@YA_NPEBDPEAM1MMM00H@Z	; ImGui::DragFloatRange2
PUBLIC	?DragInt@ImGui@@YA_NPEBDPEAHMHH0H@Z		; ImGui::DragInt
PUBLIC	?DragInt2@ImGui@@YA_NPEBDQEAHMHH0H@Z		; ImGui::DragInt2
PUBLIC	?DragInt3@ImGui@@YA_NPEBDQEAHMHH0H@Z		; ImGui::DragInt3
PUBLIC	?DragInt4@ImGui@@YA_NPEBDQEAHMHH0H@Z		; ImGui::DragInt4
PUBLIC	?DragIntRange2@ImGui@@YA_NPEBDPEAH1MHH00H@Z	; ImGui::DragIntRange2
PUBLIC	?DragScalar@ImGui@@YA_NPEBDHPEAXMPEBX20H@Z	; ImGui::DragScalar
PUBLIC	?DragScalarN@ImGui@@YA_NPEBDHPEAXHMPEBX20H@Z	; ImGui::DragScalarN
PUBLIC	?SliderFloat@ImGui@@YA_NPEBDPEAMMM0H@Z		; ImGui::SliderFloat
PUBLIC	?SliderFloat2@ImGui@@YA_NPEBDQEAMMM0H@Z		; ImGui::SliderFloat2
PUBLIC	?SliderFloat3@ImGui@@YA_NPEBDQEAMMM0H@Z		; ImGui::SliderFloat3
PUBLIC	?SliderFloat4@ImGui@@YA_NPEBDQEAMMM0H@Z		; ImGui::SliderFloat4
PUBLIC	?SliderAngle@ImGui@@YA_NPEBDPEAMMM0H@Z		; ImGui::SliderAngle
PUBLIC	?SliderInt@ImGui@@YA_NPEBDPEAHHH0H@Z		; ImGui::SliderInt
PUBLIC	?SliderInt2@ImGui@@YA_NPEBDQEAHHH0H@Z		; ImGui::SliderInt2
PUBLIC	?SliderInt3@ImGui@@YA_NPEBDQEAHHH0H@Z		; ImGui::SliderInt3
PUBLIC	?SliderInt4@ImGui@@YA_NPEBDQEAHHH0H@Z		; ImGui::SliderInt4
PUBLIC	?SliderScalar@ImGui@@YA_NPEBDHPEAXPEBX20H@Z	; ImGui::SliderScalar
PUBLIC	?SliderScalarN@ImGui@@YA_NPEBDHPEAXHPEBX20H@Z	; ImGui::SliderScalarN
PUBLIC	?VSliderFloat@ImGui@@YA_NPEBDAEBUImVec2@@PEAMMM0H@Z ; ImGui::VSliderFloat
PUBLIC	?VSliderInt@ImGui@@YA_NPEBDAEBUImVec2@@PEAHHH0H@Z ; ImGui::VSliderInt
PUBLIC	?VSliderScalar@ImGui@@YA_NPEBDAEBUImVec2@@HPEAXPEBX30H@Z ; ImGui::VSliderScalar
PUBLIC	?InputText@ImGui@@YA_NPEBDPEAD_KHP6AHPEAUImGuiInputTextCallbackData@@@ZPEAX@Z ; ImGui::InputText
PUBLIC	?InputTextMultiline@ImGui@@YA_NPEBDPEAD_KAEBUImVec2@@HP6AHPEAUImGuiInputTextCallbackData@@@ZPEAX@Z ; ImGui::InputTextMultiline
PUBLIC	?InputTextWithHint@ImGui@@YA_NPEBD0PEAD_KHP6AHPEAUImGuiInputTextCallbackData@@@ZPEAX@Z ; ImGui::InputTextWithHint
PUBLIC	?InputFloat@ImGui@@YA_NPEBDPEAMMM0H@Z		; ImGui::InputFloat
PUBLIC	?InputFloat2@ImGui@@YA_NPEBDQEAM0H@Z		; ImGui::InputFloat2
PUBLIC	?InputFloat3@ImGui@@YA_NPEBDQEAM0H@Z		; ImGui::InputFloat3
PUBLIC	?InputFloat4@ImGui@@YA_NPEBDQEAM0H@Z		; ImGui::InputFloat4
PUBLIC	?InputInt@ImGui@@YA_NPEBDPEAHHHH@Z		; ImGui::InputInt
PUBLIC	?InputInt2@ImGui@@YA_NPEBDQEAHH@Z		; ImGui::InputInt2
PUBLIC	?InputInt3@ImGui@@YA_NPEBDQEAHH@Z		; ImGui::InputInt3
PUBLIC	?InputInt4@ImGui@@YA_NPEBDQEAHH@Z		; ImGui::InputInt4
PUBLIC	?InputDouble@ImGui@@YA_NPEBDPEANNN0H@Z		; ImGui::InputDouble
PUBLIC	?InputScalar@ImGui@@YA_NPEBDHPEAXPEBX20H@Z	; ImGui::InputScalar
PUBLIC	?InputScalarN@ImGui@@YA_NPEBDHPEAXHPEBX20H@Z	; ImGui::InputScalarN
PUBLIC	?ColorEdit3@ImGui@@YA_NPEBDQEAMH@Z		; ImGui::ColorEdit3
PUBLIC	?ColorEdit4@ImGui@@YA_NPEBDQEAMH@Z		; ImGui::ColorEdit4
PUBLIC	?ColorPicker3@ImGui@@YA_NPEBDQEAMH@Z		; ImGui::ColorPicker3
PUBLIC	?ColorPicker4@ImGui@@YA_NPEBDQEAMHPEBM@Z	; ImGui::ColorPicker4
PUBLIC	?ColorButton@ImGui@@YA_NPEBDAEBUImVec4@@HUImVec2@@@Z ; ImGui::ColorButton
PUBLIC	?SetColorEditOptions@ImGui@@YAXH@Z		; ImGui::SetColorEditOptions
PUBLIC	?TreeNode@ImGui@@YA_NPEBD@Z			; ImGui::TreeNode
PUBLIC	?TreeNode@ImGui@@YA_NPEBD0ZZ			; ImGui::TreeNode
PUBLIC	?TreeNode@ImGui@@YA_NPEBXPEBDZZ			; ImGui::TreeNode
PUBLIC	?TreeNodeV@ImGui@@YA_NPEBD0PEAD@Z		; ImGui::TreeNodeV
PUBLIC	?TreeNodeV@ImGui@@YA_NPEBXPEBDPEAD@Z		; ImGui::TreeNodeV
PUBLIC	?TreeNodeEx@ImGui@@YA_NPEBDH@Z			; ImGui::TreeNodeEx
PUBLIC	?TreeNodeEx@ImGui@@YA_NPEBDH0ZZ			; ImGui::TreeNodeEx
PUBLIC	?TreeNodeEx@ImGui@@YA_NPEBXHPEBDZZ		; ImGui::TreeNodeEx
PUBLIC	?TreeNodeExV@ImGui@@YA_NPEBDH0PEAD@Z		; ImGui::TreeNodeExV
PUBLIC	?TreeNodeExV@ImGui@@YA_NPEBXHPEBDPEAD@Z		; ImGui::TreeNodeExV
PUBLIC	?TreePush@ImGui@@YAXPEBD@Z			; ImGui::TreePush
PUBLIC	?TreePush@ImGui@@YAXPEBX@Z			; ImGui::TreePush
PUBLIC	?TreePop@ImGui@@YAXXZ				; ImGui::TreePop
PUBLIC	?GetTreeNodeToLabelSpacing@ImGui@@YAMXZ		; ImGui::GetTreeNodeToLabelSpacing
PUBLIC	?CollapsingHeader@ImGui@@YA_NPEBDH@Z		; ImGui::CollapsingHeader
PUBLIC	?CollapsingHeader@ImGui@@YA_NPEBDPEA_NH@Z	; ImGui::CollapsingHeader
PUBLIC	?SetNextItemOpen@ImGui@@YAX_NH@Z		; ImGui::SetNextItemOpen
PUBLIC	?Selectable@ImGui@@YA_NPEBD_NHAEBUImVec2@@@Z	; ImGui::Selectable
PUBLIC	?Selectable@ImGui@@YA_NPEBDPEA_NHAEBUImVec2@@@Z	; ImGui::Selectable
PUBLIC	?BeginListBox@ImGui@@YA_NPEBDAEBUImVec2@@@Z	; ImGui::BeginListBox
PUBLIC	?EndListBox@ImGui@@YAXXZ			; ImGui::EndListBox
PUBLIC	?ListBox@ImGui@@YA_NPEBDPEAHQEBQEBDHH@Z		; ImGui::ListBox
PUBLIC	?ListBox@ImGui@@YA_NPEBDPEAHP6A_NPEAXHPEAPEBD@Z2HH@Z ; ImGui::ListBox
PUBLIC	?PlotLines@ImGui@@YAXPEBDPEBMHH0MMUImVec2@@H@Z	; ImGui::PlotLines
PUBLIC	?PlotLines@ImGui@@YAXPEBDP6AMPEAXH@Z1HH0MMUImVec2@@@Z ; ImGui::PlotLines
PUBLIC	?PlotHistogram@ImGui@@YAXPEBDPEBMHH0MMUImVec2@@H@Z ; ImGui::PlotHistogram
PUBLIC	?PlotHistogram@ImGui@@YAXPEBDP6AMPEAXH@Z1HH0MMUImVec2@@@Z ; ImGui::PlotHistogram
PUBLIC	?Value@ImGui@@YAXPEBD_N@Z			; ImGui::Value
PUBLIC	?Value@ImGui@@YAXPEBDH@Z			; ImGui::Value
PUBLIC	?Value@ImGui@@YAXPEBDI@Z			; ImGui::Value
PUBLIC	?Value@ImGui@@YAXPEBDM0@Z			; ImGui::Value
PUBLIC	?BeginMenuBar@ImGui@@YA_NXZ			; ImGui::BeginMenuBar
PUBLIC	?EndMenuBar@ImGui@@YAXXZ			; ImGui::EndMenuBar
PUBLIC	?BeginMainMenuBar@ImGui@@YA_NXZ			; ImGui::BeginMainMenuBar
PUBLIC	?EndMainMenuBar@ImGui@@YAXXZ			; ImGui::EndMainMenuBar
PUBLIC	?BeginMenu@ImGui@@YA_NPEBD_N@Z			; ImGui::BeginMenu
PUBLIC	?EndMenu@ImGui@@YAXXZ				; ImGui::EndMenu
PUBLIC	?MenuItem@ImGui@@YA_NPEBD0_N1@Z			; ImGui::MenuItem
PUBLIC	?MenuItem@ImGui@@YA_NPEBD0PEA_N_N@Z		; ImGui::MenuItem
PUBLIC	?BeginTabBar@ImGui@@YA_NPEBDH@Z			; ImGui::BeginTabBar
PUBLIC	?EndTabBar@ImGui@@YAXXZ				; ImGui::EndTabBar
PUBLIC	?BeginTabItem@ImGui@@YA_NPEBDPEA_NH@Z		; ImGui::BeginTabItem
PUBLIC	?EndTabItem@ImGui@@YAXXZ			; ImGui::EndTabItem
PUBLIC	?TabItemButton@ImGui@@YA_NPEBDH@Z		; ImGui::TabItemButton
PUBLIC	?SetTabItemClosed@ImGui@@YAXPEBD@Z		; ImGui::SetTabItemClosed
PUBLIC	??2@YAPEAX_KUImNewWrapper@@PEAX@Z		; operator new
PUBLIC	??3@YAXPEAXUImNewWrapper@@0@Z			; operator delete
PUBLIC	??0?$ImVector@G@@QEAA@XZ			; ImVector<unsigned short>::ImVector<unsigned short>
PUBLIC	??1?$ImVector@G@@QEAA@XZ			; ImVector<unsigned short>::~ImVector<unsigned short>
PUBLIC	?empty@?$ImVector@G@@QEBA_NXZ			; ImVector<unsigned short>::empty
PUBLIC	??A?$ImVector@G@@QEAAAEAGH@Z			; ImVector<unsigned short>::operator[]
PUBLIC	??A?$ImVector@G@@QEBAAEBGH@Z			; ImVector<unsigned short>::operator[]
PUBLIC	?_grow_capacity@?$ImVector@G@@QEBAHH@Z		; ImVector<unsigned short>::_grow_capacity
PUBLIC	?resize@?$ImVector@G@@QEAAXH@Z			; ImVector<unsigned short>::resize
PUBLIC	?reserve@?$ImVector@G@@QEAAXH@Z			; ImVector<unsigned short>::reserve
PUBLIC	?contains@?$ImVector@G@@QEBA_NAEBG@Z		; ImVector<unsigned short>::contains
PUBLIC	??0ImGuiInputTextCallbackData@@QEAA@XZ		; ImGuiInputTextCallbackData::ImGuiInputTextCallbackData
PUBLIC	?DeleteChars@ImGuiInputTextCallbackData@@QEAAXHH@Z ; ImGuiInputTextCallbackData::DeleteChars
PUBLIC	?InsertChars@ImGuiInputTextCallbackData@@QEAAXHPEBD0@Z ; ImGuiInputTextCallbackData::InsertChars
PUBLIC	??0?$ImVector@D@@QEAA@XZ			; ImVector<char>::ImVector<char>
PUBLIC	?_grow_capacity@?$ImVector@D@@QEBAHH@Z		; ImVector<char>::_grow_capacity
PUBLIC	?resize@?$ImVector@D@@QEAAXH@Z			; ImVector<char>::resize
PUBLIC	?reserve@?$ImVector@D@@QEAAXH@Z			; ImVector<char>::reserve
PUBLIC	??0ImGuiTextBuffer@@QEAA@XZ			; ImGuiTextBuffer::ImGuiTextBuffer
PUBLIC	?size@ImGuiTextBuffer@@QEBAHXZ			; ImGuiTextBuffer::size
PUBLIC	??A?$ImVector@UImDrawCmd@@@@QEAAAEAUImDrawCmd@@H@Z ; ImVector<ImDrawCmd>::operator[]
PUBLIC	?_grow_capacity@?$ImVector@UImVec2@@@@QEBAHH@Z	; ImVector<ImVec2>::_grow_capacity
PUBLIC	?reserve@?$ImVector@UImVec2@@@@QEAAXH@Z		; ImVector<ImVec2>::reserve
PUBLIC	?push_back@?$ImVector@UImVec2@@@@QEAAXAEBUImVec2@@@Z ; ImVector<ImVec2>::push_back
PUBLIC	?PathLineTo@ImDrawList@@QEAAXAEBUImVec2@@@Z	; ImDrawList::PathLineTo
PUBLIC	?PathFillConvex@ImDrawList@@QEAAXI@Z		; ImDrawList::PathFillConvex
PUBLIC	?PathStroke@ImDrawList@@QEAAXIHM@Z		; ImDrawList::PathStroke
PUBLIC	?PrimWriteVtx@ImDrawList@@QEAAXAEBUImVec2@@0I@Z	; ImDrawList::PrimWriteVtx
PUBLIC	?PrimWriteIdx@ImDrawList@@QEAAXG@Z		; ImDrawList::PrimWriteIdx
PUBLIC	?PrimVtx@ImDrawList@@QEAAXAEBUImVec2@@0I@Z	; ImDrawList::PrimVtx
PUBLIC	?back@?$ImVector@I@@QEAAAEAIXZ			; ImVector<unsigned int>::back
PUBLIC	?_grow_capacity@?$ImVector@I@@QEBAHH@Z		; ImVector<unsigned int>::_grow_capacity
PUBLIC	?reserve@?$ImVector@I@@QEAAXH@Z			; ImVector<unsigned int>::reserve
PUBLIC	?push_back@?$ImVector@I@@QEAAXAEBI@Z		; ImVector<unsigned int>::push_back
PUBLIC	?contains@?$ImVector@I@@QEBA_NAEBI@Z		; ImVector<unsigned int>::contains
PUBLIC	?empty@?$ImVector@M@@QEBA_NXZ			; ImVector<float>::empty
PUBLIC	??A?$ImVector@M@@QEBAAEBMH@Z			; ImVector<float>::operator[]
PUBLIC	?empty@?$ImVector@UImFontGlyph@@@@QEBA_NXZ	; ImVector<ImFontGlyph>::empty
PUBLIC	?GetCharAdvance@ImFont@@QEBAMG@Z		; ImFont::GetCharAdvance
PUBLIC	?ListBoxHeader@ImGui@@YA_NPEBDHH@Z		; ImGui::ListBoxHeader
PUBLIC	?DragScalar@ImGui@@YA_NPEBDHPEAXMPEBX20M@Z	; ImGui::DragScalar
PUBLIC	?DragScalarN@ImGui@@YA_NPEBDHPEAXHMPEBX20M@Z	; ImGui::DragScalarN
PUBLIC	?SliderScalar@ImGui@@YA_NPEBDHPEAXPEBX20M@Z	; ImGui::SliderScalar
PUBLIC	?SliderScalarN@ImGui@@YA_NPEBDHPEAXHPEBX20M@Z	; ImGui::SliderScalarN
PUBLIC	__local_stdio_scanf_options
PUBLIC	_vsscanf_l
PUBLIC	sscanf
PUBLIC	fabsf
PUBLIC	?ImParseFormatFindStart@@YAPEBDPEBD@Z		; ImParseFormatFindStart
PUBLIC	?ImParseFormatFindEnd@@YAPEBDPEBD@Z		; ImParseFormatFindEnd
PUBLIC	?ImParseFormatTrimDecorations@@YAPEBDPEBDPEAD_K@Z ; ImParseFormatTrimDecorations
PUBLIC	?ImParseFormatPrecision@@YAHPEBDH@Z		; ImParseFormatPrecision
PUBLIC	??0ImRect@@QEAA@XZ				; ImRect::ImRect
PUBLIC	??0ImRect@@QEAA@AEBUImVec2@@0@Z			; ImRect::ImRect
PUBLIC	??0ImRect@@QEAA@AEBUImVec4@@@Z			; ImRect::ImRect
PUBLIC	??0ImRect@@QEAA@MMMM@Z				; ImRect::ImRect
PUBLIC	?GetCenter@ImRect@@QEBA?AUImVec2@@XZ		; ImRect::GetCenter
PUBLIC	?GetSize@ImRect@@QEBA?AUImVec2@@XZ		; ImRect::GetSize
PUBLIC	?GetWidth@ImRect@@QEBAMXZ			; ImRect::GetWidth
PUBLIC	?GetHeight@ImRect@@QEBAMXZ			; ImRect::GetHeight
PUBLIC	?GetArea@ImRect@@QEBAMXZ			; ImRect::GetArea
PUBLIC	?GetTL@ImRect@@QEBA?AUImVec2@@XZ		; ImRect::GetTL
PUBLIC	?GetTR@ImRect@@QEBA?AUImVec2@@XZ		; ImRect::GetTR
PUBLIC	?GetBL@ImRect@@QEBA?AUImVec2@@XZ		; ImRect::GetBL
PUBLIC	?GetBR@ImRect@@QEBA?AUImVec2@@XZ		; ImRect::GetBR
PUBLIC	?Contains@ImRect@@QEBA_NAEBUImVec2@@@Z		; ImRect::Contains
PUBLIC	?Contains@ImRect@@QEBA_NAEBU1@@Z		; ImRect::Contains
PUBLIC	?Overlaps@ImRect@@QEBA_NAEBU1@@Z		; ImRect::Overlaps
PUBLIC	?Expand@ImRect@@QEAAXM@Z			; ImRect::Expand
PUBLIC	?Expand@ImRect@@QEAAXAEBUImVec2@@@Z		; ImRect::Expand
PUBLIC	?Translate@ImRect@@QEAAXAEBUImVec2@@@Z		; ImRect::Translate
PUBLIC	?ClipWith@ImRect@@QEAAXAEBU1@@Z			; ImRect::ClipWith
PUBLIC	?Update@ImGuiMenuColumns@@QEAAXHM_N@Z		; ImGuiMenuColumns::Update
PUBLIC	?DeclColumns@ImGuiMenuColumns@@QEAAMMMM@Z	; ImGuiMenuColumns::DeclColumns
PUBLIC	?CalcExtraSpace@ImGuiMenuColumns@@QEBAMM@Z	; ImGuiMenuColumns::CalcExtraSpace
PUBLIC	?OnKeyPressed@ImGuiInputTextState@@QEAAXH@Z	; ImGuiInputTextState::OnKeyPressed
PUBLIC	?CursorAnimReset@ImGuiInputTextState@@QEAAXXZ	; ImGuiInputTextState::CursorAnimReset
PUBLIC	?CursorClamp@ImGuiInputTextState@@QEAAXXZ	; ImGuiInputTextState::CursorClamp
PUBLIC	?HasSelection@ImGuiInputTextState@@QEBA_NXZ	; ImGuiInputTextState::HasSelection
PUBLIC	?ClearSelection@ImGuiInputTextState@@QEAAXXZ	; ImGuiInputTextState::ClearSelection
PUBLIC	?SelectAll@ImGuiInputTextState@@QEAAXXZ		; ImGuiInputTextState::SelectAll
PUBLIC	?ClearFlags@ImGuiNextWindowData@@QEAAXXZ	; ImGuiNextWindowData::ClearFlags
PUBLIC	?ClearFlags@ImGuiNextItemData@@QEAAXXZ		; ImGuiNextItemData::ClearFlags
PUBLIC	??0ImGuiPtrOrIndex@@QEAA@PEAX@Z			; ImGuiPtrOrIndex::ImGuiPtrOrIndex
PUBLIC	??0ImGuiPtrOrIndex@@QEAA@H@Z			; ImGuiPtrOrIndex::ImGuiPtrOrIndex
PUBLIC	?CalcWorkRectPos@ImGuiViewportP@@QEBA?AUImVec2@@AEBU2@@Z ; ImGuiViewportP::CalcWorkRectPos
PUBLIC	?CalcWorkRectSize@ImGuiViewportP@@QEBA?AUImVec2@@AEBU2@0@Z ; ImGuiViewportP::CalcWorkRectSize
PUBLIC	?GetBuildWorkRect@ImGuiViewportP@@QEBA?AUImRect@@XZ ; ImGuiViewportP::GetBuildWorkRect
PUBLIC	?back@?$ImVector@UImGuiGroupData@@@@QEAAAEAUImGuiGroupData@@XZ ; ImVector<ImGuiGroupData>::back
PUBLIC	??A?$ImVector@UImGuiPopupData@@@@QEAAAEAUImGuiPopupData@@H@Z ; ImVector<ImGuiPopupData>::operator[]
PUBLIC	??A?$ImVector@UImGuiTabBar@@@@QEAAAEAUImGuiTabBar@@H@Z ; ImVector<ImGuiTabBar>::operator[]
PUBLIC	?_grow_capacity@?$ImVector@UImGuiTabBar@@@@QEBAHH@Z ; ImVector<ImGuiTabBar>::_grow_capacity
PUBLIC	?resize@?$ImVector@UImGuiTabBar@@@@QEAAXH@Z	; ImVector<ImGuiTabBar>::resize
PUBLIC	?reserve@?$ImVector@UImGuiTabBar@@@@QEAAXH@Z	; ImVector<ImGuiTabBar>::reserve
PUBLIC	?GetByIndex@?$ImPool@UImGuiTabBar@@@@QEAAPEAUImGuiTabBar@@H@Z ; ImPool<ImGuiTabBar>::GetByIndex
PUBLIC	?GetIndex@?$ImPool@UImGuiTabBar@@@@QEBAHPEBUImGuiTabBar@@@Z ; ImPool<ImGuiTabBar>::GetIndex
PUBLIC	?GetOrAddByKey@?$ImPool@UImGuiTabBar@@@@QEAAPEAUImGuiTabBar@@I@Z ; ImPool<ImGuiTabBar>::GetOrAddByKey
PUBLIC	?Contains@?$ImPool@UImGuiTabBar@@@@QEBA_NPEBUImGuiTabBar@@@Z ; ImPool<ImGuiTabBar>::Contains
PUBLIC	?Add@?$ImPool@UImGuiTabBar@@@@QEAAPEAUImGuiTabBar@@XZ ; ImPool<ImGuiTabBar>::Add
PUBLIC	?empty@?$ImVector@UImGuiPtrOrIndex@@@@QEBA_NXZ	; ImVector<ImGuiPtrOrIndex>::empty
PUBLIC	?back@?$ImVector@UImGuiPtrOrIndex@@@@QEAAAEAUImGuiPtrOrIndex@@XZ ; ImVector<ImGuiPtrOrIndex>::back
PUBLIC	?_grow_capacity@?$ImVector@UImGuiPtrOrIndex@@@@QEBAHH@Z ; ImVector<ImGuiPtrOrIndex>::_grow_capacity
PUBLIC	?reserve@?$ImVector@UImGuiPtrOrIndex@@@@QEAAXH@Z ; ImVector<ImGuiPtrOrIndex>::reserve
PUBLIC	?push_back@?$ImVector@UImGuiPtrOrIndex@@@@QEAAXAEBUImGuiPtrOrIndex@@@Z ; ImVector<ImGuiPtrOrIndex>::push_back
PUBLIC	?pop_back@?$ImVector@UImGuiPtrOrIndex@@@@QEAAXXZ ; ImVector<ImGuiPtrOrIndex>::pop_back
PUBLIC	??A?$ImVector@UImGuiShrinkWidthItem@@@@QEAAAEAUImGuiShrinkWidthItem@@H@Z ; ImVector<ImGuiShrinkWidthItem>::operator[]
PUBLIC	?_grow_capacity@?$ImVector@UImGuiShrinkWidthItem@@@@QEBAHH@Z ; ImVector<ImGuiShrinkWidthItem>::_grow_capacity
PUBLIC	?resize@?$ImVector@UImGuiShrinkWidthItem@@@@QEAAXH@Z ; ImVector<ImGuiShrinkWidthItem>::resize
PUBLIC	?reserve@?$ImVector@UImGuiShrinkWidthItem@@@@QEAAXH@Z ; ImVector<ImGuiShrinkWidthItem>::reserve
PUBLIC	?Rect@ImGuiWindow@@QEBA?AUImRect@@XZ		; ImGuiWindow::Rect
PUBLIC	?CalcFontSize@ImGuiWindow@@QEBAMXZ		; ImGuiWindow::CalcFontSize
PUBLIC	?TitleBarHeight@ImGuiWindow@@QEBAMXZ		; ImGuiWindow::TitleBarHeight
PUBLIC	?MenuBarHeight@ImGuiWindow@@QEBAMXZ		; ImGuiWindow::MenuBarHeight
PUBLIC	?MenuBarRect@ImGuiWindow@@QEBA?AUImRect@@XZ	; ImGuiWindow::MenuBarRect
PUBLIC	??0ImGuiLastItemDataBackup@@QEAA@XZ		; ImGuiLastItemDataBackup::ImGuiLastItemDataBackup
PUBLIC	?Backup@ImGuiLastItemDataBackup@@QEAAXXZ	; ImGuiLastItemDataBackup::Backup
PUBLIC	?Restore@ImGuiLastItemDataBackup@@QEBAXXZ	; ImGuiLastItemDataBackup::Restore
PUBLIC	??0ImGuiTabItem@@QEAA@XZ			; ImGuiTabItem::ImGuiTabItem
PUBLIC	??0?$ImVector@UImGuiTabItem@@@@QEAA@XZ		; ImVector<ImGuiTabItem>::ImVector<ImGuiTabItem>
PUBLIC	??1?$ImVector@UImGuiTabItem@@@@QEAA@XZ		; ImVector<ImGuiTabItem>::~ImVector<ImGuiTabItem>
PUBLIC	??A?$ImVector@UImGuiTabItem@@@@QEAAAEAUImGuiTabItem@@H@Z ; ImVector<ImGuiTabItem>::operator[]
PUBLIC	?back@?$ImVector@UImGuiTabItem@@@@QEAAAEAUImGuiTabItem@@XZ ; ImVector<ImGuiTabItem>::back
PUBLIC	?_grow_capacity@?$ImVector@UImGuiTabItem@@@@QEBAHH@Z ; ImVector<ImGuiTabItem>::_grow_capacity
PUBLIC	?resize@?$ImVector@UImGuiTabItem@@@@QEAAXH@Z	; ImVector<ImGuiTabItem>::resize
PUBLIC	?reserve@?$ImVector@UImGuiTabItem@@@@QEAAXH@Z	; ImVector<ImGuiTabItem>::reserve
PUBLIC	?push_back@?$ImVector@UImGuiTabItem@@@@QEAAXAEBUImGuiTabItem@@@Z ; ImVector<ImGuiTabItem>::push_back
PUBLIC	?erase@?$ImVector@UImGuiTabItem@@@@QEAAPEAUImGuiTabItem@@PEBU2@@Z ; ImVector<ImGuiTabItem>::erase
PUBLIC	?index_from_ptr@?$ImVector@UImGuiTabItem@@@@QEBAHPEBUImGuiTabItem@@@Z ; ImVector<ImGuiTabItem>::index_from_ptr
PUBLIC	??0ImGuiTabBar@@QEAA@XZ				; ImGuiTabBar::ImGuiTabBar
PUBLIC	?GetTabOrder@ImGuiTabBar@@QEBAHPEBUImGuiTabItem@@@Z ; ImGuiTabBar::GetTabOrder
PUBLIC	?GetTabName@ImGuiTabBar@@QEBAPEBDPEBUImGuiTabItem@@@Z ; ImGuiTabBar::GetTabName
PUBLIC	?GetCurrentWindow@ImGui@@YAPEAUImGuiWindow@@XZ	; ImGui::GetCurrentWindow
PUBLIC	?ShrinkWidths@ImGui@@YAXPEAUImGuiShrinkWidthItem@@HM@Z ; ImGui::ShrinkWidths
PUBLIC	?BeginViewportSideBar@ImGui@@YA_NPEBDPEAUImGuiViewport@@HMH@Z ; ImGui::BeginViewportSideBar
PUBLIC	?BeginComboPopup@ImGui@@YA_NIAEBUImRect@@H@Z	; ImGui::BeginComboPopup
PUBLIC	?BeginComboPreview@ImGui@@YA_NXZ		; ImGui::BeginComboPreview
PUBLIC	?EndComboPreview@ImGui@@YAXXZ			; ImGui::EndComboPreview
PUBLIC	?IsKeyPressedMap@ImGui@@YA_NH_N@Z		; ImGui::IsKeyPressedMap
PUBLIC	?IsNavInputDown@ImGui@@YA_NH@Z			; ImGui::IsNavInputDown
PUBLIC	?IsNavInputTest@ImGui@@YA_NHW4ImGuiInputReadMode@@@Z ; ImGui::IsNavInputTest
PUBLIC	?BeginTabBarEx@ImGui@@YA_NPEAUImGuiTabBar@@AEBUImRect@@H@Z ; ImGui::BeginTabBarEx
PUBLIC	?TabBarFindTabByID@ImGui@@YAPEAUImGuiTabItem@@PEAUImGuiTabBar@@I@Z ; ImGui::TabBarFindTabByID
PUBLIC	?TabBarRemoveTab@ImGui@@YAXPEAUImGuiTabBar@@I@Z	; ImGui::TabBarRemoveTab
PUBLIC	?TabBarCloseTab@ImGui@@YAXPEAUImGuiTabBar@@PEAUImGuiTabItem@@@Z ; ImGui::TabBarCloseTab
PUBLIC	?TabBarQueueReorder@ImGui@@YAXPEAUImGuiTabBar@@PEBUImGuiTabItem@@H@Z ; ImGui::TabBarQueueReorder
PUBLIC	?TabBarQueueReorderFromMousePos@ImGui@@YAXPEAUImGuiTabBar@@PEBUImGuiTabItem@@UImVec2@@@Z ; ImGui::TabBarQueueReorderFromMousePos
PUBLIC	?TabBarProcessReorder@ImGui@@YA_NPEAUImGuiTabBar@@@Z ; ImGui::TabBarProcessReorder
PUBLIC	?TabItemEx@ImGui@@YA_NPEAUImGuiTabBar@@PEBDPEA_NH@Z ; ImGui::TabItemEx
PUBLIC	?TabItemCalcSize@ImGui@@YA?AUImVec2@@PEBD_N@Z	; ImGui::TabItemCalcSize
PUBLIC	?TabItemBackground@ImGui@@YAXPEAUImDrawList@@AEBUImRect@@HI@Z ; ImGui::TabItemBackground
PUBLIC	?TabItemLabelAndCloseButton@ImGui@@YAXPEAUImDrawList@@AEBUImRect@@HUImVec2@@PEBDII_NPEA_N5@Z ; ImGui::TabItemLabelAndCloseButton
PUBLIC	?TextEx@ImGui@@YAXPEBD0H@Z			; ImGui::TextEx
PUBLIC	?ButtonEx@ImGui@@YA_NPEBDAEBUImVec2@@H@Z	; ImGui::ButtonEx
PUBLIC	?CloseButton@ImGui@@YA_NIAEBUImVec2@@@Z		; ImGui::CloseButton
PUBLIC	?CollapseButton@ImGui@@YA_NIAEBUImVec2@@@Z	; ImGui::CollapseButton
PUBLIC	?ArrowButtonEx@ImGui@@YA_NPEBDHUImVec2@@H@Z	; ImGui::ArrowButtonEx
PUBLIC	?Scrollbar@ImGui@@YAXW4ImGuiAxis@@@Z		; ImGui::Scrollbar
PUBLIC	?ScrollbarEx@ImGui@@YA_NAEBUImRect@@IW4ImGuiAxis@@PEAMMMH@Z ; ImGui::ScrollbarEx
PUBLIC	?ImageButtonEx@ImGui@@YA_NIPEAXAEBUImVec2@@111AEBUImVec4@@2@Z ; ImGui::ImageButtonEx
PUBLIC	?GetWindowScrollbarRect@ImGui@@YA?AUImRect@@PEAUImGuiWindow@@W4ImGuiAxis@@@Z ; ImGui::GetWindowScrollbarRect
PUBLIC	?GetWindowScrollbarID@ImGui@@YAIPEAUImGuiWindow@@W4ImGuiAxis@@@Z ; ImGui::GetWindowScrollbarID
PUBLIC	?SeparatorEx@ImGui@@YAXH@Z			; ImGui::SeparatorEx
PUBLIC	?CheckboxFlags@ImGui@@YA_NPEBDPEA_J_J@Z		; ImGui::CheckboxFlags
PUBLIC	?CheckboxFlags@ImGui@@YA_NPEBDPEA_K_K@Z		; ImGui::CheckboxFlags
PUBLIC	?ButtonBehavior@ImGui@@YA_NAEBUImRect@@IPEA_N1H@Z ; ImGui::ButtonBehavior
PUBLIC	?DragBehavior@ImGui@@YA_NIHPEAXMPEBX1PEBDH@Z	; ImGui::DragBehavior
PUBLIC	?SliderBehavior@ImGui@@YA_NAEBUImRect@@IHPEAXPEBX2PEBDHPEAU2@@Z ; ImGui::SliderBehavior
PUBLIC	?SplitterBehavior@ImGui@@YA_NAEBUImRect@@IW4ImGuiAxis@@PEAM2MMMM@Z ; ImGui::SplitterBehavior
PUBLIC	?TreeNodeBehavior@ImGui@@YA_NIHPEBD0@Z		; ImGui::TreeNodeBehavior
PUBLIC	?TreeNodeBehaviorIsOpen@ImGui@@YA_NIH@Z		; ImGui::TreeNodeBehaviorIsOpen
PUBLIC	?TreePushOverrideID@ImGui@@YAXI@Z		; ImGui::TreePushOverrideID
PUBLIC	?DataTypeGetInfo@ImGui@@YAPEBUImGuiDataTypeInfo@@H@Z ; ImGui::DataTypeGetInfo
PUBLIC	?DataTypeFormatString@ImGui@@YAHPEADHHPEBXPEBD@Z ; ImGui::DataTypeFormatString
PUBLIC	?DataTypeApplyOp@ImGui@@YAXHHPEAXPEBX1@Z	; ImGui::DataTypeApplyOp
PUBLIC	?DataTypeApplyOpFromText@ImGui@@YA_NPEBD0HPEAX0@Z ; ImGui::DataTypeApplyOpFromText
PUBLIC	?DataTypeCompare@ImGui@@YAHHPEBX0@Z		; ImGui::DataTypeCompare
PUBLIC	?DataTypeClamp@ImGui@@YA_NHPEAXPEBX1@Z		; ImGui::DataTypeClamp
PUBLIC	?InputTextEx@ImGui@@YA_NPEBD0PEADHAEBUImVec2@@HP6AHPEAUImGuiInputTextCallbackData@@@ZPEAX@Z ; ImGui::InputTextEx
PUBLIC	?TempInputText@ImGui@@YA_NAEBUImRect@@IPEBDPEADHH@Z ; ImGui::TempInputText
PUBLIC	?TempInputScalar@ImGui@@YA_NAEBUImRect@@IPEBDHPEAX1PEBX3@Z ; ImGui::TempInputScalar
PUBLIC	?TempInputIsActive@ImGui@@YA_NI@Z		; ImGui::TempInputIsActive
PUBLIC	?GetInputTextState@ImGui@@YAPEAUImGuiInputTextState@@I@Z ; ImGui::GetInputTextState
PUBLIC	?ColorTooltip@ImGui@@YAXPEBDPEBMH@Z		; ImGui::ColorTooltip
PUBLIC	?ColorEditOptionsPopup@ImGui@@YAXPEBMH@Z	; ImGui::ColorEditOptionsPopup
PUBLIC	?ColorPickerOptionsPopup@ImGui@@YAXPEBMH@Z	; ImGui::ColorPickerOptionsPopup
PUBLIC	?PlotEx@ImGui@@YAHW4ImGuiPlotType@@PEBDP6AMPEAXH@Z2HH1MMUImVec2@@@Z ; ImGui::PlotEx
PUBLIC	??$CheckboxFlagsT@H@ImGui@@YA_NPEBDPEAHH@Z	; ImGui::CheckboxFlagsT<int>
PUBLIC	??$CheckboxFlagsT@I@ImGui@@YA_NPEBDPEAII@Z	; ImGui::CheckboxFlagsT<unsigned int>
PUBLIC	??$CheckboxFlagsT@_J@ImGui@@YA_NPEBDPEA_J_J@Z	; ImGui::CheckboxFlagsT<__int64>
PUBLIC	??$CheckboxFlagsT@_K@ImGui@@YA_NPEBDPEA_K_K@Z	; ImGui::CheckboxFlagsT<unsigned __int64>
PUBLIC	??$DragBehaviorT@HHM@ImGui@@YA_NHPEAHMHHPEBDH@Z	; ImGui::DragBehaviorT<int,int,float>
PUBLIC	??$DragBehaviorT@IHM@ImGui@@YA_NHPEAIMIIPEBDH@Z	; ImGui::DragBehaviorT<unsigned int,int,float>
PUBLIC	??$DragBehaviorT@_J_JN@ImGui@@YA_NHPEA_JM_J1PEBDH@Z ; ImGui::DragBehaviorT<__int64,__int64,double>
PUBLIC	??$DragBehaviorT@_K_JN@ImGui@@YA_NHPEA_KM_K1PEBDH@Z ; ImGui::DragBehaviorT<unsigned __int64,__int64,double>
PUBLIC	??$DragBehaviorT@MMM@ImGui@@YA_NHPEAMMMMPEBDH@Z	; ImGui::DragBehaviorT<float,float,float>
PUBLIC	??$DragBehaviorT@NNN@ImGui@@YA_NHPEANMNNPEBDH@Z	; ImGui::DragBehaviorT<double,double,double>
PUBLIC	??$SliderBehaviorT@HHM@ImGui@@YA_NAEBUImRect@@IHPEAHHHPEBDHPEAU1@@Z ; ImGui::SliderBehaviorT<int,int,float>
PUBLIC	??$SliderBehaviorT@IHM@ImGui@@YA_NAEBUImRect@@IHPEAIIIPEBDHPEAU1@@Z ; ImGui::SliderBehaviorT<unsigned int,int,float>
PUBLIC	??$SliderBehaviorT@_J_JN@ImGui@@YA_NAEBUImRect@@IHPEA_J_J2PEBDHPEAU1@@Z ; ImGui::SliderBehaviorT<__int64,__int64,double>
PUBLIC	??$SliderBehaviorT@_K_JN@ImGui@@YA_NAEBUImRect@@IHPEA_K_K2PEBDHPEAU1@@Z ; ImGui::SliderBehaviorT<unsigned __int64,__int64,double>
PUBLIC	??$SliderBehaviorT@MMM@ImGui@@YA_NAEBUImRect@@IHPEAMMMPEBDHPEAU1@@Z ; ImGui::SliderBehaviorT<float,float,float>
PUBLIC	??$SliderBehaviorT@NNN@ImGui@@YA_NAEBUImRect@@IHPEANNNPEBDHPEAU1@@Z ; ImGui::SliderBehaviorT<double,double,double>
PUBLIC	??0ImGuiPlotArrayGetterData@@QEAA@PEBMH@Z	; ImGuiPlotArrayGetterData::ImGuiPlotArrayGetterData
PUBLIC	??0ImGuiTabBarSection@@QEAA@XZ			; ImGuiTabBarSection::ImGuiTabBarSection
PUBLIC	??$ScaleRatioFromValueT@HHM@ImGui@@YAMHHHH_NMM@Z ; ImGui::ScaleRatioFromValueT<int,int,float>
PUBLIC	??$ScaleValueFromRatioT@HHM@ImGui@@YAHHMHH_NMM@Z ; ImGui::ScaleValueFromRatioT<int,int,float>
PUBLIC	??$RoundScalarWithFormatT@HH@ImGui@@YAHPEBDHH@Z	; ImGui::RoundScalarWithFormatT<int,int>
PUBLIC	??$ScaleRatioFromValueT@IHM@ImGui@@YAMHIII_NMM@Z ; ImGui::ScaleRatioFromValueT<unsigned int,int,float>
PUBLIC	??$ScaleValueFromRatioT@IHM@ImGui@@YAIHMII_NMM@Z ; ImGui::ScaleValueFromRatioT<unsigned int,int,float>
PUBLIC	??$RoundScalarWithFormatT@IH@ImGui@@YAIPEBDHI@Z	; ImGui::RoundScalarWithFormatT<unsigned int,int>
PUBLIC	??$ScaleRatioFromValueT@_J_JN@ImGui@@YAMH_J00_NMM@Z ; ImGui::ScaleRatioFromValueT<__int64,__int64,double>
PUBLIC	??$ScaleValueFromRatioT@_J_JN@ImGui@@YA_JHM_J0_NMM@Z ; ImGui::ScaleValueFromRatioT<__int64,__int64,double>
PUBLIC	??$RoundScalarWithFormatT@_J_J@ImGui@@YA_JPEBDH_J@Z ; ImGui::RoundScalarWithFormatT<__int64,__int64>
PUBLIC	??$ScaleRatioFromValueT@_K_JN@ImGui@@YAMH_K00_NMM@Z ; ImGui::ScaleRatioFromValueT<unsigned __int64,__int64,double>
PUBLIC	??$ScaleValueFromRatioT@_K_JN@ImGui@@YA_KHM_K0_NMM@Z ; ImGui::ScaleValueFromRatioT<unsigned __int64,__int64,double>
PUBLIC	??$RoundScalarWithFormatT@_K_J@ImGui@@YA_KPEBDH_K@Z ; ImGui::RoundScalarWithFormatT<unsigned __int64,__int64>
PUBLIC	??$ScaleRatioFromValueT@MMM@ImGui@@YAMHMMM_NMM@Z ; ImGui::ScaleRatioFromValueT<float,float,float>
PUBLIC	??$ScaleValueFromRatioT@MMM@ImGui@@YAMHMMM_NMM@Z ; ImGui::ScaleValueFromRatioT<float,float,float>
PUBLIC	??$RoundScalarWithFormatT@MM@ImGui@@YAMPEBDHM@Z	; ImGui::RoundScalarWithFormatT<float,float>
PUBLIC	??$ScaleRatioFromValueT@NNN@ImGui@@YAMHNNN_NMM@Z ; ImGui::ScaleRatioFromValueT<double,double,double>
PUBLIC	??$ScaleValueFromRatioT@NNN@ImGui@@YANHMNN_NMM@Z ; ImGui::ScaleValueFromRatioT<double,double,double>
PUBLIC	??$RoundScalarWithFormatT@NN@ImGui@@YANPEBDHN@Z	; ImGui::RoundScalarWithFormatT<double,double>
PUBLIC	__JustMyCode_Default
PUBLIC	??_C@_1FM@JNPAKPFE@?$AAC?$AA?3?$AA?2?$AAd?$AAe?$AAv?$AA?2?$AAR?$AAa?$AAi?$AAs?$AAi?$AAn?$AA?2?$AAR@ ; `string'
PUBLIC	??_C@_1BC@IIGHOJGM@?$AAi?$AAd?$AAx?$AA?5?$AA?$DM?$AA?$DN?$AA?5?$AA1@ ; `string'
PUBLIC	?_OptionsStorage@?1??__local_stdio_scanf_options@@9@4_KA ; `__local_stdio_scanf_options'::`2'::_OptionsStorage
PUBLIC	??_C@_1GO@IOCEAJPC@?$AAC?$AA?3?$AA?2?$AAd?$AAe?$AAv?$AA?2?$AAR?$AAa?$AAi?$AAs?$AAi?$AAn?$AA?2?$AAR@ ; `string'
PUBLIC	??_C@_1HM@PJKJLKEH@?$AAt?$AAa?$AAb?$AA?9?$AA?$DO?$AAN?$AAa?$AAm?$AAe?$AAO?$AAf?$AAf?$AAs?$AAe?$AAt@ ; `string'
PUBLIC	??_C@_13COJANIEC@?$AA0@				; `string'
PUBLIC	?__LINE__Var@?0??TextEx@ImGui@@YAXPEBD0H@Z@4JA	; `ImGui::TextEx'::`1'::__LINE__Var
PUBLIC	??_C@_1HA@CBNDCJDO@?$AAC?$AA?3?$AA?2?$AAd?$AAe?$AAv?$AA?2?$AAR?$AAa?$AAi?$AAs?$AAi?$AAn?$AA?2?$AAR@ ; `string'
PUBLIC	??_C@_1BE@HMGDGFIB@?$AAt?$AAe?$AAx?$AAt?$AA?5?$AA?$CB?$AA?$DN?$AA?5?$AA0@ ; `string'
PUBLIC	?__LINE__Var@?0??ButtonBehavior@ImGui@@YA_NAEBUImRect@@IPEA_N1H@Z@4JA ; `ImGui::ButtonBehavior'::`1'::__LINE__Var
PUBLIC	??_C@_1HG@LHACLJHI@?$AAm?$AAo?$AAu?$AAs?$AAe?$AA_?$AAb?$AAu?$AAt?$AAt?$AAo?$AAn?$AA?5?$AA?$DO?$AA?$DN@ ; `string'
PUBLIC	??_C@_01LBDDMOBJ@?$FN@				; `string'
PUBLIC	??_C@_01OHGJGJJP@?$FL@				; `string'
PUBLIC	?__LINE__Var@?0??InvisibleButton@ImGui@@YA_NPEBDAEBUImVec2@@H@Z@4JA ; `ImGui::InvisibleButton'::`1'::__LINE__Var
PUBLIC	??_C@_1FC@KJEAANOI@?$AAs?$AAi?$AAz?$AAe?$AA_?$AAa?$AAr?$AAg?$AA?4?$AAx?$AA?5?$AA?$CB?$AA?$DN?$AA?5?$AA0@ ; `string'
PUBLIC	??_C@_08ENAFOMOP@?$CDSCROLLX@			; `string'
PUBLIC	??_C@_08FEBONNKO@?$CDSCROLLY@			; `string'
PUBLIC	?__LINE__Var@?0??GetWindowScrollbarRect@ImGui@@YA?AUImRect@@PEAUImGuiWindow@@W4ImGuiAxis@@@Z@4JA ; `ImGui::GetWindowScrollbarRect'::`1'::__LINE__Var
PUBLIC	??_C@_1CM@GFPJIOBE@?$AAs?$AAc?$AAr?$AAo?$AAl?$AAl?$AAb?$AAa?$AAr?$AA_?$AAs?$AAi?$AAz?$AAe?$AA?5@ ; `string'
PUBLIC	?__LINE__Var@?0??ScrollbarEx@ImGui@@YA_NAEBUImRect@@IW4ImGuiAxis@@PEAMMMH@Z@4JA ; `ImGui::ScrollbarEx'::`1'::__LINE__Var
PUBLIC	??_C@_1FI@OFJDJLOI@?$AAI?$AAm?$AAM?$AAa?$AAx?$AA?$CI?$AAs?$AAi?$AAz?$AAe?$AA_?$AAc?$AAo?$AAn?$AAt@ ; `string'
PUBLIC	??_C@_06EBHDMMP@?$CDimage@			; `string'
PUBLIC	??_C@_03JDMNMOAD@?$FL?$HO?$FN@			; `string'
PUBLIC	??_C@_03JHEALCLB@?$FLx?$FN@			; `string'
PUBLIC	??_C@_03PFOPMNLJ@?$FL?5?$FN@			; `string'
PUBLIC	??_C@_03KFJJABDB@?$CIx?$CJ@			; `string'
PUBLIC	??_C@_03MHDGHODJ@?$CI?5?$CJ@			; `string'
PUBLIC	??_C@_06KLKJBGEJ@?$CF?40f?$CF?$CF@		; `string'
PUBLIC	?__LINE__Var@?0??SeparatorEx@ImGui@@YAXH@Z@4JA	; `ImGui::SeparatorEx'::`1'::__LINE__Var
PUBLIC	??_C@_1LA@FPPCKOP@?$AAI?$AAm?$AAI?$AAs?$AAP?$AAo?$AAw?$AAe?$AAr?$AAO?$AAf?$AAT?$AAw?$AAo?$AA?$CI@ ; `string'
PUBLIC	??_C@_02LLHJFGPH@?5?$HM@			; `string'
PUBLIC	??_C@_0CC@IODDEFBI@?9?9?9?9?9?9?9?9?9?9?9?9?9?9?9?9?9?9?9?9?9?9?9?9?9?9?9?9?9?9?9@ ; `string'
PUBLIC	?__LINE__Var@?0??SplitterBehavior@ImGui@@YA_NAEBUImRect@@IW4ImGuiAxis@@PEAM2MMMM@Z@4JA ; `ImGui::SplitterBehavior'::`1'::__LINE__Var
PUBLIC	??_C@_1EE@HJGLFFIG@?$AA?$CK?$AAs?$AAi?$AAz?$AAe?$AA1?$AA?5?$AA?$CL?$AA?5?$AAm?$AAo?$AAu?$AAs?$AAe?$AA_@ ; `string'
PUBLIC	??_C@_1EE@LBEKBPGJ@?$AA?$CK?$AAs?$AAi?$AAz?$AAe?$AA2?$AA?5?$AA?9?$AA?5?$AAm?$AAo?$AAu?$AAs?$AAe?$AA_@ ; `string'
PUBLIC	?__LINE__Var@?0??BeginCombo@ImGui@@YA_NPEBD0H@Z@4JA ; `ImGui::BeginCombo'::`1'::__LINE__Var
PUBLIC	??_C@_1BAK@ONBANIIG@?$AA?$CI?$AAf?$AAl?$AAa?$AAg?$AAs?$AA?5?$AA?$CG?$AA?5?$AA?$CI?$AAI?$AAm?$AAG?$AAu?$AAi@ ; `string'
PUBLIC	??_C@_0N@LNBMNBNO@?$CD?$CDComboPopup@		; `string'
PUBLIC	??_C@_1FI@HOFLGIJG@?$AAp?$AAr?$AAe?$AAv?$AAi?$AAe?$AAw?$AA_?$AAv?$AAa?$AAl?$AAu?$AAe?$AA?5?$AA?$DN@ ; `string'
PUBLIC	??_C@_01CELHOKLL@?$HN@				; `string'
PUBLIC	??_C@_01HCONENDN@?$HL@				; `string'
PUBLIC	?__LINE__Var@?0??BeginComboPopup@ImGui@@YA_NIAEBUImRect@@H@Z@4JA ; `ImGui::BeginComboPopup'::`1'::__LINE__Var
PUBLIC	??_C@_1GI@IOEAHNLK@?$AAI?$AAm?$AAI?$AAs?$AAP?$AAo?$AAw?$AAe?$AAr?$AAO?$AAf?$AAT?$AAw?$AAo?$AA?$CI@ ; `string'
PUBLIC	??_C@_0N@JOGGDHMO@?$CD?$CDCombo_?$CF02d@	; `string'
PUBLIC	?__LINE__Var@?0??BeginComboPreview@ImGui@@YA_NXZ@4JA ; `ImGui::BeginComboPreview'::`1'::__LINE__Var
PUBLIC	??_C@_1BAK@KIIFLADI@?$AAw?$AAi?$AAn?$AAd?$AAo?$AAw?$AA?9?$AA?$DO?$AAD?$AAC?$AA?4?$AAL?$AAa?$AAs?$AAt@ ; `string'
PUBLIC	??_C@_0P@HFPOEILF@?$CKUnknown?5item?$CK@	; `string'
PUBLIC	??_C@_09JKJEEIJP@?$CF?4?$CKs?$CF?$CFd?$CFs@	; `string'
PUBLIC	?__LINE__Var@?0??DataTypeGetInfo@ImGui@@YAPEBUImGuiDataTypeInfo@@H@Z@4JA ; `ImGui::DataTypeGetInfo'::`1'::__LINE__Var
PUBLIC	??_C@_1GE@PMGCKKHF@?$AAd?$AAa?$AAt?$AAa?$AA_?$AAt?$AAy?$AAp?$AAe?$AA?5?$AA?$DO?$AA?$DN?$AA?5?$AA0?$AA?5@ ; `string'
PUBLIC	?__LINE__Var@?0??DataTypeFormatString@ImGui@@YAHPEADHHPEBXPEBD@Z@4JA ; `ImGui::DataTypeFormatString'::`1'::__LINE__Var
PUBLIC	?__LINE__Var@?0??DataTypeApplyOp@ImGui@@YAXHHPEAXPEBX1@Z@4JA ; `ImGui::DataTypeApplyOp'::`1'::__LINE__Var
PUBLIC	??_C@_1CO@LEDHMGOL@?$AAo?$AAp?$AA?5?$AA?$DN?$AA?$DN?$AA?5?$AA?8?$AA?$CL?$AA?8?$AA?5?$AA?$HM?$AA?$HM?$AA?5?$AAo?$AAp@ ; `string'
PUBLIC	?__LINE__Var@?0??DataTypeApplyOpFromText@ImGui@@YA_NPEBD0HPEAX0@Z@4JA ; `ImGui::DataTypeApplyOpFromText'::`1'::__LINE__Var
PUBLIC	?__LINE__Var@?0??DataTypeCompare@ImGui@@YAHHPEBX0@Z@4JA ; `ImGui::DataTypeCompare'::`1'::__LINE__Var
PUBLIC	?__LINE__Var@?0??DataTypeClamp@ImGui@@YA_NHPEAXPEBX1@Z@4JA ; `ImGui::DataTypeClamp'::`1'::__LINE__Var
PUBLIC	?__LINE__Var@?0??SanitizeFormatString@@YAXPEBDPEAD_K@Z@4JA ; `SanitizeFormatString'::`1'::__LINE__Var
PUBLIC	??_C@_1FG@FPDFFFKE@?$AA?$CI?$AAs?$AAi?$AAz?$AAe?$AA_?$AAt?$AA?$CJ?$AA?$CI?$AAf?$AAm?$AAt?$AA_?$AAe?$AAn@ ; `string'
PUBLIC	?__LINE__Var@?0??DragBehavior@ImGui@@YA_NIHPEAXMPEBX1PEBDH@Z@4JA ; `ImGui::DragBehavior'::`1'::__LINE__Var
PUBLIC	??_C@_0JN@LHPDPGJG@Invalid?5ImGuiSliderFlags?5flags?$CB@ ; `string'
PUBLIC	??_C@_1BLO@GENGLDPL@?$AA?$CI?$AAf?$AAl?$AAa?$AAg?$AAs?$AA?5?$AA?$DN?$AA?$DN?$AA?5?$AA1?$AA?5?$AA?$HM?$AA?$HM?$AA?5@ ; `string'
PUBLIC	??_C@_00CNPNBAHC@@				; `string'
PUBLIC	??_C@_05DMFAOFEI@?$CD?$CDmin@			; `string'
PUBLIC	??_C@_05CONLABCH@?$CD?$CDmax@			; `string'
PUBLIC	?__LINE__Var@?0??DragScalar@ImGui@@YA_NPEBDHPEAXMPEBX20M@Z@4JA ; `ImGui::DragScalar'::`1'::__LINE__Var
PUBLIC	??_C@_0GH@JOLPKMDA@Call?5function?5with?5ImGuiSliderF@ ; `string'
PUBLIC	??_C@_1PE@DLDNNIOM@?$AAp?$AAo?$AAw?$AAe?$AAr?$AA?5?$AA?$DN?$AA?$DN?$AA?5?$AA1?$AA?4?$AA0?$AAf?$AA?5?$AA?$CG@ ; `string'
PUBLIC	??_C@_1DC@IAANKGPJ@?$AAp?$AA_?$AAm?$AAi?$AAn?$AA?5?$AA?$CB?$AA?$DN?$AA?5?$AA0?$AA?5?$AA?$CG?$AA?$CG?$AA?5?$AAp@ ; `string'
PUBLIC	?__LINE__Var@?0??DragScalarN@ImGui@@YA_NPEBDHPEAXHMPEBX20M@Z@4JA ; `ImGui::DragScalarN'::`1'::__LINE__Var
PUBLIC	?__LINE__Var@?0??SliderBehavior@ImGui@@YA_NAEBUImRect@@IHPEAXPEBX2PEBDHPEAU3@@Z@4JA ; `ImGui::SliderBehavior'::`1'::__LINE__Var
PUBLIC	??_C@_0JN@OMBPOBCE@Invalid?5ImGuiSliderFlags?5flag?$CB?5@ ; `string'
PUBLIC	??_C@_1BLO@DBPGJKEK@?$AA?$CI?$AAf?$AAl?$AAa?$AAg?$AAs?$AA?5?$AA?$DN?$AA?$DN?$AA?5?$AA1?$AA?5?$AA?$HM?$AA?$HM?$AA?5@ ; `string'
PUBLIC	??_C@_1KC@MGDFLCCP@?$AA?$CK?$AA?$CI?$AAc?$AAo?$AAn?$AAs?$AAt?$AA?5?$AAI?$AAm?$AAS?$AA3?$AA2?$AA?$CK?$AA?$CJ@ ; `string'
PUBLIC	??_C@_1EO@DMFGPFFK@?$AA?$CK?$AA?$CI?$AAc?$AAo?$AAn?$AAs?$AAt?$AA?5?$AAI?$AAm?$AAU?$AA3?$AA2?$AA?$CK?$AA?$CJ@ ; `string'
PUBLIC	??_C@_1KC@IBFLFJE@?$AA?$CK?$AA?$CI?$AAc?$AAo?$AAn?$AAs?$AAt?$AA?5?$AAI?$AAm?$AAS?$AA6?$AA4?$AA?$CK?$AA?$CJ@ ; `string'
PUBLIC	??_C@_1EO@JNOADGHA@?$AA?$CK?$AA?$CI?$AAc?$AAo?$AAn?$AAs?$AAt?$AA?5?$AAI?$AAm?$AAU?$AA6?$AA4?$AA?$CK?$AA?$CJ@ ; `string'
PUBLIC	??_C@_1MI@EKJKCIKJ@?$AA?$CK?$AA?$CI?$AAc?$AAo?$AAn?$AAs?$AAt?$AA?5?$AAf?$AAl?$AAo?$AAa?$AAt?$AA?$CK?$AA?$CJ@ ; `string'
PUBLIC	??_C@_1OI@EDKIIBCG@?$AA?$CK?$AA?$CI?$AAc?$AAo?$AAn?$AAs?$AAt?$AA?5?$AAd?$AAo?$AAu?$AAb?$AAl?$AAe?$AA?$CK@ ; `string'
PUBLIC	??_C@_08FKIHKODH@?$CF?40f?5deg@			; `string'
PUBLIC	?__LINE__Var@?0??SliderScalar@ImGui@@YA_NPEBDHPEAXPEBX20M@Z@4JA ; `ImGui::SliderScalar'::`1'::__LINE__Var
PUBLIC	?__LINE__Var@?0??SliderScalarN@ImGui@@YA_NPEBDHPEAXHPEBX20M@Z@4JA ; `ImGui::SliderScalarN'::`1'::__LINE__Var
PUBLIC	?__LINE__Var@?0??TempInputText@ImGui@@YA_NAEBUImRect@@IPEBDPEADHH@Z@4JA ; `ImGui::TempInputText'::`1'::__LINE__Var
PUBLIC	??_C@_1CC@LLIJAMKA@?$AAg?$AA?4?$AAA?$AAc?$AAt?$AAi?$AAv?$AAe?$AAI?$AAd?$AA?5?$AA?$DN?$AA?$DN?$AA?5?$AAi@ ; `string'
PUBLIC	??_C@_01JOAMLHOP@?9@				; `string'
PUBLIC	??_C@_01MIFGBAGJ@?$CL@				; `string'
PUBLIC	??_C@_04JIMNDDED@?$CF08X@			; `string'
PUBLIC	?__LINE__Var@?0??InputText@ImGui@@YA_NPEBDPEAD_KHP6AHPEAUImGuiInputTextCallbackData@@@ZPEAX@Z@4JA ; `ImGui::InputText'::`1'::__LINE__Var
PUBLIC	??_C@_1FC@IFNBIILP@?$AA?$CB?$AA?$CI?$AAf?$AAl?$AAa?$AAg?$AAs?$AA?5?$AA?$CG?$AA?5?$AAI?$AAm?$AAG?$AAu?$AAi@ ; `string'
PUBLIC	?__LINE__Var@?0??InputTextWithHint@ImGui@@YA_NPEBD0PEAD_KHP6AHPEAUImGuiInputTextCallbackData@@@ZPEAX@Z@4JA ; `ImGui::InputTextWithHint'::`1'::__LINE__Var
PUBLIC	?__LINE__Var@?0??STB_TEXTEDIT_INSERTCHARS@ImStb@@YA_NPEAUImGuiInputTextState@@HPEBGH@Z@4JA ; `ImStb::STB_TEXTEDIT_INSERTCHARS'::`1'::__LINE__Var
PUBLIC	??_C@_1CA@MNHDBBDP@?$AAp?$AAo?$AAs?$AA?5?$AA?$DM?$AA?$DN?$AA?5?$AAt?$AAe?$AAx?$AAt?$AA_?$AAl?$AAe?$AAn@ ; `string'
PUBLIC	??_C@_1DG@IEAPMEMO@?$AAt?$AAe?$AAx?$AAt?$AA_?$AAl?$AAe?$AAn?$AA?5?$AA?$DM?$AA?5?$AAo?$AAb?$AAj?$AA?9@ ; `string'
PUBLIC	?__LINE__Var@?0??stb_textedit_discard_redo@ImStb@@YAXPEAUStbUndoState@2@@Z@4JA ; `ImStb::stb_textedit_discard_redo'::`1'::__LINE__Var
PUBLIC	??_C@_1GO@MBLIEGNC@?$AAC?$AA?3?$AA?2?$AAd?$AAe?$AAv?$AA?2?$AAR?$AAa?$AAi?$AAs?$AAi?$AAn?$AA?2?$AAR@ ; `string'
PUBLIC	??_C@_1HI@OHEJKGLD@?$AA?$CI?$AA?$CI?$AAc?$AAh?$AAa?$AAr?$AA?$CK?$AA?$CJ?$AA?$CI?$AAs?$AAt?$AAa?$AAt?$AAe?$AA?9@ ; `string'
PUBLIC	??_C@_1JE@JEJNCKKO@?$AA?$CI?$AA?$CI?$AAc?$AAh?$AAa?$AAr?$AA?$CK?$AA?$CJ?$AA?$CI?$AAs?$AAt?$AAa?$AAt?$AAe?$AA?9@ ; `string'
PUBLIC	?__LINE__Var@?0??stb_textedit_replace@ImStb@@YAXPEAUImGuiInputTextState@@PEAUSTB_TexteditState@2@PEBGH@Z@4JA ; `ImStb::stb_textedit_replace'::`1'::__LINE__Var
PUBLIC	?__LINE__Var@?0??DeleteChars@ImGuiInputTextCallbackData@@QEAAXHH@Z@4JA ; `ImGuiInputTextCallbackData::DeleteChars'::`1'::__LINE__Var
PUBLIC	??_C@_1EA@OOMMGKHM@?$AAp?$AAo?$AAs?$AA?5?$AA?$CL?$AA?5?$AAb?$AAy?$AAt?$AAe?$AAs?$AA_?$AAc?$AAo?$AAu@ ; `string'
PUBLIC	?__LINE__Var@?0??InsertChars@ImGuiInputTextCallbackData@@QEAAXHPEBD0@Z@4JA ; `ImGuiInputTextCallbackData::InsertChars'::`1'::__LINE__Var
PUBLIC	??_C@_1GI@EFFMAEBL@?$AAe?$AAd?$AAi?$AAt?$AA_?$AAs?$AAt?$AAa?$AAt?$AAe?$AA?9?$AA?$DO?$AAI?$AAD?$AA?5@ ; `string'
PUBLIC	??_C@_1DM@LDGOBGNL@?$AAB?$AAu?$AAf?$AA?5?$AA?$DN?$AA?$DN?$AA?5?$AAe?$AAd?$AAi?$AAt?$AA_?$AAs?$AAt?$AAa@ ; `string'
PUBLIC	?__LINE__Var@?0??InputTextFilterCharacter@@YA_NPEAIHP6AHPEAUImGuiInputTextCallbackData@@@ZPEAXW4ImGuiInputSource@@@Z@4JA ; `InputTextFilterCharacter'::`1'::__LINE__Var
PUBLIC	??_C@_1LA@GNNDJIHJ@?$AAi?$AAn?$AAp?$AAu?$AAt?$AA_?$AAs?$AAo?$AAu?$AAr?$AAc?$AAe?$AA?5?$AA?$DN?$AA?$DN@ ; `string'
PUBLIC	?__LINE__Var@?0??InputTextEx@ImGui@@YA_NPEBD0PEADHAEBUImVec2@@HP6AHPEAUImGuiInputTextCallbackData@@@ZPEAX@Z@4JA ; `ImGui::InputTextEx'::`1'::__LINE__Var
PUBLIC	??_C@_1DE@KCJLPEOI@?$AAb?$AAu?$AAf?$AA?5?$AA?$CB?$AA?$DN?$AA?5?$AA0?$AA?5?$AA?$CG?$AA?$CG?$AA?5?$AAb?$AAu?$AAf@ ; `string'
PUBLIC	??_C@_1LI@BDNHGOFF@?$AA?$CB?$AA?$CI?$AA?$CI?$AAf?$AAl?$AAa?$AAg?$AAs?$AA?5?$AA?$CG?$AA?5?$AAI?$AAm?$AAG?$AAu@ ; `string'
PUBLIC	??_C@_1MG@MGOPIKJM@?$AA?$CB?$AA?$CI?$AA?$CI?$AAf?$AAl?$AAa?$AAg?$AAs?$AA?5?$AA?$CG?$AA?5?$AAI?$AAm?$AAG?$AAu@ ; `string'
PUBLIC	??_C@_1BM@CBGPMFEC@?$AAc?$AAa?$AAl?$AAl?$AAb?$AAa?$AAc?$AAk?$AA?5?$AA?$CB?$AA?$DN?$AA?5?$AA0@ ; `string'
PUBLIC	??_C@_1DC@CMKEKNGP@?$AAs?$AAt?$AAa?$AAt?$AAe?$AA?5?$AA?$CG?$AA?$CG?$AA?5?$AAs?$AAt?$AAa?$AAt?$AAe?$AA?9@ ; `string'
PUBLIC	??_C@_1NI@EFFIGGBI@?$AAp?$AAa?$AAs?$AAs?$AAw?$AAo?$AAr?$AAd?$AA_?$AAf?$AAo?$AAn?$AAt?$AA?9?$AA?$DO@ ; `string'
PUBLIC	??_C@_1BG@FOPGMADN@?$AAs?$AAt?$AAa?$AAt?$AAe?$AA?5?$AA?$CB?$AA?$DN?$AA?5?$AA0@ ; `string'
PUBLIC	??_C@_0EH@IKLAPCIG@Mismatching?5io?4KeyCtrl?1io?4KeySh@ ; `string'
PUBLIC	??_C@_1OC@MAFKNLH@?$AAi?$AAo?$AA?4?$AAK?$AAe?$AAy?$AAM?$AAo?$AAd?$AAs?$AA?5?$AA?$DN?$AA?$DN?$AA?5?$AAG@ ; `string'
PUBLIC	??_C@_1EO@GEAEFBFI@?$AAc?$AAa?$AAl?$AAl?$AAb?$AAa?$AAc?$AAk?$AA_?$AAd?$AAa?$AAt?$AAa?$AA?4?$AAB@ ; `string'
PUBLIC	??_C@_1FK@GDPCIOA@?$AAc?$AAa?$AAl?$AAl?$AAb?$AAa?$AAc?$AAk?$AA_?$AAd?$AAa?$AAt?$AAa?$AA?4?$AAB@ ; `string'
PUBLIC	??_C@_1DK@HOPDKFNI@?$AAc?$AAa?$AAl?$AAl?$AAb?$AAa?$AAc?$AAk?$AA_?$AAd?$AAa?$AAt?$AAa?$AA?4?$AAF@ ; `string'
PUBLIC	??_C@_1HG@EHLBBEIB@?$AAc?$AAa?$AAl?$AAl?$AAb?$AAa?$AAc?$AAk?$AA_?$AAd?$AAa?$AAt?$AAa?$AA?4?$AAB@ ; `string'
PUBLIC	??_C@_1DG@CHDFECEK@?$AAa?$AAp?$AAp?$AAl?$AAy?$AA_?$AAn?$AAe?$AAw?$AA_?$AAt?$AAe?$AAx?$AAt?$AA_@ ; `string'
PUBLIC	??_C@_1EE@MOOHJKEO@?$AAa?$AAp?$AAp?$AAl?$AAy?$AA_?$AAn?$AAe?$AAw?$AA_?$AAt?$AAe?$AAx?$AAt?$AA_@ ; `string'
PUBLIC	?__LINE__Var@?0??ColorEdit4@ImGui@@YA_NPEBDQEAMH@Z@4JA ; `ImGui::ColorEdit4'::`1'::__LINE__Var
PUBLIC	??_C@_1HC@IFIJNDDD@?$AAI?$AAm?$AAI?$AAs?$AAP?$AAo?$AAw?$AAe?$AAr?$AAO?$AAf?$AAT?$AAw?$AAo?$AA?$CI@ ; `string'
PUBLIC	??_C@_1GO@CDHIBPHM@?$AAI?$AAm?$AAI?$AAs?$AAP?$AAo?$AAw?$AAe?$AAr?$AAO?$AAf?$AAT?$AAw?$AAo?$AA?$CI@ ; `string'
PUBLIC	??_C@_07FFNLLALM@M?30?4000@			; `string'
PUBLIC	??_C@_05BNGMMMAL@M?3000@			; `string'
PUBLIC	??_C@_07JKKCBBMM@context@			; `string'
PUBLIC	??_C@_0BC@CKPCOFBK@?$CD?$CF02X?$CF02X?$CF02X?$CF02X@ ; `string'
PUBLIC	??_C@_0O@MBPBDFLP@?$CD?$CF02X?$CF02X?$CF02X@	; `string'
PUBLIC	??_C@_06MNCEJPDI@?$CD?$CDText@			; `string'
PUBLIC	??_C@_0BB@DDMGLOLI@?$CF02X?$CF02X?$CF02X?$CF02X@ ; `string'
PUBLIC	??_C@_0N@KODLFHPJ@?$CF02X?$CF02X?$CF02X@	; `string'
PUBLIC	??_C@_0O@GLNBIEEK@?$CD?$CDColorButton@		; `string'
PUBLIC	??_C@_06MAKAMBBI@picker@			; `string'
PUBLIC	??_C@_08HHEANBBL@?$CD?$CDpicker@		; `string'
PUBLIC	??_C@_06LFKNFKEK@_COL3F@			; `string'
PUBLIC	??_C@_06LAOCEMMP@_COL4F@			; `string'
PUBLIC	?__LINE__Var@?0??ColorPicker4@ImGui@@YA_NPEBDQEAMHPEBM@Z@4JA ; `ImGui::ColorPicker4'::`1'::__LINE__Var
PUBLIC	??_C@_1HA@IEGAFBEB@?$AAI?$AAm?$AAI?$AAs?$AAP?$AAo?$AAw?$AAe?$AAr?$AAO?$AAf?$AAT?$AAw?$AAo?$AA?$CI@ ; `string'
PUBLIC	??_C@_03PPLPHHG@hsv@				; `string'
PUBLIC	??_C@_02CPGMCOJE@sv@				; `string'
PUBLIC	??_C@_03GKJJMKFG@hue@				; `string'
PUBLIC	??_C@_05IAEKHIAN@alpha@				; `string'
PUBLIC	??_C@_07EDIFFIJI@Current@			; `string'
PUBLIC	??_C@_09CDENILGE@?$CD?$CDcurrent@		; `string'
PUBLIC	??_C@_08DCPBJHAO@Original@			; `string'
PUBLIC	??_C@_0L@IGJKOBOK@?$CD?$CDoriginal@		; `string'
PUBLIC	??_C@_05JCABMAIH@?$CD?$CDrgb@			; `string'
PUBLIC	??_C@_05JICEKLIF@?$CD?$CDhsv@			; `string'
PUBLIC	??_C@_05BOAMFJMJ@?$CD?$CDhex@			; `string'
PUBLIC	??_C@_05PDOBBJNA@Color@				; `string'
PUBLIC	?__LINE__Var@?0??SetColorEditOptions@ImGui@@YAXH@Z@4JA ; `ImGui::SetColorEditOptions'::`1'::__LINE__Var
PUBLIC	??_C@_1HE@ECJOEGME@?$AAI?$AAm?$AAI?$AAs?$AAP?$AAo?$AAw?$AAe?$AAr?$AAO?$AAf?$AAT?$AAw?$AAo?$AA?$CI@ ; `string'
PUBLIC	??_C@_09JCCDBEFL@?$CD?$CDpreview@		; `string'
PUBLIC	??_C@_0DF@FAPNKOHO@?$CD?$CF02X?$CF02X?$CF02X?6R?3?5?$CFd?0?5G?3?5?$CFd?0?5B?3?5@ ; `string'
PUBLIC	??_C@_0EC@EBPMGCGK@?$CD?$CF02X?$CF02X?$CF02X?$CF02X?6R?3?$CFd?0?5G?3?$CFd?0?5B@ ; `string'
PUBLIC	??_C@_0BK@HKNBICJE@H?3?5?$CF?43f?0?5S?3?5?$CF?43f?0?5V?3?5?$CF?43f@ ; `string'
PUBLIC	??_C@_0CD@EEDEAEPG@H?3?5?$CF?43f?0?5S?3?5?$CF?43f?0?5V?3?5?$CF?43f?0?5A?3?5?$CF@ ; `string'
PUBLIC	??_C@_03ICFFBAI@RGB@				; `string'
PUBLIC	??_C@_03CAADKAK@HSV@				; `string'
PUBLIC	??_C@_03CJOBKKAE@Hex@				; `string'
PUBLIC	??_C@_06FDBEKFBH@0?4?4255@			; `string'
PUBLIC	??_C@_0L@MDNPBJBM@0?400?4?41?400@		; `string'
PUBLIC	??_C@_09NMCCFHEI@Copy?5as?4?4@			; `string'
PUBLIC	??_C@_04OPMHGHMB@Copy@				; `string'
PUBLIC	??_C@_0BN@GKCJMPCH@?$CI?$CF?43ff?0?5?$CF?43ff?0?5?$CF?43ff?0?5?$CF?43ff?$CJ@ ; `string'
PUBLIC	??_C@_0O@EJHNAHBL@?$CI?$CFd?0?$CFd?0?$CFd?0?$CFd?$CJ@ ; `string'
PUBLIC	??_C@_0N@KFBFGFJL@?$CD?$CDselectable@		; `string'
PUBLIC	??_C@_0BE@ENPGBMIC@?$CD?$CDpreviewing_picker@	; `string'
PUBLIC	??_C@_09KEDLMDJL@Alpha?5Bar@			; `string'
PUBLIC	?__LINE__Var@?0??TreeNodeBehavior@ImGui@@YA_NIHPEBD0@Z@4JA ; `ImGui::TreeNodeBehavior'::`1'::__LINE__Var
PUBLIC	??_C@_1GM@OMMPBCGC@?$AAb?$AAu?$AAt?$AAt?$AAo?$AAn?$AA_?$AAf?$AAl?$AAa?$AAg?$AAs?$AA?5?$AA?$CG?$AA?5@ ; `string'
PUBLIC	??_C@_03OIJOKPOL@?$CD?$CD?$CD@			; `string'
PUBLIC	??_C@_01PPODPGHN@?$DO@				; `string'
PUBLIC	??_C@_09GHACPMKF@?$CDTreePush@			; `string'
PUBLIC	?__LINE__Var@?0??TreePop@ImGui@@YAXXZ@4JA	; `ImGui::TreePop'::`1'::__LINE__Var
PUBLIC	??_C@_1DC@KOOPJPAL@?$AAw?$AAi?$AAn?$AAd?$AAo?$AAw?$AA?9?$AA?$DO?$AAI?$AAD?$AAS?$AAt?$AAa?$AAc?$AAk@ ; `string'
PUBLIC	??_C@_06KIIKKNMI@?$CDCLOSE@			; `string'
PUBLIC	?__LINE__Var@?0??EndListBox@ImGui@@YAXXZ@4JA	; `ImGui::EndListBox'::`1'::__LINE__Var
PUBLIC	??_C@_0FJ@FLEOOEOG@Mismatched?5BeginListBox?1EndList@ ; `string'
PUBLIC	??_C@_1BBK@DDPDAAPA@?$AA?$CI?$AAw?$AAi?$AAn?$AAd?$AAo?$AAw?$AA?9?$AA?$DO?$AAF?$AAl?$AAa?$AAg?$AAs?$AA?5@ ; `string'
PUBLIC	?__LINE__Var@?0??PlotEx@ImGui@@YAHW4ImGuiPlotType@@PEBDP6AMPEAXH@Z2HH1MMUImVec2@@@Z@4JA ; `ImGui::PlotEx'::`1'::__LINE__Var
PUBLIC	??_C@_1EG@HCGMCBDC@?$AAv?$AA_?$AAi?$AAd?$AAx?$AA?5?$AA?$DO?$AA?$DN?$AA?5?$AA0?$AA?5?$AA?$CG?$AA?$CG?$AA?5?$AAv@ ; `string'
PUBLIC	??_C@_0BE@OBCBLNMM@?$CFd?3?5?$CF8?44g?6?$CFd?3?5?$CF8?44g@ ; `string'
PUBLIC	??_C@_09OADNPGHP@?$CFd?3?5?$CF8?44g@		; `string'
PUBLIC	??_C@_1EK@JIGPMMPH@?$AAv?$AA1?$AA_?$AAi?$AAd?$AAx?$AA?5?$AA?$DO?$AA?$DN?$AA?5?$AA0?$AA?5?$AA?$CG?$AA?$CG?$AA?5@ ; `string'
PUBLIC	??_C@_04LOAJBDKD@true@				; `string'
PUBLIC	??_C@_05LAPONLG@false@				; `string'
PUBLIC	??_C@_06DJHOIPC@?$CFs?3?5?$CFs@			; `string'
PUBLIC	??_C@_06GBEGMGE@?$CFs?3?5?$CFd@			; `string'
PUBLIC	??_C@_07EKEPIENH@?$CF?$CFs?3?5?$CFs@		; `string'
PUBLIC	??_C@_08KELGKKHF@?$CFs?3?5?$CF?43f@		; `string'
PUBLIC	?__LINE__Var@?0??Update@ImGuiMenuColumns@@QEAAXHM_N@Z@4JA ; `ImGuiMenuColumns::Update'::`1'::__LINE__Var
PUBLIC	??_C@_1FO@NFEGNMHD@?$AAc?$AAo?$AAu?$AAn?$AAt?$AA?5?$AA?$DN?$AA?$DN?$AA?5?$AA?$CI?$AA?$CI?$AAi?$AAn?$AAt?$AA?$CJ@ ; `string'
PUBLIC	?__LINE__Var@?0??BeginMenuBar@ImGui@@YA_NXZ@4JA	; `ImGui::BeginMenuBar'::`1'::__LINE__Var
PUBLIC	??_C@_1DK@MIADNLCN@?$AA?$CB?$AAw?$AAi?$AAn?$AAd?$AAo?$AAw?$AA?9?$AA?$DO?$AAD?$AAC?$AA?4?$AAM?$AAe?$AAn@ ; `string'
PUBLIC	??_C@_09FHPMMDGK@?$CD?$CDmenubar@		; `string'
PUBLIC	?__LINE__Var@?0??EndMenuBar@ImGui@@YAXXZ@4JA	; `ImGui::EndMenuBar'::`1'::__LINE__Var
PUBLIC	??_C@_1GE@MKPILOEH@?$AAw?$AAi?$AAn?$AAd?$AAo?$AAw?$AA?9?$AA?$DO?$AAD?$AAC?$AA?4?$AAN?$AAa?$AAv?$AAL@ ; `string'
PUBLIC	??_C@_1FC@MMAFNJJP@?$AAw?$AAi?$AAn?$AAd?$AAo?$AAw?$AA?9?$AA?$DO?$AAF?$AAl?$AAa?$AAg?$AAs?$AA?5?$AA?$CG@ ; `string'
PUBLIC	??_C@_1DI@HJHPMKIH@?$AAw?$AAi?$AAn?$AAd?$AAo?$AAw?$AA?9?$AA?$DO?$AAD?$AAC?$AA?4?$AAM?$AAe?$AAn?$AAu@ ; `string'
PUBLIC	?__LINE__Var@?0??BeginViewportSideBar@ImGui@@YA_NPEBDPEAUImGuiViewport@@HMH@Z@4JA ; `ImGui::BeginViewportSideBar'::`1'::__LINE__Var
PUBLIC	??_C@_1CK@MCAEPPML@?$AAd?$AAi?$AAr?$AA?5?$AA?$CB?$AA?$DN?$AA?5?$AAI?$AAm?$AAG?$AAu?$AAi?$AAD?$AAi?$AAr@ ; `string'
PUBLIC	??_C@_0O@BKOLOJFE@?$CD?$CDMainMenuBar@		; `string'
PUBLIC	?__LINE__Var@?0??EndTabBar@ImGui@@YAXXZ@4JA	; `ImGui::EndTabBar'::`1'::__LINE__Var
PUBLIC	??_C@_0CG@DPIPLNLI@Mismatched?5BeginTabBar?$CI?$CJ?1EndTab@ ; `string'
PUBLIC	??_C@_1HE@HMPOLDED@?$AA?$CI?$AAt?$AAa?$AAb?$AA_?$AAb?$AAa?$AAr?$AA?5?$AA?$CB?$AA?$DN?$AA?5?$AA0?$AA?$CJ?$AA?5@ ; `string'
PUBLIC	?__LINE__Var@?0??TabBarLayout@ImGui@@YAXPEAUImGuiTabBar@@@Z@4JA ; `ImGui::TabBarLayout'::`1'::__LINE__Var
PUBLIC	??_C@_1GG@ODBMJKON@?$AAt?$AAa?$AAb?$AA?9?$AA?$DO?$AAL?$AAa?$AAs?$AAt?$AAF?$AAr?$AAa?$AAm?$AAe?$AAV@ ; `string'
PUBLIC	??_C@_1DC@IMDNAHCI@?$AAt?$AAa?$AAb?$AA?9?$AA?$DO?$AAC?$AAo?$AAn?$AAt?$AAe?$AAn?$AAt?$AAW?$AAi?$AAd@ ; `string'
PUBLIC	?__LINE__Var@?0??TabBarCloseTab@ImGui@@YAXPEAUImGuiTabBar@@PEAUImGuiTabItem@@@Z@4JA ; `ImGui::TabBarCloseTab'::`1'::__LINE__Var
PUBLIC	??_C@_1FC@JMLJLLDN@?$AA?$CB?$AA?$CI?$AAt?$AAa?$AAb?$AA?9?$AA?$DO?$AAF?$AAl?$AAa?$AAg?$AAs?$AA?5?$AA?$CG?$AA?5@ ; `string'
PUBLIC	?__LINE__Var@?0??TabBarQueueReorder@ImGui@@YAXPEAUImGuiTabBar@@PEBUImGuiTabItem@@H@Z@4JA ; `ImGui::TabBarQueueReorder'::`1'::__LINE__Var
PUBLIC	??_C@_1BI@DOPCJBFN@?$AAo?$AAf?$AAf?$AAs?$AAe?$AAt?$AA?5?$AA?$CB?$AA?$DN?$AA?5?$AA0@ ; `string'
PUBLIC	??_C@_1EE@NGAACFPK@?$AAt?$AAa?$AAb?$AA_?$AAb?$AAa?$AAr?$AA?9?$AA?$DO?$AAR?$AAe?$AAo?$AAr?$AAd?$AAe@ ; `string'
PUBLIC	?__LINE__Var@?0??TabBarQueueReorderFromMousePos@ImGui@@YAXPEAUImGuiTabBar@@PEBUImGuiTabItem@@UImVec2@@@Z@4JA ; `ImGui::TabBarQueueReorderFromMousePos'::`1'::__LINE__Var
PUBLIC	??_C@_03CFMEKBHF@?$CD?$CD?$DM@			; `string'
PUBLIC	??_C@_03BHPCMDPH@?$CD?$CD?$DO@			; `string'
PUBLIC	??_C@_03CPFCAGPK@?$CD?$CDv@			; `string'
PUBLIC	?__LINE__Var@?0??BeginTabItem@ImGui@@YA_NPEBDPEA_NH@Z@4JA ; `ImGui::BeginTabItem'::`1'::__LINE__Var
PUBLIC	??_C@_0DK@EHILAJFJ@Needs?5to?5be?5called?5between?5Begi@ ; `string'
PUBLIC	??_C@_1JC@EEMJDIKN@?$AA?$CI?$AAt?$AAa?$AAb?$AA_?$AAb?$AAa?$AAr?$AA?$CJ?$AA?5?$AA?$CG?$AA?$CG?$AA?5?$AA?$CC?$AAN@ ; `string'
PUBLIC	??_C@_1EI@NKMOAMGI@?$AA?$CB?$AA?$CI?$AAf?$AAl?$AAa?$AAg?$AAs?$AA?5?$AA?$CG?$AA?5?$AAI?$AAm?$AAG?$AAu?$AAi@ ; `string'
PUBLIC	?__LINE__Var@?0??EndTabItem@ImGui@@YAXXZ@4JA	; `ImGui::EndTabItem'::`1'::__LINE__Var
PUBLIC	??_C@_1JM@OHPMLLD@?$AA?$CI?$AAt?$AAa?$AAb?$AA_?$AAb?$AAa?$AAr?$AA?5?$AA?$CB?$AA?$DN?$AA?5?$AA0?$AA?$CJ?$AA?5@ ; `string'
PUBLIC	??_C@_1DK@HGEILAOB@?$AAt?$AAa?$AAb?$AA_?$AAb?$AAa?$AAr?$AA?9?$AA?$DO?$AAL?$AAa?$AAs?$AAt?$AAT?$AAa@ ; `string'
PUBLIC	?__LINE__Var@?0??TabItemButton@ImGui@@YA_NPEBDH@Z@4JA ; `ImGui::TabItemButton'::`1'::__LINE__Var
PUBLIC	?__LINE__Var@?0??TabItemEx@ImGui@@YA_NPEAUImGuiTabBar@@PEBDPEA_NH@Z@4JA ; `ImGui::TabItemEx'::`1'::__LINE__Var
PUBLIC	??_C@_1FO@JEBFCDGI@?$AA?$CB?$AAp?$AA_?$AAo?$AAp?$AAe?$AAn?$AA?5?$AA?$HM?$AA?$HM?$AA?5?$AA?$CB?$AA?$CI?$AAf?$AAl@ ; `string'
PUBLIC	??_C@_1PO@BEHLBGBB@?$AA?$CI?$AAf?$AAl?$AAa?$AAg?$AAs?$AA?5?$AA?$CG?$AA?5?$AA?$CI?$AAI?$AAm?$AAG?$AAu?$AAi@ ; `string'
PUBLIC	??_C@_04EBNJJJJI@?$CF?4?$CKs@			; `string'
PUBLIC	??_C@_1JA@BHHCJLLE@?$AA?$CB?$AAi?$AAs?$AA_?$AAt?$AAa?$AAb?$AA_?$AAb?$AAu?$AAt?$AAt?$AAo?$AAn?$AA?5@ ; `string'
PUBLIC	?__LINE__Var@?0??TabItemBackground@ImGui@@YAXPEAUImDrawList@@AEBUImRect@@HI@Z@4JA ; `ImGui::TabItemBackground'::`1'::__LINE__Var
PUBLIC	??_C@_1BK@HMBBPDPB@?$AAw?$AAi?$AAd?$AAt?$AAh?$AA?5?$AA?$DO?$AA?5?$AA0?$AA?4?$AA0?$AAf@ ; `string'
PUBLIC	??_C@_1DO@NPHOAPAC@?$AAi?$AAt?$AA?5?$AA?$DO?$AA?$DN?$AA?5?$AAD?$AAa?$AAt?$AAa?$AA?5?$AA?$CG?$AA?$CG?$AA?5?$AAi@ ; `string'
PUBLIC	??_C@_1BC@KCECIPDP@?$AAS?$AAi?$AAz?$AAe?$AA?5?$AA?$DO?$AA?5?$AA0@ ; `string'
PUBLIC	??_C@_1CG@GPMNJCJ@?$AAi?$AA?5?$AA?$DO?$AA?$DN?$AA?5?$AA0?$AA?5?$AA?$CG?$AA?$CG?$AA?5?$AAi?$AA?5?$AA?$DM?$AA?5?$AAS@ ; `string'
PUBLIC	??_C@_1FC@BIEMKEOL@?$AAp?$AA?5?$AA?$DO?$AA?$DN?$AA?5?$AAB?$AAu?$AAf?$AA?4?$AAD?$AAa?$AAt?$AAa?$AA?5?$AA?$CG@ ; `string'
PUBLIC	__real@00000000
PUBLIC	__real@0000000000000000
PUBLIC	__real@00800000
PUBLIC	__real@358637bd
PUBLIC	__real@3727c5ac
PUBLIC	__real@38d1b717
PUBLIC	__real@3b808081
PUBLIC	__real@3c23d70a
PUBLIC	__real@3cdd2f1b
PUBLIC	__real@3da3d70a
PUBLIC	__real@3dcccccd
PUBLIC	__real@3e09374c
PUBLIC	__real@3e19999a
PUBLIC	__real@3e4ccccd
PUBLIC	__real@3e800000
PUBLIC	__real@3e99999a
PUBLIC	__real@3eb0c6f7a0000000
PUBLIC	__real@3ecccccd
PUBLIC	__real@3f000000
PUBLIC	__real@3f0ccccd
PUBLIC	__real@3f19999a
PUBLIC	__real@3f266666
PUBLIC	__real@3f333333
PUBLIC	__real@3f350481
PUBLIC	__real@3f4ccccd
PUBLIC	__real@3f5db22d
PUBLIC	__real@3f5db3d0
PUBLIC	__real@3f7ff972
PUBLIC	__real@3f800000
PUBLIC	__real@3f99999a
PUBLIC	__real@3fb33333
PUBLIC	__real@3fc00000
PUBLIC	__real@3fe0000000000000
PUBLIC	__real@3ff0000000000000
PUBLIC	__real@40000000
PUBLIC	__real@4024000000000000
PUBLIC	__real@403f5c29
PUBLIC	__real@40400000
PUBLIC	__real@40490fdb
PUBLIC	__real@4059000000000000
PUBLIC	__real@40666666
PUBLIC	__real@40800000
PUBLIC	__real@40a00000
PUBLIC	__real@40c00000
PUBLIC	__real@40c90fdb
PUBLIC	__real@40e80000
PUBLIC	__real@41000000
PUBLIC	__real@41200000
PUBLIC	__real@41400000
PUBLIC	__real@41a00000
PUBLIC	__real@41f00000
PUBLIC	__real@428c0000
PUBLIC	__real@42c80000
PUBLIC	__real@437f0000
PUBLIC	__real@43b40000
PUBLIC	__real@43e0000000000000
PUBLIC	__real@47efffffe0000000
PUBLIC	__real@5f000000
PUBLIC	__real@7effffff
PUBLIC	__real@7f7fffff
PUBLIC	__real@7fdfffffffffffff
PUBLIC	__real@7fefffffffffffff
PUBLIC	__real@be800000
PUBLIC	__real@be99999a
PUBLIC	__real@bf000000
PUBLIC	__real@bf400000
PUBLIC	__real@bf5db3d0
PUBLIC	__real@bf800000
PUBLIC	__real@bfe0000000000000
PUBLIC	__real@c059000000000000
PUBLIC	__real@c2c80000
PUBLIC	__real@feffffff
PUBLIC	__real@ff7fffff
PUBLIC	__real@ffdfffffffffffff
PUBLIC	__real@ffefffffffffffff
PUBLIC	__xmm@7fffffffffffffff7fffffffffffffff
PUBLIC	__xmm@80000000000000008000000000000000
PUBLIC	__xmm@80000000800000008000000080000000
EXTRN	__imp__wassert:PROC
EXTRN	?Begin@ImGui@@YA_NPEBDPEA_NH@Z:PROC		; ImGui::Begin
EXTRN	?End@ImGui@@YAXXZ:PROC				; ImGui::End
EXTRN	?EndChild@ImGui@@YAXXZ:PROC			; ImGui::EndChild
EXTRN	?SetNextWindowPos@ImGui@@YAXAEBUImVec2@@H0@Z:PROC ; ImGui::SetNextWindowPos
EXTRN	?SetNextWindowSize@ImGui@@YAXAEBUImVec2@@H@Z:PROC ; ImGui::SetNextWindowSize
EXTRN	?SetNextWindowSizeConstraints@ImGui@@YAXAEBUImVec2@@0P6AXPEAUImGuiSizeCallbackData@@@ZPEAX@Z:PROC ; ImGui::SetNextWindowSizeConstraints
EXTRN	?GetContentRegionAvail@ImGui@@YA?AUImVec2@@XZ:PROC ; ImGui::GetContentRegionAvail
EXTRN	?GetScrollMaxY@ImGui@@YAMXZ:PROC		; ImGui::GetScrollMaxY
EXTRN	?PushFont@ImGui@@YAXPEAUImFont@@@Z:PROC		; ImGui::PushFont
EXTRN	?PopFont@ImGui@@YAXXZ:PROC			; ImGui::PopFont
EXTRN	?PushStyleColor@ImGui@@YAXHAEBUImVec4@@@Z:PROC	; ImGui::PushStyleColor
EXTRN	?PopStyleColor@ImGui@@YAXH@Z:PROC		; ImGui::PopStyleColor
EXTRN	?PushStyleVar@ImGui@@YAXHM@Z:PROC		; ImGui::PushStyleVar
EXTRN	?PushStyleVar@ImGui@@YAXHAEBUImVec2@@@Z:PROC	; ImGui::PushStyleVar
EXTRN	?PopStyleVar@ImGui@@YAXH@Z:PROC			; ImGui::PopStyleVar
EXTRN	?PushItemWidth@ImGui@@YAXM@Z:PROC		; ImGui::PushItemWidth
EXTRN	?PopItemWidth@ImGui@@YAXXZ:PROC			; ImGui::PopItemWidth
EXTRN	?SetNextItemWidth@ImGui@@YAXM@Z:PROC		; ImGui::SetNextItemWidth
EXTRN	?CalcItemWidth@ImGui@@YAMXZ:PROC		; ImGui::CalcItemWidth
EXTRN	?PushTextWrapPos@ImGui@@YAXM@Z:PROC		; ImGui::PushTextWrapPos
EXTRN	?PopTextWrapPos@ImGui@@YAXXZ:PROC		; ImGui::PopTextWrapPos
EXTRN	?GetFontTexUvWhitePixel@ImGui@@YA?AUImVec2@@XZ:PROC ; ImGui::GetFontTexUvWhitePixel
EXTRN	?GetColorU32@ImGui@@YAIHM@Z:PROC		; ImGui::GetColorU32
EXTRN	?GetColorU32@ImGui@@YAIAEBUImVec4@@@Z:PROC	; ImGui::GetColorU32
EXTRN	?SameLine@ImGui@@YAXMM@Z:PROC			; ImGui::SameLine
EXTRN	?Indent@ImGui@@YAXM@Z:PROC			; ImGui::Indent
EXTRN	?Unindent@ImGui@@YAXM@Z:PROC			; ImGui::Unindent
EXTRN	?BeginGroup@ImGui@@YAXXZ:PROC			; ImGui::BeginGroup
EXTRN	?EndGroup@ImGui@@YAXXZ:PROC			; ImGui::EndGroup
EXTRN	?GetCursorScreenPos@ImGui@@YA?AUImVec2@@XZ:PROC	; ImGui::GetCursorScreenPos
EXTRN	?SetCursorScreenPos@ImGui@@YAXAEBUImVec2@@@Z:PROC ; ImGui::SetCursorScreenPos
EXTRN	?GetTextLineHeight@ImGui@@YAMXZ:PROC		; ImGui::GetTextLineHeight
EXTRN	?GetTextLineHeightWithSpacing@ImGui@@YAMXZ:PROC	; ImGui::GetTextLineHeightWithSpacing
EXTRN	?GetFrameHeight@ImGui@@YAMXZ:PROC		; ImGui::GetFrameHeight
EXTRN	?PushID@ImGui@@YAXPEBD@Z:PROC			; ImGui::PushID
EXTRN	?PushID@ImGui@@YAXPEBX@Z:PROC			; ImGui::PushID
EXTRN	?PushID@ImGui@@YAXH@Z:PROC			; ImGui::PushID
EXTRN	?PopID@ImGui@@YAXXZ:PROC			; ImGui::PopID
EXTRN	?GetID@ImGui@@YAIPEBD@Z:PROC			; ImGui::GetID
EXTRN	?EndTooltip@ImGui@@YAXXZ:PROC			; ImGui::EndTooltip
EXTRN	?SetTooltip@ImGui@@YAXPEBDZZ:PROC		; ImGui::SetTooltip
EXTRN	?BeginPopup@ImGui@@YA_NPEBDH@Z:PROC		; ImGui::BeginPopup
EXTRN	?EndPopup@ImGui@@YAXXZ:PROC			; ImGui::EndPopup
EXTRN	?OpenPopup@ImGui@@YAXPEBDH@Z:PROC		; ImGui::OpenPopup
EXTRN	?OpenPopupOnItemClick@ImGui@@YAXPEBDH@Z:PROC	; ImGui::OpenPopupOnItemClick
EXTRN	?CloseCurrentPopup@ImGui@@YAXXZ:PROC		; ImGui::CloseCurrentPopup
EXTRN	?LogText@ImGui@@YAXPEBDZZ:PROC			; ImGui::LogText
EXTRN	?BeginDragDropSource@ImGui@@YA_NH@Z:PROC	; ImGui::BeginDragDropSource
EXTRN	?SetDragDropPayload@ImGui@@YA_NPEBDPEBX_KH@Z:PROC ; ImGui::SetDragDropPayload
EXTRN	?EndDragDropSource@ImGui@@YAXXZ:PROC		; ImGui::EndDragDropSource
EXTRN	?BeginDragDropTarget@ImGui@@YA_NXZ:PROC		; ImGui::BeginDragDropTarget
EXTRN	?AcceptDragDropPayload@ImGui@@YAPEBUImGuiPayload@@PEBDH@Z:PROC ; ImGui::AcceptDragDropPayload
EXTRN	?EndDragDropTarget@ImGui@@YAXXZ:PROC		; ImGui::EndDragDropTarget
EXTRN	?PushClipRect@ImGui@@YAXAEBUImVec2@@0_N@Z:PROC	; ImGui::PushClipRect
EXTRN	?PopClipRect@ImGui@@YAXXZ:PROC			; ImGui::PopClipRect
EXTRN	?SetItemDefaultFocus@ImGui@@YAXXZ:PROC		; ImGui::SetItemDefaultFocus
EXTRN	?IsItemHovered@ImGui@@YA_NH@Z:PROC		; ImGui::IsItemHovered
EXTRN	?IsItemActive@ImGui@@YA_NXZ:PROC		; ImGui::IsItemActive
EXTRN	?SetItemAllowOverlap@ImGui@@YAXXZ:PROC		; ImGui::SetItemAllowOverlap
EXTRN	?GetMainViewport@ImGui@@YAPEAUImGuiViewport@@XZ:PROC ; ImGui::GetMainViewport
EXTRN	?IsRectVisible@ImGui@@YA_NAEBUImVec2@@0@Z:PROC	; ImGui::IsRectVisible
EXTRN	?BeginChildFrame@ImGui@@YA_NIAEBUImVec2@@H@Z:PROC ; ImGui::BeginChildFrame
EXTRN	?EndChildFrame@ImGui@@YAXXZ:PROC		; ImGui::EndChildFrame
EXTRN	?CalcTextSize@ImGui@@YA?AUImVec2@@PEBD0_NM@Z:PROC ; ImGui::CalcTextSize
EXTRN	?ColorConvertFloat4ToU32@ImGui@@YAIAEBUImVec4@@@Z:PROC ; ImGui::ColorConvertFloat4ToU32
EXTRN	?ColorConvertRGBtoHSV@ImGui@@YAXMMMAEAM00@Z:PROC ; ImGui::ColorConvertRGBtoHSV
EXTRN	?ColorConvertHSVtoRGB@ImGui@@YAXMMMAEAM00@Z:PROC ; ImGui::ColorConvertHSVtoRGB
EXTRN	?IsKeyPressed@ImGui@@YA_NH_N@Z:PROC		; ImGui::IsKeyPressed
EXTRN	?IsMouseClicked@ImGui@@YA_NH_N@Z:PROC		; ImGui::IsMouseClicked
EXTRN	?IsMouseReleased@ImGui@@YA_NH@Z:PROC		; ImGui::IsMouseReleased
EXTRN	?IsMousePosValid@ImGui@@YA_NPEBUImVec2@@@Z:PROC	; ImGui::IsMousePosValid
EXTRN	?IsMouseDragging@ImGui@@YA_NHM@Z:PROC		; ImGui::IsMouseDragging
EXTRN	?SetMouseCursor@ImGui@@YAXH@Z:PROC		; ImGui::SetMouseCursor
EXTRN	?GetClipboardText@ImGui@@YAPEBDXZ:PROC		; ImGui::GetClipboardText
EXTRN	?SetClipboardText@ImGui@@YAXPEBD@Z:PROC		; ImGui::SetClipboardText
EXTRN	?MemAlloc@ImGui@@YAPEAX_K@Z:PROC		; ImGui::MemAlloc
EXTRN	?MemFree@ImGui@@YAXPEAX@Z:PROC			; ImGui::MemFree
EXTRN	?append@ImGuiTextBuffer@@QEAAXPEBD0@Z:PROC	; ImGuiTextBuffer::append
EXTRN	?GetInt@ImGuiStorage@@QEBAHIH@Z:PROC		; ImGuiStorage::GetInt
EXTRN	?SetInt@ImGuiStorage@@QEAAXIH@Z:PROC		; ImGuiStorage::SetInt
EXTRN	?GetIntRef@ImGuiStorage@@QEAAPEAHIH@Z:PROC	; ImGuiStorage::GetIntRef
EXTRN	??0ImGuiListClipper@@QEAA@XZ:PROC		; ImGuiListClipper::ImGuiListClipper
EXTRN	??1ImGuiListClipper@@QEAA@XZ:PROC		; ImGuiListClipper::~ImGuiListClipper
EXTRN	?Begin@ImGuiListClipper@@QEAAXHM@Z:PROC		; ImGuiListClipper::Begin
EXTRN	?Step@ImGuiListClipper@@QEAA_NXZ:PROC		; ImGuiListClipper::Step
EXTRN	?AddLine@ImDrawList@@QEAAXAEBUImVec2@@0IM@Z:PROC ; ImDrawList::AddLine
EXTRN	?AddRect@ImDrawList@@QEAAXAEBUImVec2@@0IMHM@Z:PROC ; ImDrawList::AddRect
EXTRN	?AddRectFilled@ImDrawList@@QEAAXAEBUImVec2@@0IMH@Z:PROC ; ImDrawList::AddRectFilled
EXTRN	?AddRectFilledMultiColor@ImDrawList@@QEAAXAEBUImVec2@@0IIII@Z:PROC ; ImDrawList::AddRectFilledMultiColor
EXTRN	?AddTriangle@ImDrawList@@QEAAXAEBUImVec2@@00IM@Z:PROC ; ImDrawList::AddTriangle
EXTRN	?AddCircle@ImDrawList@@QEAAXAEBUImVec2@@MIHM@Z:PROC ; ImDrawList::AddCircle
EXTRN	?AddCircleFilled@ImDrawList@@QEAAXAEBUImVec2@@MIH@Z:PROC ; ImDrawList::AddCircleFilled
EXTRN	?AddText@ImDrawList@@QEAAXPEBUImFont@@MAEBUImVec2@@IPEBD2MPEBUImVec4@@@Z:PROC ; ImDrawList::AddText
EXTRN	?AddPolyline@ImDrawList@@QEAAXPEBUImVec2@@HIHM@Z:PROC ; ImDrawList::AddPolyline
EXTRN	?AddConvexPolyFilled@ImDrawList@@QEAAXPEBUImVec2@@HI@Z:PROC ; ImDrawList::AddConvexPolyFilled
EXTRN	?AddImage@ImDrawList@@QEAAXPEAXAEBUImVec2@@111I@Z:PROC ; ImDrawList::AddImage
EXTRN	?PathArcTo@ImDrawList@@QEAAXAEBUImVec2@@MMMH@Z:PROC ; ImDrawList::PathArcTo
EXTRN	?PathArcToFast@ImDrawList@@QEAAXAEBUImVec2@@MHH@Z:PROC ; ImDrawList::PathArcToFast
EXTRN	?PrimReserve@ImDrawList@@QEAAXHH@Z:PROC		; ImDrawList::PrimReserve
EXTRN	?_TryMergeDrawCmds@ImDrawList@@QEAAXXZ:PROC	; ImDrawList::_TryMergeDrawCmds
EXTRN	?FindGlyph@ImFont@@QEBAPEBUImFontGlyph@@G@Z:PROC ; ImFont::FindGlyph
EXTRN	__imp___stdio_common_vsscanf:PROC
EXTRN	__imp_qsort:PROC
EXTRN	__imp_atof:PROC
EXTRN	?ImHashStr@@YAIPEBD_KI@Z:PROC			; ImHashStr
EXTRN	?ImStrncpy@@YAXPEADPEBD_K@Z:PROC		; ImStrncpy
EXTRN	?ImStrbolW@@YAPEBGPEBG0@Z:PROC			; ImStrbolW
EXTRN	?ImStrTrimBlanks@@YAXPEAD@Z:PROC		; ImStrTrimBlanks
EXTRN	?ImFormatString@@YAHPEAD_KPEBDZZ:PROC		; ImFormatString
EXTRN	?ImFormatStringV@@YAHPEAD_KPEBD0@Z:PROC		; ImFormatStringV
EXTRN	?ImTextStrToUtf8@@YAHPEADHPEBG1@Z:PROC		; ImTextStrToUtf8
EXTRN	?ImTextCharFromUtf8@@YAHPEAIPEBD1@Z:PROC	; ImTextCharFromUtf8
EXTRN	?ImTextStrFromUtf8@@YAHPEAGHPEBD1PEAPEBD@Z:PROC	; ImTextStrFromUtf8
EXTRN	?ImTextCountCharsFromUtf8@@YAHPEBD0@Z:PROC	; ImTextCountCharsFromUtf8
EXTRN	?ImTextCountUtf8BytesFromStr@@YAHPEBG0@Z:PROC	; ImTextCountUtf8BytesFromStr
EXTRN	?ImTriangleContainsPoint@@YA_NAEBUImVec2@@000@Z:PROC ; ImTriangleContainsPoint
EXTRN	?ImTriangleClosestPoint@@YA?AUImVec2@@AEBU1@000@Z:PROC ; ImTriangleClosestPoint
EXTRN	?ImTriangleBarycentricCoords@@YAXAEBUImVec2@@000AEAM11@Z:PROC ; ImTriangleBarycentricCoords
EXTRN	?GetID@ImGuiWindow@@QEAAIPEBD0@Z:PROC		; ImGuiWindow::GetID
EXTRN	?GetID@ImGuiWindow@@QEAAIPEBX@Z:PROC		; ImGuiWindow::GetID
EXTRN	?GetIDNoKeepAlive@ImGuiWindow@@QEAAIPEBD0@Z:PROC ; ImGuiWindow::GetIDNoKeepAlive
EXTRN	?FindWindowByName@ImGui@@YAPEAUImGuiWindow@@PEBD@Z:PROC ; ImGui::FindWindowByName
EXTRN	?CalcWindowNextAutoFitSize@ImGui@@YA?AUImVec2@@PEAUImGuiWindow@@@Z:PROC ; ImGui::CalcWindowNextAutoFitSize
EXTRN	?FocusWindow@ImGui@@YAXPEAUImGuiWindow@@@Z:PROC	; ImGui::FocusWindow
EXTRN	?FocusTopMostWindowUnderOne@ImGui@@YAXPEAUImGuiWindow@@0@Z:PROC ; ImGui::FocusTopMostWindowUnderOne
EXTRN	?StartMouseMovingWindow@ImGui@@YAXPEAUImGuiWindow@@@Z:PROC ; ImGui::StartMouseMovingWindow
EXTRN	?MarkIniSettingsDirty@ImGui@@YAXXZ:PROC		; ImGui::MarkIniSettingsDirty
EXTRN	?SetScrollY@ImGui@@YAXPEAUImGuiWindow@@M@Z:PROC	; ImGui::SetScrollY
EXTRN	?SetActiveID@ImGui@@YAXIPEAUImGuiWindow@@@Z:PROC ; ImGui::SetActiveID
EXTRN	?SetFocusID@ImGui@@YAXIPEAUImGuiWindow@@@Z:PROC	; ImGui::SetFocusID
EXTRN	?ClearActiveID@ImGui@@YAXXZ:PROC		; ImGui::ClearActiveID
EXTRN	?SetHoveredID@ImGui@@YAXI@Z:PROC		; ImGui::SetHoveredID
EXTRN	?KeepAliveID@ImGui@@YAXI@Z:PROC			; ImGui::KeepAliveID
EXTRN	?MarkItemEdited@ImGui@@YAXI@Z:PROC		; ImGui::MarkItemEdited
EXTRN	?PushOverrideID@ImGui@@YAXI@Z:PROC		; ImGui::PushOverrideID
EXTRN	?GetIDWithSeed@ImGui@@YAIPEBD0I@Z:PROC		; ImGui::GetIDWithSeed
EXTRN	?ItemSize@ImGui@@YAXAEBUImVec2@@M@Z:PROC	; ImGui::ItemSize
EXTRN	?ItemSize@ImGui@@YAXAEBUImRect@@M@Z:PROC	; ImGui::ItemSize
EXTRN	?ItemAdd@ImGui@@YA_NAEBUImRect@@IPEBU2@H@Z:PROC	; ImGui::ItemAdd
EXTRN	?ItemHoverable@ImGui@@YA_NAEBUImRect@@I@Z:PROC	; ImGui::ItemHoverable
EXTRN	?IsClippedEx@ImGui@@YA_NAEBUImRect@@I_N@Z:PROC	; ImGui::IsClippedEx
EXTRN	?CalcItemSize@ImGui@@YA?AUImVec2@@U2@MM@Z:PROC	; ImGui::CalcItemSize
EXTRN	?CalcWrapWidthForPos@ImGui@@YAMAEBUImVec2@@M@Z:PROC ; ImGui::CalcWrapWidthForPos
EXTRN	?PushMultiItemsWidths@ImGui@@YAXHM@Z:PROC	; ImGui::PushMultiItemsWidths
EXTRN	?PushItemFlag@ImGui@@YAXH_N@Z:PROC		; ImGui::PushItemFlag
EXTRN	?PopItemFlag@ImGui@@YAXXZ:PROC			; ImGui::PopItemFlag
EXTRN	?LogRenderedText@ImGui@@YAXPEBUImVec2@@PEBD1@Z:PROC ; ImGui::LogRenderedText
EXTRN	?LogSetNextTextDecoration@ImGui@@YAXPEBD0@Z:PROC ; ImGui::LogSetNextTextDecoration
EXTRN	?BeginChildEx@ImGui@@YA_NPEBDIAEBUImVec2@@_NH@Z:PROC ; ImGui::BeginChildEx
EXTRN	?OpenPopupEx@ImGui@@YAXIH@Z:PROC		; ImGui::OpenPopupEx
EXTRN	?ClosePopupToLevel@ImGui@@YAXH_N@Z:PROC		; ImGui::ClosePopupToLevel
EXTRN	?IsPopupOpen@ImGui@@YA_NIH@Z:PROC		; ImGui::IsPopupOpen
EXTRN	?BeginPopupEx@ImGui@@YA_NIH@Z:PROC		; ImGui::BeginPopupEx
EXTRN	?BeginTooltipEx@ImGui@@YAXHH@Z:PROC		; ImGui::BeginTooltipEx
EXTRN	?GetPopupAllowedExtentRect@ImGui@@YA?AUImRect@@PEAUImGuiWindow@@@Z:PROC ; ImGui::GetPopupAllowedExtentRect
EXTRN	?FindBestWindowPosForPopupEx@ImGui@@YA?AUImVec2@@AEBU2@0PEAHAEBUImRect@@2W4ImGuiPopupPositionPolicy@@@Z:PROC ; ImGui::FindBestWindowPosForPopupEx
EXTRN	?NavMoveRequestButNoResultYet@ImGui@@YA_NXZ:PROC ; ImGui::NavMoveRequestButNoResultYet
EXTRN	?NavMoveRequestCancel@ImGui@@YAXXZ:PROC		; ImGui::NavMoveRequestCancel
EXTRN	?GetNavInputAmount@ImGui@@YAMHW4ImGuiInputReadMode@@@Z:PROC ; ImGui::GetNavInputAmount
EXTRN	?GetNavInputAmount2d@ImGui@@YA?AUImVec2@@HW4ImGuiInputReadMode@@MM@Z:PROC ; ImGui::GetNavInputAmount2d
EXTRN	?CalcTypematicRepeatAmount@ImGui@@YAHMMMM@Z:PROC ; ImGui::CalcTypematicRepeatAmount
EXTRN	?SetNavID@ImGui@@YAXIW4ImGuiNavLayer@@IAEBUImRect@@@Z:PROC ; ImGui::SetNavID
EXTRN	?IsMouseDragPastThreshold@ImGui@@YA_NHM@Z:PROC	; ImGui::IsMouseDragPastThreshold
EXTRN	?GetMergedKeyModFlags@ImGui@@YAHXZ:PROC		; ImGui::GetMergedKeyModFlags
EXTRN	?PushColumnsBackground@ImGui@@YAXXZ:PROC	; ImGui::PushColumnsBackground
EXTRN	?PopColumnsBackground@ImGui@@YAXXZ:PROC		; ImGui::PopColumnsBackground
EXTRN	?TablePushBackgroundChannel@ImGui@@YAXXZ:PROC	; ImGui::TablePushBackgroundChannel
EXTRN	?TablePopBackgroundChannel@ImGui@@YAXXZ:PROC	; ImGui::TablePopBackgroundChannel
EXTRN	?RenderText@ImGui@@YAXUImVec2@@PEBD1_N@Z:PROC	; ImGui::RenderText
EXTRN	?RenderTextWrapped@ImGui@@YAXUImVec2@@PEBD1M@Z:PROC ; ImGui::RenderTextWrapped
EXTRN	?RenderTextClipped@ImGui@@YAXAEBUImVec2@@0PEBD1PEBU2@0PEBUImRect@@@Z:PROC ; ImGui::RenderTextClipped
EXTRN	?RenderTextEllipsis@ImGui@@YAXPEAUImDrawList@@AEBUImVec2@@1MMPEBD2PEBU3@@Z:PROC ; ImGui::RenderTextEllipsis
EXTRN	?RenderFrame@ImGui@@YAXUImVec2@@0I_NM@Z:PROC	; ImGui::RenderFrame
EXTRN	?RenderFrameBorder@ImGui@@YAXUImVec2@@0M@Z:PROC	; ImGui::RenderFrameBorder
EXTRN	?RenderColorRectWithAlphaCheckerboard@ImGui@@YAXPEAUImDrawList@@UImVec2@@1IM1MH@Z:PROC ; ImGui::RenderColorRectWithAlphaCheckerboard
EXTRN	?RenderNavHighlight@ImGui@@YAXAEBUImRect@@IH@Z:PROC ; ImGui::RenderNavHighlight
EXTRN	?FindRenderedTextEnd@ImGui@@YAPEBDPEBD0@Z:PROC	; ImGui::FindRenderedTextEnd
EXTRN	?RenderArrow@ImGui@@YAXPEAUImDrawList@@UImVec2@@IHM@Z:PROC ; ImGui::RenderArrow
EXTRN	?RenderBullet@ImGui@@YAXPEAUImDrawList@@UImVec2@@I@Z:PROC ; ImGui::RenderBullet
EXTRN	?RenderCheckMark@ImGui@@YAXPEAUImDrawList@@UImVec2@@IM@Z:PROC ; ImGui::RenderCheckMark
EXTRN	?RenderArrowPointingAt@ImGui@@YAXPEAUImDrawList@@UImVec2@@1HI@Z:PROC ; ImGui::RenderArrowPointingAt
EXTRN	?RenderRectFilledRangeH@ImGui@@YAXPEAUImDrawList@@AEBUImRect@@IMMM@Z:PROC ; ImGui::RenderRectFilledRangeH
EXTRN	?ShadeVertsLinearColorGradientKeepAlpha@ImGui@@YAXPEAUImDrawList@@HHUImVec2@@1II@Z:PROC ; ImGui::ShadeVertsLinearColorGradientKeepAlpha
EXTRN	_RTC_CheckStackVars:PROC
EXTRN	_RTC_InitBase:PROC
EXTRN	_RTC_Shutdown:PROC
EXTRN	__CheckForDebuggerJustMyCode:PROC
EXTRN	__CxxFrameHandler4:PROC
EXTRN	__GSHandlerCheck:PROC
EXTRN	__GSHandlerCheck_EH4:PROC
EXTRN	__chkstk:PROC
EXTRN	__security_check_cookie:PROC
EXTRN	atan2f:PROC
EXTRN	cosf:PROC
EXTRN	fmodf:PROC
EXTRN	log:PROC
EXTRN	logf:PROC
EXTRN	memchr:PROC
EXTRN	memcmp:PROC
EXTRN	memmove:PROC
EXTRN	pow:PROC
EXTRN	powf:PROC
EXTRN	sinf:PROC
EXTRN	?GImGui@@3PEAUImGuiContext@@EA:QWORD		; GImGui
EXTRN	__ImageBase:BYTE
EXTRN	__security_cookie:QWORD
EXTRN	_fltused:DWORD
;	COMDAT ?_OptionsStorage@?1??__local_stdio_scanf_options@@9@4_KA
_BSS	SEGMENT
?_OptionsStorage@?1??__local_stdio_scanf_options@@9@4_KA DQ 01H DUP (?) ; `__local_stdio_scanf_options'::`2'::_OptionsStorage
_BSS	ENDS
;	COMDAT pdata
pdata	SEGMENT
$pdata$??_H@YAXPEAX_K1P6APEAX0@Z@Z DD imagerel $LN7
	DD	imagerel $LN7+172
	DD	imagerel $unwind$??_H@YAXPEAX_K1P6APEAX0@Z@Z
pdata	ENDS
;	COMDAT pdata
pdata	SEGMENT
$pdata$??0ImVec2@@QEAA@XZ DD imagerel $LN3
	DD	imagerel $LN3+60
	DD	imagerel $unwind$??0ImVec2@@QEAA@XZ
pdata	ENDS
;	COMDAT pdata
pdata	SEGMENT
$pdata$??0ImVec2@@QEAA@MM@Z DD imagerel $LN3
	DD	imagerel $LN3+76
	DD	imagerel $unwind$??0ImVec2@@QEAA@MM@Z
pdata	ENDS
;	COMDAT pdata
pdata	SEGMENT
$pdata$??AImVec2@@QEBAM_K@Z DD imagerel $LN4
	DD	imagerel $LN4+86
	DD	imagerel $unwind$??AImVec2@@QEBAM_K@Z
pdata	ENDS
;	COMDAT pdata
pdata	SEGMENT
$pdata$??AImVec2@@QEAAAEAM_K@Z DD imagerel $LN4
	DD	imagerel $LN4+85
	DD	imagerel $unwind$??AImVec2@@QEAAAEAM_K@Z
pdata	ENDS
;	COMDAT pdata
pdata	SEGMENT
$pdata$??0ImVec4@@QEAA@XZ DD imagerel $LN3
	DD	imagerel $LN3+84
	DD	imagerel $unwind$??0ImVec4@@QEAA@XZ
pdata	ENDS
;	COMDAT pdata
pdata	SEGMENT
$pdata$??0ImVec4@@QEAA@MMMM@Z DD imagerel $LN3
	DD	imagerel $LN3+110
	DD	imagerel $unwind$??0ImVec4@@QEAA@MMMM@Z
pdata	ENDS
;	COMDAT pdata
pdata	SEGMENT
$pdata$?Separator@ImGui@@YAXXZ DD imagerel $LN6
	DD	imagerel $LN6+141
	DD	imagerel $unwind$?Separator@ImGui@@YAXXZ
pdata	ENDS
;	COMDAT pdata
pdata	SEGMENT
$pdata$?NewLine@ImGui@@YAXXZ DD imagerel $LN6
	DD	imagerel $LN6+217
	DD	imagerel $unwind$?NewLine@ImGui@@YAXXZ
pdata	ENDS
;	COMDAT pdata
pdata	SEGMENT
$pdata$?Spacing@ImGui@@YAXXZ DD imagerel $LN4
	DD	imagerel $LN4+97
	DD	imagerel $unwind$?Spacing@ImGui@@YAXXZ
pdata	ENDS
;	COMDAT pdata
pdata	SEGMENT
$pdata$?Dummy@ImGui@@YAXAEBUImVec2@@@Z DD imagerel $LN4
	DD	imagerel $LN4+235
	DD	imagerel $unwind$?Dummy@ImGui@@YAXAEBUImVec2@@@Z
pdata	ENDS
;	COMDAT pdata
pdata	SEGMENT
$pdata$?AlignTextToFramePadding@ImGui@@YAXXZ DD imagerel $LN4
	DD	imagerel $LN4+186
	DD	imagerel $unwind$?AlignTextToFramePadding@ImGui@@YAXXZ
pdata	ENDS
;	COMDAT pdata
pdata	SEGMENT
$pdata$?TextUnformatted@ImGui@@YAXPEBD0@Z DD imagerel $LN3
	DD	imagerel $LN3+71
	DD	imagerel $unwind$?TextUnformatted@ImGui@@YAXPEBD0@Z
pdata	ENDS
;	COMDAT pdata
pdata	SEGMENT
$pdata$?Text@ImGui@@YAXPEBDZZ DD imagerel $LN3
	DD	imagerel $LN3+164
	DD	imagerel $unwind$?Text@ImGui@@YAXPEBDZZ
pdata	ENDS
;	COMDAT pdata
pdata	SEGMENT
$pdata$?TextV@ImGui@@YAXPEBDPEAD@Z DD imagerel $LN4
	DD	imagerel $LN4+166
	DD	imagerel $unwind$?TextV@ImGui@@YAXPEBDPEAD@Z
pdata	ENDS
;	COMDAT pdata
pdata	SEGMENT
$pdata$?TextColored@ImGui@@YAXAEBUImVec4@@PEBDZZ DD imagerel $LN3
	DD	imagerel $LN3+171
	DD	imagerel $unwind$?TextColored@ImGui@@YAXAEBUImVec4@@PEBDZZ
pdata	ENDS
;	COMDAT pdata
pdata	SEGMENT
$pdata$?TextColoredV@ImGui@@YAXAEBUImVec4@@PEBDPEAD@Z DD imagerel $LN7
	DD	imagerel $LN7+281
	DD	imagerel $unwind$?TextColoredV@ImGui@@YAXAEBUImVec4@@PEBDPEAD@Z
pdata	ENDS
;	COMDAT pdata
pdata	SEGMENT
$pdata$?TextDisabled@ImGui@@YAXPEBDZZ DD imagerel $LN3
	DD	imagerel $LN3+164
	DD	imagerel $unwind$?TextDisabled@ImGui@@YAXPEBDZZ
pdata	ENDS
;	COMDAT pdata
pdata	SEGMENT
$pdata$?TextDisabledV@ImGui@@YAXPEBDPEAD@Z DD imagerel $LN7
	DD	imagerel $LN7+304
	DD	imagerel $unwind$?TextDisabledV@ImGui@@YAXPEBDPEAD@Z
pdata	ENDS
;	COMDAT pdata
pdata	SEGMENT
$pdata$?TextWrapped@ImGui@@YAXPEBDZZ DD imagerel $LN3
	DD	imagerel $LN3+164
	DD	imagerel $unwind$?TextWrapped@ImGui@@YAXPEBDZZ
pdata	ENDS
;	COMDAT pdata
pdata	SEGMENT
$pdata$?TextWrappedV@ImGui@@YAXPEBDPEAD@Z DD imagerel $LN11
	DD	imagerel $LN11+347
	DD	imagerel $unwind$?TextWrappedV@ImGui@@YAXPEBDPEAD@Z
pdata	ENDS
;	COMDAT pdata
pdata	SEGMENT
$pdata$?LabelText@ImGui@@YAXPEBD0ZZ DD imagerel $LN3
	DD	imagerel $LN3+171
	DD	imagerel $unwind$?LabelText@ImGui@@YAXPEBD0ZZ
pdata	ENDS
;	COMDAT pdata
pdata	SEGMENT
$pdata$?LabelTextV@ImGui@@YAXPEBD0PEAD@Z DD imagerel $LN8
	DD	imagerel $LN8+937
	DD	imagerel $unwind$?LabelTextV@ImGui@@YAXPEBD0PEAD@Z
pdata	ENDS
;	COMDAT pdata
pdata	SEGMENT
$pdata$?BulletText@ImGui@@YAXPEBDZZ DD imagerel $LN3
	DD	imagerel $LN3+164
	DD	imagerel $unwind$?BulletText@ImGui@@YAXPEBDZZ
pdata	ENDS
;	COMDAT pdata
pdata	SEGMENT
$pdata$?BulletTextV@ImGui@@YAXPEBDPEAD@Z DD imagerel $LN7
	DD	imagerel $LN7+819
	DD	imagerel $unwind$?BulletTextV@ImGui@@YAXPEBDPEAD@Z
pdata	ENDS
;	COMDAT pdata
pdata	SEGMENT
$pdata$?Button@ImGui@@YA_NPEBDAEBUImVec2@@@Z DD imagerel $LN3
	DD	imagerel $LN3+68
	DD	imagerel $unwind$?Button@ImGui@@YA_NPEBDAEBUImVec2@@@Z
pdata	ENDS
;	COMDAT pdata
pdata	SEGMENT
$pdata$?SmallButton@ImGui@@YA_NPEBD@Z DD imagerel $LN3
	DD	imagerel $LN3+147
	DD	imagerel $unwind$?SmallButton@ImGui@@YA_NPEBD@Z
pdata	ENDS
;	COMDAT pdata
pdata	SEGMENT
$pdata$?InvisibleButton@ImGui@@YA_NPEBDAEBUImVec2@@H@Z DD imagerel $LN8
	DD	imagerel $LN8+437
	DD	imagerel $unwind$?InvisibleButton@ImGui@@YA_NPEBDAEBUImVec2@@H@Z
pdata	ENDS
;	COMDAT pdata
pdata	SEGMENT
$pdata$?ArrowButton@ImGui@@YA_NPEBDH@Z DD imagerel $LN3
	DD	imagerel $LN3+101
	DD	imagerel $unwind$?ArrowButton@ImGui@@YA_NPEBDH@Z
pdata	ENDS
;	COMDAT pdata
pdata	SEGMENT
$pdata$?Image@ImGui@@YAXPEAXAEBUImVec2@@11AEBUImVec4@@2@Z DD imagerel $LN8
	DD	imagerel $LN8+752
	DD	imagerel $unwind$?Image@ImGui@@YAXPEAXAEBUImVec2@@11AEBUImVec4@@2@Z
pdata	ENDS
;	COMDAT pdata
pdata	SEGMENT
$pdata$?ImageButton@ImGui@@YA_NPEAXAEBUImVec2@@11HAEBUImVec4@@2@Z DD imagerel $LN6
	DD	imagerel $LN6+405
	DD	imagerel $unwind$?ImageButton@ImGui@@YA_NPEAXAEBUImVec2@@11HAEBUImVec4@@2@Z
pdata	ENDS
;	COMDAT pdata
pdata	SEGMENT
$pdata$?Checkbox@ImGui@@YA_NPEBDPEA_N@Z DD imagerel $LN25
	DD	imagerel $LN25+1678
	DD	imagerel $unwind$?Checkbox@ImGui@@YA_NPEBDPEA_N@Z
pdata	ENDS
;	COMDAT pdata
pdata	SEGMENT
$pdata$?CheckboxFlags@ImGui@@YA_NPEBDPEAHH@Z DD imagerel $LN3
	DD	imagerel $LN3+77
	DD	imagerel $unwind$?CheckboxFlags@ImGui@@YA_NPEBDPEAHH@Z
pdata	ENDS
;	COMDAT pdata
pdata	SEGMENT
$pdata$?CheckboxFlags@ImGui@@YA_NPEBDPEAII@Z DD imagerel $LN3
	DD	imagerel $LN3+77
	DD	imagerel $unwind$?CheckboxFlags@ImGui@@YA_NPEBDPEAII@Z
pdata	ENDS
;	COMDAT pdata
pdata	SEGMENT
$pdata$?RadioButton@ImGui@@YA_NPEBD_N@Z DD imagerel $LN18
	DD	imagerel $LN18+1583
	DD	imagerel $unwind$?RadioButton@ImGui@@YA_NPEBD_N@Z
pdata	ENDS
;	COMDAT pdata
pdata	SEGMENT
$pdata$?RadioButton@ImGui@@YA_NPEBDPEAHH@Z DD imagerel $LN6
	DD	imagerel $LN6+133
	DD	imagerel $unwind$?RadioButton@ImGui@@YA_NPEBDPEAHH@Z
pdata	ENDS
;	COMDAT pdata
pdata	SEGMENT
$pdata$?ProgressBar@ImGui@@YAXMAEBUImVec2@@PEBD@Z DD imagerel $LN7
	DD	imagerel $LN7+1082
	DD	imagerel $unwind$?ProgressBar@ImGui@@YAXMAEBUImVec2@@PEBD@Z
pdata	ENDS
;	COMDAT pdata
pdata	SEGMENT
$pdata$?Bullet@ImGui@@YAXXZ DD imagerel $LN5
	DD	imagerel $LN5+625
	DD	imagerel $unwind$?Bullet@ImGui@@YAXXZ
pdata	ENDS
;	COMDAT pdata
pdata	SEGMENT
$pdata$?BeginCombo@ImGui@@YA_NPEBD0H@Z DD imagerel $LN31
	DD	imagerel $LN31+2189
	DD	imagerel $unwind$?BeginCombo@ImGui@@YA_NPEBD0H@Z
pdata	ENDS
;	COMDAT pdata
pdata	SEGMENT
$pdata$?EndCombo@ImGui@@YAXXZ DD imagerel $LN3
	DD	imagerel $LN3+42
	DD	imagerel $unwind$?EndCombo@ImGui@@YAXXZ
pdata	ENDS
;	COMDAT pdata
pdata	SEGMENT
$pdata$?Combo@ImGui@@YA_NPEBDPEAHQEBQEBDHH@Z DD imagerel $LN3
	DD	imagerel $LN3+116
	DD	imagerel $unwind$?Combo@ImGui@@YA_NPEBDPEAHQEBQEBDHH@Z
pdata	ENDS
;	COMDAT pdata
pdata	SEGMENT
$pdata$?Combo@ImGui@@YA_NPEBDPEAH0H@Z DD imagerel $LN6
	DD	imagerel $LN6+221
	DD	imagerel $unwind$?Combo@ImGui@@YA_NPEBDPEAH0H@Z
pdata	ENDS
;	COMDAT pdata
pdata	SEGMENT
$pdata$?Combo@ImGui@@YA_NPEBDPEAHP6A_NPEAXHPEAPEBD@Z2HH@Z DD imagerel $LN15
	DD	imagerel $LN15+678
	DD	imagerel $unwind$?Combo@ImGui@@YA_NPEBDPEAHP6A_NPEAXHPEAPEBD@Z2HH@Z
pdata	ENDS
;	COMDAT pdata
pdata	SEGMENT
$pdata$?DragFloat@ImGui@@YA_NPEBDPEAMMMM0H@Z DD imagerel $LN3
	DD	imagerel $LN3+136
	DD	imagerel $unwind$?DragFloat@ImGui@@YA_NPEBDPEAMMMM0H@Z
pdata	ENDS
;	COMDAT pdata
pdata	SEGMENT
$pdata$?DragFloat2@ImGui@@YA_NPEBDQEAMMMM0H@Z DD imagerel $LN3
	DD	imagerel $LN3+148
	DD	imagerel $unwind$?DragFloat2@ImGui@@YA_NPEBDQEAMMMM0H@Z
pdata	ENDS
;	COMDAT pdata
pdata	SEGMENT
$pdata$?DragFloat3@ImGui@@YA_NPEBDQEAMMMM0H@Z DD imagerel $LN3
	DD	imagerel $LN3+148
	DD	imagerel $unwind$?DragFloat3@ImGui@@YA_NPEBDQEAMMMM0H@Z
pdata	ENDS
;	COMDAT pdata
pdata	SEGMENT
$pdata$?DragFloat4@ImGui@@YA_NPEBDQEAMMMM0H@Z DD imagerel $LN3
	DD	imagerel $LN3+148
	DD	imagerel $unwind$?DragFloat4@ImGui@@YA_NPEBDQEAMMMM0H@Z
pdata	ENDS
;	COMDAT pdata
pdata	SEGMENT
$pdata$?DragFloatRange2@ImGui@@YA_NPEBDPEAM1MMM00H@Z DD imagerel $LN18
	DD	imagerel $LN18+972
	DD	imagerel $unwind$?DragFloatRange2@ImGui@@YA_NPEBDPEAM1MMM00H@Z
pdata	ENDS
;	COMDAT pdata
pdata	SEGMENT
$pdata$?DragInt@ImGui@@YA_NPEBDPEAHMHH0H@Z DD imagerel $LN3
	DD	imagerel $LN3+135
	DD	imagerel $unwind$?DragInt@ImGui@@YA_NPEBDPEAHMHH0H@Z
pdata	ENDS
;	COMDAT pdata
pdata	SEGMENT
$pdata$?DragInt2@ImGui@@YA_NPEBDQEAHMHH0H@Z DD imagerel $LN3
	DD	imagerel $LN3+147
	DD	imagerel $unwind$?DragInt2@ImGui@@YA_NPEBDQEAHMHH0H@Z
pdata	ENDS
;	COMDAT pdata
pdata	SEGMENT
$pdata$?DragInt3@ImGui@@YA_NPEBDQEAHMHH0H@Z DD imagerel $LN3
	DD	imagerel $LN3+147
	DD	imagerel $unwind$?DragInt3@ImGui@@YA_NPEBDQEAHMHH0H@Z
pdata	ENDS
;	COMDAT pdata
pdata	SEGMENT
$pdata$?DragInt4@ImGui@@YA_NPEBDQEAHMHH0H@Z DD imagerel $LN3
	DD	imagerel $LN3+147
	DD	imagerel $unwind$?DragInt4@ImGui@@YA_NPEBDQEAHMHH0H@Z
pdata	ENDS
;	COMDAT pdata
pdata	SEGMENT
$pdata$?DragIntRange2@ImGui@@YA_NPEBDPEAH1MHH00H@Z DD imagerel $LN18
	DD	imagerel $LN18+791
	DD	imagerel $unwind$?DragIntRange2@ImGui@@YA_NPEBDPEAH1MHH00H@Z
pdata	ENDS
;	COMDAT pdata
pdata	SEGMENT
$pdata$?DragScalar@ImGui@@YA_NPEBDHPEAXMPEBX20H@Z DD imagerel $LN48
	DD	imagerel $LN48+2173
	DD	imagerel $unwind$?DragScalar@ImGui@@YA_NPEBDHPEAXMPEBX20H@Z
pdata	ENDS
;	COMDAT pdata
pdata	SEGMENT
$pdata$?DragScalarN@ImGui@@YA_NPEBDHPEAXHMPEBX20H@Z DD imagerel $LN9
	DD	imagerel $LN9+484
	DD	imagerel $unwind$?DragScalarN@ImGui@@YA_NPEBDHPEAXHMPEBX20H@Z
pdata	ENDS
;	COMDAT pdata
pdata	SEGMENT
$pdata$?SliderFloat@ImGui@@YA_NPEBDPEAMMM0H@Z DD imagerel $LN3
	DD	imagerel $LN3+123
	DD	imagerel $unwind$?SliderFloat@ImGui@@YA_NPEBDPEAMMM0H@Z
pdata	ENDS
;	COMDAT pdata
pdata	SEGMENT
$pdata$?SliderFloat2@ImGui@@YA_NPEBDQEAMMM0H@Z DD imagerel $LN3
	DD	imagerel $LN3+134
	DD	imagerel $unwind$?SliderFloat2@ImGui@@YA_NPEBDQEAMMM0H@Z
pdata	ENDS
;	COMDAT pdata
pdata	SEGMENT
$pdata$?SliderFloat3@ImGui@@YA_NPEBDQEAMMM0H@Z DD imagerel $LN3
	DD	imagerel $LN3+134
	DD	imagerel $unwind$?SliderFloat3@ImGui@@YA_NPEBDQEAMMM0H@Z
pdata	ENDS
;	COMDAT pdata
pdata	SEGMENT
$pdata$?SliderFloat4@ImGui@@YA_NPEBDQEAMMM0H@Z DD imagerel $LN3
	DD	imagerel $LN3+134
	DD	imagerel $unwind$?SliderFloat4@ImGui@@YA_NPEBDQEAMMM0H@Z
pdata	ENDS
;	COMDAT pdata
pdata	SEGMENT
$pdata$?SliderAngle@ImGui@@YA_NPEBDPEAMMM0H@Z DD imagerel $LN4
	DD	imagerel $LN4+284
	DD	imagerel $unwind$?SliderAngle@ImGui@@YA_NPEBDPEAMMM0H@Z
pdata	ENDS
;	COMDAT pdata
pdata	SEGMENT
$pdata$?SliderInt@ImGui@@YA_NPEBDPEAHHH0H@Z DD imagerel $LN3
	DD	imagerel $LN3+121
	DD	imagerel $unwind$?SliderInt@ImGui@@YA_NPEBDPEAHHH0H@Z
pdata	ENDS
;	COMDAT pdata
pdata	SEGMENT
$pdata$?SliderInt2@ImGui@@YA_NPEBDQEAHHH0H@Z DD imagerel $LN3
	DD	imagerel $LN3+132
	DD	imagerel $unwind$?SliderInt2@ImGui@@YA_NPEBDQEAHHH0H@Z
pdata	ENDS
;	COMDAT pdata
pdata	SEGMENT
$pdata$?SliderInt3@ImGui@@YA_NPEBDQEAHHH0H@Z DD imagerel $LN3
	DD	imagerel $LN3+132
	DD	imagerel $unwind$?SliderInt3@ImGui@@YA_NPEBDQEAHHH0H@Z
pdata	ENDS
;	COMDAT pdata
pdata	SEGMENT
$pdata$?SliderInt4@ImGui@@YA_NPEBDQEAHHH0H@Z DD imagerel $LN3
	DD	imagerel $LN3+132
	DD	imagerel $unwind$?SliderInt4@ImGui@@YA_NPEBDQEAHHH0H@Z
pdata	ENDS
;	COMDAT pdata
pdata	SEGMENT
$pdata$?SliderScalar@ImGui@@YA_NPEBDHPEAXPEBX20H@Z DD imagerel $LN46
	DD	imagerel $LN46+2099
	DD	imagerel $unwind$?SliderScalar@ImGui@@YA_NPEBDHPEAXPEBX20H@Z
pdata	ENDS
;	COMDAT pdata
pdata	SEGMENT
$pdata$?SliderScalarN@ImGui@@YA_NPEBDHPEAXHPEBX20H@Z DD imagerel $LN9
	DD	imagerel $LN9+471
	DD	imagerel $unwind$?SliderScalarN@ImGui@@YA_NPEBDHPEAXHPEBX20H@Z
pdata	ENDS
;	COMDAT pdata
pdata	SEGMENT
$pdata$?VSliderFloat@ImGui@@YA_NPEBDAEBUImVec2@@PEAMMM0H@Z DD imagerel $LN3
	DD	imagerel $LN3+135
	DD	imagerel $unwind$?VSliderFloat@ImGui@@YA_NPEBDAEBUImVec2@@PEAMMM0H@Z
pdata	ENDS
;	COMDAT pdata
pdata	SEGMENT
$pdata$?VSliderInt@ImGui@@YA_NPEBDAEBUImVec2@@PEAHHH0H@Z DD imagerel $LN3
	DD	imagerel $LN3+134
	DD	imagerel $unwind$?VSliderInt@ImGui@@YA_NPEBDAEBUImVec2@@PEAHHH0H@Z
pdata	ENDS
;	COMDAT pdata
pdata	SEGMENT
$pdata$?VSliderScalar@ImGui@@YA_NPEBDAEBUImVec2@@HPEAXPEBX30H@Z DD imagerel $LN25
	DD	imagerel $LN25+1505
	DD	imagerel $unwind$?VSliderScalar@ImGui@@YA_NPEBDAEBUImVec2@@HPEAXPEBX30H@Z
pdata	ENDS
;	COMDAT pdata
pdata	SEGMENT
$pdata$?InputText@ImGui@@YA_NPEBDPEAD_KHP6AHPEAUImGuiInputTextCallbackData@@@ZPEAX@Z DD imagerel $LN4
	DD	imagerel $LN4+189
	DD	imagerel $unwind$?InputText@ImGui@@YA_NPEBDPEAD_KHP6AHPEAUImGuiInputTextCallbackData@@@ZPEAX@Z
pdata	ENDS
;	COMDAT pdata
pdata	SEGMENT
$pdata$?InputTextMultiline@ImGui@@YA_NPEBDPEAD_KAEBUImVec2@@HP6AHPEAUImGuiInputTextCallbackData@@@ZPEAX@Z DD imagerel $LN3
	DD	imagerel $LN3+134
	DD	imagerel $unwind$?InputTextMultiline@ImGui@@YA_NPEBDPEAD_KAEBUImVec2@@HP6AHPEAUImGuiInputTextCallbackData@@@ZPEAX@Z
pdata	ENDS
;	COMDAT pdata
pdata	SEGMENT
$pdata$?InputTextWithHint@ImGui@@YA_NPEBD0PEAD_KHP6AHPEAUImGuiInputTextCallbackData@@@ZPEAX@Z DD imagerel $LN4
	DD	imagerel $LN4+194
	DD	imagerel $unwind$?InputTextWithHint@ImGui@@YA_NPEBD0PEAD_KHP6AHPEAUImGuiInputTextCallbackData@@@ZPEAX@Z
pdata	ENDS
;	COMDAT pdata
pdata	SEGMENT
$pdata$?InputFloat@ImGui@@YA_NPEBDPEAMMM0H@Z DD imagerel $LN7
	DD	imagerel $LN7+241
	DD	imagerel $unwind$?InputFloat@ImGui@@YA_NPEBDPEAMMM0H@Z
pdata	ENDS
;	COMDAT pdata
pdata	SEGMENT
$pdata$?InputFloat2@ImGui@@YA_NPEBDQEAM0H@Z DD imagerel $LN3
	DD	imagerel $LN3+126
	DD	imagerel $unwind$?InputFloat2@ImGui@@YA_NPEBDQEAM0H@Z
pdata	ENDS
;	COMDAT pdata
pdata	SEGMENT
$pdata$?InputFloat3@ImGui@@YA_NPEBDQEAM0H@Z DD imagerel $LN3
	DD	imagerel $LN3+126
	DD	imagerel $unwind$?InputFloat3@ImGui@@YA_NPEBDQEAM0H@Z
pdata	ENDS
;	COMDAT pdata
pdata	SEGMENT
$pdata$?InputFloat4@ImGui@@YA_NPEBDQEAM0H@Z DD imagerel $LN3
	DD	imagerel $LN3+126
	DD	imagerel $unwind$?InputFloat4@ImGui@@YA_NPEBDQEAM0H@Z
pdata	ENDS
;	COMDAT pdata
pdata	SEGMENT
$pdata$?InputInt@ImGui@@YA_NPEBDPEAHHHH@Z DD imagerel $LN9
	DD	imagerel $LN9+258
	DD	imagerel $unwind$?InputInt@ImGui@@YA_NPEBDPEAHHHH@Z
pdata	ENDS
;	COMDAT pdata
pdata	SEGMENT
$pdata$?InputInt2@ImGui@@YA_NPEBDQEAHH@Z DD imagerel $LN3
	DD	imagerel $LN3+121
	DD	imagerel $unwind$?InputInt2@ImGui@@YA_NPEBDQEAHH@Z
pdata	ENDS
;	COMDAT pdata
pdata	SEGMENT
$pdata$?InputInt3@ImGui@@YA_NPEBDQEAHH@Z DD imagerel $LN3
	DD	imagerel $LN3+121
	DD	imagerel $unwind$?InputInt3@ImGui@@YA_NPEBDQEAHH@Z
pdata	ENDS
;	COMDAT pdata
pdata	SEGMENT
$pdata$?InputInt4@ImGui@@YA_NPEBDQEAHH@Z DD imagerel $LN3
	DD	imagerel $LN3+121
	DD	imagerel $unwind$?InputInt4@ImGui@@YA_NPEBDQEAHH@Z
pdata	ENDS
;	COMDAT pdata
pdata	SEGMENT
$pdata$?InputDouble@ImGui@@YA_NPEBDPEANNN0H@Z DD imagerel $LN7
	DD	imagerel $LN7+243
	DD	imagerel $unwind$?InputDouble@ImGui@@YA_NPEBDPEANNN0H@Z
pdata	ENDS
;	COMDAT pdata
pdata	SEGMENT
$pdata$?InputScalar@ImGui@@YA_NPEBDHPEAXPEBX20H@Z DD imagerel $LN19
	DD	imagerel $LN19+1207
	DD	imagerel $unwind$?InputScalar@ImGui@@YA_NPEBDHPEAXPEBX20H@Z
pdata	ENDS
;	COMDAT pdata
pdata	SEGMENT
$pdata$?InputScalarN@ImGui@@YA_NPEBDHPEAXHPEBX20H@Z DD imagerel $LN9
	DD	imagerel $LN9+471
	DD	imagerel $unwind$?InputScalarN@ImGui@@YA_NPEBDHPEAXHPEBX20H@Z
pdata	ENDS
;	COMDAT pdata
pdata	SEGMENT
$pdata$?ColorEdit3@ImGui@@YA_NPEBDQEAMH@Z DD imagerel $LN3
	DD	imagerel $LN3+82
	DD	imagerel $unwind$?ColorEdit3@ImGui@@YA_NPEBDQEAMH@Z
pdata	ENDS
;	COMDAT pdata
pdata	SEGMENT
$pdata$?ColorEdit4@ImGui@@YA_NPEBDQEAMH@Z DD imagerel $LN98
	DD	imagerel $LN98+6311
	DD	imagerel $unwind$?ColorEdit4@ImGui@@YA_NPEBDQEAMH@Z
pdata	ENDS
;	COMDAT pdata
pdata	SEGMENT
$pdata$?ColorPicker3@ImGui@@YA_NPEBDQEAMH@Z DD imagerel $LN4
	DD	imagerel $LN4+373
	DD	imagerel $unwind$?ColorPicker3@ImGui@@YA_NPEBDQEAMH@Z
pdata	ENDS
;	COMDAT pdata
pdata	SEGMENT
$pdata$?ColorPicker4@ImGui@@YA_NPEBDQEAMHPEBM@Z DD imagerel $LN109
	DD	imagerel $LN109+10686
	DD	imagerel $unwind$?ColorPicker4@ImGui@@YA_NPEBDQEAMHPEBM@Z
pdata	ENDS
;	COMDAT pdata
pdata	SEGMENT
$pdata$?ColorButton@ImGui@@YA_NPEBDAEBUImVec4@@HUImVec2@@@Z DD imagerel $LN25
	DD	imagerel $LN25+2179
	DD	imagerel $unwind$?ColorButton@ImGui@@YA_NPEBDAEBUImVec4@@HUImVec2@@@Z
pdata	ENDS
;	COMDAT pdata
pdata	SEGMENT
$pdata$?SetColorEditOptions@ImGui@@YAXH@Z DD imagerel $LN11
	DD	imagerel $LN11+427
	DD	imagerel $unwind$?SetColorEditOptions@ImGui@@YAXH@Z
pdata	ENDS
;	COMDAT pdata
pdata	SEGMENT
$pdata$?TreeNode@ImGui@@YA_NPEBD@Z DD imagerel $LN4
	DD	imagerel $LN4+107
	DD	imagerel $unwind$?TreeNode@ImGui@@YA_NPEBD@Z
pdata	ENDS
;	COMDAT pdata
pdata	SEGMENT
$pdata$?TreeNode@ImGui@@YA_NPEBD0ZZ DD imagerel $LN3
	DD	imagerel $LN3+184
	DD	imagerel $unwind$?TreeNode@ImGui@@YA_NPEBD0ZZ
pdata	ENDS
;	COMDAT pdata
pdata	SEGMENT
$pdata$?TreeNode@ImGui@@YA_NPEBXPEBDZZ DD imagerel $LN3
	DD	imagerel $LN3+184
	DD	imagerel $unwind$?TreeNode@ImGui@@YA_NPEBXPEBDZZ
pdata	ENDS
;	COMDAT pdata
pdata	SEGMENT
$pdata$?TreeNodeV@ImGui@@YA_NPEBD0PEAD@Z DD imagerel $LN3
	DD	imagerel $LN3+79
	DD	imagerel $unwind$?TreeNodeV@ImGui@@YA_NPEBD0PEAD@Z
pdata	ENDS
;	COMDAT pdata
pdata	SEGMENT
$pdata$?TreeNodeV@ImGui@@YA_NPEBXPEBDPEAD@Z DD imagerel $LN3
	DD	imagerel $LN3+79
	DD	imagerel $unwind$?TreeNodeV@ImGui@@YA_NPEBXPEBDPEAD@Z
pdata	ENDS
;	COMDAT pdata
pdata	SEGMENT
$pdata$?TreeNodeEx@ImGui@@YA_NPEBDH@Z DD imagerel $LN4
	DD	imagerel $LN4+115
	DD	imagerel $unwind$?TreeNodeEx@ImGui@@YA_NPEBDH@Z
pdata	ENDS
;	COMDAT pdata
pdata	SEGMENT
$pdata$?TreeNodeEx@ImGui@@YA_NPEBDH0ZZ DD imagerel $LN3
	DD	imagerel $LN3+187
	DD	imagerel $unwind$?TreeNodeEx@ImGui@@YA_NPEBDH0ZZ
pdata	ENDS
;	COMDAT pdata
pdata	SEGMENT
$pdata$?TreeNodeEx@ImGui@@YA_NPEBXHPEBDZZ DD imagerel $LN3
	DD	imagerel $LN3+187
	DD	imagerel $unwind$?TreeNodeEx@ImGui@@YA_NPEBXHPEBDZZ
pdata	ENDS
;	COMDAT pdata
pdata	SEGMENT
$pdata$?TreeNodeExV@ImGui@@YA_NPEBDH0PEAD@Z DD imagerel $LN4
	DD	imagerel $LN4+215
	DD	imagerel $unwind$?TreeNodeExV@ImGui@@YA_NPEBDH0PEAD@Z
pdata	ENDS
;	COMDAT pdata
pdata	SEGMENT
$pdata$?TreeNodeExV@ImGui@@YA_NPEBXHPEBDPEAD@Z DD imagerel $LN4
	DD	imagerel $LN4+209
	DD	imagerel $unwind$?TreeNodeExV@ImGui@@YA_NPEBXHPEBDPEAD@Z
pdata	ENDS
;	COMDAT pdata
pdata	SEGMENT
$pdata$?TreePush@ImGui@@YAXPEBD@Z DD imagerel $LN5
	DD	imagerel $LN5+132
	DD	imagerel $unwind$?TreePush@ImGui@@YAXPEBD@Z
pdata	ENDS
;	COMDAT pdata
pdata	SEGMENT
$pdata$?TreePush@ImGui@@YAXPEBX@Z DD imagerel $LN5
	DD	imagerel $LN5+132
	DD	imagerel $unwind$?TreePush@ImGui@@YAXPEBX@Z
pdata	ENDS
;	COMDAT pdata
pdata	SEGMENT
$pdata$?TreePop@ImGui@@YAXXZ DD imagerel $LN6
	DD	imagerel $LN6+386
	DD	imagerel $unwind$?TreePop@ImGui@@YAXXZ
pdata	ENDS
;	COMDAT pdata
pdata	SEGMENT
$pdata$?GetTreeNodeToLabelSpacing@ImGui@@YAMXZ DD imagerel $LN3
	DD	imagerel $LN3+87
	DD	imagerel $unwind$?GetTreeNodeToLabelSpacing@ImGui@@YAMXZ
pdata	ENDS
;	COMDAT pdata
pdata	SEGMENT
$pdata$?CollapsingHeader@ImGui@@YA_NPEBDH@Z DD imagerel $LN4
	DD	imagerel $LN4+132
	DD	imagerel $unwind$?CollapsingHeader@ImGui@@YA_NPEBDH@Z
pdata	ENDS
;	COMDAT pdata
pdata	SEGMENT
$pdata$?CollapsingHeader@ImGui@@YA_NPEBDPEA_NH@Z DD imagerel $LN8
	DD	imagerel $LN8+534
	DD	imagerel $unwind$?CollapsingHeader@ImGui@@YA_NPEBDPEA_NH@Z
pdata	ENDS
;	COMDAT pdata
pdata	SEGMENT
$pdata$?SetNextItemOpen@ImGui@@YAX_NH@Z DD imagerel $LN6
	DD	imagerel $LN6+168
	DD	imagerel $unwind$?SetNextItemOpen@ImGui@@YAX_NH@Z
pdata	ENDS
;	COMDAT pdata
pdata	SEGMENT
$pdata$?Selectable@ImGui@@YA_NPEBD_NHAEBUImVec2@@@Z DD imagerel $LN58
	DD	imagerel $LN58+2669
	DD	imagerel $unwind$?Selectable@ImGui@@YA_NPEBD_NHAEBUImVec2@@@Z
pdata	ENDS
;	COMDAT pdata
pdata	SEGMENT
$pdata$?Selectable@ImGui@@YA_NPEBDPEA_NHAEBUImVec2@@@Z DD imagerel $LN6
	DD	imagerel $LN6+157
	DD	imagerel $unwind$?Selectable@ImGui@@YA_NPEBDPEA_NHAEBUImVec2@@@Z
pdata	ENDS
;	COMDAT pdata
pdata	SEGMENT
$pdata$?BeginListBox@ImGui@@YA_NPEBDAEBUImVec2@@@Z DD imagerel $LN8
	DD	imagerel $LN8+940
	DD	imagerel $unwind$?BeginListBox@ImGui@@YA_NPEBDAEBUImVec2@@@Z
pdata	ENDS
;	COMDAT pdata
pdata	SEGMENT
$pdata$?EndListBox@ImGui@@YAXXZ DD imagerel $LN5
	DD	imagerel $LN5+135
	DD	imagerel $unwind$?EndListBox@ImGui@@YAXXZ
pdata	ENDS
;	COMDAT pdata
pdata	SEGMENT
$pdata$?ListBox@ImGui@@YA_NPEBDPEAHQEBQEBDHH@Z DD imagerel $LN3
	DD	imagerel $LN3+116
	DD	imagerel $unwind$?ListBox@ImGui@@YA_NPEBDPEAHQEBQEBDHH@Z
pdata	ENDS
;	COMDAT pdata
pdata	SEGMENT
$pdata$?ListBox@ImGui@@YA_NPEBDPEAHP6A_NPEAXHPEAPEBD@Z2HH@Z DD imagerel $LN17
	DD	imagerel $LN17+701
	DD	imagerel $unwind$?ListBox@ImGui@@YA_NPEBDPEAHP6A_NPEAXHPEAPEBD@Z2HH@Z
pdata	ENDS
;	COMDAT pdata
pdata	SEGMENT
$pdata$?dtor$0@?0??ListBox@ImGui@@YA_NPEBDPEAHP6A_NPEAXHPEAPEBD@Z2HH@Z@4HA DD imagerel ?dtor$0@?0??ListBox@ImGui@@YA_NPEBDPEAHP6A_NPEAXHPEAPEBD@Z2HH@Z@4HA
	DD	imagerel ?dtor$0@?0??ListBox@ImGui@@YA_NPEBDPEAHP6A_NPEAXHPEAPEBD@Z2HH@Z@4HA+39
	DD	imagerel $unwind$?dtor$0@?0??ListBox@ImGui@@YA_NPEBDPEAHP6A_NPEAXHPEAPEBD@Z2HH@Z@4HA
pdata	ENDS
;	COMDAT pdata
pdata	SEGMENT
$pdata$?PlotLines@ImGui@@YAXPEBDPEBMHH0MMUImVec2@@H@Z DD imagerel $LN3
	DD	imagerel $LN3+249
	DD	imagerel $unwind$?PlotLines@ImGui@@YAXPEBDPEBMHH0MMUImVec2@@H@Z
pdata	ENDS
;	COMDAT pdata
pdata	SEGMENT
$pdata$?PlotLines@ImGui@@YAXPEBDP6AMPEAXH@Z1HH0MMUImVec2@@@Z DD imagerel $LN3
	DD	imagerel $LN3+156
	DD	imagerel $unwind$?PlotLines@ImGui@@YAXPEBDP6AMPEAXH@Z1HH0MMUImVec2@@@Z
pdata	ENDS
;	COMDAT pdata
pdata	SEGMENT
$pdata$?PlotHistogram@ImGui@@YAXPEBDPEBMHH0MMUImVec2@@H@Z DD imagerel $LN3
	DD	imagerel $LN3+252
	DD	imagerel $unwind$?PlotHistogram@ImGui@@YAXPEBDPEBMHH0MMUImVec2@@H@Z
pdata	ENDS
;	COMDAT pdata
pdata	SEGMENT
$pdata$?PlotHistogram@ImGui@@YAXPEBDP6AMPEAXH@Z1HH0MMUImVec2@@@Z DD imagerel $LN3
	DD	imagerel $LN3+159
	DD	imagerel $unwind$?PlotHistogram@ImGui@@YAXPEBDP6AMPEAXH@Z1HH0MMUImVec2@@@Z
pdata	ENDS
;	COMDAT pdata
pdata	SEGMENT
$pdata$?Value@ImGui@@YAXPEBD_N@Z DD imagerel $LN5
	DD	imagerel $LN5+112
	DD	imagerel $unwind$?Value@ImGui@@YAXPEBD_N@Z
pdata	ENDS
;	COMDAT pdata
pdata	SEGMENT
$pdata$?Value@ImGui@@YAXPEBDH@Z DD imagerel $LN3
	DD	imagerel $LN3+71
	DD	imagerel $unwind$?Value@ImGui@@YAXPEBDH@Z
pdata	ENDS
;	COMDAT pdata
pdata	SEGMENT
$pdata$?Value@ImGui@@YAXPEBDI@Z DD imagerel $LN3
	DD	imagerel $LN3+71
	DD	imagerel $unwind$?Value@ImGui@@YAXPEBDI@Z
pdata	ENDS
;	COMDAT pdata
pdata	SEGMENT
$pdata$?Value@ImGui@@YAXPEBDM0@Z DD imagerel $LN5
	DD	imagerel $LN5+232
	DD	imagerel $unwind$?Value@ImGui@@YAXPEBDM0@Z
pdata	ENDS
;	COMDAT pdata
pdata	SEGMENT
$pdata$?BeginMenuBar@ImGui@@YA_NXZ DD imagerel $LN6
	DD	imagerel $LN6+618
	DD	imagerel $unwind$?BeginMenuBar@ImGui@@YA_NXZ
pdata	ENDS
;	COMDAT pdata
pdata	SEGMENT
$pdata$?EndMenuBar@ImGui@@YAXXZ DD imagerel $LN12
	DD	imagerel $LN12+659
	DD	imagerel $unwind$?EndMenuBar@ImGui@@YAXXZ
pdata	ENDS
;	COMDAT pdata
pdata	SEGMENT
$pdata$?BeginMainMenuBar@ImGui@@YA_NXZ DD imagerel $LN5
	DD	imagerel $LN5+278
	DD	imagerel $unwind$?BeginMainMenuBar@ImGui@@YA_NXZ
pdata	ENDS
;	COMDAT pdata
pdata	SEGMENT
$pdata$?EndMainMenuBar@ImGui@@YAXXZ DD imagerel $LN4
	DD	imagerel $LN4+128
	DD	imagerel $unwind$?EndMainMenuBar@ImGui@@YAXXZ
pdata	ENDS
;	COMDAT pdata
pdata	SEGMENT
$pdata$?BeginMenu@ImGui@@YA_NPEBD_N@Z DD imagerel $LN53
	DD	imagerel $LN53+3291
	DD	imagerel $unwind$?BeginMenu@ImGui@@YA_NPEBD_N@Z
pdata	ENDS
;	COMDAT pdata
pdata	SEGMENT
$pdata$?EndMenu@ImGui@@YAXXZ DD imagerel $LN4
	DD	imagerel $LN4+166
	DD	imagerel $unwind$?EndMenu@ImGui@@YAXXZ
pdata	ENDS
;	COMDAT pdata
pdata	SEGMENT
$pdata$?MenuItem@ImGui@@YA_NPEBD0_N1@Z DD imagerel $LN14
	DD	imagerel $LN14+1307
	DD	imagerel $unwind$?MenuItem@ImGui@@YA_NPEBD0_N1@Z
pdata	ENDS
;	COMDAT pdata
pdata	SEGMENT
$pdata$?MenuItem@ImGui@@YA_NPEBD0PEA_N_N@Z DD imagerel $LN9
	DD	imagerel $LN9+214
	DD	imagerel $unwind$?MenuItem@ImGui@@YA_NPEBD0PEA_N_N@Z
pdata	ENDS
;	COMDAT pdata
pdata	SEGMENT
$pdata$?BeginTabBar@ImGui@@YA_NPEBDH@Z DD imagerel $LN4
	DD	imagerel $LN4+371
	DD	imagerel $unwind$?BeginTabBar@ImGui@@YA_NPEBDH@Z
pdata	ENDS
;	COMDAT pdata
pdata	SEGMENT
$pdata$?EndTabBar@ImGui@@YAXXZ DD imagerel $LN17
	DD	imagerel $LN17+530
	DD	imagerel $unwind$?EndTabBar@ImGui@@YAXXZ
pdata	ENDS
;	COMDAT pdata
pdata	SEGMENT
$pdata$?BeginTabItem@ImGui@@YA_NPEBDPEA_NH@Z DD imagerel $LN9
	DD	imagerel $LN9+342
	DD	imagerel $unwind$?BeginTabItem@ImGui@@YA_NPEBDPEA_NH@Z
pdata	ENDS
;	COMDAT pdata
pdata	SEGMENT
$pdata$?EndTabItem@ImGui@@YAXXZ DD imagerel $LN9
	DD	imagerel $LN9+262
	DD	imagerel $unwind$?EndTabItem@ImGui@@YAXXZ
pdata	ENDS
;	COMDAT pdata
pdata	SEGMENT
$pdata$?TabItemButton@ImGui@@YA_NPEBDH@Z DD imagerel $LN7
	DD	imagerel $LN7+204
	DD	imagerel $unwind$?TabItemButton@ImGui@@YA_NPEBDH@Z
pdata	ENDS
;	COMDAT pdata
pdata	SEGMENT
$pdata$?SetTabItemClosed@ImGui@@YAXPEBD@Z DD imagerel $LN7
	DD	imagerel $LN7+203
	DD	imagerel $unwind$?SetTabItemClosed@ImGui@@YAXPEBD@Z
pdata	ENDS
;	COMDAT pdata
pdata	SEGMENT
$pdata$??2@YAPEAX_KUImNewWrapper@@PEAX@Z DD imagerel $LN3
	DD	imagerel $LN3+57
	DD	imagerel $unwind$??2@YAPEAX_KUImNewWrapper@@PEAX@Z
pdata	ENDS
;	COMDAT pdata
pdata	SEGMENT
$pdata$??3@YAXPEAXUImNewWrapper@@0@Z DD imagerel $LN3
	DD	imagerel $LN3+50
	DD	imagerel $unwind$??3@YAXPEAXUImNewWrapper@@0@Z
pdata	ENDS
;	COMDAT pdata
pdata	SEGMENT
$pdata$??0?$ImVector@G@@QEAA@XZ DD imagerel $LN3
	DD	imagerel $LN3+90
	DD	imagerel $unwind$??0?$ImVector@G@@QEAA@XZ
pdata	ENDS
;	COMDAT pdata
pdata	SEGMENT
$pdata$??1?$ImVector@G@@QEAA@XZ DD imagerel $LN4
	DD	imagerel $LN4+72
	DD	imagerel $unwind$??1?$ImVector@G@@QEAA@XZ
pdata	ENDS
;	COMDAT pdata
pdata	SEGMENT
$pdata$?empty@?$ImVector@G@@QEBA_NXZ DD imagerel $LN5
	DD	imagerel $LN5+82
	DD	imagerel $unwind$?empty@?$ImVector@G@@QEBA_NXZ
pdata	ENDS
;	COMDAT pdata
pdata	SEGMENT
$pdata$??A?$ImVector@G@@QEAAAEAGH@Z DD imagerel $LN5
	DD	imagerel $LN5+121
	DD	imagerel $unwind$??A?$ImVector@G@@QEAAAEAGH@Z
pdata	ENDS
;	COMDAT pdata
pdata	SEGMENT
$pdata$??A?$ImVector@G@@QEBAAEBGH@Z DD imagerel $LN5
	DD	imagerel $LN5+121
	DD	imagerel $unwind$??A?$ImVector@G@@QEBAAEBGH@Z
pdata	ENDS
;	COMDAT pdata
pdata	SEGMENT
$pdata$?_grow_capacity@?$ImVector@G@@QEBAHH@Z DD imagerel $LN7
	DD	imagerel $LN7+150
	DD	imagerel $unwind$?_grow_capacity@?$ImVector@G@@QEBAHH@Z
pdata	ENDS
;	COMDAT pdata
pdata	SEGMENT
$pdata$?resize@?$ImVector@G@@QEAAXH@Z DD imagerel $LN4
	DD	imagerel $LN4+110
	DD	imagerel $unwind$?resize@?$ImVector@G@@QEAAXH@Z
pdata	ENDS
;	COMDAT pdata
pdata	SEGMENT
$pdata$?reserve@?$ImVector@G@@QEAAXH@Z DD imagerel $LN5
	DD	imagerel $LN5+183
	DD	imagerel $unwind$?reserve@?$ImVector@G@@QEAAXH@Z
pdata	ENDS
;	COMDAT pdata
pdata	SEGMENT
$pdata$?contains@?$ImVector@G@@QEBA_NAEBG@Z DD imagerel $LN8
	DD	imagerel $LN8+194
	DD	imagerel $unwind$?contains@?$ImVector@G@@QEBA_NAEBG@Z
pdata	ENDS
;	COMDAT pdata
pdata	SEGMENT
$pdata$??0ImGuiInputTextCallbackData@@QEAA@XZ DD imagerel $LN3
	DD	imagerel $LN3+64
	DD	imagerel $unwind$??0ImGuiInputTextCallbackData@@QEAA@XZ
pdata	ENDS
;	COMDAT pdata
pdata	SEGMENT
$pdata$?DeleteChars@ImGuiInputTextCallbackData@@QEAAXHH@Z DD imagerel $LN9
	DD	imagerel $LN9+414
	DD	imagerel $unwind$?DeleteChars@ImGuiInputTextCallbackData@@QEAAXHH@Z
pdata	ENDS
;	COMDAT pdata
pdata	SEGMENT
$pdata$?InsertChars@ImGuiInputTextCallbackData@@QEAAXHPEBD0@Z DD imagerel $LN15
	DD	imagerel $LN15+835
	DD	imagerel $unwind$?InsertChars@ImGuiInputTextCallbackData@@QEAAXHPEBD0@Z
pdata	ENDS
;	COMDAT pdata
pdata	SEGMENT
$pdata$??0?$ImVector@D@@QEAA@XZ DD imagerel $LN3
	DD	imagerel $LN3+90
	DD	imagerel $unwind$??0?$ImVector@D@@QEAA@XZ
pdata	ENDS
;	COMDAT pdata
pdata	SEGMENT
$pdata$?_grow_capacity@?$ImVector@D@@QEBAHH@Z DD imagerel $LN7
	DD	imagerel $LN7+150
	DD	imagerel $unwind$?_grow_capacity@?$ImVector@D@@QEBAHH@Z
pdata	ENDS
;	COMDAT pdata
pdata	SEGMENT
$pdata$?resize@?$ImVector@D@@QEAAXH@Z DD imagerel $LN4
	DD	imagerel $LN4+110
	DD	imagerel $unwind$?resize@?$ImVector@D@@QEAAXH@Z
pdata	ENDS
;	COMDAT pdata
pdata	SEGMENT
$pdata$?reserve@?$ImVector@D@@QEAAXH@Z DD imagerel $LN5
	DD	imagerel $LN5+177
	DD	imagerel $unwind$?reserve@?$ImVector@D@@QEAAXH@Z
pdata	ENDS
;	COMDAT pdata
pdata	SEGMENT
$pdata$??0ImGuiTextBuffer@@QEAA@XZ DD imagerel $LN4
	DD	imagerel $LN4+63
	DD	imagerel $unwind$??0ImGuiTextBuffer@@QEAA@XZ
pdata	ENDS
;	COMDAT pdata
pdata	SEGMENT
$pdata$?size@ImGuiTextBuffer@@QEBAHXZ DD imagerel $LN5
	DD	imagerel $LN5+88
	DD	imagerel $unwind$?size@ImGuiTextBuffer@@QEBAHXZ
pdata	ENDS
;	COMDAT pdata
pdata	SEGMENT
$pdata$??A?$ImVector@UImDrawCmd@@@@QEAAAEAUImDrawCmd@@H@Z DD imagerel $LN5
	DD	imagerel $LN5+121
	DD	imagerel $unwind$??A?$ImVector@UImDrawCmd@@@@QEAAAEAUImDrawCmd@@H@Z
pdata	ENDS
;	COMDAT pdata
pdata	SEGMENT
$pdata$?_grow_capacity@?$ImVector@UImVec2@@@@QEBAHH@Z DD imagerel $LN7
	DD	imagerel $LN7+150
	DD	imagerel $unwind$?_grow_capacity@?$ImVector@UImVec2@@@@QEBAHH@Z
pdata	ENDS
;	COMDAT pdata
pdata	SEGMENT
$pdata$?reserve@?$ImVector@UImVec2@@@@QEAAXH@Z DD imagerel $LN5
	DD	imagerel $LN5+185
	DD	imagerel $unwind$?reserve@?$ImVector@UImVec2@@@@QEAAXH@Z
pdata	ENDS
;	COMDAT pdata
pdata	SEGMENT
$pdata$?push_back@?$ImVector@UImVec2@@@@QEAAXAEBUImVec2@@@Z DD imagerel $LN4
	DD	imagerel $LN4+161
	DD	imagerel $unwind$?push_back@?$ImVector@UImVec2@@@@QEAAXAEBUImVec2@@@Z
pdata	ENDS
;	COMDAT pdata
pdata	SEGMENT
$pdata$?PathLineTo@ImDrawList@@QEAAXAEBUImVec2@@@Z DD imagerel $LN3
	DD	imagerel $LN3+83
	DD	imagerel $unwind$?PathLineTo@ImDrawList@@QEAAXAEBUImVec2@@@Z
pdata	ENDS
;	COMDAT pdata
pdata	SEGMENT
$pdata$?PathFillConvex@ImDrawList@@QEAAXI@Z DD imagerel $LN3
	DD	imagerel $LN3+103
	DD	imagerel $unwind$?PathFillConvex@ImDrawList@@QEAAXI@Z
pdata	ENDS
;	COMDAT pdata
pdata	SEGMENT
$pdata$?PathStroke@ImDrawList@@QEAAXIHM@Z DD imagerel $LN3
	DD	imagerel $LN3+138
	DD	imagerel $unwind$?PathStroke@ImDrawList@@QEAAXIHM@Z
pdata	ENDS
;	COMDAT pdata
pdata	SEGMENT
$pdata$?PrimWriteVtx@ImDrawList@@QEAAXAEBUImVec2@@0I@Z DD imagerel $LN3
	DD	imagerel $LN3+173
	DD	imagerel $unwind$?PrimWriteVtx@ImDrawList@@QEAAXAEBUImVec2@@0I@Z
pdata	ENDS
;	COMDAT pdata
pdata	SEGMENT
$pdata$?PrimWriteIdx@ImDrawList@@QEAAXG@Z DD imagerel $LN3
	DD	imagerel $LN3+93
	DD	imagerel $unwind$?PrimWriteIdx@ImDrawList@@QEAAXG@Z
pdata	ENDS
;	COMDAT pdata
pdata	SEGMENT
$pdata$?PrimVtx@ImDrawList@@QEAAXAEBUImVec2@@0I@Z DD imagerel $LN3
	DD	imagerel $LN3+112
	DD	imagerel $unwind$?PrimVtx@ImDrawList@@QEAAXAEBUImVec2@@0I@Z
pdata	ENDS
;	COMDAT pdata
pdata	SEGMENT
$pdata$?back@?$ImVector@I@@QEAAAEAIXZ DD imagerel $LN4
	DD	imagerel $LN4+109
	DD	imagerel $unwind$?back@?$ImVector@I@@QEAAAEAIXZ
pdata	ENDS
;	COMDAT pdata
pdata	SEGMENT
$pdata$?_grow_capacity@?$ImVector@I@@QEBAHH@Z DD imagerel $LN7
	DD	imagerel $LN7+150
	DD	imagerel $unwind$?_grow_capacity@?$ImVector@I@@QEBAHH@Z
pdata	ENDS
;	COMDAT pdata
pdata	SEGMENT
$pdata$?reserve@?$ImVector@I@@QEAAXH@Z DD imagerel $LN5
	DD	imagerel $LN5+185
	DD	imagerel $unwind$?reserve@?$ImVector@I@@QEAAXH@Z
pdata	ENDS
;	COMDAT pdata
pdata	SEGMENT
$pdata$?push_back@?$ImVector@I@@QEAAXAEBI@Z DD imagerel $LN4
	DD	imagerel $LN4+159
	DD	imagerel $unwind$?push_back@?$ImVector@I@@QEAAXAEBI@Z
pdata	ENDS
;	COMDAT pdata
pdata	SEGMENT
$pdata$?contains@?$ImVector@I@@QEBA_NAEBI@Z DD imagerel $LN8
	DD	imagerel $LN8+192
	DD	imagerel $unwind$?contains@?$ImVector@I@@QEBA_NAEBI@Z
pdata	ENDS
;	COMDAT pdata
pdata	SEGMENT
$pdata$?empty@?$ImVector@M@@QEBA_NXZ DD imagerel $LN5
	DD	imagerel $LN5+82
	DD	imagerel $unwind$?empty@?$ImVector@M@@QEBA_NXZ
pdata	ENDS
;	COMDAT pdata
pdata	SEGMENT
$pdata$??A?$ImVector@M@@QEBAAEBMH@Z DD imagerel $LN5
	DD	imagerel $LN5+121
	DD	imagerel $unwind$??A?$ImVector@M@@QEBAAEBMH@Z
pdata	ENDS
;	COMDAT pdata
pdata	SEGMENT
$pdata$?empty@?$ImVector@UImFontGlyph@@@@QEBA_NXZ DD imagerel $LN5
	DD	imagerel $LN5+82
	DD	imagerel $unwind$?empty@?$ImVector@UImFontGlyph@@@@QEBA_NXZ
pdata	ENDS
;	COMDAT pdata
pdata	SEGMENT
$pdata$?GetCharAdvance@ImFont@@QEBAMG@Z DD imagerel $LN5
	DD	imagerel $LN5+141
	DD	imagerel $unwind$?GetCharAdvance@ImFont@@QEBAMG@Z
pdata	ENDS
;	COMDAT pdata
pdata	SEGMENT
$pdata$?ListBoxHeader@ImGui@@YA_NPEBDHH@Z DD imagerel $LN5
	DD	imagerel $LN5+278
	DD	imagerel $unwind$?ListBoxHeader@ImGui@@YA_NPEBDHH@Z
pdata	ENDS
;	COMDAT pdata
pdata	SEGMENT
$pdata$?DragScalar@ImGui@@YA_NPEBDHPEAXMPEBX20M@Z DD imagerel $LN9
	DD	imagerel $LN9+290
	DD	imagerel $unwind$?DragScalar@ImGui@@YA_NPEBDHPEAXMPEBX20M@Z
pdata	ENDS
;	COMDAT pdata
pdata	SEGMENT
$pdata$?DragScalarN@ImGui@@YA_NPEBDHPEAXHMPEBX20M@Z DD imagerel $LN9
	DD	imagerel $LN9+302
	DD	imagerel $unwind$?DragScalarN@ImGui@@YA_NPEBDHPEAXHMPEBX20M@Z
pdata	ENDS
;	COMDAT pdata
pdata	SEGMENT
$pdata$?SliderScalar@ImGui@@YA_NPEBDHPEAXPEBX20M@Z DD imagerel $LN7
	DD	imagerel $LN7+218
	DD	imagerel $unwind$?SliderScalar@ImGui@@YA_NPEBDHPEAXPEBX20M@Z
pdata	ENDS
;	COMDAT pdata
pdata	SEGMENT
$pdata$?SliderScalarN@ImGui@@YA_NPEBDHPEAXHPEBX20M@Z DD imagerel $LN7
	DD	imagerel $LN7+230
	DD	imagerel $unwind$?SliderScalarN@ImGui@@YA_NPEBDHPEAXHPEBX20M@Z
pdata	ENDS
;	COMDAT pdata
pdata	SEGMENT
$pdata$__local_stdio_scanf_options DD imagerel $LN3
	DD	imagerel $LN3+44
	DD	imagerel $unwind$__local_stdio_scanf_options
pdata	ENDS
;	COMDAT pdata
pdata	SEGMENT
$pdata$_vsscanf_l DD imagerel $LN3
	DD	imagerel $LN3+115
	DD	imagerel $unwind$_vsscanf_l
pdata	ENDS
;	COMDAT pdata
pdata	SEGMENT
$pdata$sscanf DD imagerel $LN3
	DD	imagerel $LN3+184
	DD	imagerel $unwind$sscanf
pdata	ENDS
;	COMDAT pdata
pdata	SEGMENT
$pdata$fabsf DD	imagerel $LN3
	DD	imagerel $LN3+61
	DD	imagerel $unwind$fabsf
pdata	ENDS
;	COMDAT pdata
pdata	SEGMENT
$pdata$?ImIsPowerOfTwo@@YA_NH@Z DD imagerel ?ImIsPowerOfTwo@@YA_NH@Z
	DD	imagerel ?ImIsPowerOfTwo@@YA_NH@Z+100
	DD	imagerel $unwind$?ImIsPowerOfTwo@@YA_NH@Z
pdata	ENDS
;	COMDAT pdata
pdata	SEGMENT
$pdata$?ImParseFormatFindStart@@YAPEBDPEBD@Z DD imagerel $LN8
	DD	imagerel $LN8+169
	DD	imagerel $unwind$?ImParseFormatFindStart@@YAPEBDPEBD@Z
pdata	ENDS
;	COMDAT pdata
pdata	SEGMENT
$pdata$?ImParseFormatFindEnd@@YAPEBDPEBD@Z DD imagerel $LN9
	DD	imagerel $LN9+284
	DD	imagerel $unwind$?ImParseFormatFindEnd@@YAPEBDPEBD@Z
pdata	ENDS
;	COMDAT pdata
pdata	SEGMENT
$pdata$?ImParseFormatTrimDecorations@@YAPEBDPEBDPEAD_K@Z DD imagerel $LN5
	DD	imagerel $LN5+196
	DD	imagerel $unwind$?ImParseFormatTrimDecorations@@YAPEBDPEBDPEAD_K@Z
pdata	ENDS
;	COMDAT pdata
pdata	SEGMENT
$pdata$?ImParseFormatPrecision@@YAHPEBDH@Z DD imagerel $LN15
	DD	imagerel $LN15+438
	DD	imagerel $unwind$?ImParseFormatPrecision@@YAHPEBDH@Z
pdata	ENDS
;	COMDAT pdata
pdata	SEGMENT
$pdata$?ImCharIsBlankA@@YA_ND@Z DD imagerel ?ImCharIsBlankA@@YA_ND@Z
	DD	imagerel ?ImCharIsBlankA@@YA_ND@Z+93
	DD	imagerel $unwind$?ImCharIsBlankA@@YA_ND@Z
pdata	ENDS
;	COMDAT pdata
pdata	SEGMENT
$pdata$?ImCharIsBlankW@@YA_NI@Z DD imagerel ?ImCharIsBlankW@@YA_NI@Z
	DD	imagerel ?ImCharIsBlankW@@YA_NI@Z+99
	DD	imagerel $unwind$?ImCharIsBlankW@@YA_NI@Z
pdata	ENDS
;	COMDAT pdata
pdata	SEGMENT
$pdata$??D@YA?AUImVec2@@AEBU0@M@Z DD imagerel ??D@YA?AUImVec2@@AEBU0@M@Z
	DD	imagerel ??D@YA?AUImVec2@@AEBU0@M@Z+87
	DD	imagerel $unwind$??D@YA?AUImVec2@@AEBU0@M@Z
pdata	ENDS
;	COMDAT pdata
pdata	SEGMENT
$pdata$??H@YA?AUImVec2@@AEBU0@0@Z DD imagerel ??H@YA?AUImVec2@@AEBU0@0@Z
	DD	imagerel ??H@YA?AUImVec2@@AEBU0@0@Z+93
	DD	imagerel $unwind$??H@YA?AUImVec2@@AEBU0@0@Z
pdata	ENDS
;	COMDAT pdata
pdata	SEGMENT
$pdata$??G@YA?AUImVec2@@AEBU0@0@Z DD imagerel ??G@YA?AUImVec2@@AEBU0@0@Z
	DD	imagerel ??G@YA?AUImVec2@@AEBU0@0@Z+93
	DD	imagerel $unwind$??G@YA?AUImVec2@@AEBU0@0@Z
pdata	ENDS
;	COMDAT pdata
pdata	SEGMENT
$pdata$??Y@YAAEAUImVec2@@AEAU0@AEBU0@@Z DD imagerel ??Y@YAAEAUImVec2@@AEAU0@AEBU0@@Z
	DD	imagerel ??Y@YAAEAUImVec2@@AEAU0@AEBU0@@Z+93
	DD	imagerel $unwind$??Y@YAAEAUImVec2@@AEAU0@AEBU0@@Z
pdata	ENDS
;	COMDAT pdata
pdata	SEGMENT
$pdata$??Z@YAAEAUImVec2@@AEAU0@AEBU0@@Z DD imagerel ??Z@YAAEAUImVec2@@AEAU0@AEBU0@@Z
	DD	imagerel ??Z@YAAEAUImVec2@@AEAU0@AEBU0@@Z+93
	DD	imagerel $unwind$??Z@YAAEAUImVec2@@AEAU0@AEBU0@@Z
pdata	ENDS
;	COMDAT pdata
pdata	SEGMENT
$pdata$?ImPow@@YAMMM@Z DD imagerel ?ImPow@@YAMMM@Z
	DD	imagerel ?ImPow@@YAMMM@Z+55
	DD	imagerel $unwind$?ImPow@@YAMMM@Z
pdata	ENDS
;	COMDAT pdata
pdata	SEGMENT
$pdata$?ImPow@@YANNN@Z DD imagerel ?ImPow@@YANNN@Z
	DD	imagerel ?ImPow@@YANNN@Z+55
	DD	imagerel $unwind$?ImPow@@YANNN@Z
pdata	ENDS
;	COMDAT pdata
pdata	SEGMENT
$pdata$?ImLog@@YAMM@Z DD imagerel ?ImLog@@YAMM@Z
	DD	imagerel ?ImLog@@YAMM@Z+44
	DD	imagerel $unwind$?ImLog@@YAMM@Z
pdata	ENDS
;	COMDAT pdata
pdata	SEGMENT
$pdata$?ImLog@@YANN@Z DD imagerel ?ImLog@@YANN@Z
	DD	imagerel ?ImLog@@YANN@Z+44
	DD	imagerel $unwind$?ImLog@@YANN@Z
pdata	ENDS
;	COMDAT pdata
pdata	SEGMENT
$pdata$?ImAbs@@YAMM@Z DD imagerel ?ImAbs@@YAMM@Z
	DD	imagerel ?ImAbs@@YAMM@Z+44
	DD	imagerel $unwind$?ImAbs@@YAMM@Z
pdata	ENDS
;	COMDAT pdata
pdata	SEGMENT
$pdata$?ImAbs@@YANN@Z DD imagerel ?ImAbs@@YANN@Z
	DD	imagerel ?ImAbs@@YANN@Z+46
	DD	imagerel $unwind$?ImAbs@@YANN@Z
pdata	ENDS
;	COMDAT pdata
pdata	SEGMENT
$pdata$?ImMin@@YA?AUImVec2@@AEBU1@0@Z DD imagerel ?ImMin@@YA?AUImVec2@@AEBU1@0@Z
	DD	imagerel ?ImMin@@YA?AUImVec2@@AEBU1@0@Z+160
	DD	imagerel $unwind$?ImMin@@YA?AUImVec2@@AEBU1@0@Z
pdata	ENDS
;	COMDAT pdata
pdata	SEGMENT
$pdata$?ImMax@@YA?AUImVec2@@AEBU1@0@Z DD imagerel ?ImMax@@YA?AUImVec2@@AEBU1@0@Z
	DD	imagerel ?ImMax@@YA?AUImVec2@@AEBU1@0@Z+160
	DD	imagerel $unwind$?ImMax@@YA?AUImVec2@@AEBU1@0@Z
pdata	ENDS
;	COMDAT pdata
pdata	SEGMENT
$pdata$?ImLerp@@YA?AUImVec2@@AEBU1@0M@Z DD imagerel ?ImLerp@@YA?AUImVec2@@AEBU1@0M@Z
	DD	imagerel ?ImLerp@@YA?AUImVec2@@AEBU1@0M@Z+140
	DD	imagerel $unwind$?ImLerp@@YA?AUImVec2@@AEBU1@0M@Z
pdata	ENDS
;	COMDAT pdata
pdata	SEGMENT
$pdata$?ImLerp@@YA?AUImVec2@@AEBU1@00@Z DD imagerel ?ImLerp@@YA?AUImVec2@@AEBU1@00@Z
	DD	imagerel ?ImLerp@@YA?AUImVec2@@AEBU1@00@Z+146
	DD	imagerel $unwind$?ImLerp@@YA?AUImVec2@@AEBU1@00@Z
pdata	ENDS
;	COMDAT pdata
pdata	SEGMENT
$pdata$?ImSaturate@@YAMM@Z DD imagerel ?ImSaturate@@YAMM@Z
	DD	imagerel ?ImSaturate@@YAMM@Z+107
	DD	imagerel $unwind$?ImSaturate@@YAMM@Z
pdata	ENDS
;	COMDAT pdata
pdata	SEGMENT
$pdata$?ImLengthSqr@@YAMAEBUImVec2@@@Z DD imagerel ?ImLengthSqr@@YAMAEBUImVec2@@@Z
	DD	imagerel ?ImLengthSqr@@YAMAEBUImVec2@@@Z+71
	DD	imagerel $unwind$?ImLengthSqr@@YAMAEBUImVec2@@@Z
pdata	ENDS
;	COMDAT pdata
pdata	SEGMENT
$pdata$?ImFloor@@YAMM@Z DD imagerel ?ImFloor@@YAMM@Z
	DD	imagerel ?ImFloor@@YAMM@Z+43
	DD	imagerel $unwind$?ImFloor@@YAMM@Z
pdata	ENDS
;	COMDAT pdata
pdata	SEGMENT
$pdata$?ImFloor@@YA?AUImVec2@@AEBU1@@Z DD imagerel ?ImFloor@@YA?AUImVec2@@AEBU1@@Z
	DD	imagerel ?ImFloor@@YA?AUImVec2@@AEBU1@@Z+79
	DD	imagerel $unwind$?ImFloor@@YA?AUImVec2@@AEBU1@@Z
pdata	ENDS
;	COMDAT pdata
pdata	SEGMENT
$pdata$?ImRotate@@YA?AUImVec2@@AEBU1@MM@Z DD imagerel ?ImRotate@@YA?AUImVec2@@AEBU1@MM@Z
	DD	imagerel ?ImRotate@@YA?AUImVec2@@AEBU1@MM@Z+128
	DD	imagerel $unwind$?ImRotate@@YA?AUImVec2@@AEBU1@MM@Z
pdata	ENDS
;	COMDAT pdata
pdata	SEGMENT
$pdata$?ImLinearSweep@@YAMMMM@Z DD imagerel ?ImLinearSweep@@YAMMMM@Z
	DD	imagerel ?ImLinearSweep@@YAMMMM@Z+117
	DD	imagerel $unwind$?ImLinearSweep@@YAMMMM@Z
pdata	ENDS
;	COMDAT pdata
pdata	SEGMENT
$pdata$??$ImMin@M@@YAMMM@Z DD imagerel ??$ImMin@M@@YAMMM@Z
	DD	imagerel ??$ImMin@M@@YAMMM@Z+107
	DD	imagerel $unwind$??$ImMin@M@@YAMMM@Z
pdata	ENDS
;	COMDAT pdata
pdata	SEGMENT
$pdata$??$ImMax@M@@YAMMM@Z DD imagerel ??$ImMax@M@@YAMMM@Z
	DD	imagerel ??$ImMax@M@@YAMMM@Z+107
	DD	imagerel $unwind$??$ImMax@M@@YAMMM@Z
pdata	ENDS
;	COMDAT pdata
pdata	SEGMENT
$pdata$??0ImRect@@QEAA@XZ DD imagerel $LN3
	DD	imagerel $LN3+87
	DD	imagerel $unwind$??0ImRect@@QEAA@XZ
pdata	ENDS
;	COMDAT pdata
pdata	SEGMENT
$pdata$??0ImRect@@QEAA@AEBUImVec2@@0@Z DD imagerel $LN3
	DD	imagerel $LN3+76
	DD	imagerel $unwind$??0ImRect@@QEAA@AEBUImVec2@@0@Z
pdata	ENDS
;	COMDAT pdata
pdata	SEGMENT
$pdata$??0ImRect@@QEAA@AEBUImVec4@@@Z DD imagerel $LN3
	DD	imagerel $LN3+115
	DD	imagerel $unwind$??0ImRect@@QEAA@AEBUImVec4@@@Z
pdata	ENDS
;	COMDAT pdata
pdata	SEGMENT
$pdata$??0ImRect@@QEAA@MMMM@Z DD imagerel $LN3
	DD	imagerel $LN3+116
	DD	imagerel $unwind$??0ImRect@@QEAA@MMMM@Z
pdata	ENDS
;	COMDAT pdata
pdata	SEGMENT
$pdata$?GetCenter@ImRect@@QEBA?AUImVec2@@XZ DD imagerel $LN3
	DD	imagerel $LN3+105
	DD	imagerel $unwind$?GetCenter@ImRect@@QEBA?AUImVec2@@XZ
pdata	ENDS
;	COMDAT pdata
pdata	SEGMENT
$pdata$?GetSize@ImRect@@QEBA?AUImVec2@@XZ DD imagerel $LN3
	DD	imagerel $LN3+89
	DD	imagerel $unwind$?GetSize@ImRect@@QEBA?AUImVec2@@XZ
pdata	ENDS
;	COMDAT pdata
pdata	SEGMENT
$pdata$?GetWidth@ImRect@@QEBAMXZ DD imagerel $LN3
	DD	imagerel $LN3+50
	DD	imagerel $unwind$?GetWidth@ImRect@@QEBAMXZ
pdata	ENDS
;	COMDAT pdata
pdata	SEGMENT
$pdata$?GetHeight@ImRect@@QEBAMXZ DD imagerel $LN3
	DD	imagerel $LN3+51
	DD	imagerel $unwind$?GetHeight@ImRect@@QEBAMXZ
pdata	ENDS
;	COMDAT pdata
pdata	SEGMENT
$pdata$?GetArea@ImRect@@QEBAMXZ DD imagerel $LN3
	DD	imagerel $LN3+72
	DD	imagerel $unwind$?GetArea@ImRect@@QEBAMXZ
pdata	ENDS
;	COMDAT pdata
pdata	SEGMENT
$pdata$?GetTL@ImRect@@QEBA?AUImVec2@@XZ DD imagerel $LN3
	DD	imagerel $LN3+56
	DD	imagerel $unwind$?GetTL@ImRect@@QEBA?AUImVec2@@XZ
pdata	ENDS
;	COMDAT pdata
pdata	SEGMENT
$pdata$?GetTR@ImRect@@QEBA?AUImVec2@@XZ DD imagerel $LN3
	DD	imagerel $LN3+69
	DD	imagerel $unwind$?GetTR@ImRect@@QEBA?AUImVec2@@XZ
pdata	ENDS
;	COMDAT pdata
pdata	SEGMENT
$pdata$?GetBL@ImRect@@QEBA?AUImVec2@@XZ DD imagerel $LN3
	DD	imagerel $LN3+68
	DD	imagerel $unwind$?GetBL@ImRect@@QEBA?AUImVec2@@XZ
pdata	ENDS
;	COMDAT pdata
pdata	SEGMENT
$pdata$?GetBR@ImRect@@QEBA?AUImVec2@@XZ DD imagerel $LN3
	DD	imagerel $LN3+57
	DD	imagerel $unwind$?GetBR@ImRect@@QEBA?AUImVec2@@XZ
pdata	ENDS
;	COMDAT pdata
pdata	SEGMENT
$pdata$?Contains@ImRect@@QEBA_NAEBUImVec2@@@Z DD imagerel $LN5
	DD	imagerel $LN5+131
	DD	imagerel $unwind$?Contains@ImRect@@QEBA_NAEBUImVec2@@@Z
pdata	ENDS
;	COMDAT pdata
pdata	SEGMENT
$pdata$?Contains@ImRect@@QEBA_NAEBU1@@Z DD imagerel $LN5
	DD	imagerel $LN5+132
	DD	imagerel $unwind$?Contains@ImRect@@QEBA_NAEBU1@@Z
pdata	ENDS
;	COMDAT pdata
pdata	SEGMENT
$pdata$?Overlaps@ImRect@@QEBA_NAEBU1@@Z DD imagerel $LN5
	DD	imagerel $LN5+132
	DD	imagerel $unwind$?Overlaps@ImRect@@QEBA_NAEBU1@@Z
pdata	ENDS
;	COMDAT pdata
pdata	SEGMENT
$pdata$?Expand@ImRect@@QEAAXM@Z DD imagerel $LN3
	DD	imagerel $LN3+129
	DD	imagerel $unwind$?Expand@ImRect@@QEAAXM@Z
pdata	ENDS
;	COMDAT pdata
pdata	SEGMENT
$pdata$?Expand@ImRect@@QEAAXAEBUImVec2@@@Z DD imagerel $LN3
	DD	imagerel $LN3+142
	DD	imagerel $unwind$?Expand@ImRect@@QEAAXAEBUImVec2@@@Z
pdata	ENDS
;	COMDAT pdata
pdata	SEGMENT
$pdata$?Translate@ImRect@@QEAAXAEBUImVec2@@@Z DD imagerel $LN3
	DD	imagerel $LN3+142
	DD	imagerel $unwind$?Translate@ImRect@@QEAAXAEBUImVec2@@@Z
pdata	ENDS
;	COMDAT pdata
pdata	SEGMENT
$pdata$?ClipWith@ImRect@@QEAAXAEBU1@@Z DD imagerel $LN3
	DD	imagerel $LN3+113
	DD	imagerel $unwind$?ClipWith@ImRect@@QEAAXAEBU1@@Z
pdata	ENDS
;	COMDAT pdata
pdata	SEGMENT
$pdata$?Update@ImGuiMenuColumns@@QEAAXHM_N@Z DD imagerel $LN9
	DD	imagerel $LN9+374
	DD	imagerel $unwind$?Update@ImGuiMenuColumns@@QEAAXHM_N@Z
pdata	ENDS
;	COMDAT pdata
pdata	SEGMENT
$pdata$?DeclColumns@ImGuiMenuColumns@@QEAAMMMM@Z DD imagerel $LN8
	DD	imagerel $LN8+422
	DD	imagerel $unwind$?DeclColumns@ImGuiMenuColumns@@QEAAMMMM@Z
pdata	ENDS
;	COMDAT pdata
pdata	SEGMENT
$pdata$?CalcExtraSpace@ImGuiMenuColumns@@QEBAMM@Z DD imagerel $LN3
	DD	imagerel $LN3+78
	DD	imagerel $unwind$?CalcExtraSpace@ImGuiMenuColumns@@QEBAMM@Z
pdata	ENDS
;	COMDAT pdata
pdata	SEGMENT
$pdata$?OnKeyPressed@ImGuiInputTextState@@QEAAXH@Z DD imagerel $LN3
	DD	imagerel $LN3+104
	DD	imagerel $unwind$?OnKeyPressed@ImGuiInputTextState@@QEAAXH@Z
pdata	ENDS
;	COMDAT pdata
pdata	SEGMENT
$pdata$?CursorAnimReset@ImGuiInputTextState@@QEAAXXZ DD imagerel $LN3
	DD	imagerel $LN3+64
	DD	imagerel $unwind$?CursorAnimReset@ImGuiInputTextState@@QEAAXXZ
pdata	ENDS
;	COMDAT pdata
pdata	SEGMENT
$pdata$?CursorClamp@ImGuiInputTextState@@QEAAXXZ DD imagerel $LN3
	DD	imagerel $LN3+146
	DD	imagerel $unwind$?CursorClamp@ImGuiInputTextState@@QEAAXXZ
pdata	ENDS
;	COMDAT pdata
pdata	SEGMENT
$pdata$?HasSelection@ImGuiInputTextState@@QEBA_NXZ DD imagerel $LN5
	DD	imagerel $LN5+92
	DD	imagerel $unwind$?HasSelection@ImGuiInputTextState@@QEBA_NXZ
pdata	ENDS
;	COMDAT pdata
pdata	SEGMENT
$pdata$?ClearSelection@ImGuiInputTextState@@QEAAXXZ DD imagerel $LN3
	DD	imagerel $LN3+81
	DD	imagerel $unwind$?ClearSelection@ImGuiInputTextState@@QEAAXXZ
pdata	ENDS
;	COMDAT pdata
pdata	SEGMENT
$pdata$?SelectAll@ImGuiInputTextState@@QEAAXXZ DD imagerel $LN3
	DD	imagerel $LN3+106
	DD	imagerel $unwind$?SelectAll@ImGuiInputTextState@@QEAAXXZ
pdata	ENDS
;	COMDAT pdata
pdata	SEGMENT
$pdata$??$ImMin@H@@YAHHH@Z DD imagerel ??$ImMin@H@@YAHHH@Z
	DD	imagerel ??$ImMin@H@@YAHHH@Z+90
	DD	imagerel $unwind$??$ImMin@H@@YAHHH@Z
pdata	ENDS
;	COMDAT pdata
pdata	SEGMENT
$pdata$?ClearFlags@ImGuiNextWindowData@@QEAAXXZ DD imagerel $LN3
	DD	imagerel $LN3+54
	DD	imagerel $unwind$?ClearFlags@ImGuiNextWindowData@@QEAAXXZ
pdata	ENDS
;	COMDAT pdata
pdata	SEGMENT
$pdata$?ClearFlags@ImGuiNextItemData@@QEAAXXZ DD imagerel $LN3
	DD	imagerel $LN3+54
	DD	imagerel $unwind$?ClearFlags@ImGuiNextItemData@@QEAAXXZ
pdata	ENDS
;	COMDAT pdata
pdata	SEGMENT
$pdata$??0ImGuiPtrOrIndex@@QEAA@PEAX@Z DD imagerel $LN3
	DD	imagerel $LN3+84
	DD	imagerel $unwind$??0ImGuiPtrOrIndex@@QEAA@PEAX@Z
pdata	ENDS
;	COMDAT pdata
pdata	SEGMENT
$pdata$??0ImGuiPtrOrIndex@@QEAA@H@Z DD imagerel $LN3
	DD	imagerel $LN3+82
	DD	imagerel $unwind$??0ImGuiPtrOrIndex@@QEAA@H@Z
pdata	ENDS
;	COMDAT pdata
pdata	SEGMENT
$pdata$?CalcWorkRectPos@ImGuiViewportP@@QEBA?AUImVec2@@AEBU2@@Z DD imagerel $LN3
	DD	imagerel $LN3+120
	DD	imagerel $unwind$?CalcWorkRectPos@ImGuiViewportP@@QEBA?AUImVec2@@AEBU2@@Z
pdata	ENDS
;	COMDAT pdata
pdata	SEGMENT
$pdata$?CalcWorkRectSize@ImGuiViewportP@@QEBA?AUImVec2@@AEBU2@0@Z DD imagerel $LN3
	DD	imagerel $LN3+199
	DD	imagerel $unwind$?CalcWorkRectSize@ImGuiViewportP@@QEBA?AUImVec2@@AEBU2@0@Z
pdata	ENDS
;	COMDAT pdata
pdata	SEGMENT
$pdata$?GetBuildWorkRect@ImGuiViewportP@@QEBA?AUImRect@@XZ DD imagerel $LN3
	DD	imagerel $LN3+264
	DD	imagerel $unwind$?GetBuildWorkRect@ImGuiViewportP@@QEBA?AUImRect@@XZ
pdata	ENDS
;	COMDAT pdata
pdata	SEGMENT
$pdata$?back@?$ImVector@UImGuiGroupData@@@@QEAAAEAUImGuiGroupData@@XZ DD imagerel $LN4
	DD	imagerel $LN4+109
	DD	imagerel $unwind$?back@?$ImVector@UImGuiGroupData@@@@QEAAAEAUImGuiGroupData@@XZ
pdata	ENDS
;	COMDAT pdata
pdata	SEGMENT
$pdata$??A?$ImVector@UImGuiPopupData@@@@QEAAAEAUImGuiPopupData@@H@Z DD imagerel $LN5
	DD	imagerel $LN5+121
	DD	imagerel $unwind$??A?$ImVector@UImGuiPopupData@@@@QEAAAEAUImGuiPopupData@@H@Z
pdata	ENDS
;	COMDAT pdata
pdata	SEGMENT
$pdata$??A?$ImVector@UImGuiTabBar@@@@QEAAAEAUImGuiTabBar@@H@Z DD imagerel $LN5
	DD	imagerel $LN5+124
	DD	imagerel $unwind$??A?$ImVector@UImGuiTabBar@@@@QEAAAEAUImGuiTabBar@@H@Z
pdata	ENDS
;	COMDAT pdata
pdata	SEGMENT
$pdata$?_grow_capacity@?$ImVector@UImGuiTabBar@@@@QEBAHH@Z DD imagerel $LN7
	DD	imagerel $LN7+150
	DD	imagerel $unwind$?_grow_capacity@?$ImVector@UImGuiTabBar@@@@QEBAHH@Z
pdata	ENDS
;	COMDAT pdata
pdata	SEGMENT
$pdata$?resize@?$ImVector@UImGuiTabBar@@@@QEAAXH@Z DD imagerel $LN4
	DD	imagerel $LN4+110
	DD	imagerel $unwind$?resize@?$ImVector@UImGuiTabBar@@@@QEAAXH@Z
pdata	ENDS
;	COMDAT pdata
pdata	SEGMENT
$pdata$?reserve@?$ImVector@UImGuiTabBar@@@@QEAAXH@Z DD imagerel $LN5
	DD	imagerel $LN5+191
	DD	imagerel $unwind$?reserve@?$ImVector@UImGuiTabBar@@@@QEAAXH@Z
pdata	ENDS
;	COMDAT pdata
pdata	SEGMENT
$pdata$?GetByIndex@?$ImPool@UImGuiTabBar@@@@QEAAPEAUImGuiTabBar@@H@Z DD imagerel $LN3
	DD	imagerel $LN3+77
	DD	imagerel $unwind$?GetByIndex@?$ImPool@UImGuiTabBar@@@@QEAAPEAUImGuiTabBar@@H@Z
pdata	ENDS
;	COMDAT pdata
pdata	SEGMENT
$pdata$?GetIndex@?$ImPool@UImGuiTabBar@@@@QEBAHPEBUImGuiTabBar@@@Z DD imagerel $LN5
	DD	imagerel $LN5+165
	DD	imagerel $unwind$?GetIndex@?$ImPool@UImGuiTabBar@@@@QEBAHPEBUImGuiTabBar@@@Z
pdata	ENDS
;	COMDAT pdata
pdata	SEGMENT
$pdata$?GetOrAddByKey@?$ImPool@UImGuiTabBar@@@@QEAAPEAUImGuiTabBar@@I@Z DD imagerel $LN4
	DD	imagerel $LN4+162
	DD	imagerel $unwind$?GetOrAddByKey@?$ImPool@UImGuiTabBar@@@@QEAAPEAUImGuiTabBar@@I@Z
pdata	ENDS
;	COMDAT pdata
pdata	SEGMENT
$pdata$?Contains@?$ImPool@UImGuiTabBar@@@@QEBA_NPEBUImGuiTabBar@@@Z DD imagerel $LN5
	DD	imagerel $LN5+132
	DD	imagerel $unwind$?Contains@?$ImPool@UImGuiTabBar@@@@QEBA_NPEBUImGuiTabBar@@@Z
pdata	ENDS
;	COMDAT pdata
pdata	SEGMENT
$pdata$?Add@?$ImPool@UImGuiTabBar@@@@QEAAPEAUImGuiTabBar@@XZ DD imagerel $LN8
	DD	imagerel $LN8+363
	DD	imagerel $unwind$?Add@?$ImPool@UImGuiTabBar@@@@QEAAPEAUImGuiTabBar@@XZ
pdata	ENDS
;	COMDAT pdata
pdata	SEGMENT
$pdata$?dtor$0@?0??Add@?$ImPool@UImGuiTabBar@@@@QEAAPEAUImGuiTabBar@@XZ@4HA DD imagerel ?dtor$0@?0??Add@?$ImPool@UImGuiTabBar@@@@QEAAPEAUImGuiTabBar@@XZ@4HA
	DD	imagerel ?dtor$0@?0??Add@?$ImPool@UImGuiTabBar@@@@QEAAPEAUImGuiTabBar@@XZ@4HA+56
	DD	imagerel $unwind$?dtor$0@?0??Add@?$ImPool@UImGuiTabBar@@@@QEAAPEAUImGuiTabBar@@XZ@4HA
pdata	ENDS
;	COMDAT pdata
pdata	SEGMENT
$pdata$?empty@?$ImVector@UImGuiPtrOrIndex@@@@QEBA_NXZ DD imagerel $LN5
	DD	imagerel $LN5+82
	DD	imagerel $unwind$?empty@?$ImVector@UImGuiPtrOrIndex@@@@QEBA_NXZ
pdata	ENDS
;	COMDAT pdata
pdata	SEGMENT
$pdata$?back@?$ImVector@UImGuiPtrOrIndex@@@@QEAAAEAUImGuiPtrOrIndex@@XZ DD imagerel $LN4
	DD	imagerel $LN4+109
	DD	imagerel $unwind$?back@?$ImVector@UImGuiPtrOrIndex@@@@QEAAAEAUImGuiPtrOrIndex@@XZ
pdata	ENDS
;	COMDAT pdata
pdata	SEGMENT
$pdata$?_grow_capacity@?$ImVector@UImGuiPtrOrIndex@@@@QEBAHH@Z DD imagerel $LN7
	DD	imagerel $LN7+150
	DD	imagerel $unwind$?_grow_capacity@?$ImVector@UImGuiPtrOrIndex@@@@QEBAHH@Z
pdata	ENDS
;	COMDAT pdata
pdata	SEGMENT
$pdata$?reserve@?$ImVector@UImGuiPtrOrIndex@@@@QEAAXH@Z DD imagerel $LN5
	DD	imagerel $LN5+185
	DD	imagerel $unwind$?reserve@?$ImVector@UImGuiPtrOrIndex@@@@QEAAXH@Z
pdata	ENDS
;	COMDAT pdata
pdata	SEGMENT
$pdata$?push_back@?$ImVector@UImGuiPtrOrIndex@@@@QEAAXAEBUImGuiPtrOrIndex@@@Z DD imagerel $LN4
	DD	imagerel $LN4+171
	DD	imagerel $unwind$?push_back@?$ImVector@UImGuiPtrOrIndex@@@@QEAAXAEBUImGuiPtrOrIndex@@@Z
pdata	ENDS
;	COMDAT pdata
pdata	SEGMENT
$pdata$?pop_back@?$ImVector@UImGuiPtrOrIndex@@@@QEAAXXZ DD imagerel $LN4
	DD	imagerel $LN4+101
	DD	imagerel $unwind$?pop_back@?$ImVector@UImGuiPtrOrIndex@@@@QEAAXXZ
pdata	ENDS
;	COMDAT pdata
pdata	SEGMENT
$pdata$??A?$ImVector@UImGuiShrinkWidthItem@@@@QEAAAEAUImGuiShrinkWidthItem@@H@Z DD imagerel $LN5
	DD	imagerel $LN5+121
	DD	imagerel $unwind$??A?$ImVector@UImGuiShrinkWidthItem@@@@QEAAAEAUImGuiShrinkWidthItem@@H@Z
pdata	ENDS
;	COMDAT pdata
pdata	SEGMENT
$pdata$?_grow_capacity@?$ImVector@UImGuiShrinkWidthItem@@@@QEBAHH@Z DD imagerel $LN7
	DD	imagerel $LN7+150
	DD	imagerel $unwind$?_grow_capacity@?$ImVector@UImGuiShrinkWidthItem@@@@QEBAHH@Z
pdata	ENDS
;	COMDAT pdata
pdata	SEGMENT
$pdata$?resize@?$ImVector@UImGuiShrinkWidthItem@@@@QEAAXH@Z DD imagerel $LN4
	DD	imagerel $LN4+110
	DD	imagerel $unwind$?resize@?$ImVector@UImGuiShrinkWidthItem@@@@QEAAXH@Z
pdata	ENDS
;	COMDAT pdata
pdata	SEGMENT
$pdata$?reserve@?$ImVector@UImGuiShrinkWidthItem@@@@QEAAXH@Z DD imagerel $LN5
	DD	imagerel $LN5+185
	DD	imagerel $unwind$?reserve@?$ImVector@UImGuiShrinkWidthItem@@@@QEAAXH@Z
pdata	ENDS
;	COMDAT pdata
pdata	SEGMENT
$pdata$?Rect@ImGuiWindow@@QEBA?AUImRect@@XZ DD imagerel $LN3
	DD	imagerel $LN3+146
	DD	imagerel $unwind$?Rect@ImGuiWindow@@QEBA?AUImRect@@XZ
pdata	ENDS
;	COMDAT pdata
pdata	SEGMENT
$pdata$?CalcFontSize@ImGuiWindow@@QEBAMXZ DD imagerel $LN4
	DD	imagerel $LN4+138
	DD	imagerel $unwind$?CalcFontSize@ImGuiWindow@@QEBAMXZ
pdata	ENDS
;	COMDAT pdata
pdata	SEGMENT
$pdata$?TitleBarHeight@ImGuiWindow@@QEBAMXZ DD imagerel $LN5
	DD	imagerel $LN5+134
	DD	imagerel $unwind$?TitleBarHeight@ImGuiWindow@@QEBAMXZ
pdata	ENDS
;	COMDAT pdata
pdata	SEGMENT
$pdata$?MenuBarHeight@ImGuiWindow@@QEBAMXZ DD imagerel $LN5
	DD	imagerel $LN5+158
	DD	imagerel $unwind$?MenuBarHeight@ImGuiWindow@@QEBAMXZ
pdata	ENDS
;	COMDAT pdata
pdata	SEGMENT
$pdata$?MenuBarRect@ImGuiWindow@@QEBA?AUImRect@@XZ DD imagerel $LN3
	DD	imagerel $LN3+220
	DD	imagerel $unwind$?MenuBarRect@ImGuiWindow@@QEBA?AUImRect@@XZ
pdata	ENDS
;	COMDAT pdata
pdata	SEGMENT
$pdata$??0ImGuiLastItemDataBackup@@QEAA@XZ DD imagerel $LN3
	DD	imagerel $LN3+98
	DD	imagerel $unwind$??0ImGuiLastItemDataBackup@@QEAA@XZ
pdata	ENDS
;	COMDAT pdata
pdata	SEGMENT
$pdata$?Backup@ImGuiLastItemDataBackup@@QEAAXXZ DD imagerel $LN3
	DD	imagerel $LN3+158
	DD	imagerel $unwind$?Backup@ImGuiLastItemDataBackup@@QEAAXXZ
pdata	ENDS
;	COMDAT pdata
pdata	SEGMENT
$pdata$?Restore@ImGuiLastItemDataBackup@@QEBAXXZ DD imagerel $LN3
	DD	imagerel $LN3+158
	DD	imagerel $unwind$?Restore@ImGuiLastItemDataBackup@@QEBAXXZ
pdata	ENDS
;	COMDAT pdata
pdata	SEGMENT
$pdata$??0ImGuiTabItem@@QEAA@XZ DD imagerel $LN3
	DD	imagerel $LN3+138
	DD	imagerel $unwind$??0ImGuiTabItem@@QEAA@XZ
pdata	ENDS
;	COMDAT pdata
pdata	SEGMENT
$pdata$??0?$ImVector@UImGuiTabItem@@@@QEAA@XZ DD imagerel $LN3
	DD	imagerel $LN3+90
	DD	imagerel $unwind$??0?$ImVector@UImGuiTabItem@@@@QEAA@XZ
pdata	ENDS
;	COMDAT pdata
pdata	SEGMENT
$pdata$??1?$ImVector@UImGuiTabItem@@@@QEAA@XZ DD imagerel $LN4
	DD	imagerel $LN4+72
	DD	imagerel $unwind$??1?$ImVector@UImGuiTabItem@@@@QEAA@XZ
pdata	ENDS
;	COMDAT pdata
pdata	SEGMENT
$pdata$??A?$ImVector@UImGuiTabItem@@@@QEAAAEAUImGuiTabItem@@H@Z DD imagerel $LN5
	DD	imagerel $LN5+121
	DD	imagerel $unwind$??A?$ImVector@UImGuiTabItem@@@@QEAAAEAUImGuiTabItem@@H@Z
pdata	ENDS
;	COMDAT pdata
pdata	SEGMENT
$pdata$?back@?$ImVector@UImGuiTabItem@@@@QEAAAEAUImGuiTabItem@@XZ DD imagerel $LN4
	DD	imagerel $LN4+109
	DD	imagerel $unwind$?back@?$ImVector@UImGuiTabItem@@@@QEAAAEAUImGuiTabItem@@XZ
pdata	ENDS
;	COMDAT pdata
pdata	SEGMENT
$pdata$?_grow_capacity@?$ImVector@UImGuiTabItem@@@@QEBAHH@Z DD imagerel $LN7
	DD	imagerel $LN7+150
	DD	imagerel $unwind$?_grow_capacity@?$ImVector@UImGuiTabItem@@@@QEBAHH@Z
pdata	ENDS
;	COMDAT pdata
pdata	SEGMENT
$pdata$?resize@?$ImVector@UImGuiTabItem@@@@QEAAXH@Z DD imagerel $LN4
	DD	imagerel $LN4+110
	DD	imagerel $unwind$?resize@?$ImVector@UImGuiTabItem@@@@QEAAXH@Z
pdata	ENDS
;	COMDAT pdata
pdata	SEGMENT
$pdata$?reserve@?$ImVector@UImGuiTabItem@@@@QEAAXH@Z DD imagerel $LN5
	DD	imagerel $LN5+185
	DD	imagerel $unwind$?reserve@?$ImVector@UImGuiTabItem@@@@QEAAXH@Z
pdata	ENDS
;	COMDAT pdata
pdata	SEGMENT
$pdata$?push_back@?$ImVector@UImGuiTabItem@@@@QEAAXAEBUImGuiTabItem@@@Z DD imagerel $LN4
	DD	imagerel $LN4+171
	DD	imagerel $unwind$?push_back@?$ImVector@UImGuiTabItem@@@@QEAAXAEBUImGuiTabItem@@@Z
pdata	ENDS
;	COMDAT pdata
pdata	SEGMENT
$pdata$?erase@?$ImVector@UImGuiTabItem@@@@QEAAPEAUImGuiTabItem@@PEBU2@@Z DD imagerel $LN5
	DD	imagerel $LN5+288
	DD	imagerel $unwind$?erase@?$ImVector@UImGuiTabItem@@@@QEAAPEAUImGuiTabItem@@PEBU2@@Z
pdata	ENDS
;	COMDAT pdata
pdata	SEGMENT
$pdata$?index_from_ptr@?$ImVector@UImGuiTabItem@@@@QEBAHPEBUImGuiTabItem@@@Z DD imagerel $LN5
	DD	imagerel $LN5+169
	DD	imagerel $unwind$?index_from_ptr@?$ImVector@UImGuiTabItem@@@@QEBAHPEBUImGuiTabItem@@@Z
pdata	ENDS
;	COMDAT pdata
pdata	SEGMENT
$pdata$??0ImGuiTabBar@@QEAA@XZ DD imagerel $LN5
	DD	imagerel $LN5+204
	DD	imagerel $unwind$??0ImGuiTabBar@@QEAA@XZ
pdata	ENDS
;	COMDAT pdata
pdata	SEGMENT
$pdata$?dtor$0@?0???0ImGuiTabBar@@QEAA@XZ@4HA DD imagerel ?dtor$0@?0???0ImGuiTabBar@@QEAA@XZ@4HA
	DD	imagerel ?dtor$0@?0???0ImGuiTabBar@@QEAA@XZ@4HA+39
	DD	imagerel $unwind$?dtor$0@?0???0ImGuiTabBar@@QEAA@XZ@4HA
pdata	ENDS
;	COMDAT pdata
pdata	SEGMENT
$pdata$?GetTabOrder@ImGuiTabBar@@QEBAHPEBUImGuiTabItem@@@Z DD imagerel $LN3
	DD	imagerel $LN3+79
	DD	imagerel $unwind$?GetTabOrder@ImGuiTabBar@@QEBAHPEBUImGuiTabItem@@@Z
pdata	ENDS
;	COMDAT pdata
pdata	SEGMENT
$pdata$?GetTabName@ImGuiTabBar@@QEBAPEBDPEBUImGuiTabItem@@@Z DD imagerel $LN5
	DD	imagerel $LN5+137
	DD	imagerel $unwind$?GetTabName@ImGuiTabBar@@QEBAPEBDPEBUImGuiTabItem@@@Z
pdata	ENDS
;	COMDAT pdata
pdata	SEGMENT
$pdata$?GetCurrentWindow@ImGui@@YAPEAUImGuiWindow@@XZ DD imagerel $LN3
	DD	imagerel $LN3+77
	DD	imagerel $unwind$?GetCurrentWindow@ImGui@@YAPEAUImGuiWindow@@XZ
pdata	ENDS
;	COMDAT pdata
pdata	SEGMENT
$pdata$?ShrinkWidths@ImGui@@YAXPEAUImGuiShrinkWidthItem@@HM@Z DD imagerel $LN23
	DD	imagerel $LN23+918
	DD	imagerel $unwind$?ShrinkWidths@ImGui@@YAXPEAUImGuiShrinkWidthItem@@HM@Z
pdata	ENDS
;	COMDAT pdata
pdata	SEGMENT
$pdata$?BeginViewportSideBar@ImGui@@YA_NPEBDPEAUImGuiViewport@@HMH@Z DD imagerel $LN17
	DD	imagerel $LN17+808
	DD	imagerel $unwind$?BeginViewportSideBar@ImGui@@YA_NPEBDPEAUImGuiViewport@@HMH@Z
pdata	ENDS
;	COMDAT pdata
pdata	SEGMENT
$pdata$?BeginComboPopup@ImGui@@YA_NIAEBUImRect@@H@Z DD imagerel $LN19
	DD	imagerel $LN19+972
	DD	imagerel $unwind$?BeginComboPopup@ImGui@@YA_NIAEBUImRect@@H@Z
pdata	ENDS
;	COMDAT pdata
pdata	SEGMENT
$pdata$?BeginComboPreview@ImGui@@YA_NXZ DD imagerel $LN9
	DD	imagerel $LN9+481
	DD	imagerel $unwind$?BeginComboPreview@ImGui@@YA_NXZ
pdata	ENDS
;	COMDAT pdata
pdata	SEGMENT
$pdata$?EndComboPreview@ImGui@@YAXXZ DD imagerel $LN5
	DD	imagerel $LN5+469
	DD	imagerel $unwind$?EndComboPreview@ImGui@@YAXXZ
pdata	ENDS
;	COMDAT pdata
pdata	SEGMENT
$pdata$?IsKeyPressedMap@ImGui@@YA_NH_N@Z DD imagerel $LN5
	DD	imagerel $LN5+116
	DD	imagerel $unwind$?IsKeyPressedMap@ImGui@@YA_NH_N@Z
pdata	ENDS
;	COMDAT pdata
pdata	SEGMENT
$pdata$?IsNavInputDown@ImGui@@YA_NH@Z DD imagerel $LN5
	DD	imagerel $LN5+109
	DD	imagerel $unwind$?IsNavInputDown@ImGui@@YA_NH@Z
pdata	ENDS
;	COMDAT pdata
pdata	SEGMENT
$pdata$?IsNavInputTest@ImGui@@YA_NHW4ImGuiInputReadMode@@@Z DD imagerel $LN5
	DD	imagerel $LN5+99
	DD	imagerel $unwind$?IsNavInputTest@ImGui@@YA_NHW4ImGuiInputReadMode@@@Z
pdata	ENDS
;	COMDAT pdata
pdata	SEGMENT
$pdata$?BeginTabBarEx@ImGui@@YA_NPEAUImGuiTabBar@@AEBUImRect@@H@Z DD imagerel $LN12
	DD	imagerel $LN12+1074
	DD	imagerel $unwind$?BeginTabBarEx@ImGui@@YA_NPEAUImGuiTabBar@@AEBUImRect@@H@Z
pdata	ENDS
;	COMDAT pdata
pdata	SEGMENT
$pdata$?TabBarFindTabByID@ImGui@@YAPEAUImGuiTabItem@@PEAUImGuiTabBar@@I@Z DD imagerel $LN8
	DD	imagerel $LN8+159
	DD	imagerel $unwind$?TabBarFindTabByID@ImGui@@YAPEAUImGuiTabItem@@PEAUImGuiTabBar@@I@Z
pdata	ENDS
;	COMDAT pdata
pdata	SEGMENT
$pdata$?TabBarRemoveTab@ImGui@@YAXPEAUImGuiTabBar@@I@Z DD imagerel $LN7
	DD	imagerel $LN7+200
	DD	imagerel $unwind$?TabBarRemoveTab@ImGui@@YAXPEAUImGuiTabBar@@I@Z
pdata	ENDS
;	COMDAT pdata
pdata	SEGMENT
$pdata$?TabBarCloseTab@ImGui@@YAXPEAUImGuiTabBar@@PEAUImGuiTabItem@@@Z DD imagerel $LN8
	DD	imagerel $LN8+231
	DD	imagerel $unwind$?TabBarCloseTab@ImGui@@YAXPEAUImGuiTabBar@@PEAUImGuiTabItem@@@Z
pdata	ENDS
;	COMDAT pdata
pdata	SEGMENT
$pdata$?TabBarQueueReorder@ImGui@@YAXPEAUImGuiTabBar@@PEBUImGuiTabItem@@H@Z DD imagerel $LN5
	DD	imagerel $LN5+177
	DD	imagerel $unwind$?TabBarQueueReorder@ImGui@@YAXPEAUImGuiTabBar@@PEBUImGuiTabItem@@H@Z
pdata	ENDS
;	COMDAT pdata
pdata	SEGMENT
$pdata$?TabBarQueueReorderFromMousePos@ImGui@@YAXPEAUImGuiTabBar@@PEBUImGuiTabItem@@UImVec2@@@Z DD imagerel $LN20
	DD	imagerel $LN20+721
	DD	imagerel $unwind$?TabBarQueueReorderFromMousePos@ImGui@@YAXPEAUImGuiTabBar@@PEBUImGuiTabItem@@UImVec2@@@Z
pdata	ENDS
;	COMDAT pdata
pdata	SEGMENT
$pdata$?TabBarProcessReorder@ImGui@@YA_NPEAUImGuiTabBar@@@Z DD imagerel $LN16
	DD	imagerel $LN16+599
	DD	imagerel $unwind$?TabBarProcessReorder@ImGui@@YA_NPEAUImGuiTabBar@@@Z
pdata	ENDS
;	COMDAT pdata
pdata	SEGMENT
$pdata$?TabItemEx@ImGui@@YA_NPEAUImGuiTabBar@@PEBDPEA_NH@Z DD imagerel $LN80
	DD	imagerel $LN80+3712
	DD	imagerel $unwind$?TabItemEx@ImGui@@YA_NPEAUImGuiTabBar@@PEBDPEA_NH@Z
pdata	ENDS
;	COMDAT pdata
pdata	SEGMENT
$pdata$?TabItemCalcSize@ImGui@@YA?AUImVec2@@PEBD_N@Z DD imagerel $LN5
	DD	imagerel $LN5+393
	DD	imagerel $unwind$?TabItemCalcSize@ImGui@@YA?AUImVec2@@PEBD_N@Z
pdata	ENDS
;	COMDAT pdata
pdata	SEGMENT
$pdata$?TabItemBackground@ImGui@@YAXPEAUImDrawList@@AEBUImRect@@HI@Z DD imagerel $LN7
	DD	imagerel $LN7+966
	DD	imagerel $unwind$?TabItemBackground@ImGui@@YAXPEAUImDrawList@@AEBUImRect@@HI@Z
pdata	ENDS
;	COMDAT pdata
pdata	SEGMENT
$pdata$?TabItemLabelAndCloseButton@ImGui@@YAXPEAUImDrawList@@AEBUImRect@@HUImVec2@@PEBDII_NPEA_N5@Z DD imagerel $LN30
	DD	imagerel $LN30+1562
	DD	imagerel $unwind$?TabItemLabelAndCloseButton@ImGui@@YAXPEAUImDrawList@@AEBUImRect@@HUImVec2@@PEBDII_NPEA_N5@Z
pdata	ENDS
;	COMDAT pdata
pdata	SEGMENT
$pdata$?TextEx@ImGui@@YAXPEBD0H@Z DD imagerel $LN29
	DD	imagerel $LN29+1876
	DD	imagerel $unwind$?TextEx@ImGui@@YAXPEBD0H@Z
pdata	ENDS
;	COMDAT pdata
pdata	SEGMENT
$pdata$?ButtonEx@ImGui@@YA_NPEBDAEBUImVec2@@H@Z DD imagerel $LN12
	DD	imagerel $LN12+972
	DD	imagerel $unwind$?ButtonEx@ImGui@@YA_NPEBDAEBUImVec2@@H@Z
pdata	ENDS
;	COMDAT pdata
pdata	SEGMENT
$pdata$?CloseButton@ImGui@@YA_NIAEBUImVec2@@@Z DD imagerel $LN10
	DD	imagerel $LN10+1299
	DD	imagerel $unwind$?CloseButton@ImGui@@YA_NIAEBUImVec2@@@Z
pdata	ENDS
;	COMDAT pdata
pdata	SEGMENT
$pdata$?CollapseButton@ImGui@@YA_NIAEBUImVec2@@@Z DD imagerel $LN12
	DD	imagerel $LN12+786
	DD	imagerel $unwind$?CollapseButton@ImGui@@YA_NIAEBUImVec2@@@Z
pdata	ENDS
;	COMDAT pdata
pdata	SEGMENT
$pdata$?ArrowButtonEx@ImGui@@YA_NPEBDHUImVec2@@H@Z DD imagerel $LN12
	DD	imagerel $LN12+858
	DD	imagerel $unwind$?ArrowButtonEx@ImGui@@YA_NPEBDHUImVec2@@H@Z
pdata	ENDS
;	COMDAT pdata
pdata	SEGMENT
$pdata$?Scrollbar@ImGui@@YAXW4ImGuiAxis@@@Z DD imagerel $LN8
	DD	imagerel $LN8+650
	DD	imagerel $unwind$?Scrollbar@ImGui@@YAXW4ImGuiAxis@@@Z
pdata	ENDS
;	COMDAT pdata
pdata	SEGMENT
$pdata$?ScrollbarEx@ImGui@@YA_NAEBUImRect@@IW4ImGuiAxis@@PEAMMMH@Z DD imagerel $LN26
	DD	imagerel $LN26+2328
	DD	imagerel $unwind$?ScrollbarEx@ImGui@@YA_NAEBUImRect@@IW4ImGuiAxis@@PEAMMMH@Z
pdata	ENDS
;	COMDAT pdata
pdata	SEGMENT
$pdata$?ImageButtonEx@ImGui@@YA_NIPEAXAEBUImVec2@@111AEBUImVec4@@2@Z DD imagerel $LN10
	DD	imagerel $LN10+961
	DD	imagerel $unwind$?ImageButtonEx@ImGui@@YA_NIPEAXAEBUImVec2@@111AEBUImVec4@@2@Z
pdata	ENDS
;	COMDAT pdata
pdata	SEGMENT
$pdata$?GetWindowScrollbarRect@ImGui@@YA?AUImRect@@PEAUImGuiWindow@@W4ImGuiAxis@@@Z DD imagerel $LN6
	DD	imagerel $LN6+463
	DD	imagerel $unwind$?GetWindowScrollbarRect@ImGui@@YA?AUImRect@@PEAUImGuiWindow@@W4ImGuiAxis@@@Z
pdata	ENDS
;	COMDAT pdata
pdata	SEGMENT
$pdata$?GetWindowScrollbarID@ImGui@@YAIPEAUImGuiWindow@@W4ImGuiAxis@@@Z DD imagerel $LN5
	DD	imagerel $LN5+106
	DD	imagerel $unwind$?GetWindowScrollbarID@ImGui@@YAIPEAUImGuiWindow@@W4ImGuiAxis@@@Z
pdata	ENDS
;	COMDAT pdata
pdata	SEGMENT
$pdata$?SeparatorEx@ImGui@@YAXH@Z DD imagerel $LN17
	DD	imagerel $LN17+1262
	DD	imagerel $unwind$?SeparatorEx@ImGui@@YAXH@Z
pdata	ENDS
;	COMDAT pdata
pdata	SEGMENT
$pdata$?CheckboxFlags@ImGui@@YA_NPEBDPEA_J_J@Z DD imagerel $LN3
	DD	imagerel $LN3+77
	DD	imagerel $unwind$?CheckboxFlags@ImGui@@YA_NPEBDPEA_J_J@Z
pdata	ENDS
;	COMDAT pdata
pdata	SEGMENT
$pdata$?CheckboxFlags@ImGui@@YA_NPEBDPEA_K_K@Z DD imagerel $LN3
	DD	imagerel $LN3+77
	DD	imagerel $unwind$?CheckboxFlags@ImGui@@YA_NPEBDPEA_K_K@Z
pdata	ENDS
;	COMDAT pdata
pdata	SEGMENT
$pdata$?ButtonBehavior@ImGui@@YA_NAEBUImRect@@IPEA_N1H@Z DD imagerel $LN84
	DD	imagerel $LN84+2729
	DD	imagerel $unwind$?ButtonBehavior@ImGui@@YA_NAEBUImRect@@IPEA_N1H@Z
pdata	ENDS
;	COMDAT pdata
pdata	SEGMENT
$pdata$?DragBehavior@ImGui@@YA_NIHPEAXMPEBX1PEBDH@Z DD imagerel $LN72
	DD	imagerel $LN72+2448
	DD	imagerel $unwind$?DragBehavior@ImGui@@YA_NIHPEAXMPEBX1PEBDH@Z
pdata	ENDS
;	COMDAT pdata
pdata	SEGMENT
$pdata$?SliderBehavior@ImGui@@YA_NAEBUImRect@@IHPEAXPEBX2PEBDHPEAU2@@Z DD imagerel $LN37
	DD	imagerel $LN37+1980
	DD	imagerel $unwind$?SliderBehavior@ImGui@@YA_NAEBUImRect@@IHPEAXPEBX2PEBDHPEAU2@@Z
pdata	ENDS
;	COMDAT pdata
pdata	SEGMENT
$pdata$?SplitterBehavior@ImGui@@YA_NAEBUImRect@@IW4ImGuiAxis@@PEAM2MMMM@Z DD imagerel $LN29
	DD	imagerel $LN29+1443
	DD	imagerel $unwind$?SplitterBehavior@ImGui@@YA_NAEBUImRect@@IW4ImGuiAxis@@PEAM2MMMM@Z
pdata	ENDS
;	COMDAT pdata
pdata	SEGMENT
$pdata$?TreeNodeBehavior@ImGui@@YA_NIHPEBD0@Z DD imagerel $LN80
	DD	imagerel $LN80+4090
	DD	imagerel $unwind$?TreeNodeBehavior@ImGui@@YA_NIHPEBD0@Z
pdata	ENDS
;	COMDAT pdata
pdata	SEGMENT
$pdata$?TreeNodeBehaviorIsOpen@ImGui@@YA_NIH@Z DD imagerel $LN17
	DD	imagerel $LN17+463
	DD	imagerel $unwind$?TreeNodeBehaviorIsOpen@ImGui@@YA_NIH@Z
pdata	ENDS
;	COMDAT pdata
pdata	SEGMENT
$pdata$?TreePushOverrideID@ImGui@@YAXI@Z DD imagerel $LN3
	DD	imagerel $LN3+132
	DD	imagerel $unwind$?TreePushOverrideID@ImGui@@YAXI@Z
pdata	ENDS
;	COMDAT pdata
pdata	SEGMENT
$pdata$?DataTypeGetInfo@ImGui@@YAPEBUImGuiDataTypeInfo@@H@Z DD imagerel $LN5
	DD	imagerel $LN5+115
	DD	imagerel $unwind$?DataTypeGetInfo@ImGui@@YAPEBUImGuiDataTypeInfo@@H@Z
pdata	ENDS
;	COMDAT pdata
pdata	SEGMENT
$pdata$?DataTypeFormatString@ImGui@@YAHPEADHHPEBXPEBD@Z DD imagerel $LN14
	DD	imagerel $LN14+560
	DD	imagerel $unwind$?DataTypeFormatString@ImGui@@YAHPEADHHPEBXPEBD@Z
pdata	ENDS
;	COMDAT pdata
pdata	SEGMENT
$pdata$?DataTypeApplyOp@ImGui@@YAXHHPEAXPEBX1@Z DD imagerel $LN39
	DD	imagerel $LN39+1300
	DD	imagerel $unwind$?DataTypeApplyOp@ImGui@@YAXHHPEAXPEBX1@Z
pdata	ENDS
;	COMDAT pdata
pdata	SEGMENT
$pdata$?DataTypeApplyOpFromText@ImGui@@YA_NPEBD0HPEAX0@Z DD imagerel $LN66
	DD	imagerel $LN66+1758
	DD	imagerel $unwind$?DataTypeApplyOpFromText@ImGui@@YA_NPEBD0HPEAX0@Z
pdata	ENDS
;	COMDAT pdata
pdata	SEGMENT
$pdata$?DataTypeCompare@ImGui@@YAHHPEBX0@Z DD imagerel $LN18
	DD	imagerel $LN18+408
	DD	imagerel $unwind$?DataTypeCompare@ImGui@@YAHHPEBX0@Z
pdata	ENDS
;	COMDAT pdata
pdata	SEGMENT
$pdata$?DataTypeClamp@ImGui@@YA_NHPEAXPEBX1@Z DD imagerel $LN18
	DD	imagerel $LN18+488
	DD	imagerel $unwind$?DataTypeClamp@ImGui@@YA_NHPEAXPEBX1@Z
pdata	ENDS
;	COMDAT pdata
pdata	SEGMENT
$pdata$?InputTextEx@ImGui@@YA_NPEBD0PEADHAEBUImVec2@@HP6AHPEAUImGuiInputTextCallbackData@@@ZPEAX@Z DD imagerel $LN403
	DD	imagerel $LN403+17825
	DD	imagerel $unwind$?InputTextEx@ImGui@@YA_NPEBD0PEADHAEBUImVec2@@HP6AHPEAUImGuiInputTextCallbackData@@@ZPEAX@Z
pdata	ENDS
;	COMDAT pdata
pdata	SEGMENT
$pdata$?dtor$0@?0??InputTextEx@ImGui@@YA_NPEBD0PEADHAEBUImVec2@@HP6AHPEAUImGuiInputTextCallbackData@@@ZPEAX@Z@4HA DD imagerel ?dtor$0@?0??InputTextEx@ImGui@@YA_NPEBD0PEADHAEBUImVec2@@HP6AHPEAUImGuiInputTextCallbackData@@@ZPEAX@Z@4HA
	DD	imagerel ?dtor$0@?0??InputTextEx@ImGui@@YA_NPEBD0PEADHAEBUImVec2@@HP6AHPEAUImGuiInputTextCallbackData@@@ZPEAX@Z@4HA+39
	DD	imagerel $unwind$?dtor$0@?0??InputTextEx@ImGui@@YA_NPEBD0PEADHAEBUImVec2@@HP6AHPEAUImGuiInputTextCallbackData@@@ZPEAX@Z@4HA
pdata	ENDS
;	COMDAT pdata
pdata	SEGMENT
$pdata$?TempInputText@ImGui@@YA_NAEBUImRect@@IPEBDPEADHH@Z DD imagerel $LN8
	DD	imagerel $LN8+334
	DD	imagerel $unwind$?TempInputText@ImGui@@YA_NAEBUImRect@@IPEBDPEADHH@Z
pdata	ENDS
;	COMDAT pdata
pdata	SEGMENT
$pdata$?TempInputScalar@ImGui@@YA_NAEBUImRect@@IPEBDHPEAX1PEBX3@Z DD imagerel $LN12
	DD	imagerel $LN12+664
	DD	imagerel $unwind$?TempInputScalar@ImGui@@YA_NAEBUImRect@@IPEBDHPEAX1PEBX3@Z
pdata	ENDS
;	COMDAT pdata
pdata	SEGMENT
$pdata$?TempInputIsActive@ImGui@@YA_NI@Z DD imagerel $LN5
	DD	imagerel $LN5+116
	DD	imagerel $unwind$?TempInputIsActive@ImGui@@YA_NI@Z
pdata	ENDS
;	COMDAT pdata
pdata	SEGMENT
$pdata$?GetInputTextState@ImGui@@YAPEAUImGuiInputTextState@@I@Z DD imagerel $LN5
	DD	imagerel $LN5+106
	DD	imagerel $unwind$?GetInputTextState@ImGui@@YAPEAUImGuiInputTextState@@I@Z
pdata	ENDS
;	COMDAT pdata
pdata	SEGMENT
$pdata$?ColorTooltip@ImGui@@YAXPEBDPEBMH@Z DD imagerel $LN18
	DD	imagerel $LN18+1477
	DD	imagerel $unwind$?ColorTooltip@ImGui@@YAXPEBDPEBMH@Z
pdata	ENDS
;	COMDAT pdata
pdata	SEGMENT
$pdata$?ColorEditOptionsPopup@ImGui@@YAXPEBMH@Z DD imagerel $LN41
	DD	imagerel $LN41+1625
	DD	imagerel $unwind$?ColorEditOptionsPopup@ImGui@@YAXPEBMH@Z
pdata	ENDS
;	COMDAT pdata
pdata	SEGMENT
$pdata$?ColorPickerOptionsPopup@ImGui@@YAXPEBMH@Z DD imagerel $LN22
	DD	imagerel $LN22+842
	DD	imagerel $unwind$?ColorPickerOptionsPopup@ImGui@@YAXPEBMH@Z
pdata	ENDS
;	COMDAT pdata
pdata	SEGMENT
$pdata$?PlotEx@ImGui@@YAHW4ImGuiPlotType@@PEBDP6AMPEAXH@Z2HH1MMUImVec2@@@Z DD imagerel $LN59
	DD	imagerel $LN59+3250
	DD	imagerel $unwind$?PlotEx@ImGui@@YAHW4ImGuiPlotType@@PEBDP6AMPEAXH@Z2HH1MMUImVec2@@@Z
pdata	ENDS
;	COMDAT pdata
pdata	SEGMENT
$pdata$?InputTextFilterCharacter@@YA_NPEAIHP6AHPEAUImGuiInputTextCallbackData@@@ZPEAXW4ImGuiInputSource@@@Z DD imagerel ?InputTextFilterCharacter@@YA_NPEAIHP6AHPEAUImGuiInputTextCallbackData@@@ZPEAXW4ImGuiInputSource@@@Z
	DD	imagerel ?InputTextFilterCharacter@@YA_NPEAIHP6AHPEAUImGuiInputTextCallbackData@@@ZPEAXW4ImGuiInputSource@@@Z+889
	DD	imagerel $unwind$?InputTextFilterCharacter@@YA_NPEAIHP6AHPEAUImGuiInputTextCallbackData@@@ZPEAXW4ImGuiInputSource@@@Z
pdata	ENDS
;	COMDAT pdata
pdata	SEGMENT
$pdata$?InputTextCalcTextLenAndLineCount@@YAHPEBDPEAPEBD@Z DD imagerel ?InputTextCalcTextLenAndLineCount@@YAHPEBDPEAPEBD@Z
	DD	imagerel ?InputTextCalcTextLenAndLineCount@@YAHPEBDPEAPEBD@Z+205
	DD	imagerel $unwind$?InputTextCalcTextLenAndLineCount@@YAHPEBDPEAPEBD@Z
pdata	ENDS
;	COMDAT pdata
pdata	SEGMENT
$pdata$?InputTextCalcTextSizeW@@YA?AUImVec2@@PEBG0PEAPEBGPEAU1@_N@Z DD imagerel ?InputTextCalcTextSizeW@@YA?AUImVec2@@PEBG0PEAPEBGPEAU1@_N@Z
	DD	imagerel ?InputTextCalcTextSizeW@@YA?AUImVec2@@PEBG0PEAPEBGPEAU1@_N@Z+666
	DD	imagerel $unwind$?InputTextCalcTextSizeW@@YA?AUImVec2@@PEBG0PEAPEBGPEAU1@_N@Z
pdata	ENDS
;	COMDAT pdata
pdata	SEGMENT
$pdata$??$ImClamp@M@@YAMMMM@Z DD imagerel ??$ImClamp@M@@YAMMMM@Z
	DD	imagerel ??$ImClamp@M@@YAMMMM@Z+164
	DD	imagerel $unwind$??$ImClamp@M@@YAMMMM@Z
pdata	ENDS
;	COMDAT pdata
pdata	SEGMENT
$pdata$??$ImLerp@M@@YAMMMM@Z DD imagerel ??$ImLerp@M@@YAMMMM@Z
	DD	imagerel ??$ImLerp@M@@YAMMMM@Z+93
	DD	imagerel $unwind$??$ImLerp@M@@YAMMMM@Z
pdata	ENDS
;	COMDAT pdata
pdata	SEGMENT
$pdata$??$CheckboxFlagsT@H@ImGui@@YA_NPEBDPEAHH@Z DD imagerel $LN12
	DD	imagerel $LN12+438
	DD	imagerel $unwind$??$CheckboxFlagsT@H@ImGui@@YA_NPEBDPEAHH@Z
pdata	ENDS
;	COMDAT pdata
pdata	SEGMENT
$pdata$??$CheckboxFlagsT@I@ImGui@@YA_NPEBDPEAII@Z DD imagerel $LN12
	DD	imagerel $LN12+438
	DD	imagerel $unwind$??$CheckboxFlagsT@I@ImGui@@YA_NPEBDPEAII@Z
pdata	ENDS
;	COMDAT pdata
pdata	SEGMENT
$pdata$??$CheckboxFlagsT@_J@ImGui@@YA_NPEBDPEA_J_J@Z DD imagerel $LN12
	DD	imagerel $LN12+456
	DD	imagerel $unwind$??$CheckboxFlagsT@_J@ImGui@@YA_NPEBDPEA_J_J@Z
pdata	ENDS
;	COMDAT pdata
pdata	SEGMENT
$pdata$??$CheckboxFlagsT@_K@ImGui@@YA_NPEBDPEA_K_K@Z DD imagerel $LN12
	DD	imagerel $LN12+456
	DD	imagerel $unwind$??$CheckboxFlagsT@_K@ImGui@@YA_NPEBDPEA_K_K@Z
pdata	ENDS
;	COMDAT pdata
pdata	SEGMENT
$pdata$?ShrinkWidthItemComparer@@YAHPEBX0@Z DD imagerel ?ShrinkWidthItemComparer@@YAHPEBX0@Z
	DD	imagerel ?ShrinkWidthItemComparer@@YAHPEBX0@Z+118
	DD	imagerel $unwind$?ShrinkWidthItemComparer@@YAHPEBX0@Z
pdata	ENDS
;	COMDAT pdata
pdata	SEGMENT
$pdata$?CalcMaxPopupHeightFromItemCount@@YAMH@Z DD imagerel ?CalcMaxPopupHeightFromItemCount@@YAMH@Z
	DD	imagerel ?CalcMaxPopupHeightFromItemCount@@YAMH@Z+142
	DD	imagerel $unwind$?CalcMaxPopupHeightFromItemCount@@YAMH@Z
pdata	ENDS
;	COMDAT pdata
pdata	SEGMENT
$pdata$?Items_ArrayGetter@@YA_NPEAXHPEAPEBD@Z DD imagerel ?Items_ArrayGetter@@YA_NPEAXHPEAPEBD@Z
	DD	imagerel ?Items_ArrayGetter@@YA_NPEAXHPEAPEBD@Z+98
	DD	imagerel $unwind$?Items_ArrayGetter@@YA_NPEAXHPEAPEBD@Z
pdata	ENDS
;	COMDAT pdata
pdata	SEGMENT
$pdata$?Items_SingleStringGetter@@YA_NPEAXHPEAPEBD@Z DD imagerel ?Items_SingleStringGetter@@YA_NPEAXHPEAPEBD@Z
	DD	imagerel ?Items_SingleStringGetter@@YA_NPEAXHPEAPEBD@Z+220
	DD	imagerel $unwind$?Items_SingleStringGetter@@YA_NPEAXHPEAPEBD@Z
pdata	ENDS
;	COMDAT pdata
pdata	SEGMENT
$pdata$?PatchFormatStringFloatToInt@@YAPEBDPEBD@Z DD imagerel ?PatchFormatStringFloatToInt@@YAPEBDPEBD@Z
	DD	imagerel ?PatchFormatStringFloatToInt@@YAPEBDPEBD@Z+388
	DD	imagerel $unwind$?PatchFormatStringFloatToInt@@YAPEBDPEBD@Z
pdata	ENDS
;	COMDAT pdata
pdata	SEGMENT
$pdata$??$ImAddClampOverflow@C@@YACCCCC@Z DD imagerel ??$ImAddClampOverflow@C@@YACCCCC@Z
	DD	imagerel ??$ImAddClampOverflow@C@@YACCCCC@Z+164
	DD	imagerel $unwind$??$ImAddClampOverflow@C@@YACCCCC@Z
pdata	ENDS
;	COMDAT pdata
pdata	SEGMENT
$pdata$??$ImSubClampOverflow@C@@YACCCCC@Z DD imagerel ??$ImSubClampOverflow@C@@YACCCCC@Z
	DD	imagerel ??$ImSubClampOverflow@C@@YACCCCC@Z+164
	DD	imagerel $unwind$??$ImSubClampOverflow@C@@YACCCCC@Z
pdata	ENDS
;	COMDAT pdata
pdata	SEGMENT
$pdata$??$ImAddClampOverflow@E@@YAEEEEE@Z DD imagerel ??$ImAddClampOverflow@E@@YAEEEEE@Z
	DD	imagerel ??$ImAddClampOverflow@E@@YAEEEEE@Z+164
	DD	imagerel $unwind$??$ImAddClampOverflow@E@@YAEEEEE@Z
pdata	ENDS
;	COMDAT pdata
pdata	SEGMENT
$pdata$??$ImSubClampOverflow@E@@YAEEEEE@Z DD imagerel ??$ImSubClampOverflow@E@@YAEEEEE@Z
	DD	imagerel ??$ImSubClampOverflow@E@@YAEEEEE@Z+164
	DD	imagerel $unwind$??$ImSubClampOverflow@E@@YAEEEEE@Z
pdata	ENDS
;	COMDAT pdata
pdata	SEGMENT
$pdata$??$ImAddClampOverflow@F@@YAFFFFF@Z DD imagerel ??$ImAddClampOverflow@F@@YAFFFFF@Z
	DD	imagerel ??$ImAddClampOverflow@F@@YAFFFFF@Z+168
	DD	imagerel $unwind$??$ImAddClampOverflow@F@@YAFFFFF@Z
pdata	ENDS
;	COMDAT pdata
pdata	SEGMENT
$pdata$??$ImSubClampOverflow@F@@YAFFFFF@Z DD imagerel ??$ImSubClampOverflow@F@@YAFFFFF@Z
	DD	imagerel ??$ImSubClampOverflow@F@@YAFFFFF@Z+168
	DD	imagerel $unwind$??$ImSubClampOverflow@F@@YAFFFFF@Z
pdata	ENDS
;	COMDAT pdata
pdata	SEGMENT
$pdata$??$ImAddClampOverflow@G@@YAGGGGG@Z DD imagerel ??$ImAddClampOverflow@G@@YAGGGGG@Z
	DD	imagerel ??$ImAddClampOverflow@G@@YAGGGGG@Z+168
	DD	imagerel $unwind$??$ImAddClampOverflow@G@@YAGGGGG@Z
pdata	ENDS
;	COMDAT pdata
pdata	SEGMENT
$pdata$??$ImSubClampOverflow@G@@YAGGGGG@Z DD imagerel ??$ImSubClampOverflow@G@@YAGGGGG@Z
	DD	imagerel ??$ImSubClampOverflow@G@@YAGGGGG@Z+168
	DD	imagerel $unwind$??$ImSubClampOverflow@G@@YAGGGGG@Z
pdata	ENDS
;	COMDAT pdata
pdata	SEGMENT
$pdata$??$ImAddClampOverflow@H@@YAHHHHH@Z DD imagerel ??$ImAddClampOverflow@H@@YAHHHHH@Z
	DD	imagerel ??$ImAddClampOverflow@H@@YAHHHHH@Z+152
	DD	imagerel $unwind$??$ImAddClampOverflow@H@@YAHHHHH@Z
pdata	ENDS
;	COMDAT pdata
pdata	SEGMENT
$pdata$??$ImSubClampOverflow@H@@YAHHHHH@Z DD imagerel ??$ImSubClampOverflow@H@@YAHHHHH@Z
	DD	imagerel ??$ImSubClampOverflow@H@@YAHHHHH@Z+152
	DD	imagerel $unwind$??$ImSubClampOverflow@H@@YAHHHHH@Z
pdata	ENDS
;	COMDAT pdata
pdata	SEGMENT
$pdata$??$ImAddClampOverflow@I@@YAIIIII@Z DD imagerel ??$ImAddClampOverflow@I@@YAIIIII@Z
	DD	imagerel ??$ImAddClampOverflow@I@@YAIIIII@Z+152
	DD	imagerel $unwind$??$ImAddClampOverflow@I@@YAIIIII@Z
pdata	ENDS
;	COMDAT pdata
pdata	SEGMENT
$pdata$??$ImSubClampOverflow@I@@YAIIIII@Z DD imagerel ??$ImSubClampOverflow@I@@YAIIIII@Z
	DD	imagerel ??$ImSubClampOverflow@I@@YAIIIII@Z+152
	DD	imagerel $unwind$??$ImSubClampOverflow@I@@YAIIIII@Z
pdata	ENDS
;	COMDAT pdata
pdata	SEGMENT
$pdata$??$ImAddClampOverflow@_J@@YA_J_J000@Z DD imagerel ??$ImAddClampOverflow@_J@@YA_J_J000@Z
	DD	imagerel ??$ImAddClampOverflow@_J@@YA_J_J000@Z+172
	DD	imagerel $unwind$??$ImAddClampOverflow@_J@@YA_J_J000@Z
pdata	ENDS
;	COMDAT pdata
pdata	SEGMENT
$pdata$??$ImSubClampOverflow@_J@@YA_J_J000@Z DD imagerel ??$ImSubClampOverflow@_J@@YA_J_J000@Z
	DD	imagerel ??$ImSubClampOverflow@_J@@YA_J_J000@Z+172
	DD	imagerel $unwind$??$ImSubClampOverflow@_J@@YA_J_J000@Z
pdata	ENDS
;	COMDAT pdata
pdata	SEGMENT
$pdata$??$ImAddClampOverflow@_K@@YA_K_K000@Z DD imagerel ??$ImAddClampOverflow@_K@@YA_K_K000@Z
	DD	imagerel ??$ImAddClampOverflow@_K@@YA_K_K000@Z+172
	DD	imagerel $unwind$??$ImAddClampOverflow@_K@@YA_K_K000@Z
pdata	ENDS
;	COMDAT pdata
pdata	SEGMENT
$pdata$??$ImSubClampOverflow@_K@@YA_K_K000@Z DD imagerel ??$ImSubClampOverflow@_K@@YA_K_K000@Z
	DD	imagerel ??$ImSubClampOverflow@_K@@YA_K_K000@Z+172
	DD	imagerel $unwind$??$ImSubClampOverflow@_K@@YA_K_K000@Z
pdata	ENDS
;	COMDAT pdata
pdata	SEGMENT
$pdata$??$ImClamp@H@@YAHHHH@Z DD imagerel ??$ImClamp@H@@YAHHHH@Z
	DD	imagerel ??$ImClamp@H@@YAHHHH@Z+135
	DD	imagerel $unwind$??$ImClamp@H@@YAHHHH@Z
pdata	ENDS
;	COMDAT pdata
pdata	SEGMENT
$pdata$??$DataTypeCompareT@C@@YAHPEBC0@Z DD imagerel ??$DataTypeCompareT@C@@YAHPEBC0@Z
	DD	imagerel ??$DataTypeCompareT@C@@YAHPEBC0@Z+110
	DD	imagerel $unwind$??$DataTypeCompareT@C@@YAHPEBC0@Z
pdata	ENDS
;	COMDAT pdata
pdata	SEGMENT
$pdata$??$DataTypeCompareT@E@@YAHPEBE0@Z DD imagerel ??$DataTypeCompareT@E@@YAHPEBE0@Z
	DD	imagerel ??$DataTypeCompareT@E@@YAHPEBE0@Z+110
	DD	imagerel $unwind$??$DataTypeCompareT@E@@YAHPEBE0@Z
pdata	ENDS
;	COMDAT pdata
pdata	SEGMENT
$pdata$??$DataTypeCompareT@F@@YAHPEBF0@Z DD imagerel ??$DataTypeCompareT@F@@YAHPEBF0@Z
	DD	imagerel ??$DataTypeCompareT@F@@YAHPEBF0@Z+110
	DD	imagerel $unwind$??$DataTypeCompareT@F@@YAHPEBF0@Z
pdata	ENDS
;	COMDAT pdata
pdata	SEGMENT
$pdata$??$DataTypeCompareT@G@@YAHPEBG0@Z DD imagerel ??$DataTypeCompareT@G@@YAHPEBG0@Z
	DD	imagerel ??$DataTypeCompareT@G@@YAHPEBG0@Z+110
	DD	imagerel $unwind$??$DataTypeCompareT@G@@YAHPEBG0@Z
pdata	ENDS
;	COMDAT pdata
pdata	SEGMENT
$pdata$??$DataTypeCompareT@H@@YAHPEBH0@Z DD imagerel ??$DataTypeCompareT@H@@YAHPEBH0@Z
	DD	imagerel ??$DataTypeCompareT@H@@YAHPEBH0@Z+102
	DD	imagerel $unwind$??$DataTypeCompareT@H@@YAHPEBH0@Z
pdata	ENDS
;	COMDAT pdata
pdata	SEGMENT
$pdata$??$DataTypeCompareT@I@@YAHPEBI0@Z DD imagerel ??$DataTypeCompareT@I@@YAHPEBI0@Z
	DD	imagerel ??$DataTypeCompareT@I@@YAHPEBI0@Z+102
	DD	imagerel $unwind$??$DataTypeCompareT@I@@YAHPEBI0@Z
pdata	ENDS
;	COMDAT pdata
pdata	SEGMENT
$pdata$??$DataTypeCompareT@_J@@YAHPEB_J0@Z DD imagerel ??$DataTypeCompareT@_J@@YAHPEB_J0@Z
	DD	imagerel ??$DataTypeCompareT@_J@@YAHPEB_J0@Z+106
	DD	imagerel $unwind$??$DataTypeCompareT@_J@@YAHPEB_J0@Z
pdata	ENDS
;	COMDAT pdata
pdata	SEGMENT
$pdata$??$DataTypeCompareT@_K@@YAHPEB_K0@Z DD imagerel ??$DataTypeCompareT@_K@@YAHPEB_K0@Z
	DD	imagerel ??$DataTypeCompareT@_K@@YAHPEB_K0@Z+106
	DD	imagerel $unwind$??$DataTypeCompareT@_K@@YAHPEB_K0@Z
pdata	ENDS
;	COMDAT pdata
pdata	SEGMENT
$pdata$??$DataTypeCompareT@M@@YAHPEBM0@Z DD imagerel ??$DataTypeCompareT@M@@YAHPEBM0@Z
	DD	imagerel ??$DataTypeCompareT@M@@YAHPEBM0@Z+108
	DD	imagerel $unwind$??$DataTypeCompareT@M@@YAHPEBM0@Z
pdata	ENDS
;	COMDAT pdata
pdata	SEGMENT
$pdata$??$DataTypeCompareT@N@@YAHPEBN0@Z DD imagerel ??$DataTypeCompareT@N@@YAHPEBN0@Z
	DD	imagerel ??$DataTypeCompareT@N@@YAHPEBN0@Z+110
	DD	imagerel $unwind$??$DataTypeCompareT@N@@YAHPEBN0@Z
pdata	ENDS
;	COMDAT pdata
pdata	SEGMENT
$pdata$??$DataTypeClampT@C@@YA_NPEACPEBC1@Z DD imagerel ??$DataTypeClampT@C@@YA_NPEACPEBC1@Z
	DD	imagerel ??$DataTypeClampT@C@@YA_NPEACPEBC1@Z+167
	DD	imagerel $unwind$??$DataTypeClampT@C@@YA_NPEACPEBC1@Z
pdata	ENDS
;	COMDAT pdata
pdata	SEGMENT
$pdata$??$DataTypeClampT@E@@YA_NPEAEPEBE1@Z DD imagerel ??$DataTypeClampT@E@@YA_NPEAEPEBE1@Z
	DD	imagerel ??$DataTypeClampT@E@@YA_NPEAEPEBE1@Z+167
	DD	imagerel $unwind$??$DataTypeClampT@E@@YA_NPEAEPEBE1@Z
pdata	ENDS
;	COMDAT pdata
pdata	SEGMENT
$pdata$??$DataTypeClampT@F@@YA_NPEAFPEBF1@Z DD imagerel ??$DataTypeClampT@F@@YA_NPEAFPEBF1@Z
	DD	imagerel ??$DataTypeClampT@F@@YA_NPEAFPEBF1@Z+169
	DD	imagerel $unwind$??$DataTypeClampT@F@@YA_NPEAFPEBF1@Z
pdata	ENDS
;	COMDAT pdata
pdata	SEGMENT
$pdata$??$DataTypeClampT@G@@YA_NPEAGPEBG1@Z DD imagerel ??$DataTypeClampT@G@@YA_NPEAGPEBG1@Z
	DD	imagerel ??$DataTypeClampT@G@@YA_NPEAGPEBG1@Z+169
	DD	imagerel $unwind$??$DataTypeClampT@G@@YA_NPEAGPEBG1@Z
pdata	ENDS
;	COMDAT pdata
pdata	SEGMENT
$pdata$??$DataTypeClampT@H@@YA_NPEAHPEBH1@Z DD imagerel ??$DataTypeClampT@H@@YA_NPEAHPEBH1@Z
	DD	imagerel ??$DataTypeClampT@H@@YA_NPEAHPEBH1@Z+157
	DD	imagerel $unwind$??$DataTypeClampT@H@@YA_NPEAHPEBH1@Z
pdata	ENDS
;	COMDAT pdata
pdata	SEGMENT
$pdata$??$DataTypeClampT@I@@YA_NPEAIPEBI1@Z DD imagerel ??$DataTypeClampT@I@@YA_NPEAIPEBI1@Z
	DD	imagerel ??$DataTypeClampT@I@@YA_NPEAIPEBI1@Z+157
	DD	imagerel $unwind$??$DataTypeClampT@I@@YA_NPEAIPEBI1@Z
pdata	ENDS
;	COMDAT pdata
pdata	SEGMENT
$pdata$??$DataTypeClampT@_J@@YA_NPEA_JPEB_J1@Z DD imagerel ??$DataTypeClampT@_J@@YA_NPEA_JPEB_J1@Z
	DD	imagerel ??$DataTypeClampT@_J@@YA_NPEA_JPEB_J1@Z+165
	DD	imagerel $unwind$??$DataTypeClampT@_J@@YA_NPEA_JPEB_J1@Z
pdata	ENDS
;	COMDAT pdata
pdata	SEGMENT
$pdata$??$DataTypeClampT@_K@@YA_NPEA_KPEB_K1@Z DD imagerel ??$DataTypeClampT@_K@@YA_NPEA_KPEB_K1@Z
	DD	imagerel ??$DataTypeClampT@_K@@YA_NPEA_KPEB_K1@Z+165
	DD	imagerel $unwind$??$DataTypeClampT@_K@@YA_NPEA_KPEB_K1@Z
pdata	ENDS
;	COMDAT pdata
pdata	SEGMENT
$pdata$??$DataTypeClampT@M@@YA_NPEAMPEBM1@Z DD imagerel ??$DataTypeClampT@M@@YA_NPEAMPEBM1@Z
	DD	imagerel ??$DataTypeClampT@M@@YA_NPEAMPEBM1@Z+171
	DD	imagerel $unwind$??$DataTypeClampT@M@@YA_NPEAMPEBM1@Z
pdata	ENDS
;	COMDAT pdata
pdata	SEGMENT
$pdata$??$DataTypeClampT@N@@YA_NPEANPEBN1@Z DD imagerel ??$DataTypeClampT@N@@YA_NPEANPEBN1@Z
	DD	imagerel ??$DataTypeClampT@N@@YA_NPEANPEBN1@Z+173
	DD	imagerel $unwind$??$DataTypeClampT@N@@YA_NPEANPEBN1@Z
pdata	ENDS
;	COMDAT pdata
pdata	SEGMENT
$pdata$?GetMinimumStepAtDecimalPrecision@@YAMH@Z DD imagerel ?GetMinimumStepAtDecimalPrecision@@YAMH@Z
	DD	imagerel ?GetMinimumStepAtDecimalPrecision@@YAMH@Z+141
	DD	imagerel $unwind$?GetMinimumStepAtDecimalPrecision@@YAMH@Z
pdata	ENDS
;	COMDAT pdata
pdata	SEGMENT
$pdata$?SanitizeFormatString@@YAXPEBDPEAD_K@Z DD imagerel ?SanitizeFormatString@@YAXPEBDPEAD_K@Z
	DD	imagerel ?SanitizeFormatString@@YAXPEBDPEAD_K@Z+255
	DD	imagerel $unwind$?SanitizeFormatString@@YAXPEBDPEAD_K@Z
pdata	ENDS
;	COMDAT pdata
pdata	SEGMENT
$pdata$??$DragBehaviorT@HHM@ImGui@@YA_NHPEAHMHHPEBDH@Z DD imagerel $LN46
	DD	imagerel $LN46+1997
	DD	imagerel $unwind$??$DragBehaviorT@HHM@ImGui@@YA_NHPEAHMHHPEBDH@Z
pdata	ENDS
;	COMDAT pdata
pdata	SEGMENT
$pdata$??$DragBehaviorT@IHM@ImGui@@YA_NHPEAIMIIPEBDH@Z DD imagerel $LN46
	DD	imagerel $LN46+2012
	DD	imagerel $unwind$??$DragBehaviorT@IHM@ImGui@@YA_NHPEAIMIIPEBDH@Z
pdata	ENDS
;	COMDAT pdata
pdata	SEGMENT
$pdata$??$DragBehaviorT@_J_JN@ImGui@@YA_NHPEA_JM_J1PEBDH@Z DD imagerel $LN46
	DD	imagerel $LN46+2068
	DD	imagerel $unwind$??$DragBehaviorT@_J_JN@ImGui@@YA_NHPEA_JM_J1PEBDH@Z
pdata	ENDS
;	COMDAT pdata
pdata	SEGMENT
$pdata$??$DragBehaviorT@_K_JN@ImGui@@YA_NHPEA_KM_K1PEBDH@Z DD imagerel $LN56
	DD	imagerel $LN56+2248
	DD	imagerel $unwind$??$DragBehaviorT@_K_JN@ImGui@@YA_NHPEA_KM_K1PEBDH@Z
pdata	ENDS
;	COMDAT pdata
pdata	SEGMENT
$pdata$??$DragBehaviorT@MMM@ImGui@@YA_NHPEAMMMMPEBDH@Z DD imagerel $LN47
	DD	imagerel $LN47+2047
	DD	imagerel $unwind$??$DragBehaviorT@MMM@ImGui@@YA_NHPEAMMMMPEBDH@Z
pdata	ENDS
;	COMDAT pdata
pdata	SEGMENT
$pdata$??$DragBehaviorT@NNN@ImGui@@YA_NHPEANMNNPEBDH@Z DD imagerel $LN47
	DD	imagerel $LN47+2087
	DD	imagerel $unwind$??$DragBehaviorT@NNN@ImGui@@YA_NHPEANMNNPEBDH@Z
pdata	ENDS
;	COMDAT pdata
pdata	SEGMENT
$pdata$??$ImMax@H@@YAHHH@Z DD imagerel ??$ImMax@H@@YAHHH@Z
	DD	imagerel ??$ImMax@H@@YAHHH@Z+90
	DD	imagerel $unwind$??$ImMax@H@@YAHHH@Z
pdata	ENDS
;	COMDAT pdata
pdata	SEGMENT
$pdata$??$SliderBehaviorT@HHM@ImGui@@YA_NAEBUImRect@@IHPEAHHHPEBDHPEAU1@@Z DD imagerel $LN59
	DD	imagerel $LN59+3222
	DD	imagerel $unwind$??$SliderBehaviorT@HHM@ImGui@@YA_NAEBUImRect@@IHPEAHHHPEBDHPEAU1@@Z
pdata	ENDS
;	COMDAT pdata
pdata	SEGMENT
$pdata$??$SliderBehaviorT@IHM@ImGui@@YA_NAEBUImRect@@IHPEAIIIPEBDHPEAU1@@Z DD imagerel $LN59
	DD	imagerel $LN59+3222
	DD	imagerel $unwind$??$SliderBehaviorT@IHM@ImGui@@YA_NAEBUImRect@@IHPEAIIIPEBDHPEAU1@@Z
pdata	ENDS
;	COMDAT pdata
pdata	SEGMENT
$pdata$??$SliderBehaviorT@_J_JN@ImGui@@YA_NAEBUImRect@@IHPEA_J_J2PEBDHPEAU1@@Z DD imagerel $LN59
	DD	imagerel $LN59+3254
	DD	imagerel $unwind$??$SliderBehaviorT@_J_JN@ImGui@@YA_NAEBUImRect@@IHPEA_J_J2PEBDHPEAU1@@Z
pdata	ENDS
;	COMDAT pdata
pdata	SEGMENT
$pdata$??$SliderBehaviorT@_K_JN@ImGui@@YA_NAEBUImRect@@IHPEA_K_K2PEBDHPEAU1@@Z DD imagerel $LN59
	DD	imagerel $LN59+3254
	DD	imagerel $unwind$??$SliderBehaviorT@_K_JN@ImGui@@YA_NAEBUImRect@@IHPEA_K_K2PEBDHPEAU1@@Z
pdata	ENDS
;	COMDAT pdata
pdata	SEGMENT
$pdata$??$SliderBehaviorT@MMM@ImGui@@YA_NAEBUImRect@@IHPEAMMMPEBDHPEAU1@@Z DD imagerel $LN60
	DD	imagerel $LN60+3269
	DD	imagerel $unwind$??$SliderBehaviorT@MMM@ImGui@@YA_NAEBUImRect@@IHPEAMMMPEBDHPEAU1@@Z
pdata	ENDS
;	COMDAT pdata
pdata	SEGMENT
$pdata$??$SliderBehaviorT@NNN@ImGui@@YA_NAEBUImRect@@IHPEANNNPEBDHPEAU1@@Z DD imagerel $LN60
	DD	imagerel $LN60+3282
	DD	imagerel $unwind$??$SliderBehaviorT@NNN@ImGui@@YA_NAEBUImRect@@IHPEANNNPEBDHPEAU1@@Z
pdata	ENDS
;	COMDAT pdata
pdata	SEGMENT
$pdata$??$ImMin@_K@@YA_K_K0@Z DD imagerel ??$ImMin@_K@@YA_K_K0@Z
	DD	imagerel ??$ImMin@_K@@YA_K_K0@Z+99
	DD	imagerel $unwind$??$ImMin@_K@@YA_K_K0@Z
pdata	ENDS
;	COMDAT pdata
pdata	SEGMENT
$pdata$??$ImAtoi@H@@YAPEBDPEBDPEAH@Z DD imagerel ??$ImAtoi@H@@YAPEBDPEBDPEAH@Z
	DD	imagerel ??$ImAtoi@H@@YAPEBDPEBDPEAH@Z+263
	DD	imagerel $unwind$??$ImAtoi@H@@YAPEBDPEBDPEAH@Z
pdata	ENDS
;	COMDAT pdata
pdata	SEGMENT
$pdata$??$ImSwap@PEBX@@YAXAEAPEBX0@Z DD imagerel ??$ImSwap@PEBX@@YAXAEAPEBX0@Z
	DD	imagerel ??$ImSwap@PEBX@@YAXAEAPEBX0@Z+94
	DD	imagerel $unwind$??$ImSwap@PEBX@@YAXAEAPEBX0@Z
pdata	ENDS
;	COMDAT pdata
pdata	SEGMENT
$pdata$?STB_TEXTEDIT_STRINGLEN@ImStb@@YAHPEBUImGuiInputTextState@@@Z DD imagerel ?STB_TEXTEDIT_STRINGLEN@ImStb@@YAHPEBUImGuiInputTextState@@@Z
	DD	imagerel ?STB_TEXTEDIT_STRINGLEN@ImStb@@YAHPEBUImGuiInputTextState@@@Z+51
	DD	imagerel $unwind$?STB_TEXTEDIT_STRINGLEN@ImStb@@YAHPEBUImGuiInputTextState@@@Z
pdata	ENDS
;	COMDAT pdata
pdata	SEGMENT
$pdata$?STB_TEXTEDIT_GETCHAR@ImStb@@YAGPEBUImGuiInputTextState@@H@Z DD imagerel ?STB_TEXTEDIT_GETCHAR@ImStb@@YAGPEBUImGuiInputTextState@@H@Z
	DD	imagerel ?STB_TEXTEDIT_GETCHAR@ImStb@@YAGPEBUImGuiInputTextState@@H@Z+84
	DD	imagerel $unwind$?STB_TEXTEDIT_GETCHAR@ImStb@@YAGPEBUImGuiInputTextState@@H@Z
pdata	ENDS
;	COMDAT pdata
pdata	SEGMENT
$pdata$?STB_TEXTEDIT_GETWIDTH@ImStb@@YAMPEAUImGuiInputTextState@@HH@Z DD imagerel ?STB_TEXTEDIT_GETWIDTH@ImStb@@YAMPEAUImGuiInputTextState@@HH@Z
	DD	imagerel ?STB_TEXTEDIT_GETWIDTH@ImStb@@YAMPEAUImGuiInputTextState@@HH@Z+201
	DD	imagerel $unwind$?STB_TEXTEDIT_GETWIDTH@ImStb@@YAMPEAUImGuiInputTextState@@HH@Z
pdata	ENDS
;	COMDAT pdata
pdata	SEGMENT
$pdata$?STB_TEXTEDIT_KEYTOTEXT@ImStb@@YAHH@Z DD imagerel ?STB_TEXTEDIT_KEYTOTEXT@ImStb@@YAHH@Z
	DD	imagerel ?STB_TEXTEDIT_KEYTOTEXT@ImStb@@YAHH@Z+82
	DD	imagerel $unwind$?STB_TEXTEDIT_KEYTOTEXT@ImStb@@YAHH@Z
pdata	ENDS
;	COMDAT pdata
pdata	SEGMENT
$pdata$?STB_TEXTEDIT_LAYOUTROW@ImStb@@YAXPEAUStbTexteditRow@1@PEAUImGuiInputTextState@@H@Z DD imagerel ?STB_TEXTEDIT_LAYOUTROW@ImStb@@YAXPEAUStbTexteditRow@1@PEAUImGuiInputTextState@@H@Z
	DD	imagerel ?STB_TEXTEDIT_LAYOUTROW@ImStb@@YAXPEAUStbTexteditRow@1@PEAUImGuiInputTextState@@H@Z+332
	DD	imagerel $unwind$?STB_TEXTEDIT_LAYOUTROW@ImStb@@YAXPEAUStbTexteditRow@1@PEAUImGuiInputTextState@@H@Z
pdata	ENDS
;	COMDAT pdata
pdata	SEGMENT
$pdata$?is_separator@ImStb@@YA_NI@Z DD imagerel ?is_separator@ImStb@@YA_NI@Z
	DD	imagerel ?is_separator@ImStb@@YA_NI@Z+168
	DD	imagerel $unwind$?is_separator@ImStb@@YA_NI@Z
pdata	ENDS
;	COMDAT pdata
pdata	SEGMENT
$pdata$?is_word_boundary_from_right@ImStb@@YAHPEAUImGuiInputTextState@@H@Z DD imagerel ?is_word_boundary_from_right@ImStb@@YAHPEAUImGuiInputTextState@@H@Z
	DD	imagerel ?is_word_boundary_from_right@ImStb@@YAHPEAUImGuiInputTextState@@H@Z+249
	DD	imagerel $unwind$?is_word_boundary_from_right@ImStb@@YAHPEAUImGuiInputTextState@@H@Z
pdata	ENDS
;	COMDAT pdata
pdata	SEGMENT
$pdata$?STB_TEXTEDIT_MOVEWORDLEFT_IMPL@ImStb@@YAHPEAUImGuiInputTextState@@H@Z DD imagerel ?STB_TEXTEDIT_MOVEWORDLEFT_IMPL@ImStb@@YAHPEAUImGuiInputTextState@@H@Z
	DD	imagerel ?STB_TEXTEDIT_MOVEWORDLEFT_IMPL@ImStb@@YAHPEAUImGuiInputTextState@@H@Z+145
	DD	imagerel $unwind$?STB_TEXTEDIT_MOVEWORDLEFT_IMPL@ImStb@@YAHPEAUImGuiInputTextState@@H@Z
pdata	ENDS
;	COMDAT pdata
pdata	SEGMENT
$pdata$?STB_TEXTEDIT_MOVEWORDRIGHT_IMPL@ImStb@@YAHPEAUImGuiInputTextState@@H@Z DD imagerel ?STB_TEXTEDIT_MOVEWORDRIGHT_IMPL@ImStb@@YAHPEAUImGuiInputTextState@@H@Z
	DD	imagerel ?STB_TEXTEDIT_MOVEWORDRIGHT_IMPL@ImStb@@YAHPEAUImGuiInputTextState@@H@Z+161
	DD	imagerel $unwind$?STB_TEXTEDIT_MOVEWORDRIGHT_IMPL@ImStb@@YAHPEAUImGuiInputTextState@@H@Z
pdata	ENDS
;	COMDAT pdata
pdata	SEGMENT
$pdata$?STB_TEXTEDIT_DELETECHARS@ImStb@@YAXPEAUImGuiInputTextState@@HH@Z DD imagerel ?STB_TEXTEDIT_DELETECHARS@ImStb@@YAXPEAUImGuiInputTextState@@HH@Z
	DD	imagerel ?STB_TEXTEDIT_DELETECHARS@ImStb@@YAXPEAUImGuiInputTextState@@HH@Z+309
	DD	imagerel $unwind$?STB_TEXTEDIT_DELETECHARS@ImStb@@YAXPEAUImGuiInputTextState@@HH@Z
pdata	ENDS
;	COMDAT pdata
pdata	SEGMENT
$pdata$?STB_TEXTEDIT_INSERTCHARS@ImStb@@YA_NPEAUImGuiInputTextState@@HPEBGH@Z DD imagerel ?STB_TEXTEDIT_INSERTCHARS@ImStb@@YA_NPEAUImGuiInputTextState@@HPEBGH@Z
	DD	imagerel ?STB_TEXTEDIT_INSERTCHARS@ImStb@@YA_NPEAUImGuiInputTextState@@HPEBGH@Z+676
	DD	imagerel $unwind$?STB_TEXTEDIT_INSERTCHARS@ImStb@@YA_NPEAUImGuiInputTextState@@HPEBGH@Z
pdata	ENDS
;	COMDAT pdata
pdata	SEGMENT
$pdata$?stb_text_locate_coord@ImStb@@YAHPEAUImGuiInputTextState@@MM@Z DD imagerel ?stb_text_locate_coord@ImStb@@YAHPEAUImGuiInputTextState@@MM@Z
	DD	imagerel ?stb_text_locate_coord@ImStb@@YAHPEAUImGuiInputTextState@@MM@Z+692
	DD	imagerel $unwind$?stb_text_locate_coord@ImStb@@YAHPEAUImGuiInputTextState@@MM@Z
pdata	ENDS
;	COMDAT pdata
pdata	SEGMENT
$pdata$?stb_textedit_click@ImStb@@YAXPEAUImGuiInputTextState@@PEAUSTB_TexteditState@1@MM@Z DD imagerel ?stb_textedit_click@ImStb@@YAXPEAUImGuiInputTextState@@PEAUSTB_TexteditState@1@MM@Z
	DD	imagerel ?stb_textedit_click@ImStb@@YAXPEAUImGuiInputTextState@@PEAUSTB_TexteditState@1@MM@Z+264
	DD	imagerel $unwind$?stb_textedit_click@ImStb@@YAXPEAUImGuiInputTextState@@PEAUSTB_TexteditState@1@MM@Z
pdata	ENDS
;	COMDAT pdata
pdata	SEGMENT
$pdata$?stb_textedit_drag@ImStb@@YAXPEAUImGuiInputTextState@@PEAUSTB_TexteditState@1@MM@Z DD imagerel ?stb_textedit_drag@ImStb@@YAXPEAUImGuiInputTextState@@PEAUSTB_TexteditState@1@MM@Z
	DD	imagerel ?stb_textedit_drag@ImStb@@YAXPEAUImGuiInputTextState@@PEAUSTB_TexteditState@1@MM@Z+282
	DD	imagerel $unwind$?stb_textedit_drag@ImStb@@YAXPEAUImGuiInputTextState@@PEAUSTB_TexteditState@1@MM@Z
pdata	ENDS
;	COMDAT pdata
pdata	SEGMENT
$pdata$?stb_text_undo@ImStb@@YAXPEAUImGuiInputTextState@@PEAUSTB_TexteditState@1@@Z DD imagerel ?stb_text_undo@ImStb@@YAXPEAUImGuiInputTextState@@PEAUSTB_TexteditState@1@@Z
	DD	imagerel ?stb_text_undo@ImStb@@YAXPEAUImGuiInputTextState@@PEAUSTB_TexteditState@1@@Z+667
	DD	imagerel $unwind$?stb_text_undo@ImStb@@YAXPEAUImGuiInputTextState@@PEAUSTB_TexteditState@1@@Z
pdata	ENDS
;	COMDAT pdata
pdata	SEGMENT
$pdata$?stb_text_redo@ImStb@@YAXPEAUImGuiInputTextState@@PEAUSTB_TexteditState@1@@Z DD imagerel ?stb_text_redo@ImStb@@YAXPEAUImGuiInputTextState@@PEAUSTB_TexteditState@1@@Z
	DD	imagerel ?stb_text_redo@ImStb@@YAXPEAUImGuiInputTextState@@PEAUSTB_TexteditState@1@@Z+590
	DD	imagerel $unwind$?stb_text_redo@ImStb@@YAXPEAUImGuiInputTextState@@PEAUSTB_TexteditState@1@@Z
pdata	ENDS
;	COMDAT pdata
pdata	SEGMENT
$pdata$?stb_text_makeundo_delete@ImStb@@YAXPEAUImGuiInputTextState@@PEAUSTB_TexteditState@1@HH@Z DD imagerel ?stb_text_makeundo_delete@ImStb@@YAXPEAUImGuiInputTextState@@PEAUSTB_TexteditState@1@HH@Z
	DD	imagerel ?stb_text_makeundo_delete@ImStb@@YAXPEAUImGuiInputTextState@@PEAUSTB_TexteditState@1@HH@Z+171
	DD	imagerel $unwind$?stb_text_makeundo_delete@ImStb@@YAXPEAUImGuiInputTextState@@PEAUSTB_TexteditState@1@HH@Z
pdata	ENDS
;	COMDAT pdata
pdata	SEGMENT
$pdata$?stb_text_makeundo_insert@ImStb@@YAXPEAUSTB_TexteditState@1@HH@Z DD imagerel ?stb_text_makeundo_insert@ImStb@@YAXPEAUSTB_TexteditState@1@HH@Z
	DD	imagerel ?stb_text_makeundo_insert@ImStb@@YAXPEAUSTB_TexteditState@1@HH@Z+85
	DD	imagerel $unwind$?stb_text_makeundo_insert@ImStb@@YAXPEAUSTB_TexteditState@1@HH@Z
pdata	ENDS
;	COMDAT pdata
pdata	SEGMENT
$pdata$?stb_text_makeundo_replace@ImStb@@YAXPEAUImGuiInputTextState@@PEAUSTB_TexteditState@1@HHH@Z DD imagerel ?stb_text_makeundo_replace@ImStb@@YAXPEAUImGuiInputTextState@@PEAUSTB_TexteditState@1@HHH@Z
	DD	imagerel ?stb_text_makeundo_replace@ImStb@@YAXPEAUImGuiInputTextState@@PEAUSTB_TexteditState@1@HHH@Z+175
	DD	imagerel $unwind$?stb_text_makeundo_replace@ImStb@@YAXPEAUImGuiInputTextState@@PEAUSTB_TexteditState@1@HHH@Z
pdata	ENDS
;	COMDAT pdata
pdata	SEGMENT
$pdata$?stb_textedit_find_charpos@ImStb@@YAXPEAUStbFindState@1@PEAUImGuiInputTextState@@HH@Z DD imagerel ?stb_textedit_find_charpos@ImStb@@YAXPEAUStbFindState@1@PEAUImGuiInputTextState@@HH@Z
	DD	imagerel ?stb_textedit_find_charpos@ImStb@@YAXPEAUStbFindState@1@PEAUImGuiInputTextState@@HH@Z+739
	DD	imagerel $unwind$?stb_textedit_find_charpos@ImStb@@YAXPEAUStbFindState@1@PEAUImGuiInputTextState@@HH@Z
pdata	ENDS
;	COMDAT pdata
pdata	SEGMENT
$pdata$?stb_textedit_clamp@ImStb@@YAXPEAUImGuiInputTextState@@PEAUSTB_TexteditState@1@@Z DD imagerel ?stb_textedit_clamp@ImStb@@YAXPEAUImGuiInputTextState@@PEAUSTB_TexteditState@1@@Z
	DD	imagerel ?stb_textedit_clamp@ImStb@@YAXPEAUImGuiInputTextState@@PEAUSTB_TexteditState@1@@Z+206
	DD	imagerel $unwind$?stb_textedit_clamp@ImStb@@YAXPEAUImGuiInputTextState@@PEAUSTB_TexteditState@1@@Z
pdata	ENDS
;	COMDAT pdata
pdata	SEGMENT
$pdata$?stb_textedit_delete@ImStb@@YAXPEAUImGuiInputTextState@@PEAUSTB_TexteditState@1@HH@Z DD imagerel ?stb_textedit_delete@ImStb@@YAXPEAUImGuiInputTextState@@PEAUSTB_TexteditState@1@HH@Z
	DD	imagerel ?stb_textedit_delete@ImStb@@YAXPEAUImGuiInputTextState@@PEAUSTB_TexteditState@1@HH@Z+125
	DD	imagerel $unwind$?stb_textedit_delete@ImStb@@YAXPEAUImGuiInputTextState@@PEAUSTB_TexteditState@1@HH@Z
pdata	ENDS
;	COMDAT pdata
pdata	SEGMENT
$pdata$?stb_textedit_delete_selection@ImStb@@YAXPEAUImGuiInputTextState@@PEAUSTB_TexteditState@1@@Z DD imagerel ?stb_textedit_delete_selection@ImStb@@YAXPEAUImGuiInputTextState@@PEAUSTB_TexteditState@1@@Z
	DD	imagerel ?stb_textedit_delete_selection@ImStb@@YAXPEAUImGuiInputTextState@@PEAUSTB_TexteditState@1@@Z+312
	DD	imagerel $unwind$?stb_textedit_delete_selection@ImStb@@YAXPEAUImGuiInputTextState@@PEAUSTB_TexteditState@1@@Z
pdata	ENDS
;	COMDAT pdata
pdata	SEGMENT
$pdata$?stb_textedit_sortselection@ImStb@@YAXPEAUSTB_TexteditState@1@@Z DD imagerel ?stb_textedit_sortselection@ImStb@@YAXPEAUSTB_TexteditState@1@@Z
	DD	imagerel ?stb_textedit_sortselection@ImStb@@YAXPEAUSTB_TexteditState@1@@Z+109
	DD	imagerel $unwind$?stb_textedit_sortselection@ImStb@@YAXPEAUSTB_TexteditState@1@@Z
pdata	ENDS
;	COMDAT pdata
pdata	SEGMENT
$pdata$?stb_textedit_move_to_first@ImStb@@YAXPEAUSTB_TexteditState@1@@Z DD imagerel ?stb_textedit_move_to_first@ImStb@@YAXPEAUSTB_TexteditState@1@@Z
	DD	imagerel ?stb_textedit_move_to_first@ImStb@@YAXPEAUSTB_TexteditState@1@@Z+125
	DD	imagerel $unwind$?stb_textedit_move_to_first@ImStb@@YAXPEAUSTB_TexteditState@1@@Z
pdata	ENDS
;	COMDAT pdata
pdata	SEGMENT
$pdata$?stb_textedit_move_to_last@ImStb@@YAXPEAUImGuiInputTextState@@PEAUSTB_TexteditState@1@@Z DD imagerel ?stb_textedit_move_to_last@ImStb@@YAXPEAUImGuiInputTextState@@PEAUSTB_TexteditState@1@@Z
	DD	imagerel ?stb_textedit_move_to_last@ImStb@@YAXPEAUImGuiInputTextState@@PEAUSTB_TexteditState@1@@Z+149
	DD	imagerel $unwind$?stb_textedit_move_to_last@ImStb@@YAXPEAUImGuiInputTextState@@PEAUSTB_TexteditState@1@@Z
pdata	ENDS
;	COMDAT pdata
pdata	SEGMENT
$pdata$?stb_textedit_prep_selection_at_cursor@ImStb@@YAXPEAUSTB_TexteditState@1@@Z DD imagerel ?stb_textedit_prep_selection_at_cursor@ImStb@@YAXPEAUSTB_TexteditState@1@@Z
	DD	imagerel ?stb_textedit_prep_selection_at_cursor@ImStb@@YAXPEAUSTB_TexteditState@1@@Z+123
	DD	imagerel $unwind$?stb_textedit_prep_selection_at_cursor@ImStb@@YAXPEAUSTB_TexteditState@1@@Z
pdata	ENDS
;	COMDAT pdata
pdata	SEGMENT
$pdata$?stb_textedit_cut@ImStb@@YAHPEAUImGuiInputTextState@@PEAUSTB_TexteditState@1@@Z DD imagerel ?stb_textedit_cut@ImStb@@YAHPEAUImGuiInputTextState@@PEAUSTB_TexteditState@1@@Z
	DD	imagerel ?stb_textedit_cut@ImStb@@YAHPEAUImGuiInputTextState@@PEAUSTB_TexteditState@1@@Z+107
	DD	imagerel $unwind$?stb_textedit_cut@ImStb@@YAHPEAUImGuiInputTextState@@PEAUSTB_TexteditState@1@@Z
pdata	ENDS
;	COMDAT pdata
pdata	SEGMENT
$pdata$?stb_textedit_paste_internal@ImStb@@YAHPEAUImGuiInputTextState@@PEAUSTB_TexteditState@1@PEAGH@Z DD imagerel ?stb_textedit_paste_internal@ImStb@@YAHPEAUImGuiInputTextState@@PEAUSTB_TexteditState@1@PEAGH@Z
	DD	imagerel ?stb_textedit_paste_internal@ImStb@@YAHPEAUImGuiInputTextState@@PEAUSTB_TexteditState@1@PEAGH@Z+208
	DD	imagerel $unwind$?stb_textedit_paste_internal@ImStb@@YAHPEAUImGuiInputTextState@@PEAUSTB_TexteditState@1@PEAGH@Z
pdata	ENDS
;	COMDAT pdata
pdata	SEGMENT
$pdata$?stb_textedit_key@ImStb@@YAXPEAUImGuiInputTextState@@PEAUSTB_TexteditState@1@H@Z DD imagerel ?stb_textedit_key@ImStb@@YAXPEAUImGuiInputTextState@@PEAUSTB_TexteditState@1@H@Z
	DD	imagerel ?stb_textedit_key@ImStb@@YAXPEAUImGuiInputTextState@@PEAUSTB_TexteditState@1@H@Z+4556
	DD	imagerel $unwind$?stb_textedit_key@ImStb@@YAXPEAUImGuiInputTextState@@PEAUSTB_TexteditState@1@H@Z
pdata	ENDS
;	COMDAT pdata
pdata	SEGMENT
$pdata$?stb_textedit_flush_redo@ImStb@@YAXPEAUStbUndoState@1@@Z DD imagerel ?stb_textedit_flush_redo@ImStb@@YAXPEAUStbUndoState@1@@Z
	DD	imagerel ?stb_textedit_flush_redo@ImStb@@YAXPEAUStbUndoState@1@@Z+77
	DD	imagerel $unwind$?stb_textedit_flush_redo@ImStb@@YAXPEAUStbUndoState@1@@Z
pdata	ENDS
;	COMDAT pdata
pdata	SEGMENT
$pdata$?stb_textedit_discard_undo@ImStb@@YAXPEAUStbUndoState@1@@Z DD imagerel ?stb_textedit_discard_undo@ImStb@@YAXPEAUStbUndoState@1@@Z
	DD	imagerel ?stb_textedit_discard_undo@ImStb@@YAXPEAUStbUndoState@1@@Z+421
	DD	imagerel $unwind$?stb_textedit_discard_undo@ImStb@@YAXPEAUStbUndoState@1@@Z
pdata	ENDS
;	COMDAT pdata
pdata	SEGMENT
$pdata$?stb_textedit_discard_redo@ImStb@@YAXPEAUStbUndoState@1@@Z DD imagerel ?stb_textedit_discard_redo@ImStb@@YAXPEAUStbUndoState@1@@Z
	DD	imagerel ?stb_textedit_discard_redo@ImStb@@YAXPEAUStbUndoState@1@@Z+703
	DD	imagerel $unwind$?stb_textedit_discard_redo@ImStb@@YAXPEAUStbUndoState@1@@Z
pdata	ENDS
;	COMDAT pdata
pdata	SEGMENT
$pdata$?stb_text_create_undo_record@ImStb@@YAPEAUStbUndoRecord@1@PEAUStbUndoState@1@H@Z DD imagerel ?stb_text_create_undo_record@ImStb@@YAPEAUStbUndoRecord@1@PEAUStbUndoState@1@H@Z
	DD	imagerel ?stb_text_create_undo_record@ImStb@@YAPEAUStbUndoRecord@1@PEAUStbUndoState@1@H@Z+254
	DD	imagerel $unwind$?stb_text_create_undo_record@ImStb@@YAPEAUStbUndoRecord@1@PEAUStbUndoState@1@H@Z
pdata	ENDS
;	COMDAT pdata
pdata	SEGMENT
$pdata$?stb_text_createundo@ImStb@@YAPEAGPEAUStbUndoState@1@HHH@Z DD imagerel ?stb_text_createundo@ImStb@@YAPEAGPEAUStbUndoState@1@HHH@Z
	DD	imagerel ?stb_text_createundo@ImStb@@YAPEAGPEAUStbUndoState@1@HHH@Z+230
	DD	imagerel $unwind$?stb_text_createundo@ImStb@@YAPEAGPEAUStbUndoState@1@HHH@Z
pdata	ENDS
;	COMDAT pdata
pdata	SEGMENT
$pdata$?stb_textedit_clear_state@ImStb@@YAXPEAUSTB_TexteditState@1@H@Z DD imagerel ?stb_textedit_clear_state@ImStb@@YAXPEAUSTB_TexteditState@1@H@Z
	DD	imagerel ?stb_textedit_clear_state@ImStb@@YAXPEAUSTB_TexteditState@1@H@Z+245
	DD	imagerel $unwind$?stb_textedit_clear_state@ImStb@@YAXPEAUSTB_TexteditState@1@H@Z
pdata	ENDS
;	COMDAT pdata
pdata	SEGMENT
$pdata$?stb_textedit_initialize_state@ImStb@@YAXPEAUSTB_TexteditState@1@H@Z DD imagerel ?stb_textedit_initialize_state@ImStb@@YAXPEAUSTB_TexteditState@1@H@Z
	DD	imagerel ?stb_textedit_initialize_state@ImStb@@YAXPEAUSTB_TexteditState@1@H@Z+63
	DD	imagerel $unwind$?stb_textedit_initialize_state@ImStb@@YAXPEAUSTB_TexteditState@1@H@Z
pdata	ENDS
;	COMDAT pdata
pdata	SEGMENT
$pdata$?stb_textedit_paste@ImStb@@YAHPEAUImGuiInputTextState@@PEAUSTB_TexteditState@1@PEBGH@Z DD imagerel ?stb_textedit_paste@ImStb@@YAHPEAUImGuiInputTextState@@PEAUSTB_TexteditState@1@PEBGH@Z
	DD	imagerel ?stb_textedit_paste@ImStb@@YAHPEAUImGuiInputTextState@@PEAUSTB_TexteditState@1@PEBGH@Z+89
	DD	imagerel $unwind$?stb_textedit_paste@ImStb@@YAHPEAUImGuiInputTextState@@PEAUSTB_TexteditState@1@PEBGH@Z
pdata	ENDS
;	COMDAT pdata
pdata	SEGMENT
$pdata$?stb_textedit_replace@ImStb@@YAXPEAUImGuiInputTextState@@PEAUSTB_TexteditState@1@PEBGH@Z DD imagerel ?stb_textedit_replace@ImStb@@YAXPEAUImGuiInputTextState@@PEAUSTB_TexteditState@1@PEBGH@Z
	DD	imagerel ?stb_textedit_replace@ImStb@@YAXPEAUImGuiInputTextState@@PEAUSTB_TexteditState@1@PEBGH@Z+238
	DD	imagerel $unwind$?stb_textedit_replace@ImStb@@YAXPEAUImGuiInputTextState@@PEAUSTB_TexteditState@1@PEBGH@Z
pdata	ENDS
;	COMDAT pdata
pdata	SEGMENT
$pdata$?RenderArrowsForVerticalBar@@YAXPEAUImDrawList@@UImVec2@@1MM@Z DD imagerel ?RenderArrowsForVerticalBar@@YAXPEAUImDrawList@@UImVec2@@1MM@Z
	DD	imagerel ?RenderArrowsForVerticalBar@@YAXPEAUImDrawList@@UImVec2@@1MM@Z+623
	DD	imagerel $unwind$?RenderArrowsForVerticalBar@@YAXPEAUImDrawList@@UImVec2@@1MM@Z
pdata	ENDS
;	COMDAT pdata
pdata	SEGMENT
$pdata$??0ImGuiPlotArrayGetterData@@QEAA@PEBMH@Z DD imagerel $LN3
	DD	imagerel $LN3+91
	DD	imagerel $unwind$??0ImGuiPlotArrayGetterData@@QEAA@PEBMH@Z
pdata	ENDS
;	COMDAT pdata
pdata	SEGMENT
$pdata$?Plot_ArrayGetter@@YAMPEAXH@Z DD imagerel ?Plot_ArrayGetter@@YAMPEAXH@Z
	DD	imagerel ?Plot_ArrayGetter@@YAMPEAXH@Z+97
	DD	imagerel $unwind$?Plot_ArrayGetter@@YAMPEAXH@Z
pdata	ENDS
;	COMDAT pdata
pdata	SEGMENT
$pdata$??0ImGuiTabBarSection@@QEAA@XZ DD imagerel $LN3
	DD	imagerel $LN3+64
	DD	imagerel $unwind$??0ImGuiTabBarSection@@QEAA@XZ
pdata	ENDS
;	COMDAT pdata
pdata	SEGMENT
$pdata$?TabBarLayout@ImGui@@YAXPEAUImGuiTabBar@@@Z DD imagerel ?TabBarLayout@ImGui@@YAXPEAUImGuiTabBar@@@Z
	DD	imagerel ?TabBarLayout@ImGui@@YAXPEAUImGuiTabBar@@@Z+4960
	DD	imagerel $unwind$?TabBarLayout@ImGui@@YAXPEAUImGuiTabBar@@@Z
pdata	ENDS
;	COMDAT pdata
pdata	SEGMENT
$pdata$?TabBarCalcTabID@ImGui@@YAIPEAUImGuiTabBar@@PEBD@Z DD imagerel ?TabBarCalcTabID@ImGui@@YAIPEAUImGuiTabBar@@PEBD@Z
	DD	imagerel ?TabBarCalcTabID@ImGui@@YAIPEAUImGuiTabBar@@PEBD@Z+137
	DD	imagerel $unwind$?TabBarCalcTabID@ImGui@@YAIPEAUImGuiTabBar@@PEBD@Z
pdata	ENDS
;	COMDAT pdata
pdata	SEGMENT
$pdata$?TabBarCalcMaxTabWidth@ImGui@@YAMXZ DD imagerel ?TabBarCalcMaxTabWidth@ImGui@@YAMXZ
	DD	imagerel ?TabBarCalcMaxTabWidth@ImGui@@YAMXZ+68
	DD	imagerel $unwind$?TabBarCalcMaxTabWidth@ImGui@@YAMXZ
pdata	ENDS
;	COMDAT pdata
pdata	SEGMENT
$pdata$?TabBarScrollClamp@ImGui@@YAMPEAUImGuiTabBar@@M@Z DD imagerel ?TabBarScrollClamp@ImGui@@YAMPEAUImGuiTabBar@@M@Z
	DD	imagerel ?TabBarScrollClamp@ImGui@@YAMPEAUImGuiTabBar@@M@Z+125
	DD	imagerel $unwind$?TabBarScrollClamp@ImGui@@YAMPEAUImGuiTabBar@@M@Z
pdata	ENDS
;	COMDAT pdata
pdata	SEGMENT
$pdata$?TabBarScrollToTab@ImGui@@YAXPEAUImGuiTabBar@@IPEAUImGuiTabBarSection@@@Z DD imagerel ?TabBarScrollToTab@ImGui@@YAXPEAUImGuiTabBar@@IPEAUImGuiTabBarSection@@@Z
	DD	imagerel ?TabBarScrollToTab@ImGui@@YAXPEAUImGuiTabBar@@IPEAUImGuiTabBarSection@@@Z+716
	DD	imagerel $unwind$?TabBarScrollToTab@ImGui@@YAXPEAUImGuiTabBar@@IPEAUImGuiTabBarSection@@@Z
pdata	ENDS
;	COMDAT pdata
pdata	SEGMENT
$pdata$?TabBarScrollingButtons@ImGui@@YAPEAUImGuiTabItem@@PEAUImGuiTabBar@@@Z DD imagerel ?TabBarScrollingButtons@ImGui@@YAPEAUImGuiTabItem@@PEAUImGuiTabBar@@@Z
	DD	imagerel ?TabBarScrollingButtons@ImGui@@YAPEAUImGuiTabItem@@PEAUImGuiTabBar@@@Z+1167
	DD	imagerel $unwind$?TabBarScrollingButtons@ImGui@@YAPEAUImGuiTabItem@@PEAUImGuiTabBar@@@Z
pdata	ENDS
;	COMDAT pdata
pdata	SEGMENT
$pdata$?TabBarTabListPopupButton@ImGui@@YAPEAUImGuiTabItem@@PEAUImGuiTabBar@@@Z DD imagerel ?TabBarTabListPopupButton@ImGui@@YAPEAUImGuiTabItem@@PEAUImGuiTabBar@@@Z
	DD	imagerel ?TabBarTabListPopupButton@ImGui@@YAPEAUImGuiTabItem@@PEAUImGuiTabBar@@@Z+744
	DD	imagerel $unwind$?TabBarTabListPopupButton@ImGui@@YAPEAUImGuiTabItem@@PEAUImGuiTabBar@@@Z
pdata	ENDS
;	COMDAT pdata
pdata	SEGMENT
$pdata$?TabItemGetSectionIdx@@YAHPEBUImGuiTabItem@@@Z DD imagerel ?TabItemGetSectionIdx@@YAHPEBUImGuiTabItem@@@Z
	DD	imagerel ?TabItemGetSectionIdx@@YAHPEBUImGuiTabItem@@@Z+129
	DD	imagerel $unwind$?TabItemGetSectionIdx@@YAHPEBUImGuiTabItem@@@Z
pdata	ENDS
;	COMDAT pdata
pdata	SEGMENT
$pdata$?TabItemComparerBySection@@YAHPEBX0@Z DD imagerel ?TabItemComparerBySection@@YAHPEBX0@Z
	DD	imagerel ?TabItemComparerBySection@@YAHPEBX0@Z+130
	DD	imagerel $unwind$?TabItemComparerBySection@@YAHPEBX0@Z
pdata	ENDS
;	COMDAT pdata
pdata	SEGMENT
$pdata$?TabItemComparerByBeginOrder@@YAHPEBX0@Z DD imagerel ?TabItemComparerByBeginOrder@@YAHPEBX0@Z
	DD	imagerel ?TabItemComparerByBeginOrder@@YAHPEBX0@Z+86
	DD	imagerel $unwind$?TabItemComparerByBeginOrder@@YAHPEBX0@Z
pdata	ENDS
;	COMDAT pdata
pdata	SEGMENT
$pdata$?GetTabBarFromTabBarRef@@YAPEAUImGuiTabBar@@AEBUImGuiPtrOrIndex@@@Z DD imagerel ?GetTabBarFromTabBarRef@@YAPEAUImGuiTabBar@@AEBUImGuiPtrOrIndex@@@Z
	DD	imagerel ?GetTabBarFromTabBarRef@@YAPEAUImGuiTabBar@@AEBUImGuiPtrOrIndex@@@Z+137
	DD	imagerel $unwind$?GetTabBarFromTabBarRef@@YAPEAUImGuiTabBar@@AEBUImGuiPtrOrIndex@@@Z
pdata	ENDS
;	COMDAT pdata
pdata	SEGMENT
$pdata$?GetTabBarRefFromTabBar@@YA?AUImGuiPtrOrIndex@@PEAUImGuiTabBar@@@Z DD imagerel ?GetTabBarRefFromTabBar@@YA?AUImGuiPtrOrIndex@@PEAUImGuiTabBar@@@Z
	DD	imagerel ?GetTabBarRefFromTabBar@@YA?AUImGuiPtrOrIndex@@PEAUImGuiTabBar@@@Z+185
	DD	imagerel $unwind$?GetTabBarRefFromTabBar@@YA?AUImGuiPtrOrIndex@@PEAUImGuiTabBar@@@Z
pdata	ENDS
;	COMDAT pdata
pdata	SEGMENT
$pdata$??$ScaleRatioFromValueT@HHM@ImGui@@YAMHHHH_NMM@Z DD imagerel $LN36
	DD	imagerel $LN36+1397
	DD	imagerel $unwind$??$ScaleRatioFromValueT@HHM@ImGui@@YAMHHHH_NMM@Z
pdata	ENDS
;	COMDAT pdata
pdata	SEGMENT
$pdata$??$ScaleValueFromRatioT@HHM@ImGui@@YAHHMHH_NMM@Z DD imagerel $LN41
	DD	imagerel $LN41+1560
	DD	imagerel $unwind$??$ScaleValueFromRatioT@HHM@ImGui@@YAHHMHH_NMM@Z
pdata	ENDS
;	COMDAT pdata
pdata	SEGMENT
$pdata$??$RoundScalarWithFormatT@HH@ImGui@@YAHPEBDHH@Z DD imagerel $LN10
	DD	imagerel $LN10+365
	DD	imagerel $unwind$??$RoundScalarWithFormatT@HH@ImGui@@YAHPEBDHH@Z
pdata	ENDS
;	COMDAT pdata
pdata	SEGMENT
$pdata$??$ScaleRatioFromValueT@IHM@ImGui@@YAMHIII_NMM@Z DD imagerel $LN36
	DD	imagerel $LN36+1469
	DD	imagerel $unwind$??$ScaleRatioFromValueT@IHM@ImGui@@YAMHIII_NMM@Z
pdata	ENDS
;	COMDAT pdata
pdata	SEGMENT
$pdata$??$ScaleValueFromRatioT@IHM@ImGui@@YAIHMII_NMM@Z DD imagerel $LN41
	DD	imagerel $LN41+1606
	DD	imagerel $unwind$??$ScaleValueFromRatioT@IHM@ImGui@@YAIHMII_NMM@Z
pdata	ENDS
;	COMDAT pdata
pdata	SEGMENT
$pdata$??$RoundScalarWithFormatT@IH@ImGui@@YAIPEBDHI@Z DD imagerel $LN10
	DD	imagerel $LN10+366
	DD	imagerel $unwind$??$RoundScalarWithFormatT@IH@ImGui@@YAIPEBDHI@Z
pdata	ENDS
;	COMDAT pdata
pdata	SEGMENT
$pdata$??$ScaleRatioFromValueT@_J_JN@ImGui@@YAMH_J00_NMM@Z DD imagerel $LN36
	DD	imagerel $LN36+1499
	DD	imagerel $unwind$??$ScaleRatioFromValueT@_J_JN@ImGui@@YAMH_J00_NMM@Z
pdata	ENDS
;	COMDAT pdata
pdata	SEGMENT
$pdata$??$ScaleValueFromRatioT@_J_JN@ImGui@@YA_JHM_J0_NMM@Z DD imagerel $LN41
	DD	imagerel $LN41+1663
	DD	imagerel $unwind$??$ScaleValueFromRatioT@_J_JN@ImGui@@YA_JHM_J0_NMM@Z
pdata	ENDS
;	COMDAT pdata
pdata	SEGMENT
$pdata$??$RoundScalarWithFormatT@_J_J@ImGui@@YA_JPEBDH_J@Z DD imagerel $LN10
	DD	imagerel $LN10+369
	DD	imagerel $unwind$??$RoundScalarWithFormatT@_J_J@ImGui@@YA_JPEBDH_J@Z
pdata	ENDS
;	COMDAT pdata
pdata	SEGMENT
$pdata$??$ScaleRatioFromValueT@_K_JN@ImGui@@YAMH_K00_NMM@Z DD imagerel $LN84
	DD	imagerel $LN84+2350
	DD	imagerel $unwind$??$ScaleRatioFromValueT@_K_JN@ImGui@@YAMH_K00_NMM@Z
pdata	ENDS
;	COMDAT pdata
pdata	SEGMENT
$pdata$??$ScaleValueFromRatioT@_K_JN@ImGui@@YA_KHM_K0_NMM@Z DD imagerel $LN73
	DD	imagerel $LN73+2354
	DD	imagerel $unwind$??$ScaleValueFromRatioT@_K_JN@ImGui@@YA_KHM_K0_NMM@Z
pdata	ENDS
;	COMDAT pdata
pdata	SEGMENT
$pdata$??$RoundScalarWithFormatT@_K_J@ImGui@@YA_KPEBDH_K@Z DD imagerel $LN11
	DD	imagerel $LN11+418
	DD	imagerel $unwind$??$RoundScalarWithFormatT@_K_J@ImGui@@YA_KPEBDH_K@Z
pdata	ENDS
;	COMDAT pdata
pdata	SEGMENT
$pdata$??$ScaleRatioFromValueT@MMM@ImGui@@YAMHMMM_NMM@Z DD imagerel $LN36
	DD	imagerel $LN36+1385
	DD	imagerel $unwind$??$ScaleRatioFromValueT@MMM@ImGui@@YAMHMMM_NMM@Z
pdata	ENDS
;	COMDAT pdata
pdata	SEGMENT
$pdata$??$ScaleValueFromRatioT@MMM@ImGui@@YAMHMMM_NMM@Z DD imagerel $LN41
	DD	imagerel $LN41+1572
	DD	imagerel $unwind$??$ScaleValueFromRatioT@MMM@ImGui@@YAMHMMM_NMM@Z
pdata	ENDS
;	COMDAT pdata
pdata	SEGMENT
$pdata$??$RoundScalarWithFormatT@MM@ImGui@@YAMPEBDHM@Z DD imagerel $LN10
	DD	imagerel $LN10+387
	DD	imagerel $unwind$??$RoundScalarWithFormatT@MM@ImGui@@YAMPEBDHM@Z
pdata	ENDS
;	COMDAT pdata
pdata	SEGMENT
$pdata$??$ScaleRatioFromValueT@NNN@ImGui@@YAMHNNN_NMM@Z DD imagerel $LN36
	DD	imagerel $LN36+1457
	DD	imagerel $unwind$??$ScaleRatioFromValueT@NNN@ImGui@@YAMHNNN_NMM@Z
pdata	ENDS
;	COMDAT pdata
pdata	SEGMENT
$pdata$??$ScaleValueFromRatioT@NNN@ImGui@@YANHMNN_NMM@Z DD imagerel $LN41
	DD	imagerel $LN41+1631
	DD	imagerel $unwind$??$ScaleValueFromRatioT@NNN@ImGui@@YANHMNN_NMM@Z
pdata	ENDS
;	COMDAT pdata
pdata	SEGMENT
$pdata$??$RoundScalarWithFormatT@NN@ImGui@@YANPEBDHN@Z DD imagerel $LN10
	DD	imagerel $LN10+380
	DD	imagerel $unwind$??$RoundScalarWithFormatT@NN@ImGui@@YANPEBDHN@Z
pdata	ENDS
;	COMDAT pdata
pdata	SEGMENT
$pdata$??$ImSwap@H@@YAXAEAH0@Z DD imagerel ??$ImSwap@H@@YAXAEAH0@Z
	DD	imagerel ??$ImSwap@H@@YAXAEAH0@Z+88
	DD	imagerel $unwind$??$ImSwap@H@@YAXAEAH0@Z
pdata	ENDS
;	COMDAT pdata
pdata	SEGMENT
$pdata$??$ImSwap@M@@YAXAEAM0@Z DD imagerel ??$ImSwap@M@@YAXAEAM0@Z
	DD	imagerel ??$ImSwap@M@@YAXAEAM0@Z+100
	DD	imagerel $unwind$??$ImSwap@M@@YAXAEAM0@Z
pdata	ENDS
;	COMDAT pdata
pdata	SEGMENT
$pdata$??$ImLerp@H@@YAHHHM@Z DD imagerel ??$ImLerp@H@@YAHHHM@Z
	DD	imagerel ??$ImLerp@H@@YAHHHM@Z+94
	DD	imagerel $unwind$??$ImLerp@H@@YAHHHM@Z
pdata	ENDS
;	COMDAT pdata
pdata	SEGMENT
$pdata$??$ImClamp@I@@YAIIII@Z DD imagerel ??$ImClamp@I@@YAIIII@Z
	DD	imagerel ??$ImClamp@I@@YAIIII@Z+135
	DD	imagerel $unwind$??$ImClamp@I@@YAIIII@Z
pdata	ENDS
;	COMDAT pdata
pdata	SEGMENT
$pdata$??$ImSwap@I@@YAXAEAI0@Z DD imagerel ??$ImSwap@I@@YAXAEAI0@Z
	DD	imagerel ??$ImSwap@I@@YAXAEAI0@Z+88
	DD	imagerel $unwind$??$ImSwap@I@@YAXAEAI0@Z
pdata	ENDS
;	COMDAT pdata
pdata	SEGMENT
$pdata$??$ImMin@I@@YAIII@Z DD imagerel ??$ImMin@I@@YAIII@Z
	DD	imagerel ??$ImMin@I@@YAIII@Z+90
	DD	imagerel $unwind$??$ImMin@I@@YAIII@Z
pdata	ENDS
;	COMDAT pdata
pdata	SEGMENT
$pdata$??$ImLerp@I@@YAIIIM@Z DD imagerel ??$ImLerp@I@@YAIIIM@Z
	DD	imagerel ??$ImLerp@I@@YAIIIM@Z+101
	DD	imagerel $unwind$??$ImLerp@I@@YAIIIM@Z
pdata	ENDS
;	COMDAT pdata
pdata	SEGMENT
$pdata$??$ImClamp@_J@@YA_J_J00@Z DD imagerel ??$ImClamp@_J@@YA_J_J00@Z
	DD	imagerel ??$ImClamp@_J@@YA_J_J00@Z+150
	DD	imagerel $unwind$??$ImClamp@_J@@YA_J_J00@Z
pdata	ENDS
;	COMDAT pdata
pdata	SEGMENT
$pdata$??$ImSwap@_J@@YAXAEA_J0@Z DD imagerel ??$ImSwap@_J@@YAXAEA_J0@Z
	DD	imagerel ??$ImSwap@_J@@YAXAEA_J0@Z+94
	DD	imagerel $unwind$??$ImSwap@_J@@YAXAEA_J0@Z
pdata	ENDS
;	COMDAT pdata
pdata	SEGMENT
$pdata$??$ImSwap@N@@YAXAEAN0@Z DD imagerel ??$ImSwap@N@@YAXAEAN0@Z
	DD	imagerel ??$ImSwap@N@@YAXAEAN0@Z+100
	DD	imagerel $unwind$??$ImSwap@N@@YAXAEAN0@Z
pdata	ENDS
;	COMDAT pdata
pdata	SEGMENT
$pdata$??$ImMin@_J@@YA_J_J0@Z DD imagerel ??$ImMin@_J@@YA_J_J0@Z
	DD	imagerel ??$ImMin@_J@@YA_J_J0@Z+99
	DD	imagerel $unwind$??$ImMin@_J@@YA_J_J0@Z
pdata	ENDS
;	COMDAT pdata
pdata	SEGMENT
$pdata$??$ImLerp@_J@@YA_J_J0M@Z DD imagerel ??$ImLerp@_J@@YA_J_J0M@Z
	DD	imagerel ??$ImLerp@_J@@YA_J_J0M@Z+103
	DD	imagerel $unwind$??$ImLerp@_J@@YA_J_J0M@Z
pdata	ENDS
;	COMDAT pdata
pdata	SEGMENT
$pdata$??$ImAtoi@_J@@YAPEBDPEBDPEA_J@Z DD imagerel ??$ImAtoi@_J@@YAPEBDPEBDPEA_J@Z
	DD	imagerel ??$ImAtoi@_J@@YAPEBDPEBDPEA_J@Z+280
	DD	imagerel $unwind$??$ImAtoi@_J@@YAPEBDPEBDPEA_J@Z
pdata	ENDS
;	COMDAT pdata
pdata	SEGMENT
$pdata$??$ImClamp@_K@@YA_K_K00@Z DD imagerel ??$ImClamp@_K@@YA_K_K00@Z
	DD	imagerel ??$ImClamp@_K@@YA_K_K00@Z+150
	DD	imagerel $unwind$??$ImClamp@_K@@YA_K_K00@Z
pdata	ENDS
;	COMDAT pdata
pdata	SEGMENT
$pdata$??$ImSwap@_K@@YAXAEA_K0@Z DD imagerel ??$ImSwap@_K@@YAXAEA_K0@Z
	DD	imagerel ??$ImSwap@_K@@YAXAEA_K0@Z+94
	DD	imagerel $unwind$??$ImSwap@_K@@YAXAEA_K0@Z
pdata	ENDS
;	COMDAT pdata
pdata	SEGMENT
$pdata$??$ImLerp@_K@@YA_K_K0M@Z DD imagerel ??$ImLerp@_K@@YA_K_K0M@Z
	DD	imagerel ??$ImLerp@_K@@YA_K_K0M@Z+217
	DD	imagerel $unwind$??$ImLerp@_K@@YA_K_K0M@Z
pdata	ENDS
;	COMDAT pdata
pdata	SEGMENT
$pdata$??$ImAtoi@M@@YAPEBDPEBDPEAM@Z DD imagerel ??$ImAtoi@M@@YAPEBDPEBDPEAM@Z
	DD	imagerel ??$ImAtoi@M@@YAPEBDPEBDPEAM@Z+303
	DD	imagerel $unwind$??$ImAtoi@M@@YAPEBDPEBDPEAM@Z
pdata	ENDS
;	COMDAT pdata
pdata	SEGMENT
$pdata$??$ImClamp@N@@YANNNN@Z DD imagerel ??$ImClamp@N@@YANNNN@Z
	DD	imagerel ??$ImClamp@N@@YANNNN@Z+166
	DD	imagerel $unwind$??$ImClamp@N@@YANNNN@Z
pdata	ENDS
;	COMDAT pdata
pdata	SEGMENT
$pdata$??$ImMin@N@@YANNN@Z DD imagerel ??$ImMin@N@@YANNN@Z
	DD	imagerel ??$ImMin@N@@YANNN@Z+108
	DD	imagerel $unwind$??$ImMin@N@@YANNN@Z
pdata	ENDS
;	COMDAT pdata
pdata	SEGMENT
$pdata$??$ImLerp@N@@YANNNM@Z DD imagerel ??$ImLerp@N@@YANNNM@Z
	DD	imagerel ??$ImLerp@N@@YANNNM@Z+97
	DD	imagerel $unwind$??$ImLerp@N@@YANNNM@Z
pdata	ENDS
;	COMDAT pdata
pdata	SEGMENT
$pdata$??$ImAtoi@N@@YAPEBDPEBDPEAN@Z DD imagerel ??$ImAtoi@N@@YAPEBDPEBDPEAN@Z
	DD	imagerel ??$ImAtoi@N@@YAPEBDPEBDPEAN@Z+303
	DD	imagerel $unwind$??$ImAtoi@N@@YAPEBDPEBDPEAN@Z
pdata	ENDS
;	COMDAT __xmm@80000000800000008000000080000000
CONST	SEGMENT
__xmm@80000000800000008000000080000000 DB 00H, 00H, 00H, 080H, 00H, 00H, 00H
	DB	080H, 00H, 00H, 00H, 080H, 00H, 00H, 00H, 080H
CONST	ENDS
;	COMDAT __xmm@80000000000000008000000000000000
CONST	SEGMENT
__xmm@80000000000000008000000000000000 DB 00H, 00H, 00H, 00H, 00H, 00H, 00H
	DB	080H, 00H, 00H, 00H, 00H, 00H, 00H, 00H, 080H
CONST	ENDS
;	COMDAT __xmm@7fffffffffffffff7fffffffffffffff
CONST	SEGMENT
__xmm@7fffffffffffffff7fffffffffffffff DB 0ffH, 0ffH, 0ffH, 0ffH, 0ffH, 0ffH
	DB	0ffH, 07fH, 0ffH, 0ffH, 0ffH, 0ffH, 0ffH, 0ffH, 0ffH, 07fH
CONST	ENDS
;	COMDAT __real@ffefffffffffffff
CONST	SEGMENT
__real@ffefffffffffffff DQ 0ffefffffffffffffr	; -1.79769e+308
CONST	ENDS
;	COMDAT __real@ffdfffffffffffff
CONST	SEGMENT
__real@ffdfffffffffffff DQ 0ffdfffffffffffffr	; -8.98847e+307
CONST	ENDS
;	COMDAT __real@ff7fffff
CONST	SEGMENT
__real@ff7fffff DD 0ff7fffffr			; -3.40282e+38
CONST	ENDS
;	COMDAT __real@feffffff
CONST	SEGMENT
__real@feffffff DD 0feffffffr			; -1.70141e+38
CONST	ENDS
;	COMDAT __real@c2c80000
CONST	SEGMENT
__real@c2c80000 DD 0c2c80000r			; -100
CONST	ENDS
;	COMDAT __real@c059000000000000
CONST	SEGMENT
__real@c059000000000000 DQ 0c059000000000000r	; -100
CONST	ENDS
;	COMDAT __real@bfe0000000000000
CONST	SEGMENT
__real@bfe0000000000000 DQ 0bfe0000000000000r	; -0.5
CONST	ENDS
;	COMDAT __real@bf800000
CONST	SEGMENT
__real@bf800000 DD 0bf800000r			; -1
CONST	ENDS
;	COMDAT __real@bf5db3d0
CONST	SEGMENT
__real@bf5db3d0 DD 0bf5db3d0r			; -0.866025
CONST	ENDS
;	COMDAT __real@bf400000
CONST	SEGMENT
__real@bf400000 DD 0bf400000r			; -0.75
CONST	ENDS
;	COMDAT __real@bf000000
CONST	SEGMENT
__real@bf000000 DD 0bf000000r			; -0.5
CONST	ENDS
;	COMDAT __real@be99999a
CONST	SEGMENT
__real@be99999a DD 0be99999ar			; -0.3
CONST	ENDS
;	COMDAT __real@be800000
CONST	SEGMENT
__real@be800000 DD 0be800000r			; -0.25
CONST	ENDS
;	COMDAT __real@7fefffffffffffff
CONST	SEGMENT
__real@7fefffffffffffff DQ 07fefffffffffffffr	; 1.79769e+308
CONST	ENDS
;	COMDAT __real@7fdfffffffffffff
CONST	SEGMENT
__real@7fdfffffffffffff DQ 07fdfffffffffffffr	; 8.98847e+307
CONST	ENDS
;	COMDAT __real@7f7fffff
CONST	SEGMENT
__real@7f7fffff DD 07f7fffffr			; 3.40282e+38
CONST	ENDS
;	COMDAT __real@7effffff
CONST	SEGMENT
__real@7effffff DD 07effffffr			; 1.70141e+38
CONST	ENDS
;	COMDAT __real@5f000000
CONST	SEGMENT
__real@5f000000 DD 05f000000r			; 9.22337e+18
CONST	ENDS
;	COMDAT __real@47efffffe0000000
CONST	SEGMENT
__real@47efffffe0000000 DQ 047efffffe0000000r	; 3.40282e+38
CONST	ENDS
;	COMDAT __real@43e0000000000000
CONST	SEGMENT
__real@43e0000000000000 DQ 043e0000000000000r	; 9.22337e+18
CONST	ENDS
;	COMDAT __real@43b40000
CONST	SEGMENT
__real@43b40000 DD 043b40000r			; 360
CONST	ENDS
;	COMDAT __real@437f0000
CONST	SEGMENT
__real@437f0000 DD 0437f0000r			; 255
CONST	ENDS
;	COMDAT __real@42c80000
CONST	SEGMENT
__real@42c80000 DD 042c80000r			; 100
CONST	ENDS
;	COMDAT __real@428c0000
CONST	SEGMENT
__real@428c0000 DD 0428c0000r			; 70
CONST	ENDS
;	COMDAT __real@41f00000
CONST	SEGMENT
__real@41f00000 DD 041f00000r			; 30
CONST	ENDS
;	COMDAT __real@41a00000
CONST	SEGMENT
__real@41a00000 DD 041a00000r			; 20
CONST	ENDS
;	COMDAT __real@41400000
CONST	SEGMENT
__real@41400000 DD 041400000r			; 12
CONST	ENDS
;	COMDAT __real@41200000
CONST	SEGMENT
__real@41200000 DD 041200000r			; 10
CONST	ENDS
;	COMDAT __real@41000000
CONST	SEGMENT
__real@41000000 DD 041000000r			; 8
CONST	ENDS
;	COMDAT __real@40e80000
CONST	SEGMENT
__real@40e80000 DD 040e80000r			; 7.25
CONST	ENDS
;	COMDAT __real@40c90fdb
CONST	SEGMENT
__real@40c90fdb DD 040c90fdbr			; 6.28319
CONST	ENDS
;	COMDAT __real@40c00000
CONST	SEGMENT
__real@40c00000 DD 040c00000r			; 6
CONST	ENDS
;	COMDAT __real@40a00000
CONST	SEGMENT
__real@40a00000 DD 040a00000r			; 5
CONST	ENDS
;	COMDAT __real@40800000
CONST	SEGMENT
__real@40800000 DD 040800000r			; 4
CONST	ENDS
;	COMDAT __real@40666666
CONST	SEGMENT
__real@40666666 DD 040666666r			; 3.6
CONST	ENDS
;	COMDAT __real@4059000000000000
CONST	SEGMENT
__real@4059000000000000 DQ 04059000000000000r	; 100
CONST	ENDS
;	COMDAT __real@40490fdb
CONST	SEGMENT
__real@40490fdb DD 040490fdbr			; 3.14159
CONST	ENDS
;	COMDAT __real@40400000
CONST	SEGMENT
__real@40400000 DD 040400000r			; 3
CONST	ENDS
;	COMDAT __real@403f5c29
CONST	SEGMENT
__real@403f5c29 DD 0403f5c29r			; 2.99
CONST	ENDS
;	COMDAT __real@4024000000000000
CONST	SEGMENT
__real@4024000000000000 DQ 04024000000000000r	; 10
CONST	ENDS
;	COMDAT __real@40000000
CONST	SEGMENT
__real@40000000 DD 040000000r			; 2
CONST	ENDS
;	COMDAT __real@3ff0000000000000
CONST	SEGMENT
__real@3ff0000000000000 DQ 03ff0000000000000r	; 1
CONST	ENDS
;	COMDAT __real@3fe0000000000000
CONST	SEGMENT
__real@3fe0000000000000 DQ 03fe0000000000000r	; 0.5
CONST	ENDS
;	COMDAT __real@3fc00000
CONST	SEGMENT
__real@3fc00000 DD 03fc00000r			; 1.5
CONST	ENDS
;	COMDAT __real@3fb33333
CONST	SEGMENT
__real@3fb33333 DD 03fb33333r			; 1.4
CONST	ENDS
;	COMDAT __real@3f99999a
CONST	SEGMENT
__real@3f99999a DD 03f99999ar			; 1.2
CONST	ENDS
;	COMDAT __real@3f800000
CONST	SEGMENT
__real@3f800000 DD 03f800000r			; 1
CONST	ENDS
;	COMDAT __real@3f7ff972
CONST	SEGMENT
__real@3f7ff972 DD 03f7ff972r			; 0.9999
CONST	ENDS
;	COMDAT __real@3f5db3d0
CONST	SEGMENT
__real@3f5db3d0 DD 03f5db3d0r			; 0.866025
CONST	ENDS
;	COMDAT __real@3f5db22d
CONST	SEGMENT
__real@3f5db22d DD 03f5db22dr			; 0.866
CONST	ENDS
;	COMDAT __real@3f4ccccd
CONST	SEGMENT
__real@3f4ccccd DD 03f4ccccdr			; 0.8
CONST	ENDS
;	COMDAT __real@3f350481
CONST	SEGMENT
__real@3f350481 DD 03f350481r			; 0.7071
CONST	ENDS
;	COMDAT __real@3f333333
CONST	SEGMENT
__real@3f333333 DD 03f333333r			; 0.7
CONST	ENDS
;	COMDAT __real@3f266666
CONST	SEGMENT
__real@3f266666 DD 03f266666r			; 0.65
CONST	ENDS
;	COMDAT __real@3f19999a
CONST	SEGMENT
__real@3f19999a DD 03f19999ar			; 0.6
CONST	ENDS
;	COMDAT __real@3f0ccccd
CONST	SEGMENT
__real@3f0ccccd DD 03f0ccccdr			; 0.55
CONST	ENDS
;	COMDAT __real@3f000000
CONST	SEGMENT
__real@3f000000 DD 03f000000r			; 0.5
CONST	ENDS
;	COMDAT __real@3ecccccd
CONST	SEGMENT
__real@3ecccccd DD 03ecccccdr			; 0.4
CONST	ENDS
;	COMDAT __real@3eb0c6f7a0000000
CONST	SEGMENT
__real@3eb0c6f7a0000000 DQ 03eb0c6f7a0000000r	; 1e-06
CONST	ENDS
;	COMDAT __real@3e99999a
CONST	SEGMENT
__real@3e99999a DD 03e99999ar			; 0.3
CONST	ENDS
;	COMDAT __real@3e800000
CONST	SEGMENT
__real@3e800000 DD 03e800000r			; 0.25
CONST	ENDS
;	COMDAT __real@3e4ccccd
CONST	SEGMENT
__real@3e4ccccd DD 03e4ccccdr			; 0.2
CONST	ENDS
;	COMDAT __real@3e19999a
CONST	SEGMENT
__real@3e19999a DD 03e19999ar			; 0.15
CONST	ENDS
;	COMDAT __real@3e09374c
CONST	SEGMENT
__real@3e09374c DD 03e09374cr			; 0.134
CONST	ENDS
;	COMDAT __real@3dcccccd
CONST	SEGMENT
__real@3dcccccd DD 03dcccccdr			; 0.1
CONST	ENDS
;	COMDAT __real@3da3d70a
CONST	SEGMENT
__real@3da3d70a DD 03da3d70ar			; 0.08
CONST	ENDS
;	COMDAT __real@3cdd2f1b
CONST	SEGMENT
__real@3cdd2f1b DD 03cdd2f1br			; 0.027
CONST	ENDS
;	COMDAT __real@3c23d70a
CONST	SEGMENT
__real@3c23d70a DD 03c23d70ar			; 0.01
CONST	ENDS
;	COMDAT __real@3b808081
CONST	SEGMENT
__real@3b808081 DD 03b808081r			; 0.00392157
CONST	ENDS
;	COMDAT __real@38d1b717
CONST	SEGMENT
__real@38d1b717 DD 038d1b717r			; 0.0001
CONST	ENDS
;	COMDAT __real@3727c5ac
CONST	SEGMENT
__real@3727c5ac DD 03727c5acr			; 1e-05
CONST	ENDS
;	COMDAT __real@358637bd
CONST	SEGMENT
__real@358637bd DD 0358637bdr			; 1e-06
CONST	ENDS
;	COMDAT __real@00800000
CONST	SEGMENT
__real@00800000 DD 000800000r			; 1.17549e-38
CONST	ENDS
;	COMDAT __real@0000000000000000
CONST	SEGMENT
__real@0000000000000000 DQ 00000000000000000r	; 0
CONST	ENDS
;	COMDAT __real@00000000
CONST	SEGMENT
__real@00000000 DD 000000000r			; 0
CONST	ENDS
;	COMDAT rtc$TMZ
rtc$TMZ	SEGMENT
_RTC_Shutdown.rtc$TMZ DQ FLAT:_RTC_Shutdown
rtc$TMZ	ENDS
;	COMDAT rtc$IMZ
rtc$IMZ	SEGMENT
_RTC_InitBase.rtc$IMZ DQ FLAT:_RTC_InitBase
rtc$IMZ	ENDS
;	COMDAT ??_C@_1FC@BIEMKEOL@?$AAp?$AA?5?$AA?$DO?$AA?$DN?$AA?5?$AAB?$AAu?$AAf?$AA?4?$AAD?$AAa?$AAt?$AAa?$AA?5?$AA?$CG@
CONST	SEGMENT
??_C@_1FC@BIEMKEOL@?$AAp?$AA?5?$AA?$DO?$AA?$DN?$AA?5?$AAB?$AAu?$AAf?$AA?4?$AAD?$AAa?$AAt?$AAa?$AA?5?$AA?$CG@ DB 'p'
	DB	00H, ' ', 00H, '>', 00H, '=', 00H, ' ', 00H, 'B', 00H, 'u', 00H
	DB	'f', 00H, '.', 00H, 'D', 00H, 'a', 00H, 't', 00H, 'a', 00H, ' '
	DB	00H, '&', 00H, '&', 00H, ' ', 00H, 'p', 00H, ' ', 00H, '<', 00H
	DB	' ', 00H, 'B', 00H, 'u', 00H, 'f', 00H, '.', 00H, 'D', 00H, 'a'
	DB	00H, 't', 00H, 'a', 00H, ' ', 00H, '+', 00H, ' ', 00H, 'B', 00H
	DB	'u', 00H, 'f', 00H, '.', 00H, 'S', 00H, 'i', 00H, 'z', 00H, 'e'
	DB	00H, 00H, 00H				; `string'
CONST	ENDS
;	COMDAT ??_C@_1CG@GPMNJCJ@?$AAi?$AA?5?$AA?$DO?$AA?$DN?$AA?5?$AA0?$AA?5?$AA?$CG?$AA?$CG?$AA?5?$AAi?$AA?5?$AA?$DM?$AA?5?$AAS@
CONST	SEGMENT
??_C@_1CG@GPMNJCJ@?$AAi?$AA?5?$AA?$DO?$AA?$DN?$AA?5?$AA0?$AA?5?$AA?$CG?$AA?$CG?$AA?5?$AAi?$AA?5?$AA?$DM?$AA?5?$AAS@ DB 'i'
	DB	00H, ' ', 00H, '>', 00H, '=', 00H, ' ', 00H, '0', 00H, ' ', 00H
	DB	'&', 00H, '&', 00H, ' ', 00H, 'i', 00H, ' ', 00H, '<', 00H, ' '
	DB	00H, 'S', 00H, 'i', 00H, 'z', 00H, 'e', 00H, 00H, 00H ; `string'
CONST	ENDS
;	COMDAT ??_C@_1BC@KCECIPDP@?$AAS?$AAi?$AAz?$AAe?$AA?5?$AA?$DO?$AA?5?$AA0@
CONST	SEGMENT
??_C@_1BC@KCECIPDP@?$AAS?$AAi?$AAz?$AAe?$AA?5?$AA?$DO?$AA?5?$AA0@ DB 'S', 00H
	DB	'i', 00H, 'z', 00H, 'e', 00H, ' ', 00H, '>', 00H, ' ', 00H, '0'
	DB	00H, 00H, 00H				; `string'
CONST	ENDS
;	COMDAT ??_C@_1DO@NPHOAPAC@?$AAi?$AAt?$AA?5?$AA?$DO?$AA?$DN?$AA?5?$AAD?$AAa?$AAt?$AAa?$AA?5?$AA?$CG?$AA?$CG?$AA?5?$AAi@
CONST	SEGMENT
??_C@_1DO@NPHOAPAC@?$AAi?$AAt?$AA?5?$AA?$DO?$AA?$DN?$AA?5?$AAD?$AAa?$AAt?$AAa?$AA?5?$AA?$CG?$AA?$CG?$AA?5?$AAi@ DB 'i'
	DB	00H, 't', 00H, ' ', 00H, '>', 00H, '=', 00H, ' ', 00H, 'D', 00H
	DB	'a', 00H, 't', 00H, 'a', 00H, ' ', 00H, '&', 00H, '&', 00H, ' '
	DB	00H, 'i', 00H, 't', 00H, ' ', 00H, '<', 00H, ' ', 00H, 'D', 00H
	DB	'a', 00H, 't', 00H, 'a', 00H, ' ', 00H, '+', 00H, ' ', 00H, 'S'
	DB	00H, 'i', 00H, 'z', 00H, 'e', 00H, 00H, 00H	; `string'
CONST	ENDS
;	COMDAT ??_C@_1BK@HMBBPDPB@?$AAw?$AAi?$AAd?$AAt?$AAh?$AA?5?$AA?$DO?$AA?5?$AA0?$AA?4?$AA0?$AAf@
CONST	SEGMENT
??_C@_1BK@HMBBPDPB@?$AAw?$AAi?$AAd?$AAt?$AAh?$AA?5?$AA?$DO?$AA?5?$AA0?$AA?4?$AA0?$AAf@ DB 'w'
	DB	00H, 'i', 00H, 'd', 00H, 't', 00H, 'h', 00H, ' ', 00H, '>', 00H
	DB	' ', 00H, '0', 00H, '.', 00H, '0', 00H, 'f', 00H, 00H, 00H ; `string'
CONST	ENDS
;	COMDAT ?__LINE__Var@?0??TabItemBackground@ImGui@@YAXPEAUImDrawList@@AEBUImRect@@HI@Z@4JA
_DATA	SEGMENT
?__LINE__Var@?0??TabItemBackground@ImGui@@YAXPEAUImDrawList@@AEBUImRect@@HI@Z@4JA DD 01f60H ; `ImGui::TabItemBackground'::`1'::__LINE__Var
_DATA	ENDS
;	COMDAT ??_C@_1JA@BHHCJLLE@?$AA?$CB?$AAi?$AAs?$AA_?$AAt?$AAa?$AAb?$AA_?$AAb?$AAu?$AAt?$AAt?$AAo?$AAn?$AA?5@
CONST	SEGMENT
??_C@_1JA@BHHCJLLE@?$AA?$CB?$AAi?$AAs?$AA_?$AAt?$AAa?$AAb?$AA_?$AAb?$AAu?$AAt?$AAt?$AAo?$AAn?$AA?5@ DB '!'
	DB	00H, 'i', 00H, 's', 00H, '_', 00H, 't', 00H, 'a', 00H, 'b', 00H
	DB	'_', 00H, 'b', 00H, 'u', 00H, 't', 00H, 't', 00H, 'o', 00H, 'n'
	DB	00H, ' ', 00H, '|', 00H, '|', 00H, ' ', 00H, '!', 00H, '(', 00H
	DB	't', 00H, 'a', 00H, 'b', 00H, '_', 00H, 'b', 00H, 'a', 00H, 'r'
	DB	00H, '-', 00H, '>', 00H, 'S', 00H, 'e', 00H, 'l', 00H, 'e', 00H
	DB	'c', 00H, 't', 00H, 'e', 00H, 'd', 00H, 'T', 00H, 'a', 00H, 'b'
	DB	00H, 'I', 00H, 'd', 00H, ' ', 00H, '=', 00H, '=', 00H, ' ', 00H
	DB	't', 00H, 'a', 00H, 'b', 00H, '-', 00H, '>', 00H, 'I', 00H, 'D'
	DB	00H, ' ', 00H, '&', 00H, '&', 00H, ' ', 00H, 'i', 00H, 's', 00H
	DB	'_', 00H, 't', 00H, 'a', 00H, 'b', 00H, '_', 00H, 'b', 00H, 'u'
	DB	00H, 't', 00H, 't', 00H, 'o', 00H, 'n', 00H, ')', 00H, 00H, 00H ; `string'
CONST	ENDS
;	COMDAT ??_C@_04EBNJJJJI@?$CF?4?$CKs@
CONST	SEGMENT
??_C@_04EBNJJJJI@?$CF?4?$CKs@ DB '%.*s', 00H		; `string'
CONST	ENDS
;	COMDAT ??_C@_1PO@BEHLBGBB@?$AA?$CI?$AAf?$AAl?$AAa?$AAg?$AAs?$AA?5?$AA?$CG?$AA?5?$AA?$CI?$AAI?$AAm?$AAG?$AAu?$AAi@
CONST	SEGMENT
??_C@_1PO@BEHLBGBB@?$AA?$CI?$AAf?$AAl?$AAa?$AAg?$AAs?$AA?5?$AA?$CG?$AA?5?$AA?$CI?$AAI?$AAm?$AAG?$AAu?$AAi@ DB '('
	DB	00H, 'f', 00H, 'l', 00H, 'a', 00H, 'g', 00H, 's', 00H, ' ', 00H
	DB	'&', 00H, ' ', 00H, '(', 00H, 'I', 00H, 'm', 00H, 'G', 00H, 'u'
	DB	00H, 'i', 00H, 'T', 00H, 'a', 00H, 'b', 00H, 'I', 00H, 't', 00H
	DB	'e', 00H, 'm', 00H, 'F', 00H, 'l', 00H, 'a', 00H, 'g', 00H, 's'
	DB	00H, '_', 00H, 'L', 00H, 'e', 00H, 'a', 00H, 'd', 00H, 'i', 00H
	DB	'n', 00H, 'g', 00H, ' ', 00H, '|', 00H, ' ', 00H, 'I', 00H, 'm'
	DB	00H, 'G', 00H, 'u', 00H, 'i', 00H, 'T', 00H, 'a', 00H, 'b', 00H
	DB	'I', 00H, 't', 00H, 'e', 00H, 'm', 00H, 'F', 00H, 'l', 00H, 'a'
	DB	00H, 'g', 00H, 's', 00H, '_', 00H, 'T', 00H, 'r', 00H, 'a', 00H
	DB	'i', 00H, 'l', 00H, 'i', 00H, 'n', 00H, 'g', 00H, ')', 00H, ')'
	DB	00H, ' ', 00H, '!', 00H, '=', 00H, ' ', 00H, '(', 00H, 'I', 00H
	DB	'm', 00H, 'G', 00H, 'u', 00H, 'i', 00H, 'T', 00H, 'a', 00H, 'b'
	DB	00H, 'I', 00H, 't', 00H, 'e', 00H, 'm', 00H, 'F', 00H, 'l', 00H
	DB	'a', 00H, 'g', 00H, 's', 00H, '_', 00H, 'L', 00H, 'e', 00H, 'a'
	DB	00H, 'd', 00H, 'i', 00H, 'n', 00H, 'g', 00H, ' ', 00H, '|', 00H
	DB	' ', 00H, 'I', 00H, 'm', 00H, 'G', 00H, 'u', 00H, 'i', 00H, 'T'
	DB	00H, 'a', 00H, 'b', 00H, 'I', 00H, 't', 00H, 'e', 00H, 'm', 00H
	DB	'F', 00H, 'l', 00H, 'a', 00H, 'g', 00H, 's', 00H, '_', 00H, 'T'
	DB	00H, 'r', 00H, 'a', 00H, 'i', 00H, 'l', 00H, 'i', 00H, 'n', 00H
	DB	'g', 00H, ')', 00H, 00H, 00H			; `string'
CONST	ENDS
;	COMDAT ??_C@_1FO@JEBFCDGI@?$AA?$CB?$AAp?$AA_?$AAo?$AAp?$AAe?$AAn?$AA?5?$AA?$HM?$AA?$HM?$AA?5?$AA?$CB?$AA?$CI?$AAf?$AAl@
CONST	SEGMENT
??_C@_1FO@JEBFCDGI@?$AA?$CB?$AAp?$AA_?$AAo?$AAp?$AAe?$AAn?$AA?5?$AA?$HM?$AA?$HM?$AA?5?$AA?$CB?$AA?$CI?$AAf?$AAl@ DB '!'
	DB	00H, 'p', 00H, '_', 00H, 'o', 00H, 'p', 00H, 'e', 00H, 'n', 00H
	DB	' ', 00H, '|', 00H, '|', 00H, ' ', 00H, '!', 00H, '(', 00H, 'f'
	DB	00H, 'l', 00H, 'a', 00H, 'g', 00H, 's', 00H, ' ', 00H, '&', 00H
	DB	' ', 00H, 'I', 00H, 'm', 00H, 'G', 00H, 'u', 00H, 'i', 00H, 'T'
	DB	00H, 'a', 00H, 'b', 00H, 'I', 00H, 't', 00H, 'e', 00H, 'm', 00H
	DB	'F', 00H, 'l', 00H, 'a', 00H, 'g', 00H, 's', 00H, '_', 00H, 'B'
	DB	00H, 'u', 00H, 't', 00H, 't', 00H, 'o', 00H, 'n', 00H, ')', 00H
	DB	00H, 00H					; `string'
CONST	ENDS
;	COMDAT ?__LINE__Var@?0??TabItemEx@ImGui@@YA_NPEAUImGuiTabBar@@PEBDPEA_NH@Z@4JA
_DATA	SEGMENT
?__LINE__Var@?0??TabItemEx@ImGui@@YA_NPEAUImGuiTabBar@@PEBDPEA_NH@Z@4JA DD 01e6fH ; `ImGui::TabItemEx'::`1'::__LINE__Var
_DATA	ENDS
;	COMDAT ?__LINE__Var@?0??TabItemButton@ImGui@@YA_NPEBDH@Z@4JA
_DATA	SEGMENT
?__LINE__Var@?0??TabItemButton@ImGui@@YA_NPEBDH@Z@4JA DD 01e5fH ; `ImGui::TabItemButton'::`1'::__LINE__Var
_DATA	ENDS
;	COMDAT ??_C@_1DK@HGEILAOB@?$AAt?$AAa?$AAb?$AA_?$AAb?$AAa?$AAr?$AA?9?$AA?$DO?$AAL?$AAa?$AAs?$AAt?$AAT?$AAa@
CONST	SEGMENT
??_C@_1DK@HGEILAOB@?$AAt?$AAa?$AAb?$AA_?$AAb?$AAa?$AAr?$AA?9?$AA?$DO?$AAL?$AAa?$AAs?$AAt?$AAT?$AAa@ DB 't'
	DB	00H, 'a', 00H, 'b', 00H, '_', 00H, 'b', 00H, 'a', 00H, 'r', 00H
	DB	'-', 00H, '>', 00H, 'L', 00H, 'a', 00H, 's', 00H, 't', 00H, 'T'
	DB	00H, 'a', 00H, 'b', 00H, 'I', 00H, 't', 00H, 'e', 00H, 'm', 00H
	DB	'I', 00H, 'd', 00H, 'x', 00H, ' ', 00H, '>', 00H, '=', 00H, ' '
	DB	00H, '0', 00H, 00H, 00H			; `string'
CONST	ENDS
;	COMDAT ??_C@_1JM@OHPMLLD@?$AA?$CI?$AAt?$AAa?$AAb?$AA_?$AAb?$AAa?$AAr?$AA?5?$AA?$CB?$AA?$DN?$AA?5?$AA0?$AA?$CJ?$AA?5@
CONST	SEGMENT
??_C@_1JM@OHPMLLD@?$AA?$CI?$AAt?$AAa?$AAb?$AA_?$AAb?$AAa?$AAr?$AA?5?$AA?$CB?$AA?$DN?$AA?5?$AA0?$AA?$CJ?$AA?5@ DB '('
	DB	00H, 't', 00H, 'a', 00H, 'b', 00H, '_', 00H, 'b', 00H, 'a', 00H
	DB	'r', 00H, ' ', 00H, '!', 00H, '=', 00H, ' ', 00H, '0', 00H, ')'
	DB	00H, ' ', 00H, '&', 00H, '&', 00H, ' ', 00H, '"', 00H, 'N', 00H
	DB	'e', 00H, 'e', 00H, 'd', 00H, 's', 00H, ' ', 00H, 't', 00H, 'o'
	DB	00H, ' ', 00H, 'b', 00H, 'e', 00H, ' ', 00H, 'c', 00H, 'a', 00H
	DB	'l', 00H, 'l', 00H, 'e', 00H, 'd', 00H, ' ', 00H, 'b', 00H, 'e'
	DB	00H, 't', 00H, 'w', 00H, 'e', 00H, 'e', 00H, 'n', 00H, ' ', 00H
	DB	'B', 00H, 'e', 00H, 'g', 00H, 'i', 00H, 'n', 00H, 'T', 00H, 'a'
	DB	00H, 'b', 00H, 'B', 00H, 'a', 00H, 'r', 00H, '(', 00H, ')', 00H
	DB	' ', 00H, 'a', 00H, 'n', 00H, 'd', 00H, ' ', 00H, 'E', 00H, 'n'
	DB	00H, 'd', 00H, 'T', 00H, 'a', 00H, 'b', 00H, 'B', 00H, 'a', 00H
	DB	'r', 00H, '(', 00H, ')', 00H, '!', 00H, '"', 00H, 00H, 00H ; `string'
CONST	ENDS
;	COMDAT ?__LINE__Var@?0??EndTabItem@ImGui@@YAXXZ@4JA
_DATA	SEGMENT
?__LINE__Var@?0??EndTabItem@ImGui@@YAXXZ@4JA DD 01e4cH	; `ImGui::EndTabItem'::`1'::__LINE__Var
_DATA	ENDS
;	COMDAT ??_C@_1EI@NKMOAMGI@?$AA?$CB?$AA?$CI?$AAf?$AAl?$AAa?$AAg?$AAs?$AA?5?$AA?$CG?$AA?5?$AAI?$AAm?$AAG?$AAu?$AAi@
CONST	SEGMENT
??_C@_1EI@NKMOAMGI@?$AA?$CB?$AA?$CI?$AAf?$AAl?$AAa?$AAg?$AAs?$AA?5?$AA?$CG?$AA?5?$AAI?$AAm?$AAG?$AAu?$AAi@ DB '!'
	DB	00H, '(', 00H, 'f', 00H, 'l', 00H, 'a', 00H, 'g', 00H, 's', 00H
	DB	' ', 00H, '&', 00H, ' ', 00H, 'I', 00H, 'm', 00H, 'G', 00H, 'u'
	DB	00H, 'i', 00H, 'T', 00H, 'a', 00H, 'b', 00H, 'I', 00H, 't', 00H
	DB	'e', 00H, 'm', 00H, 'F', 00H, 'l', 00H, 'a', 00H, 'g', 00H, 's'
	DB	00H, '_', 00H, 'B', 00H, 'u', 00H, 't', 00H, 't', 00H, 'o', 00H
	DB	'n', 00H, ')', 00H, 00H, 00H			; `string'
CONST	ENDS
;	COMDAT ??_C@_1JC@EEMJDIKN@?$AA?$CI?$AAt?$AAa?$AAb?$AA_?$AAb?$AAa?$AAr?$AA?$CJ?$AA?5?$AA?$CG?$AA?$CG?$AA?5?$AA?$CC?$AAN@
CONST	SEGMENT
??_C@_1JC@EEMJDIKN@?$AA?$CI?$AAt?$AAa?$AAb?$AA_?$AAb?$AAa?$AAr?$AA?$CJ?$AA?5?$AA?$CG?$AA?$CG?$AA?5?$AA?$CC?$AAN@ DB '('
	DB	00H, 't', 00H, 'a', 00H, 'b', 00H, '_', 00H, 'b', 00H, 'a', 00H
	DB	'r', 00H, ')', 00H, ' ', 00H, '&', 00H, '&', 00H, ' ', 00H, '"'
	DB	00H, 'N', 00H, 'e', 00H, 'e', 00H, 'd', 00H, 's', 00H, ' ', 00H
	DB	't', 00H, 'o', 00H, ' ', 00H, 'b', 00H, 'e', 00H, ' ', 00H, 'c'
	DB	00H, 'a', 00H, 'l', 00H, 'l', 00H, 'e', 00H, 'd', 00H, ' ', 00H
	DB	'b', 00H, 'e', 00H, 't', 00H, 'w', 00H, 'e', 00H, 'e', 00H, 'n'
	DB	00H, ' ', 00H, 'B', 00H, 'e', 00H, 'g', 00H, 'i', 00H, 'n', 00H
	DB	'T', 00H, 'a', 00H, 'b', 00H, 'B', 00H, 'a', 00H, 'r', 00H, '('
	DB	00H, ')', 00H, ' ', 00H, 'a', 00H, 'n', 00H, 'd', 00H, ' ', 00H
	DB	'E', 00H, 'n', 00H, 'd', 00H, 'T', 00H, 'a', 00H, 'b', 00H, 'B'
	DB	00H, 'a', 00H, 'r', 00H, '(', 00H, ')', 00H, '!', 00H, '"', 00H
	DB	00H, 00H					; `string'
CONST	ENDS
;	COMDAT ??_C@_0DK@EHILAJFJ@Needs?5to?5be?5called?5between?5Begi@
CONST	SEGMENT
??_C@_0DK@EHILAJFJ@Needs?5to?5be?5called?5between?5Begi@ DB 'Needs to be '
	DB	'called between BeginTabBar() and EndTabBar()!', 00H ; `string'
CONST	ENDS
;	COMDAT ?__LINE__Var@?0??BeginTabItem@ImGui@@YA_NPEBDPEA_NH@Z@4JA
_DATA	SEGMENT
?__LINE__Var@?0??BeginTabItem@ImGui@@YA_NPEBDPEA_NH@Z@4JA DD 01e34H ; `ImGui::BeginTabItem'::`1'::__LINE__Var
_DATA	ENDS
;	COMDAT ??_C@_03CPFCAGPK@?$CD?$CDv@
CONST	SEGMENT
??_C@_03CPFCAGPK@?$CD?$CDv@ DB '##v', 00H		; `string'
CONST	ENDS
;	COMDAT ??_C@_03BHPCMDPH@?$CD?$CD?$DO@
CONST	SEGMENT
??_C@_03BHPCMDPH@?$CD?$CD?$DO@ DB '##>', 00H		; `string'
CONST	ENDS
;	COMDAT ??_C@_03CFMEKBHF@?$CD?$CD?$DM@
CONST	SEGMENT
??_C@_03CFMEKBHF@?$CD?$CD?$DM@ DB '##<', 00H		; `string'
CONST	ENDS
;	COMDAT ?__LINE__Var@?0??TabBarQueueReorderFromMousePos@ImGui@@YAXPEAUImGuiTabBar@@PEBUImGuiTabItem@@UImVec2@@@Z@4JA
_DATA	SEGMENT
?__LINE__Var@?0??TabBarQueueReorderFromMousePos@ImGui@@YAXPEAUImGuiTabBar@@PEBUImGuiTabItem@@UImVec2@@@Z@4JA DD 01d81H ; `ImGui::TabBarQueueReorderFromMousePos'::`1'::__LINE__Var
_DATA	ENDS
;	COMDAT ??_C@_1EE@NGAACFPK@?$AAt?$AAa?$AAb?$AA_?$AAb?$AAa?$AAr?$AA?9?$AA?$DO?$AAR?$AAe?$AAo?$AAr?$AAd?$AAe@
CONST	SEGMENT
??_C@_1EE@NGAACFPK@?$AAt?$AAa?$AAb?$AA_?$AAb?$AAa?$AAr?$AA?9?$AA?$DO?$AAR?$AAe?$AAo?$AAr?$AAd?$AAe@ DB 't'
	DB	00H, 'a', 00H, 'b', 00H, '_', 00H, 'b', 00H, 'a', 00H, 'r', 00H
	DB	'-', 00H, '>', 00H, 'R', 00H, 'e', 00H, 'o', 00H, 'r', 00H, 'd'
	DB	00H, 'e', 00H, 'r', 00H, 'R', 00H, 'e', 00H, 'q', 00H, 'u', 00H
	DB	'e', 00H, 's', 00H, 't', 00H, 'T', 00H, 'a', 00H, 'b', 00H, 'I'
	DB	00H, 'd', 00H, ' ', 00H, '=', 00H, '=', 00H, ' ', 00H, '0', 00H
	DB	00H, 00H					; `string'
CONST	ENDS
;	COMDAT ??_C@_1BI@DOPCJBFN@?$AAo?$AAf?$AAf?$AAs?$AAe?$AAt?$AA?5?$AA?$CB?$AA?$DN?$AA?5?$AA0@
CONST	SEGMENT
??_C@_1BI@DOPCJBFN@?$AAo?$AAf?$AAf?$AAs?$AAe?$AAt?$AA?5?$AA?$CB?$AA?$DN?$AA?5?$AA0@ DB 'o'
	DB	00H, 'f', 00H, 'f', 00H, 's', 00H, 'e', 00H, 't', 00H, ' ', 00H
	DB	'!', 00H, '=', 00H, ' ', 00H, '0', 00H, 00H, 00H ; `string'
CONST	ENDS
;	COMDAT ?__LINE__Var@?0??TabBarQueueReorder@ImGui@@YAXPEAUImGuiTabBar@@PEBUImGuiTabItem@@H@Z@4JA
_DATA	SEGMENT
?__LINE__Var@?0??TabBarQueueReorder@ImGui@@YAXPEAUImGuiTabBar@@PEBUImGuiTabItem@@H@Z@4JA DD 01d79H ; `ImGui::TabBarQueueReorder'::`1'::__LINE__Var
_DATA	ENDS
;	COMDAT ??_C@_1FC@JMLJLLDN@?$AA?$CB?$AA?$CI?$AAt?$AAa?$AAb?$AA?9?$AA?$DO?$AAF?$AAl?$AAa?$AAg?$AAs?$AA?5?$AA?$CG?$AA?5@
CONST	SEGMENT
??_C@_1FC@JMLJLLDN@?$AA?$CB?$AA?$CI?$AAt?$AAa?$AAb?$AA?9?$AA?$DO?$AAF?$AAl?$AAa?$AAg?$AAs?$AA?5?$AA?$CG?$AA?5@ DB '!'
	DB	00H, '(', 00H, 't', 00H, 'a', 00H, 'b', 00H, '-', 00H, '>', 00H
	DB	'F', 00H, 'l', 00H, 'a', 00H, 'g', 00H, 's', 00H, ' ', 00H, '&'
	DB	00H, ' ', 00H, 'I', 00H, 'm', 00H, 'G', 00H, 'u', 00H, 'i', 00H
	DB	'T', 00H, 'a', 00H, 'b', 00H, 'I', 00H, 't', 00H, 'e', 00H, 'm'
	DB	00H, 'F', 00H, 'l', 00H, 'a', 00H, 'g', 00H, 's', 00H, '_', 00H
	DB	'B', 00H, 'u', 00H, 't', 00H, 't', 00H, 'o', 00H, 'n', 00H, ')'
	DB	00H, 00H, 00H				; `string'
CONST	ENDS
;	COMDAT ?__LINE__Var@?0??TabBarCloseTab@ImGui@@YAXPEAUImGuiTabBar@@PEAUImGuiTabItem@@@Z@4JA
_DATA	SEGMENT
?__LINE__Var@?0??TabBarCloseTab@ImGui@@YAXPEAUImGuiTabBar@@PEAUImGuiTabItem@@@Z@4JA DD 01d3aH ; `ImGui::TabBarCloseTab'::`1'::__LINE__Var
_DATA	ENDS
;	COMDAT ??_C@_1DC@IMDNAHCI@?$AAt?$AAa?$AAb?$AA?9?$AA?$DO?$AAC?$AAo?$AAn?$AAt?$AAe?$AAn?$AAt?$AAW?$AAi?$AAd@
CONST	SEGMENT
??_C@_1DC@IMDNAHCI@?$AAt?$AAa?$AAb?$AA?9?$AA?$DO?$AAC?$AAo?$AAn?$AAt?$AAe?$AAn?$AAt?$AAW?$AAi?$AAd@ DB 't'
	DB	00H, 'a', 00H, 'b', 00H, '-', 00H, '>', 00H, 'C', 00H, 'o', 00H
	DB	'n', 00H, 't', 00H, 'e', 00H, 'n', 00H, 't', 00H, 'W', 00H, 'i'
	DB	00H, 'd', 00H, 't', 00H, 'h', 00H, ' ', 00H, '>', 00H, ' ', 00H
	DB	'0', 00H, '.', 00H, '0', 00H, 'f', 00H, 00H, 00H ; `string'
CONST	ENDS
;	COMDAT ??_C@_1GG@ODBMJKON@?$AAt?$AAa?$AAb?$AA?9?$AA?$DO?$AAL?$AAa?$AAs?$AAt?$AAF?$AAr?$AAa?$AAm?$AAe?$AAV@
CONST	SEGMENT
??_C@_1GG@ODBMJKON@?$AAt?$AAa?$AAb?$AA?9?$AA?$DO?$AAL?$AAa?$AAs?$AAt?$AAF?$AAr?$AAa?$AAm?$AAe?$AAV@ DB 't'
	DB	00H, 'a', 00H, 'b', 00H, '-', 00H, '>', 00H, 'L', 00H, 'a', 00H
	DB	's', 00H, 't', 00H, 'F', 00H, 'r', 00H, 'a', 00H, 'm', 00H, 'e'
	DB	00H, 'V', 00H, 'i', 00H, 's', 00H, 'i', 00H, 'b', 00H, 'l', 00H
	DB	'e', 00H, ' ', 00H, '>', 00H, '=', 00H, ' ', 00H, 't', 00H, 'a'
	DB	00H, 'b', 00H, '_', 00H, 'b', 00H, 'a', 00H, 'r', 00H, '-', 00H
	DB	'>', 00H, 'P', 00H, 'r', 00H, 'e', 00H, 'v', 00H, 'F', 00H, 'r'
	DB	00H, 'a', 00H, 'm', 00H, 'e', 00H, 'V', 00H, 'i', 00H, 's', 00H
	DB	'i', 00H, 'b', 00H, 'l', 00H, 'e', 00H, 00H, 00H ; `string'
CONST	ENDS
;	COMDAT ?__LINE__Var@?0??TabBarLayout@ImGui@@YAXPEAUImGuiTabBar@@@Z@4JA
_DATA	SEGMENT
?__LINE__Var@?0??TabBarLayout@ImGui@@YAXPEAUImGuiTabBar@@@Z@4JA DD 01c2bH ; `ImGui::TabBarLayout'::`1'::__LINE__Var
_DATA	ENDS
;	COMDAT ??_C@_1HE@HMPOLDED@?$AA?$CI?$AAt?$AAa?$AAb?$AA_?$AAb?$AAa?$AAr?$AA?5?$AA?$CB?$AA?$DN?$AA?5?$AA0?$AA?$CJ?$AA?5@
CONST	SEGMENT
??_C@_1HE@HMPOLDED@?$AA?$CI?$AAt?$AAa?$AAb?$AA_?$AAb?$AAa?$AAr?$AA?5?$AA?$CB?$AA?$DN?$AA?5?$AA0?$AA?$CJ?$AA?5@ DB '('
	DB	00H, 't', 00H, 'a', 00H, 'b', 00H, '_', 00H, 'b', 00H, 'a', 00H
	DB	'r', 00H, ' ', 00H, '!', 00H, '=', 00H, ' ', 00H, '0', 00H, ')'
	DB	00H, ' ', 00H, '&', 00H, '&', 00H, ' ', 00H, '"', 00H, 'M', 00H
	DB	'i', 00H, 's', 00H, 'm', 00H, 'a', 00H, 't', 00H, 'c', 00H, 'h'
	DB	00H, 'e', 00H, 'd', 00H, ' ', 00H, 'B', 00H, 'e', 00H, 'g', 00H
	DB	'i', 00H, 'n', 00H, 'T', 00H, 'a', 00H, 'b', 00H, 'B', 00H, 'a'
	DB	00H, 'r', 00H, '(', 00H, ')', 00H, '/', 00H, 'E', 00H, 'n', 00H
	DB	'd', 00H, 'T', 00H, 'a', 00H, 'b', 00H, 'B', 00H, 'a', 00H, 'r'
	DB	00H, '(', 00H, ')', 00H, '!', 00H, '"', 00H, 00H, 00H ; `string'
CONST	ENDS
;	COMDAT ??_C@_0CG@DPIPLNLI@Mismatched?5BeginTabBar?$CI?$CJ?1EndTab@
CONST	SEGMENT
??_C@_0CG@DPIPLNLI@Mismatched?5BeginTabBar?$CI?$CJ?1EndTab@ DB 'Mismatche'
	DB	'd BeginTabBar()/EndTabBar()!', 00H		; `string'
CONST	ENDS
;	COMDAT ?__LINE__Var@?0??EndTabBar@ImGui@@YAXXZ@4JA
_DATA	SEGMENT
?__LINE__Var@?0??EndTabBar@ImGui@@YAXXZ@4JA DD 01c02H	; `ImGui::EndTabBar'::`1'::__LINE__Var
_DATA	ENDS
;	COMDAT ??_C@_0O@BKOLOJFE@?$CD?$CDMainMenuBar@
CONST	SEGMENT
??_C@_0O@BKOLOJFE@?$CD?$CDMainMenuBar@ DB '##MainMenuBar', 00H ; `string'
CONST	ENDS
;	COMDAT ??_C@_1CK@MCAEPPML@?$AAd?$AAi?$AAr?$AA?5?$AA?$CB?$AA?$DN?$AA?5?$AAI?$AAm?$AAG?$AAu?$AAi?$AAD?$AAi?$AAr@
CONST	SEGMENT
??_C@_1CK@MCAEPPML@?$AAd?$AAi?$AAr?$AA?5?$AA?$CB?$AA?$DN?$AA?5?$AAI?$AAm?$AAG?$AAu?$AAi?$AAD?$AAi?$AAr@ DB 'd'
	DB	00H, 'i', 00H, 'r', 00H, ' ', 00H, '!', 00H, '=', 00H, ' ', 00H
	DB	'I', 00H, 'm', 00H, 'G', 00H, 'u', 00H, 'i', 00H, 'D', 00H, 'i'
	DB	00H, 'r', 00H, '_', 00H, 'N', 00H, 'o', 00H, 'n', 00H, 'e', 00H
	DB	00H, 00H					; `string'
CONST	ENDS
;	COMDAT ?__LINE__Var@?0??BeginViewportSideBar@ImGui@@YA_NPEBDPEAUImGuiViewport@@HMH@Z@4JA
_DATA	SEGMENT
?__LINE__Var@?0??BeginViewportSideBar@ImGui@@YA_NPEBDPEAUImGuiViewport@@HMH@Z@4JA DD 01a31H ; `ImGui::BeginViewportSideBar'::`1'::__LINE__Var
_DATA	ENDS
;	COMDAT ??_C@_1DI@HJHPMKIH@?$AAw?$AAi?$AAn?$AAd?$AAo?$AAw?$AA?9?$AA?$DO?$AAD?$AAC?$AA?4?$AAM?$AAe?$AAn?$AAu@
CONST	SEGMENT
??_C@_1DI@HJHPMKIH@?$AAw?$AAi?$AAn?$AAd?$AAo?$AAw?$AA?9?$AA?$DO?$AAD?$AAC?$AA?4?$AAM?$AAe?$AAn?$AAu@ DB 'w'
	DB	00H, 'i', 00H, 'n', 00H, 'd', 00H, 'o', 00H, 'w', 00H, '-', 00H
	DB	'>', 00H, 'D', 00H, 'C', 00H, '.', 00H, 'M', 00H, 'e', 00H, 'n'
	DB	00H, 'u', 00H, 'B', 00H, 'a', 00H, 'r', 00H, 'A', 00H, 'p', 00H
	DB	'p', 00H, 'e', 00H, 'n', 00H, 'd', 00H, 'i', 00H, 'n', 00H, 'g'
	DB	00H, 00H, 00H				; `string'
CONST	ENDS
;	COMDAT ??_C@_1FC@MMAFNJJP@?$AAw?$AAi?$AAn?$AAd?$AAo?$AAw?$AA?9?$AA?$DO?$AAF?$AAl?$AAa?$AAg?$AAs?$AA?5?$AA?$CG@
CONST	SEGMENT
??_C@_1FC@MMAFNJJP@?$AAw?$AAi?$AAn?$AAd?$AAo?$AAw?$AA?9?$AA?$DO?$AAF?$AAl?$AAa?$AAg?$AAs?$AA?5?$AA?$CG@ DB 'w'
	DB	00H, 'i', 00H, 'n', 00H, 'd', 00H, 'o', 00H, 'w', 00H, '-', 00H
	DB	'>', 00H, 'F', 00H, 'l', 00H, 'a', 00H, 'g', 00H, 's', 00H, ' '
	DB	00H, '&', 00H, ' ', 00H, 'I', 00H, 'm', 00H, 'G', 00H, 'u', 00H
	DB	'i', 00H, 'W', 00H, 'i', 00H, 'n', 00H, 'd', 00H, 'o', 00H, 'w'
	DB	00H, 'F', 00H, 'l', 00H, 'a', 00H, 'g', 00H, 's', 00H, '_', 00H
	DB	'M', 00H, 'e', 00H, 'n', 00H, 'u', 00H, 'B', 00H, 'a', 00H, 'r'
	DB	00H, 00H, 00H				; `string'
CONST	ENDS
;	COMDAT ??_C@_1GE@MKPILOEH@?$AAw?$AAi?$AAn?$AAd?$AAo?$AAw?$AA?9?$AA?$DO?$AAD?$AAC?$AA?4?$AAN?$AAa?$AAv?$AAL@
CONST	SEGMENT
??_C@_1GE@MKPILOEH@?$AAw?$AAi?$AAn?$AAd?$AAo?$AAw?$AA?9?$AA?$DO?$AAD?$AAC?$AA?4?$AAN?$AAa?$AAv?$AAL@ DB 'w'
	DB	00H, 'i', 00H, 'n', 00H, 'd', 00H, 'o', 00H, 'w', 00H, '-', 00H
	DB	'>', 00H, 'D', 00H, 'C', 00H, '.', 00H, 'N', 00H, 'a', 00H, 'v'
	DB	00H, 'L', 00H, 'a', 00H, 'y', 00H, 'e', 00H, 'r', 00H, 's', 00H
	DB	'A', 00H, 'c', 00H, 't', 00H, 'i', 00H, 'v', 00H, 'e', 00H, 'M'
	DB	00H, 'a', 00H, 's', 00H, 'k', 00H, 'N', 00H, 'e', 00H, 'x', 00H
	DB	't', 00H, ' ', 00H, '&', 00H, ' ', 00H, '(', 00H, '1', 00H, ' '
	DB	00H, '<', 00H, '<', 00H, ' ', 00H, 'l', 00H, 'a', 00H, 'y', 00H
	DB	'e', 00H, 'r', 00H, ')', 00H, 00H, 00H	; `string'
CONST	ENDS
;	COMDAT ?__LINE__Var@?0??EndMenuBar@ImGui@@YAXXZ@4JA
_DATA	SEGMENT
?__LINE__Var@?0??EndMenuBar@ImGui@@YAXXZ@4JA DD 01a05H	; `ImGui::EndMenuBar'::`1'::__LINE__Var
_DATA	ENDS
;	COMDAT ??_C@_09FHPMMDGK@?$CD?$CDmenubar@
CONST	SEGMENT
??_C@_09FHPMMDGK@?$CD?$CDmenubar@ DB '##menubar', 00H	; `string'
CONST	ENDS
;	COMDAT ??_C@_1DK@MIADNLCN@?$AA?$CB?$AAw?$AAi?$AAn?$AAd?$AAo?$AAw?$AA?9?$AA?$DO?$AAD?$AAC?$AA?4?$AAM?$AAe?$AAn@
CONST	SEGMENT
??_C@_1DK@MIADNLCN@?$AA?$CB?$AAw?$AAi?$AAn?$AAd?$AAo?$AAw?$AA?9?$AA?$DO?$AAD?$AAC?$AA?4?$AAM?$AAe?$AAn@ DB '!'
	DB	00H, 'w', 00H, 'i', 00H, 'n', 00H, 'd', 00H, 'o', 00H, 'w', 00H
	DB	'-', 00H, '>', 00H, 'D', 00H, 'C', 00H, '.', 00H, 'M', 00H, 'e'
	DB	00H, 'n', 00H, 'u', 00H, 'B', 00H, 'a', 00H, 'r', 00H, 'A', 00H
	DB	'p', 00H, 'p', 00H, 'e', 00H, 'n', 00H, 'd', 00H, 'i', 00H, 'n'
	DB	00H, 'g', 00H, 00H, 00H			; `string'
CONST	ENDS
;	COMDAT ?__LINE__Var@?0??BeginMenuBar@ImGui@@YA_NXZ@4JA
_DATA	SEGMENT
?__LINE__Var@?0??BeginMenuBar@ImGui@@YA_NXZ@4JA DD 019e9H ; `ImGui::BeginMenuBar'::`1'::__LINE__Var
_DATA	ENDS
;	COMDAT ??_C@_1FO@NFEGNMHD@?$AAc?$AAo?$AAu?$AAn?$AAt?$AA?5?$AA?$DN?$AA?$DN?$AA?5?$AA?$CI?$AA?$CI?$AAi?$AAn?$AAt?$AA?$CJ@
CONST	SEGMENT
??_C@_1FO@NFEGNMHD@?$AAc?$AAo?$AAu?$AAn?$AAt?$AA?5?$AA?$DN?$AA?$DN?$AA?5?$AA?$CI?$AA?$CI?$AAi?$AAn?$AAt?$AA?$CJ@ DB 'c'
	DB	00H, 'o', 00H, 'u', 00H, 'n', 00H, 't', 00H, ' ', 00H, '=', 00H
	DB	'=', 00H, ' ', 00H, '(', 00H, '(', 00H, 'i', 00H, 'n', 00H, 't'
	DB	00H, ')', 00H, '(', 00H, 's', 00H, 'i', 00H, 'z', 00H, 'e', 00H
	DB	'o', 00H, 'f', 00H, '(', 00H, 'P', 00H, 'o', 00H, 's', 00H, ')'
	DB	00H, ' ', 00H, '/', 00H, ' ', 00H, 's', 00H, 'i', 00H, 'z', 00H
	DB	'e', 00H, 'o', 00H, 'f', 00H, '(', 00H, '*', 00H, '(', 00H, 'P'
	DB	00H, 'o', 00H, 's', 00H, ')', 00H, ')', 00H, ')', 00H, ')', 00H
	DB	00H, 00H					; `string'
CONST	ENDS
;	COMDAT ?__LINE__Var@?0??Update@ImGuiMenuColumns@@QEAAXHM_N@Z@4JA
_DATA	SEGMENT
?__LINE__Var@?0??Update@ImGuiMenuColumns@@QEAAXHM_N@Z@4JA DD 019c3H ; `ImGuiMenuColumns::Update'::`1'::__LINE__Var
_DATA	ENDS
;	COMDAT ??_C@_08KELGKKHF@?$CFs?3?5?$CF?43f@
CONST	SEGMENT
??_C@_08KELGKKHF@?$CFs?3?5?$CF?43f@ DB '%s: %.3f', 00H	; `string'
CONST	ENDS
;	COMDAT ??_C@_07EKEPIENH@?$CF?$CFs?3?5?$CFs@
CONST	SEGMENT
??_C@_07EKEPIENH@?$CF?$CFs?3?5?$CFs@ DB '%%s: %s', 00H	; `string'
CONST	ENDS
;	COMDAT ??_C@_06GBEGMGE@?$CFs?3?5?$CFd@
CONST	SEGMENT
??_C@_06GBEGMGE@?$CFs?3?5?$CFd@ DB '%s: %d', 00H	; `string'
CONST	ENDS
;	COMDAT ??_C@_06DJHOIPC@?$CFs?3?5?$CFs@
CONST	SEGMENT
??_C@_06DJHOIPC@?$CFs?3?5?$CFs@ DB '%s: %s', 00H	; `string'
CONST	ENDS
;	COMDAT ??_C@_05LAPONLG@false@
CONST	SEGMENT
??_C@_05LAPONLG@false@ DB 'false', 00H			; `string'
CONST	ENDS
;	COMDAT ??_C@_04LOAJBDKD@true@
CONST	SEGMENT
??_C@_04LOAJBDKD@true@ DB 'true', 00H			; `string'
CONST	ENDS
;	COMDAT ??_C@_1EK@JIGPMMPH@?$AAv?$AA1?$AA_?$AAi?$AAd?$AAx?$AA?5?$AA?$DO?$AA?$DN?$AA?5?$AA0?$AA?5?$AA?$CG?$AA?$CG?$AA?5@
CONST	SEGMENT
??_C@_1EK@JIGPMMPH@?$AAv?$AA1?$AA_?$AAi?$AAd?$AAx?$AA?5?$AA?$DO?$AA?$DN?$AA?5?$AA0?$AA?5?$AA?$CG?$AA?$CG?$AA?5@ DB 'v'
	DB	00H, '1', 00H, '_', 00H, 'i', 00H, 'd', 00H, 'x', 00H, ' ', 00H
	DB	'>', 00H, '=', 00H, ' ', 00H, '0', 00H, ' ', 00H, '&', 00H, '&'
	DB	00H, ' ', 00H, 'v', 00H, '1', 00H, '_', 00H, 'i', 00H, 'd', 00H
	DB	'x', 00H, ' ', 00H, '<', 00H, ' ', 00H, 'v', 00H, 'a', 00H, 'l'
	DB	00H, 'u', 00H, 'e', 00H, 's', 00H, '_', 00H, 'c', 00H, 'o', 00H
	DB	'u', 00H, 'n', 00H, 't', 00H, 00H, 00H	; `string'
CONST	ENDS
;	COMDAT ??_C@_09OADNPGHP@?$CFd?3?5?$CF8?44g@
CONST	SEGMENT
??_C@_09OADNPGHP@?$CFd?3?5?$CF8?44g@ DB '%d: %8.4g', 00H ; `string'
CONST	ENDS
;	COMDAT ??_C@_0BE@OBCBLNMM@?$CFd?3?5?$CF8?44g?6?$CFd?3?5?$CF8?44g@
CONST	SEGMENT
??_C@_0BE@OBCBLNMM@?$CFd?3?5?$CF8?44g?6?$CFd?3?5?$CF8?44g@ DB '%d: %8.4g', 0aH
	DB	'%d: %8.4g', 00H				; `string'
CONST	ENDS
;	COMDAT ??_C@_1EG@HCGMCBDC@?$AAv?$AA_?$AAi?$AAd?$AAx?$AA?5?$AA?$DO?$AA?$DN?$AA?5?$AA0?$AA?5?$AA?$CG?$AA?$CG?$AA?5?$AAv@
CONST	SEGMENT
??_C@_1EG@HCGMCBDC@?$AAv?$AA_?$AAi?$AAd?$AAx?$AA?5?$AA?$DO?$AA?$DN?$AA?5?$AA0?$AA?5?$AA?$CG?$AA?$CG?$AA?5?$AAv@ DB 'v'
	DB	00H, '_', 00H, 'i', 00H, 'd', 00H, 'x', 00H, ' ', 00H, '>', 00H
	DB	'=', 00H, ' ', 00H, '0', 00H, ' ', 00H, '&', 00H, '&', 00H, ' '
	DB	00H, 'v', 00H, '_', 00H, 'i', 00H, 'd', 00H, 'x', 00H, ' ', 00H
	DB	'<', 00H, ' ', 00H, 'v', 00H, 'a', 00H, 'l', 00H, 'u', 00H, 'e'
	DB	00H, 's', 00H, '_', 00H, 'c', 00H, 'o', 00H, 'u', 00H, 'n', 00H
	DB	't', 00H, 00H, 00H				; `string'
CONST	ENDS
;	COMDAT ?__LINE__Var@?0??PlotEx@ImGui@@YAHW4ImGuiPlotType@@PEBDP6AMPEAXH@Z2HH1MMUImVec2@@@Z@4JA
_DATA	SEGMENT
?__LINE__Var@?0??PlotEx@ImGui@@YAHW4ImGuiPlotType@@PEBDP6AMPEAXH@Z2HH1MMUImVec2@@@Z@4JA DD 018f6H ; `ImGui::PlotEx'::`1'::__LINE__Var
_DATA	ENDS
;	COMDAT ??_C@_1BBK@DDPDAAPA@?$AA?$CI?$AAw?$AAi?$AAn?$AAd?$AAo?$AAw?$AA?9?$AA?$DO?$AAF?$AAl?$AAa?$AAg?$AAs?$AA?5@
CONST	SEGMENT
??_C@_1BBK@DDPDAAPA@?$AA?$CI?$AAw?$AAi?$AAn?$AAd?$AAo?$AAw?$AA?9?$AA?$DO?$AAF?$AAl?$AAa?$AAg?$AAs?$AA?5@ DB '('
	DB	00H, 'w', 00H, 'i', 00H, 'n', 00H, 'd', 00H, 'o', 00H, 'w', 00H
	DB	'-', 00H, '>', 00H, 'F', 00H, 'l', 00H, 'a', 00H, 'g', 00H, 's'
	DB	00H, ' ', 00H, '&', 00H, ' ', 00H, 'I', 00H, 'm', 00H, 'G', 00H
	DB	'u', 00H, 'i', 00H, 'W', 00H, 'i', 00H, 'n', 00H, 'd', 00H, 'o'
	DB	00H, 'w', 00H, 'F', 00H, 'l', 00H, 'a', 00H, 'g', 00H, 's', 00H
	DB	'_', 00H, 'C', 00H, 'h', 00H, 'i', 00H, 'l', 00H, 'd', 00H, 'W'
	DB	00H, 'i', 00H, 'n', 00H, 'd', 00H, 'o', 00H, 'w', 00H, ')', 00H
	DB	' ', 00H, '&', 00H, '&', 00H, ' ', 00H, '"', 00H, 'M', 00H, 'i'
	DB	00H, 's', 00H, 'm', 00H, 'a', 00H, 't', 00H, 'c', 00H, 'h', 00H
	DB	'e', 00H, 'd', 00H, ' ', 00H, 'B', 00H, 'e', 00H, 'g', 00H, 'i'
	DB	00H, 'n', 00H, 'L', 00H, 'i', 00H, 's', 00H, 't', 00H, 'B', 00H
	DB	'o', 00H, 'x', 00H, '/', 00H, 'E', 00H, 'n', 00H, 'd', 00H, 'L'
	DB	00H, 'i', 00H, 's', 00H, 't', 00H, 'B', 00H, 'o', 00H, 'x', 00H
	DB	' ', 00H, 'c', 00H, 'a', 00H, 'l', 00H, 'l', 00H, 's', 00H, '.'
	DB	00H, ' ', 00H, 'D', 00H, 'i', 00H, 'd', 00H, ' ', 00H, 'y', 00H
	DB	'o', 00H, 'u', 00H, ' ', 00H, 't', 00H, 'e', 00H, 's', 00H, 't'
	DB	00H, ' ', 00H, 't', 00H, 'h', 00H, 'e', 00H, ' ', 00H, 'r', 00H
	DB	'e', 00H, 't', 00H, 'u', 00H, 'r', 00H, 'n', 00H, ' ', 00H, 'v'
	DB	00H, 'a', 00H, 'l', 00H, 'u', 00H, 'e', 00H, ' ', 00H, 'o', 00H
	DB	'f', 00H, ' ', 00H, 'B', 00H, 'e', 00H, 'g', 00H, 'i', 00H, 'n'
	DB	00H, 'L', 00H, 'i', 00H, 's', 00H, 't', 00H, 'B', 00H, 'o', 00H
	DB	'x', 00H, '?', 00H, '"', 00H, 00H, 00H	; `string'
CONST	ENDS
;	COMDAT ??_C@_0FJ@FLEOOEOG@Mismatched?5BeginListBox?1EndList@
CONST	SEGMENT
??_C@_0FJ@FLEOOEOG@Mismatched?5BeginListBox?1EndList@ DB 'Mismatched Begi'
	DB	'nListBox/EndListBox calls. Did you test the return value of B'
	DB	'eginListBox?', 00H				; `string'
CONST	ENDS
;	COMDAT ?__LINE__Var@?0??EndListBox@ImGui@@YAXXZ@4JA
_DATA	SEGMENT
?__LINE__Var@?0??EndListBox@ImGui@@YAXXZ@4JA DD 018abH	; `ImGui::EndListBox'::`1'::__LINE__Var
_DATA	ENDS
;	COMDAT ??_C@_06KIIKKNMI@?$CDCLOSE@
CONST	SEGMENT
??_C@_06KIIKKNMI@?$CDCLOSE@ DB '#CLOSE', 00H		; `string'
CONST	ENDS
;	COMDAT ??_C@_1DC@KOOPJPAL@?$AAw?$AAi?$AAn?$AAd?$AAo?$AAw?$AA?9?$AA?$DO?$AAI?$AAD?$AAS?$AAt?$AAa?$AAc?$AAk@
CONST	SEGMENT
??_C@_1DC@KOOPJPAL@?$AAw?$AAi?$AAn?$AAd?$AAo?$AAw?$AA?9?$AA?$DO?$AAI?$AAD?$AAS?$AAt?$AAa?$AAc?$AAk@ DB 'w'
	DB	00H, 'i', 00H, 'n', 00H, 'd', 00H, 'o', 00H, 'w', 00H, '-', 00H
	DB	'>', 00H, 'I', 00H, 'D', 00H, 'S', 00H, 't', 00H, 'a', 00H, 'c'
	DB	00H, 'k', 00H, '.', 00H, 'S', 00H, 'i', 00H, 'z', 00H, 'e', 00H
	DB	' ', 00H, '>', 00H, ' ', 00H, '1', 00H, 00H, 00H ; `string'
CONST	ENDS
;	COMDAT ?__LINE__Var@?0??TreePop@ImGui@@YAXXZ@4JA
_DATA	SEGMENT
?__LINE__Var@?0??TreePop@ImGui@@YAXXZ@4JA DD 01765H	; `ImGui::TreePop'::`1'::__LINE__Var
_DATA	ENDS
;	COMDAT ??_C@_09GHACPMKF@?$CDTreePush@
CONST	SEGMENT
??_C@_09GHACPMKF@?$CDTreePush@ DB '#TreePush', 00H	; `string'
CONST	ENDS
;	COMDAT ??_C@_01PPODPGHN@?$DO@
CONST	SEGMENT
??_C@_01PPODPGHN@?$DO@ DB '>', 00H			; `string'
CONST	ENDS
;	COMDAT ??_C@_03OIJOKPOL@?$CD?$CD?$CD@
CONST	SEGMENT
??_C@_03OIJOKPOL@?$CD?$CD?$CD@ DB '###', 00H		; `string'
CONST	ENDS
;	COMDAT ??_C@_1GM@OMMPBCGC@?$AAb?$AAu?$AAt?$AAt?$AAo?$AAn?$AA_?$AAf?$AAl?$AAa?$AAg?$AAs?$AA?5?$AA?$CG?$AA?5@
CONST	SEGMENT
??_C@_1GM@OMMPBCGC@?$AAb?$AAu?$AAt?$AAt?$AAo?$AAn?$AA_?$AAf?$AAl?$AAa?$AAg?$AAs?$AA?5?$AA?$CG?$AA?5@ DB 'b'
	DB	00H, 'u', 00H, 't', 00H, 't', 00H, 'o', 00H, 'n', 00H, '_', 00H
	DB	'f', 00H, 'l', 00H, 'a', 00H, 'g', 00H, 's', 00H, ' ', 00H, '&'
	DB	00H, ' ', 00H, 'I', 00H, 'm', 00H, 'G', 00H, 'u', 00H, 'i', 00H
	DB	'B', 00H, 'u', 00H, 't', 00H, 't', 00H, 'o', 00H, 'n', 00H, 'F'
	DB	00H, 'l', 00H, 'a', 00H, 'g', 00H, 's', 00H, '_', 00H, 'P', 00H
	DB	'r', 00H, 'e', 00H, 's', 00H, 's', 00H, 'e', 00H, 'd', 00H, 'O'
	DB	00H, 'n', 00H, 'D', 00H, 'r', 00H, 'a', 00H, 'g', 00H, 'D', 00H
	DB	'r', 00H, 'o', 00H, 'p', 00H, 'H', 00H, 'o', 00H, 'l', 00H, 'd'
	DB	00H, 00H, 00H				; `string'
CONST	ENDS
;	COMDAT ?__LINE__Var@?0??TreeNodeBehavior@ImGui@@YA_NIHPEBD0@Z@4JA
_DATA	SEGMENT
?__LINE__Var@?0??TreeNodeBehavior@ImGui@@YA_NIHPEBD0@Z@4JA DD 01691H ; `ImGui::TreeNodeBehavior'::`1'::__LINE__Var
_DATA	ENDS
;	COMDAT ??_C@_09KEDLMDJL@Alpha?5Bar@
CONST	SEGMENT
??_C@_09KEDLMDJL@Alpha?5Bar@ DB 'Alpha Bar', 00H	; `string'
CONST	ENDS
;	COMDAT ??_C@_0BE@ENPGBMIC@?$CD?$CDpreviewing_picker@
CONST	SEGMENT
??_C@_0BE@ENPGBMIC@?$CD?$CDpreviewing_picker@ DB '##previewing_picker', 00H ; `string'
CONST	ENDS
;	COMDAT ??_C@_0N@KFBFGFJL@?$CD?$CDselectable@
CONST	SEGMENT
??_C@_0N@KFBFGFJL@?$CD?$CDselectable@ DB '##selectable', 00H ; `string'
CONST	ENDS
;	COMDAT ??_C@_0O@EJHNAHBL@?$CI?$CFd?0?$CFd?0?$CFd?0?$CFd?$CJ@
CONST	SEGMENT
??_C@_0O@EJHNAHBL@?$CI?$CFd?0?$CFd?0?$CFd?0?$CFd?$CJ@ DB '(%d,%d,%d,%d)', 00H ; `string'
CONST	ENDS
;	COMDAT ??_C@_0BN@GKCJMPCH@?$CI?$CF?43ff?0?5?$CF?43ff?0?5?$CF?43ff?0?5?$CF?43ff?$CJ@
CONST	SEGMENT
??_C@_0BN@GKCJMPCH@?$CI?$CF?43ff?0?5?$CF?43ff?0?5?$CF?43ff?0?5?$CF?43ff?$CJ@ DB '('
	DB	'%.3ff, %.3ff, %.3ff, %.3ff)', 00H		; `string'
CONST	ENDS
;	COMDAT ??_C@_04OPMHGHMB@Copy@
CONST	SEGMENT
??_C@_04OPMHGHMB@Copy@ DB 'Copy', 00H			; `string'
CONST	ENDS
;	COMDAT ??_C@_09NMCCFHEI@Copy?5as?4?4@
CONST	SEGMENT
??_C@_09NMCCFHEI@Copy?5as?4?4@ DB 'Copy as..', 00H	; `string'
CONST	ENDS
;	COMDAT ??_C@_0L@MDNPBJBM@0?400?4?41?400@
CONST	SEGMENT
??_C@_0L@MDNPBJBM@0?400?4?41?400@ DB '0.00..1.00', 00H	; `string'
CONST	ENDS
;	COMDAT ??_C@_06FDBEKFBH@0?4?4255@
CONST	SEGMENT
??_C@_06FDBEKFBH@0?4?4255@ DB '0..255', 00H		; `string'
CONST	ENDS
;	COMDAT ??_C@_03CJOBKKAE@Hex@
CONST	SEGMENT
??_C@_03CJOBKKAE@Hex@ DB 'Hex', 00H			; `string'
CONST	ENDS
;	COMDAT ??_C@_03CAADKAK@HSV@
CONST	SEGMENT
??_C@_03CAADKAK@HSV@ DB 'HSV', 00H			; `string'
CONST	ENDS
;	COMDAT ??_C@_03ICFFBAI@RGB@
CONST	SEGMENT
??_C@_03ICFFBAI@RGB@ DB 'RGB', 00H			; `string'
CONST	ENDS
;	COMDAT ??_C@_0CD@EEDEAEPG@H?3?5?$CF?43f?0?5S?3?5?$CF?43f?0?5V?3?5?$CF?43f?0?5A?3?5?$CF@
CONST	SEGMENT
??_C@_0CD@EEDEAEPG@H?3?5?$CF?43f?0?5S?3?5?$CF?43f?0?5V?3?5?$CF?43f?0?5A?3?5?$CF@ DB 'H'
	DB	': %.3f, S: %.3f, V: %.3f, A: %.3f', 00H	; `string'
CONST	ENDS
;	COMDAT ??_C@_0BK@HKNBICJE@H?3?5?$CF?43f?0?5S?3?5?$CF?43f?0?5V?3?5?$CF?43f@
CONST	SEGMENT
??_C@_0BK@HKNBICJE@H?3?5?$CF?43f?0?5S?3?5?$CF?43f?0?5V?3?5?$CF?43f@ DB 'H'
	DB	': %.3f, S: %.3f, V: %.3f', 00H		; `string'
CONST	ENDS
;	COMDAT ??_C@_0EC@EBPMGCGK@?$CD?$CF02X?$CF02X?$CF02X?$CF02X?6R?3?$CFd?0?5G?3?$CFd?0?5B@
CONST	SEGMENT
??_C@_0EC@EBPMGCGK@?$CD?$CF02X?$CF02X?$CF02X?$CF02X?6R?3?$CFd?0?5G?3?$CFd?0?5B@ DB '#'
	DB	'%02X%02X%02X%02X', 0aH, 'R:%d, G:%d, B:%d, A:%d', 0aH, '(%.3f'
	DB	', %.3f, %.3f, %.3f)', 00H			; `string'
CONST	ENDS
;	COMDAT ??_C@_0DF@FAPNKOHO@?$CD?$CF02X?$CF02X?$CF02X?6R?3?5?$CFd?0?5G?3?5?$CFd?0?5B?3?5@
CONST	SEGMENT
??_C@_0DF@FAPNKOHO@?$CD?$CF02X?$CF02X?$CF02X?6R?3?5?$CFd?0?5G?3?5?$CFd?0?5B?3?5@ DB '#'
	DB	'%02X%02X%02X', 0aH, 'R: %d, G: %d, B: %d', 0aH, '(%.3f, %.3f,'
	DB	' %.3f)', 00H				; `string'
CONST	ENDS
;	COMDAT ??_C@_09JCCDBEFL@?$CD?$CDpreview@
CONST	SEGMENT
??_C@_09JCCDBEFL@?$CD?$CDpreview@ DB '##preview', 00H	; `string'
CONST	ENDS
;	COMDAT ??_C@_1HE@ECJOEGME@?$AAI?$AAm?$AAI?$AAs?$AAP?$AAo?$AAw?$AAe?$AAr?$AAO?$AAf?$AAT?$AAw?$AAo?$AA?$CI@
CONST	SEGMENT
??_C@_1HE@ECJOEGME@?$AAI?$AAm?$AAI?$AAs?$AAP?$AAo?$AAw?$AAe?$AAr?$AAO?$AAf?$AAT?$AAw?$AAo?$AA?$CI@ DB 'I'
	DB	00H, 'm', 00H, 'I', 00H, 's', 00H, 'P', 00H, 'o', 00H, 'w', 00H
	DB	'e', 00H, 'r', 00H, 'O', 00H, 'f', 00H, 'T', 00H, 'w', 00H, 'o'
	DB	00H, '(', 00H, 'f', 00H, 'l', 00H, 'a', 00H, 'g', 00H, 's', 00H
	DB	' ', 00H, '&', 00H, ' ', 00H, 'I', 00H, 'm', 00H, 'G', 00H, 'u'
	DB	00H, 'i', 00H, 'C', 00H, 'o', 00H, 'l', 00H, 'o', 00H, 'r', 00H
	DB	'E', 00H, 'd', 00H, 'i', 00H, 't', 00H, 'F', 00H, 'l', 00H, 'a'
	DB	00H, 'g', 00H, 's', 00H, '_', 00H, '_', 00H, 'D', 00H, 'a', 00H
	DB	't', 00H, 'a', 00H, 'T', 00H, 'y', 00H, 'p', 00H, 'e', 00H, 'M'
	DB	00H, 'a', 00H, 's', 00H, 'k', 00H, ')', 00H, 00H, 00H ; `string'
CONST	ENDS
;	COMDAT ?__LINE__Var@?0??SetColorEditOptions@ImGui@@YAXH@Z@4JA
_DATA	SEGMENT
?__LINE__Var@?0??SetColorEditOptions@ImGui@@YAXH@Z@4JA DD 01571H ; `ImGui::SetColorEditOptions'::`1'::__LINE__Var
_DATA	ENDS
;	COMDAT ??_C@_05PDOBBJNA@Color@
CONST	SEGMENT
??_C@_05PDOBBJNA@Color@ DB 'Color', 00H			; `string'
CONST	ENDS
;	COMDAT ??_C@_05BOAMFJMJ@?$CD?$CDhex@
CONST	SEGMENT
??_C@_05BOAMFJMJ@?$CD?$CDhex@ DB '##hex', 00H		; `string'
CONST	ENDS
;	COMDAT ??_C@_05JICEKLIF@?$CD?$CDhsv@
CONST	SEGMENT
??_C@_05JICEKLIF@?$CD?$CDhsv@ DB '##hsv', 00H		; `string'
CONST	ENDS
;	COMDAT ??_C@_05JCABMAIH@?$CD?$CDrgb@
CONST	SEGMENT
??_C@_05JCABMAIH@?$CD?$CDrgb@ DB '##rgb', 00H		; `string'
CONST	ENDS
;	COMDAT ??_C@_0L@IGJKOBOK@?$CD?$CDoriginal@
CONST	SEGMENT
??_C@_0L@IGJKOBOK@?$CD?$CDoriginal@ DB '##original', 00H ; `string'
CONST	ENDS
;	COMDAT ??_C@_08DCPBJHAO@Original@
CONST	SEGMENT
??_C@_08DCPBJHAO@Original@ DB 'Original', 00H		; `string'
CONST	ENDS
;	COMDAT ??_C@_09CDENILGE@?$CD?$CDcurrent@
CONST	SEGMENT
??_C@_09CDENILGE@?$CD?$CDcurrent@ DB '##current', 00H	; `string'
CONST	ENDS
;	COMDAT ??_C@_07EDIFFIJI@Current@
CONST	SEGMENT
??_C@_07EDIFFIJI@Current@ DB 'Current', 00H		; `string'
CONST	ENDS
;	COMDAT ??_C@_05IAEKHIAN@alpha@
CONST	SEGMENT
??_C@_05IAEKHIAN@alpha@ DB 'alpha', 00H			; `string'
CONST	ENDS
;	COMDAT ??_C@_03GKJJMKFG@hue@
CONST	SEGMENT
??_C@_03GKJJMKFG@hue@ DB 'hue', 00H			; `string'
CONST	ENDS
;	COMDAT ??_C@_02CPGMCOJE@sv@
CONST	SEGMENT
??_C@_02CPGMCOJE@sv@ DB 'sv', 00H			; `string'
CONST	ENDS
;	COMDAT ??_C@_03PPLPHHG@hsv@
CONST	SEGMENT
??_C@_03PPLPHHG@hsv@ DB 'hsv', 00H			; `string'
CONST	ENDS
;	COMDAT ??_C@_1HA@IEGAFBEB@?$AAI?$AAm?$AAI?$AAs?$AAP?$AAo?$AAw?$AAe?$AAr?$AAO?$AAf?$AAT?$AAw?$AAo?$AA?$CI@
CONST	SEGMENT
??_C@_1HA@IEGAFBEB@?$AAI?$AAm?$AAI?$AAs?$AAP?$AAo?$AAw?$AAe?$AAr?$AAO?$AAf?$AAT?$AAw?$AAo?$AA?$CI@ DB 'I'
	DB	00H, 'm', 00H, 'I', 00H, 's', 00H, 'P', 00H, 'o', 00H, 'w', 00H
	DB	'e', 00H, 'r', 00H, 'O', 00H, 'f', 00H, 'T', 00H, 'w', 00H, 'o'
	DB	00H, '(', 00H, 'f', 00H, 'l', 00H, 'a', 00H, 'g', 00H, 's', 00H
	DB	' ', 00H, '&', 00H, ' ', 00H, 'I', 00H, 'm', 00H, 'G', 00H, 'u'
	DB	00H, 'i', 00H, 'C', 00H, 'o', 00H, 'l', 00H, 'o', 00H, 'r', 00H
	DB	'E', 00H, 'd', 00H, 'i', 00H, 't', 00H, 'F', 00H, 'l', 00H, 'a'
	DB	00H, 'g', 00H, 's', 00H, '_', 00H, '_', 00H, 'P', 00H, 'i', 00H
	DB	'c', 00H, 'k', 00H, 'e', 00H, 'r', 00H, 'M', 00H, 'a', 00H, 's'
	DB	00H, 'k', 00H, ')', 00H, 00H, 00H		; `string'
CONST	ENDS
;	COMDAT ?__LINE__Var@?0??ColorPicker4@ImGui@@YA_NPEBDQEAMHPEBM@Z@4JA
_DATA	SEGMENT
?__LINE__Var@?0??ColorPicker4@ImGui@@YA_NPEBDQEAMHPEBM@Z@4JA DD 013a2H ; `ImGui::ColorPicker4'::`1'::__LINE__Var
_DATA	ENDS
;	COMDAT ??_C@_06LAOCEMMP@_COL4F@
CONST	SEGMENT
??_C@_06LAOCEMMP@_COL4F@ DB '_COL4F', 00H		; `string'
CONST	ENDS
;	COMDAT ??_C@_06LFKNFKEK@_COL3F@
CONST	SEGMENT
??_C@_06LFKNFKEK@_COL3F@ DB '_COL3F', 00H		; `string'
CONST	ENDS
;	COMDAT ??_C@_08HHEANBBL@?$CD?$CDpicker@
CONST	SEGMENT
??_C@_08HHEANBBL@?$CD?$CDpicker@ DB '##picker', 00H	; `string'
CONST	ENDS
;	COMDAT ??_C@_06MAKAMBBI@picker@
CONST	SEGMENT
??_C@_06MAKAMBBI@picker@ DB 'picker', 00H		; `string'
CONST	ENDS
;	COMDAT ??_C@_0O@GLNBIEEK@?$CD?$CDColorButton@
CONST	SEGMENT
??_C@_0O@GLNBIEEK@?$CD?$CDColorButton@ DB '##ColorButton', 00H ; `string'
CONST	ENDS
;	COMDAT ??_C@_0N@KODLFHPJ@?$CF02X?$CF02X?$CF02X@
CONST	SEGMENT
??_C@_0N@KODLFHPJ@?$CF02X?$CF02X?$CF02X@ DB '%02X%02X%02X', 00H ; `string'
CONST	ENDS
;	COMDAT ??_C@_0BB@DDMGLOLI@?$CF02X?$CF02X?$CF02X?$CF02X@
CONST	SEGMENT
??_C@_0BB@DDMGLOLI@?$CF02X?$CF02X?$CF02X?$CF02X@ DB '%02X%02X%02X%02X', 00H ; `string'
CONST	ENDS
;	COMDAT ??_C@_06MNCEJPDI@?$CD?$CDText@
CONST	SEGMENT
??_C@_06MNCEJPDI@?$CD?$CDText@ DB '##Text', 00H		; `string'
CONST	ENDS
;	COMDAT ??_C@_0O@MBPBDFLP@?$CD?$CF02X?$CF02X?$CF02X@
CONST	SEGMENT
??_C@_0O@MBPBDFLP@?$CD?$CF02X?$CF02X?$CF02X@ DB '#%02X%02X%02X', 00H ; `string'
CONST	ENDS
;	COMDAT ??_C@_0BC@CKPCOFBK@?$CD?$CF02X?$CF02X?$CF02X?$CF02X@
CONST	SEGMENT
??_C@_0BC@CKPCOFBK@?$CD?$CF02X?$CF02X?$CF02X?$CF02X@ DB '#%02X%02X%02X%02'
	DB	'X', 00H					; `string'
CONST	ENDS
;	COMDAT ??_C@_07JKKCBBMM@context@
CONST	SEGMENT
??_C@_07JKKCBBMM@context@ DB 'context', 00H		; `string'
CONST	ENDS
;	COMDAT ??_C@_05BNGMMMAL@M?3000@
CONST	SEGMENT
??_C@_05BNGMMMAL@M?3000@ DB 'M:000', 00H		; `string'
CONST	ENDS
;	COMDAT ??_C@_07FFNLLALM@M?30?4000@
CONST	SEGMENT
??_C@_07FFNLLALM@M?30?4000@ DB 'M:0.000', 00H		; `string'
CONST	ENDS
;	COMDAT ??_C@_1GO@CDHIBPHM@?$AAI?$AAm?$AAI?$AAs?$AAP?$AAo?$AAw?$AAe?$AAr?$AAO?$AAf?$AAT?$AAw?$AAo?$AA?$CI@
CONST	SEGMENT
??_C@_1GO@CDHIBPHM@?$AAI?$AAm?$AAI?$AAs?$AAP?$AAo?$AAw?$AAe?$AAr?$AAO?$AAf?$AAT?$AAw?$AAo?$AA?$CI@ DB 'I'
	DB	00H, 'm', 00H, 'I', 00H, 's', 00H, 'P', 00H, 'o', 00H, 'w', 00H
	DB	'e', 00H, 'r', 00H, 'O', 00H, 'f', 00H, 'T', 00H, 'w', 00H, 'o'
	DB	00H, '(', 00H, 'f', 00H, 'l', 00H, 'a', 00H, 'g', 00H, 's', 00H
	DB	' ', 00H, '&', 00H, ' ', 00H, 'I', 00H, 'm', 00H, 'G', 00H, 'u'
	DB	00H, 'i', 00H, 'C', 00H, 'o', 00H, 'l', 00H, 'o', 00H, 'r', 00H
	DB	'E', 00H, 'd', 00H, 'i', 00H, 't', 00H, 'F', 00H, 'l', 00H, 'a'
	DB	00H, 'g', 00H, 's', 00H, '_', 00H, '_', 00H, 'I', 00H, 'n', 00H
	DB	'p', 00H, 'u', 00H, 't', 00H, 'M', 00H, 'a', 00H, 's', 00H, 'k'
	DB	00H, ')', 00H, 00H, 00H			; `string'
CONST	ENDS
;	COMDAT ??_C@_1HC@IFIJNDDD@?$AAI?$AAm?$AAI?$AAs?$AAP?$AAo?$AAw?$AAe?$AAr?$AAO?$AAf?$AAT?$AAw?$AAo?$AA?$CI@
CONST	SEGMENT
??_C@_1HC@IFIJNDDD@?$AAI?$AAm?$AAI?$AAs?$AAP?$AAo?$AAw?$AAe?$AAr?$AAO?$AAf?$AAT?$AAw?$AAo?$AA?$CI@ DB 'I'
	DB	00H, 'm', 00H, 'I', 00H, 's', 00H, 'P', 00H, 'o', 00H, 'w', 00H
	DB	'e', 00H, 'r', 00H, 'O', 00H, 'f', 00H, 'T', 00H, 'w', 00H, 'o'
	DB	00H, '(', 00H, 'f', 00H, 'l', 00H, 'a', 00H, 'g', 00H, 's', 00H
	DB	' ', 00H, '&', 00H, ' ', 00H, 'I', 00H, 'm', 00H, 'G', 00H, 'u'
	DB	00H, 'i', 00H, 'C', 00H, 'o', 00H, 'l', 00H, 'o', 00H, 'r', 00H
	DB	'E', 00H, 'd', 00H, 'i', 00H, 't', 00H, 'F', 00H, 'l', 00H, 'a'
	DB	00H, 'g', 00H, 's', 00H, '_', 00H, '_', 00H, 'D', 00H, 'i', 00H
	DB	's', 00H, 'p', 00H, 'l', 00H, 'a', 00H, 'y', 00H, 'M', 00H, 'a'
	DB	00H, 's', 00H, 'k', 00H, ')', 00H, 00H, 00H	; `string'
CONST	ENDS
;	COMDAT ?__LINE__Var@?0??ColorEdit4@ImGui@@YA_NPEBDQEAMH@Z@4JA
_DATA	SEGMENT
?__LINE__Var@?0??ColorEdit4@ImGui@@YA_NPEBDQEAMH@Z@4JA DD 0129bH ; `ImGui::ColorEdit4'::`1'::__LINE__Var
_DATA	ENDS
;	COMDAT ??_C@_1EE@MOOHJKEO@?$AAa?$AAp?$AAp?$AAl?$AAy?$AA_?$AAn?$AAe?$AAw?$AA_?$AAt?$AAe?$AAx?$AAt?$AA_@
CONST	SEGMENT
??_C@_1EE@MOOHJKEO@?$AAa?$AAp?$AAp?$AAl?$AAy?$AA_?$AAn?$AAe?$AAw?$AA_?$AAt?$AAe?$AAx?$AAt?$AA_@ DB 'a'
	DB	00H, 'p', 00H, 'p', 00H, 'l', 00H, 'y', 00H, '_', 00H, 'n', 00H
	DB	'e', 00H, 'w', 00H, '_', 00H, 't', 00H, 'e', 00H, 'x', 00H, 't'
	DB	00H, '_', 00H, 'l', 00H, 'e', 00H, 'n', 00H, 'g', 00H, 't', 00H
	DB	'h', 00H, ' ', 00H, '<', 00H, '=', 00H, ' ', 00H, 'b', 00H, 'u'
	DB	00H, 'f', 00H, '_', 00H, 's', 00H, 'i', 00H, 'z', 00H, 'e', 00H
	DB	00H, 00H					; `string'
CONST	ENDS
;	COMDAT ??_C@_1DG@CHDFECEK@?$AAa?$AAp?$AAp?$AAl?$AAy?$AA_?$AAn?$AAe?$AAw?$AA_?$AAt?$AAe?$AAx?$AAt?$AA_@
CONST	SEGMENT
??_C@_1DG@CHDFECEK@?$AAa?$AAp?$AAp?$AAl?$AAy?$AA_?$AAn?$AAe?$AAw?$AA_?$AAt?$AAe?$AAx?$AAt?$AA_@ DB 'a'
	DB	00H, 'p', 00H, 'p', 00H, 'l', 00H, 'y', 00H, '_', 00H, 'n', 00H
	DB	'e', 00H, 'w', 00H, '_', 00H, 't', 00H, 'e', 00H, 'x', 00H, 't'
	DB	00H, '_', 00H, 'l', 00H, 'e', 00H, 'n', 00H, 'g', 00H, 't', 00H
	DB	'h', 00H, ' ', 00H, '>', 00H, '=', 00H, ' ', 00H, '0', 00H, 00H
	DB	00H						; `string'
CONST	ENDS
;	COMDAT ??_C@_1HG@EHLBBEIB@?$AAc?$AAa?$AAl?$AAl?$AAb?$AAa?$AAc?$AAk?$AA_?$AAd?$AAa?$AAt?$AAa?$AA?4?$AAB@
CONST	SEGMENT
??_C@_1HG@EHLBBEIB@?$AAc?$AAa?$AAl?$AAl?$AAb?$AAa?$AAc?$AAk?$AA_?$AAd?$AAa?$AAt?$AAa?$AA?4?$AAB@ DB 'c'
	DB	00H, 'a', 00H, 'l', 00H, 'l', 00H, 'b', 00H, 'a', 00H, 'c', 00H
	DB	'k', 00H, '_', 00H, 'd', 00H, 'a', 00H, 't', 00H, 'a', 00H, '.'
	DB	00H, 'B', 00H, 'u', 00H, 'f', 00H, 'T', 00H, 'e', 00H, 'x', 00H
	DB	't', 00H, 'L', 00H, 'e', 00H, 'n', 00H, ' ', 00H, '=', 00H, '='
	DB	00H, ' ', 00H, '(', 00H, 'i', 00H, 'n', 00H, 't', 00H, ')', 00H
	DB	's', 00H, 't', 00H, 'r', 00H, 'l', 00H, 'e', 00H, 'n', 00H, '('
	DB	00H, 'c', 00H, 'a', 00H, 'l', 00H, 'l', 00H, 'b', 00H, 'a', 00H
	DB	'c', 00H, 'k', 00H, '_', 00H, 'd', 00H, 'a', 00H, 't', 00H, 'a'
	DB	00H, '.', 00H, 'B', 00H, 'u', 00H, 'f', 00H, ')', 00H, 00H, 00H ; `string'
CONST	ENDS
;	COMDAT ??_C@_1DK@HOPDKFNI@?$AAc?$AAa?$AAl?$AAl?$AAb?$AAa?$AAc?$AAk?$AA_?$AAd?$AAa?$AAt?$AAa?$AA?4?$AAF@
CONST	SEGMENT
??_C@_1DK@HOPDKFNI@?$AAc?$AAa?$AAl?$AAl?$AAb?$AAa?$AAc?$AAk?$AA_?$AAd?$AAa?$AAt?$AAa?$AA?4?$AAF@ DB 'c'
	DB	00H, 'a', 00H, 'l', 00H, 'l', 00H, 'b', 00H, 'a', 00H, 'c', 00H
	DB	'k', 00H, '_', 00H, 'd', 00H, 'a', 00H, 't', 00H, 'a', 00H, '.'
	DB	00H, 'F', 00H, 'l', 00H, 'a', 00H, 'g', 00H, 's', 00H, ' ', 00H
	DB	'=', 00H, '=', 00H, ' ', 00H, 'f', 00H, 'l', 00H, 'a', 00H, 'g'
	DB	00H, 's', 00H, 00H, 00H			; `string'
CONST	ENDS
;	COMDAT ??_C@_1FK@GDPCIOA@?$AAc?$AAa?$AAl?$AAl?$AAb?$AAa?$AAc?$AAk?$AA_?$AAd?$AAa?$AAt?$AAa?$AA?4?$AAB@
CONST	SEGMENT
??_C@_1FK@GDPCIOA@?$AAc?$AAa?$AAl?$AAl?$AAb?$AAa?$AAc?$AAk?$AA_?$AAd?$AAa?$AAt?$AAa?$AA?4?$AAB@ DB 'c'
	DB	00H, 'a', 00H, 'l', 00H, 'l', 00H, 'b', 00H, 'a', 00H, 'c', 00H
	DB	'k', 00H, '_', 00H, 'd', 00H, 'a', 00H, 't', 00H, 'a', 00H, '.'
	DB	00H, 'B', 00H, 'u', 00H, 'f', 00H, 'S', 00H, 'i', 00H, 'z', 00H
	DB	'e', 00H, ' ', 00H, '=', 00H, '=', 00H, ' ', 00H, 's', 00H, 't'
	DB	00H, 'a', 00H, 't', 00H, 'e', 00H, '-', 00H, '>', 00H, 'B', 00H
	DB	'u', 00H, 'f', 00H, 'C', 00H, 'a', 00H, 'p', 00H, 'a', 00H, 'c'
	DB	00H, 'i', 00H, 't', 00H, 'y', 00H, 'A', 00H, 00H, 00H ; `string'
CONST	ENDS
;	COMDAT ??_C@_1EO@GEAEFBFI@?$AAc?$AAa?$AAl?$AAl?$AAb?$AAa?$AAc?$AAk?$AA_?$AAd?$AAa?$AAt?$AAa?$AA?4?$AAB@
CONST	SEGMENT
??_C@_1EO@GEAEFBFI@?$AAc?$AAa?$AAl?$AAl?$AAb?$AAa?$AAc?$AAk?$AA_?$AAd?$AAa?$AAt?$AAa?$AA?4?$AAB@ DB 'c'
	DB	00H, 'a', 00H, 'l', 00H, 'l', 00H, 'b', 00H, 'a', 00H, 'c', 00H
	DB	'k', 00H, '_', 00H, 'd', 00H, 'a', 00H, 't', 00H, 'a', 00H, '.'
	DB	00H, 'B', 00H, 'u', 00H, 'f', 00H, ' ', 00H, '=', 00H, '=', 00H
	DB	' ', 00H, 's', 00H, 't', 00H, 'a', 00H, 't', 00H, 'e', 00H, '-'
	DB	00H, '>', 00H, 'T', 00H, 'e', 00H, 'x', 00H, 't', 00H, 'A', 00H
	DB	'.', 00H, 'D', 00H, 'a', 00H, 't', 00H, 'a', 00H, 00H, 00H ; `string'
CONST	ENDS
;	COMDAT ??_C@_1OC@MAFKNLH@?$AAi?$AAo?$AA?4?$AAK?$AAe?$AAy?$AAM?$AAo?$AAd?$AAs?$AA?5?$AA?$DN?$AA?$DN?$AA?5?$AAG@
CONST	SEGMENT
??_C@_1OC@MAFKNLH@?$AAi?$AAo?$AA?4?$AAK?$AAe?$AAy?$AAM?$AAo?$AAd?$AAs?$AA?5?$AA?$DN?$AA?$DN?$AA?5?$AAG@ DB 'i'
	DB	00H, 'o', 00H, '.', 00H, 'K', 00H, 'e', 00H, 'y', 00H, 'M', 00H
	DB	'o', 00H, 'd', 00H, 's', 00H, ' ', 00H, '=', 00H, '=', 00H, ' '
	DB	00H, 'G', 00H, 'e', 00H, 't', 00H, 'M', 00H, 'e', 00H, 'r', 00H
	DB	'g', 00H, 'e', 00H, 'd', 00H, 'K', 00H, 'e', 00H, 'y', 00H, 'M'
	DB	00H, 'o', 00H, 'd', 00H, 'F', 00H, 'l', 00H, 'a', 00H, 'g', 00H
	DB	's', 00H, '(', 00H, ')', 00H, ' ', 00H, '&', 00H, '&', 00H, ' '
	DB	00H, '"', 00H, 'M', 00H, 'i', 00H, 's', 00H, 'm', 00H, 'a', 00H
	DB	't', 00H, 'c', 00H, 'h', 00H, 'i', 00H, 'n', 00H, 'g', 00H, ' '
	DB	00H, 'i', 00H, 'o', 00H, '.', 00H, 'K', 00H, 'e', 00H, 'y', 00H
	DB	'C', 00H, 't', 00H, 'r', 00H, 'l', 00H, '/', 00H, 'i', 00H, 'o'
	DB	00H, '.', 00H, 'K', 00H, 'e', 00H, 'y', 00H, 'S', 00H, 'h', 00H
	DB	'i', 00H, 'f', 00H, 't', 00H, '/', 00H, 'i', 00H, 'o', 00H, '.'
	DB	00H, 'K', 00H, 'e', 00H, 'y', 00H, 'A', 00H, 'l', 00H, 't', 00H
	DB	'/', 00H, 'i', 00H, 'o', 00H, '.', 00H, 'K', 00H, 'e', 00H, 'y'
	DB	00H, 'S', 00H, 'u', 00H, 'p', 00H, 'e', 00H, 'r', 00H, ' ', 00H
	DB	'v', 00H, 's', 00H, ' ', 00H, 'i', 00H, 'o', 00H, '.', 00H, 'K'
	DB	00H, 'e', 00H, 'y', 00H, 'M', 00H, 'o', 00H, 'd', 00H, 's', 00H
	DB	'"', 00H, 00H, 00H				; `string'
CONST	ENDS
;	COMDAT ??_C@_0EH@IKLAPCIG@Mismatching?5io?4KeyCtrl?1io?4KeySh@
CONST	SEGMENT
??_C@_0EH@IKLAPCIG@Mismatching?5io?4KeyCtrl?1io?4KeySh@ DB 'Mismatching i'
	DB	'o.KeyCtrl/io.KeyShift/io.KeyAlt/io.KeySuper vs io.KeyMods', 00H ; `string'
CONST	ENDS
;	COMDAT ??_C@_1BG@FOPGMADN@?$AAs?$AAt?$AAa?$AAt?$AAe?$AA?5?$AA?$CB?$AA?$DN?$AA?5?$AA0@
CONST	SEGMENT
??_C@_1BG@FOPGMADN@?$AAs?$AAt?$AAa?$AAt?$AAe?$AA?5?$AA?$CB?$AA?$DN?$AA?5?$AA0@ DB 's'
	DB	00H, 't', 00H, 'a', 00H, 't', 00H, 'e', 00H, ' ', 00H, '!', 00H
	DB	'=', 00H, ' ', 00H, '0', 00H, 00H, 00H	; `string'
CONST	ENDS
;	COMDAT ??_C@_1NI@EFFIGGBI@?$AAp?$AAa?$AAs?$AAs?$AAw?$AAo?$AAr?$AAd?$AA_?$AAf?$AAo?$AAn?$AAt?$AA?9?$AA?$DO@
CONST	SEGMENT
??_C@_1NI@EFFIGGBI@?$AAp?$AAa?$AAs?$AAs?$AAw?$AAo?$AAr?$AAd?$AA_?$AAf?$AAo?$AAn?$AAt?$AA?9?$AA?$DO@ DB 'p'
	DB	00H, 'a', 00H, 's', 00H, 's', 00H, 'w', 00H, 'o', 00H, 'r', 00H
	DB	'd', 00H, '_', 00H, 'f', 00H, 'o', 00H, 'n', 00H, 't', 00H, '-'
	DB	00H, '>', 00H, 'G', 00H, 'l', 00H, 'y', 00H, 'p', 00H, 'h', 00H
	DB	's', 00H, '.', 00H, 'e', 00H, 'm', 00H, 'p', 00H, 't', 00H, 'y'
	DB	00H, '(', 00H, ')', 00H, ' ', 00H, '&', 00H, '&', 00H, ' ', 00H
	DB	'p', 00H, 'a', 00H, 's', 00H, 's', 00H, 'w', 00H, 'o', 00H, 'r'
	DB	00H, 'd', 00H, '_', 00H, 'f', 00H, 'o', 00H, 'n', 00H, 't', 00H
	DB	'-', 00H, '>', 00H, 'I', 00H, 'n', 00H, 'd', 00H, 'e', 00H, 'x'
	DB	00H, 'A', 00H, 'd', 00H, 'v', 00H, 'a', 00H, 'n', 00H, 'c', 00H
	DB	'e', 00H, 'X', 00H, '.', 00H, 'e', 00H, 'm', 00H, 'p', 00H, 't'
	DB	00H, 'y', 00H, '(', 00H, ')', 00H, ' ', 00H, '&', 00H, '&', 00H
	DB	' ', 00H, 'p', 00H, 'a', 00H, 's', 00H, 's', 00H, 'w', 00H, 'o'
	DB	00H, 'r', 00H, 'd', 00H, '_', 00H, 'f', 00H, 'o', 00H, 'n', 00H
	DB	't', 00H, '-', 00H, '>', 00H, 'I', 00H, 'n', 00H, 'd', 00H, 'e'
	DB	00H, 'x', 00H, 'L', 00H, 'o', 00H, 'o', 00H, 'k', 00H, 'u', 00H
	DB	'p', 00H, '.', 00H, 'e', 00H, 'm', 00H, 'p', 00H, 't', 00H, 'y'
	DB	00H, '(', 00H, ')', 00H, 00H, 00H		; `string'
CONST	ENDS
;	COMDAT ??_C@_1DC@CMKEKNGP@?$AAs?$AAt?$AAa?$AAt?$AAe?$AA?5?$AA?$CG?$AA?$CG?$AA?5?$AAs?$AAt?$AAa?$AAt?$AAe?$AA?9@
CONST	SEGMENT
??_C@_1DC@CMKEKNGP@?$AAs?$AAt?$AAa?$AAt?$AAe?$AA?5?$AA?$CG?$AA?$CG?$AA?5?$AAs?$AAt?$AAa?$AAt?$AAe?$AA?9@ DB 's'
	DB	00H, 't', 00H, 'a', 00H, 't', 00H, 'e', 00H, ' ', 00H, '&', 00H
	DB	'&', 00H, ' ', 00H, 's', 00H, 't', 00H, 'a', 00H, 't', 00H, 'e'
	DB	00H, '-', 00H, '>', 00H, 'I', 00H, 'D', 00H, ' ', 00H, '=', 00H
	DB	'=', 00H, ' ', 00H, 'i', 00H, 'd', 00H, 00H, 00H ; `string'
CONST	ENDS
;	COMDAT ??_C@_1BM@CBGPMFEC@?$AAc?$AAa?$AAl?$AAl?$AAb?$AAa?$AAc?$AAk?$AA?5?$AA?$CB?$AA?$DN?$AA?5?$AA0@
CONST	SEGMENT
??_C@_1BM@CBGPMFEC@?$AAc?$AAa?$AAl?$AAl?$AAb?$AAa?$AAc?$AAk?$AA?5?$AA?$CB?$AA?$DN?$AA?5?$AA0@ DB 'c'
	DB	00H, 'a', 00H, 'l', 00H, 'l', 00H, 'b', 00H, 'a', 00H, 'c', 00H
	DB	'k', 00H, ' ', 00H, '!', 00H, '=', 00H, ' ', 00H, '0', 00H, 00H
	DB	00H						; `string'
CONST	ENDS
;	COMDAT ??_C@_1MG@MGOPIKJM@?$AA?$CB?$AA?$CI?$AA?$CI?$AAf?$AAl?$AAa?$AAg?$AAs?$AA?5?$AA?$CG?$AA?5?$AAI?$AAm?$AAG?$AAu@
CONST	SEGMENT
??_C@_1MG@MGOPIKJM@?$AA?$CB?$AA?$CI?$AA?$CI?$AAf?$AAl?$AAa?$AAg?$AAs?$AA?5?$AA?$CG?$AA?5?$AAI?$AAm?$AAG?$AAu@ DB '!'
	DB	00H, '(', 00H, '(', 00H, 'f', 00H, 'l', 00H, 'a', 00H, 'g', 00H
	DB	's', 00H, ' ', 00H, '&', 00H, ' ', 00H, 'I', 00H, 'm', 00H, 'G'
	DB	00H, 'u', 00H, 'i', 00H, 'I', 00H, 'n', 00H, 'p', 00H, 'u', 00H
	DB	't', 00H, 'T', 00H, 'e', 00H, 'x', 00H, 't', 00H, 'F', 00H, 'l'
	DB	00H, 'a', 00H, 'g', 00H, 's', 00H, '_', 00H, 'C', 00H, 'a', 00H
	DB	'l', 00H, 'l', 00H, 'b', 00H, 'a', 00H, 'c', 00H, 'k', 00H, 'C'
	DB	00H, 'o', 00H, 'm', 00H, 'p', 00H, 'l', 00H, 'e', 00H, 't', 00H
	DB	'i', 00H, 'o', 00H, 'n', 00H, ')', 00H, ' ', 00H, '&', 00H, '&'
	DB	00H, ' ', 00H, '(', 00H, 'f', 00H, 'l', 00H, 'a', 00H, 'g', 00H
	DB	's', 00H, ' ', 00H, '&', 00H, ' ', 00H, 'I', 00H, 'm', 00H, 'G'
	DB	00H, 'u', 00H, 'i', 00H, 'I', 00H, 'n', 00H, 'p', 00H, 'u', 00H
	DB	't', 00H, 'T', 00H, 'e', 00H, 'x', 00H, 't', 00H, 'F', 00H, 'l'
	DB	00H, 'a', 00H, 'g', 00H, 's', 00H, '_', 00H, 'A', 00H, 'l', 00H
	DB	'l', 00H, 'o', 00H, 'w', 00H, 'T', 00H, 'a', 00H, 'b', 00H, 'I'
	DB	00H, 'n', 00H, 'p', 00H, 'u', 00H, 't', 00H, ')', 00H, ')', 00H
	DB	00H, 00H					; `string'
CONST	ENDS
;	COMDAT ??_C@_1LI@BDNHGOFF@?$AA?$CB?$AA?$CI?$AA?$CI?$AAf?$AAl?$AAa?$AAg?$AAs?$AA?5?$AA?$CG?$AA?5?$AAI?$AAm?$AAG?$AAu@
CONST	SEGMENT
??_C@_1LI@BDNHGOFF@?$AA?$CB?$AA?$CI?$AA?$CI?$AAf?$AAl?$AAa?$AAg?$AAs?$AA?5?$AA?$CG?$AA?5?$AAI?$AAm?$AAG?$AAu@ DB '!'
	DB	00H, '(', 00H, '(', 00H, 'f', 00H, 'l', 00H, 'a', 00H, 'g', 00H
	DB	's', 00H, ' ', 00H, '&', 00H, ' ', 00H, 'I', 00H, 'm', 00H, 'G'
	DB	00H, 'u', 00H, 'i', 00H, 'I', 00H, 'n', 00H, 'p', 00H, 'u', 00H
	DB	't', 00H, 'T', 00H, 'e', 00H, 'x', 00H, 't', 00H, 'F', 00H, 'l'
	DB	00H, 'a', 00H, 'g', 00H, 's', 00H, '_', 00H, 'C', 00H, 'a', 00H
	DB	'l', 00H, 'l', 00H, 'b', 00H, 'a', 00H, 'c', 00H, 'k', 00H, 'H'
	DB	00H, 'i', 00H, 's', 00H, 't', 00H, 'o', 00H, 'r', 00H, 'y', 00H
	DB	')', 00H, ' ', 00H, '&', 00H, '&', 00H, ' ', 00H, '(', 00H, 'f'
	DB	00H, 'l', 00H, 'a', 00H, 'g', 00H, 's', 00H, ' ', 00H, '&', 00H
	DB	' ', 00H, 'I', 00H, 'm', 00H, 'G', 00H, 'u', 00H, 'i', 00H, 'I'
	DB	00H, 'n', 00H, 'p', 00H, 'u', 00H, 't', 00H, 'T', 00H, 'e', 00H
	DB	'x', 00H, 't', 00H, 'F', 00H, 'l', 00H, 'a', 00H, 'g', 00H, 's'
	DB	00H, '_', 00H, 'M', 00H, 'u', 00H, 'l', 00H, 't', 00H, 'i', 00H
	DB	'l', 00H, 'i', 00H, 'n', 00H, 'e', 00H, ')', 00H, ')', 00H, 00H
	DB	00H						; `string'
CONST	ENDS
;	COMDAT ??_C@_1DE@KCJLPEOI@?$AAb?$AAu?$AAf?$AA?5?$AA?$CB?$AA?$DN?$AA?5?$AA0?$AA?5?$AA?$CG?$AA?$CG?$AA?5?$AAb?$AAu?$AAf@
CONST	SEGMENT
??_C@_1DE@KCJLPEOI@?$AAb?$AAu?$AAf?$AA?5?$AA?$CB?$AA?$DN?$AA?5?$AA0?$AA?5?$AA?$CG?$AA?$CG?$AA?5?$AAb?$AAu?$AAf@ DB 'b'
	DB	00H, 'u', 00H, 'f', 00H, ' ', 00H, '!', 00H, '=', 00H, ' ', 00H
	DB	'0', 00H, ' ', 00H, '&', 00H, '&', 00H, ' ', 00H, 'b', 00H, 'u'
	DB	00H, 'f', 00H, '_', 00H, 's', 00H, 'i', 00H, 'z', 00H, 'e', 00H
	DB	' ', 00H, '>', 00H, '=', 00H, ' ', 00H, '0', 00H, 00H, 00H ; `string'
CONST	ENDS
;	COMDAT ?__LINE__Var@?0??InputTextEx@ImGui@@YA_NPEBD0PEADHAEBUImVec2@@HP6AHPEAUImGuiInputTextCallbackData@@@ZPEAX@Z@4JA
_DATA	SEGMENT
?__LINE__Var@?0??InputTextEx@ImGui@@YA_NPEBD0PEADHAEBUImVec2@@HP6AHPEAUImGuiInputTextCallbackData@@@ZPEAX@Z@4JA DD 0f60H ; `ImGui::InputTextEx'::`1'::__LINE__Var
_DATA	ENDS
;	COMDAT ??_C@_1LA@GNNDJIHJ@?$AAi?$AAn?$AAp?$AAu?$AAt?$AA_?$AAs?$AAo?$AAu?$AAr?$AAc?$AAe?$AA?5?$AA?$DN?$AA?$DN@
CONST	SEGMENT
??_C@_1LA@GNNDJIHJ@?$AAi?$AAn?$AAp?$AAu?$AAt?$AA_?$AAs?$AAo?$AAu?$AAr?$AAc?$AAe?$AA?5?$AA?$DN?$AA?$DN@ DB 'i'
	DB	00H, 'n', 00H, 'p', 00H, 'u', 00H, 't', 00H, '_', 00H, 's', 00H
	DB	'o', 00H, 'u', 00H, 'r', 00H, 'c', 00H, 'e', 00H, ' ', 00H, '='
	DB	00H, '=', 00H, ' ', 00H, 'I', 00H, 'm', 00H, 'G', 00H, 'u', 00H
	DB	'i', 00H, 'I', 00H, 'n', 00H, 'p', 00H, 'u', 00H, 't', 00H, 'S'
	DB	00H, 'o', 00H, 'u', 00H, 'r', 00H, 'c', 00H, 'e', 00H, '_', 00H
	DB	'K', 00H, 'e', 00H, 'y', 00H, 'b', 00H, 'o', 00H, 'a', 00H, 'r'
	DB	00H, 'd', 00H, ' ', 00H, '|', 00H, '|', 00H, ' ', 00H, 'i', 00H
	DB	'n', 00H, 'p', 00H, 'u', 00H, 't', 00H, '_', 00H, 's', 00H, 'o'
	DB	00H, 'u', 00H, 'r', 00H, 'c', 00H, 'e', 00H, ' ', 00H, '=', 00H
	DB	'=', 00H, ' ', 00H, 'I', 00H, 'm', 00H, 'G', 00H, 'u', 00H, 'i'
	DB	00H, 'I', 00H, 'n', 00H, 'p', 00H, 'u', 00H, 't', 00H, 'S', 00H
	DB	'o', 00H, 'u', 00H, 'r', 00H, 'c', 00H, 'e', 00H, '_', 00H, 'C'
	DB	00H, 'l', 00H, 'i', 00H, 'p', 00H, 'b', 00H, 'o', 00H, 'a', 00H
	DB	'r', 00H, 'd', 00H, 00H, 00H			; `string'
CONST	ENDS
;	COMDAT ?__LINE__Var@?0??InputTextFilterCharacter@@YA_NPEAIHP6AHPEAUImGuiInputTextCallbackData@@@ZPEAXW4ImGuiInputSource@@@Z@4JA
_DATA	SEGMENT
?__LINE__Var@?0??InputTextFilterCharacter@@YA_NPEAIHP6AHPEAUImGuiInputTextCallbackData@@@ZPEAXW4ImGuiInputSource@@@Z@4JA DD 0f03H ; `InputTextFilterCharacter'::`1'::__LINE__Var
_DATA	ENDS
;	COMDAT ??_C@_1DM@LDGOBGNL@?$AAB?$AAu?$AAf?$AA?5?$AA?$DN?$AA?$DN?$AA?5?$AAe?$AAd?$AAi?$AAt?$AA_?$AAs?$AAt?$AAa@
CONST	SEGMENT
??_C@_1DM@LDGOBGNL@?$AAB?$AAu?$AAf?$AA?5?$AA?$DN?$AA?$DN?$AA?5?$AAe?$AAd?$AAi?$AAt?$AA_?$AAs?$AAt?$AAa@ DB 'B'
	DB	00H, 'u', 00H, 'f', 00H, ' ', 00H, '=', 00H, '=', 00H, ' ', 00H
	DB	'e', 00H, 'd', 00H, 'i', 00H, 't', 00H, '_', 00H, 's', 00H, 't'
	DB	00H, 'a', 00H, 't', 00H, 'e', 00H, '-', 00H, '>', 00H, 'T', 00H
	DB	'e', 00H, 'x', 00H, 't', 00H, 'A', 00H, '.', 00H, 'D', 00H, 'a'
	DB	00H, 't', 00H, 'a', 00H, 00H, 00H		; `string'
CONST	ENDS
;	COMDAT ??_C@_1GI@EFFMAEBL@?$AAe?$AAd?$AAi?$AAt?$AA_?$AAs?$AAt?$AAa?$AAt?$AAe?$AA?9?$AA?$DO?$AAI?$AAD?$AA?5@
CONST	SEGMENT
??_C@_1GI@EFFMAEBL@?$AAe?$AAd?$AAi?$AAt?$AA_?$AAs?$AAt?$AAa?$AAt?$AAe?$AA?9?$AA?$DO?$AAI?$AAD?$AA?5@ DB 'e'
	DB	00H, 'd', 00H, 'i', 00H, 't', 00H, '_', 00H, 's', 00H, 't', 00H
	DB	'a', 00H, 't', 00H, 'e', 00H, '-', 00H, '>', 00H, 'I', 00H, 'D'
	DB	00H, ' ', 00H, '!', 00H, '=', 00H, ' ', 00H, '0', 00H, ' ', 00H
	DB	'&', 00H, '&', 00H, ' ', 00H, 'g', 00H, '.', 00H, 'A', 00H, 'c'
	DB	00H, 't', 00H, 'i', 00H, 'v', 00H, 'e', 00H, 'I', 00H, 'd', 00H
	DB	' ', 00H, '=', 00H, '=', 00H, ' ', 00H, 'e', 00H, 'd', 00H, 'i'
	DB	00H, 't', 00H, '_', 00H, 's', 00H, 't', 00H, 'a', 00H, 't', 00H
	DB	'e', 00H, '-', 00H, '>', 00H, 'I', 00H, 'D', 00H, 00H, 00H ; `string'
CONST	ENDS
;	COMDAT ?__LINE__Var@?0??InsertChars@ImGuiInputTextCallbackData@@QEAAXHPEBD0@Z@4JA
_DATA	SEGMENT
?__LINE__Var@?0??InsertChars@ImGuiInputTextCallbackData@@QEAAXHPEBD0@Z@4JA DD 0ee2H ; `ImGuiInputTextCallbackData::InsertChars'::`1'::__LINE__Var
_DATA	ENDS
;	COMDAT ??_C@_1EA@OOMMGKHM@?$AAp?$AAo?$AAs?$AA?5?$AA?$CL?$AA?5?$AAb?$AAy?$AAt?$AAe?$AAs?$AA_?$AAc?$AAo?$AAu@
CONST	SEGMENT
??_C@_1EA@OOMMGKHM@?$AAp?$AAo?$AAs?$AA?5?$AA?$CL?$AA?5?$AAb?$AAy?$AAt?$AAe?$AAs?$AA_?$AAc?$AAo?$AAu@ DB 'p'
	DB	00H, 'o', 00H, 's', 00H, ' ', 00H, '+', 00H, ' ', 00H, 'b', 00H
	DB	'y', 00H, 't', 00H, 'e', 00H, 's', 00H, '_', 00H, 'c', 00H, 'o'
	DB	00H, 'u', 00H, 'n', 00H, 't', 00H, ' ', 00H, '<', 00H, '=', 00H
	DB	' ', 00H, 'B', 00H, 'u', 00H, 'f', 00H, 'T', 00H, 'e', 00H, 'x'
	DB	00H, 't', 00H, 'L', 00H, 'e', 00H, 'n', 00H, 00H, 00H ; `string'
CONST	ENDS
;	COMDAT ?__LINE__Var@?0??DeleteChars@ImGuiInputTextCallbackData@@QEAAXHH@Z@4JA
_DATA	SEGMENT
?__LINE__Var@?0??DeleteChars@ImGuiInputTextCallbackData@@QEAAXHH@Z@4JA DD 0ed0H ; `ImGuiInputTextCallbackData::DeleteChars'::`1'::__LINE__Var
_DATA	ENDS
;	COMDAT ?__LINE__Var@?0??stb_textedit_replace@ImStb@@YAXPEAUImGuiInputTextState@@PEAUSTB_TexteditState@2@PEBGH@Z@4JA
_DATA	SEGMENT
?__LINE__Var@?0??stb_textedit_replace@ImStb@@YAXPEAUImGuiInputTextState@@PEAUSTB_TexteditState@2@PEBGH@Z@4JA DD 0eb0H ; `ImStb::stb_textedit_replace'::`1'::__LINE__Var
_DATA	ENDS
;	COMDAT ??_C@_1JE@JEJNCKKO@?$AA?$CI?$AA?$CI?$AAc?$AAh?$AAa?$AAr?$AA?$CK?$AA?$CJ?$AA?$CI?$AAs?$AAt?$AAa?$AAt?$AAe?$AA?9@
CONST	SEGMENT
??_C@_1JE@JEJNCKKO@?$AA?$CI?$AA?$CI?$AAc?$AAh?$AAa?$AAr?$AA?$CK?$AA?$CJ?$AA?$CI?$AAs?$AAt?$AAa?$AAt?$AAe?$AA?9@ DB '('
	DB	00H, '(', 00H, 'c', 00H, 'h', 00H, 'a', 00H, 'r', 00H, '*', 00H
	DB	')', 00H, '(', 00H, 's', 00H, 't', 00H, 'a', 00H, 't', 00H, 'e'
	DB	00H, '-', 00H, '>', 00H, 'u', 00H, 'n', 00H, 'd', 00H, 'o', 00H
	DB	'_', 00H, 'r', 00H, 'e', 00H, 'c', 00H, ' ', 00H, '+', 00H, ' '
	DB	00H, 's', 00H, 't', 00H, 'a', 00H, 't', 00H, 'e', 00H, '-', 00H
	DB	'>', 00H, 'r', 00H, 'e', 00H, 'd', 00H, 'o', 00H, '_', 00H, 'p'
	DB	00H, 'o', 00H, 'i', 00H, 'n', 00H, 't', 00H, ' ', 00H, '+', 00H
	DB	' ', 00H, '1', 00H, ')', 00H, ' ', 00H, '+', 00H, ' ', 00H, 'm'
	DB	00H, 'o', 00H, 'v', 00H, 'e', 00H, '_', 00H, 's', 00H, 'i', 00H
