; Listing generated by Microsoft (R) Optimizing Compiler Version 19.33.31630.0 

include listing.inc

INCLUDELIB MSVCRTD
INCLUDELIB OLDNAMES

PUBLIC	NvOptimusEnablement
PUBLIC	AmdPowerXpressRequestHighPerformance
msvcjmc	SEGMENT
__529D0EAA_concurrencysal@h DB 01H
__7EC34687_sal@h DB 01H
__35A2D2DF_vadefs@h DB 01H
__5F022EB5_vcruntime@h DB 01H
__BBDF6BA8_xkeycheck@h DB 01H
__7F8F4960_yvals_core@h DB 01H
__4DAFBCB9_stdint@h DB 01H
__CB505695_cstdint DB 01H
__1B0272D9_corecrt@h DB 01H
__BB16330F_corecrt_math@h DB 01H
__3BF2A406_math@h DB 01H
__45DED006_corecrt_malloc@h DB 01H
__13F5961F_stddef@h DB 01H
__FD6DBD68_corecrt_search@h DB 01H
__E2E33A61_corecrt_wstdlib@h DB 01H
__F3D99286_limits@h DB 01H
__6E5ACABA_stdlib@h DB 01H
__760EB7E8_cstdlib DB 01H
__B9985323_float@h DB 01H
__35A6E2D5_cfloat DB 01H
__F2E1951A_climits DB 01H
__44420885_corecrt_stdio_config@h DB 01H
__AB601D8D_corecrt_wstdio@h DB 01H
__C1EC35D3_stdio@h DB 01H
__46E22952_cstdio DB 01H
__61CC25A1_errno@h DB 01H
__74AC4223_vcruntime_string@h DB 01H
__E4C945B4_corecrt_memcpy_s@h DB 01H
__EF1F6BBA_corecrt_wconio@h DB 01H
__74484FB3_corecrt_wctype@h DB 01H
__3D1D430C_corecrt_wdirect@h DB 01H
__8ECB7138_corecrt_share@h DB 01H
__DB7FEBA6_corecrt_wio@h DB 01H
__9A9F0068_corecrt_wprocess@h DB 01H
__6490AEC5_corecrt_wstring@h DB 01H
__369A9BC3_corecrt_wtime@h DB 01H
__CE789B9D_types@h DB 01H
__9901C817_stat@h DB 01H
__3FCAD62E_wchar@h DB 01H
__DC69FF01_cwchar DB 01H
__E5CDC221_intrin0@inl@h DB 01H
__16DCCB76_intrin0@h DB 01H
__A7274850_isa_availability@h DB 01H
__C9757830_xtr1common DB 01H
__D3C56D45_cstddef DB 01H
__485B7899_initializer_list DB 01H
__B61CA571_xstddef DB 01H
__5340AFB1_limits DB 01H
__8B8B49C3_vcruntime_new@h DB 01H
__5021BF8A_vcruntime_new_debug@h DB 01H
__935DC21B_crtdbg@h DB 01H
__0FF1727D_crtdefs@h DB 01H
__327B4A79_use_ansi@h DB 01H
__C04E0157_yvals@h DB 01H
__F576AD63_type_traits DB 01H
__FA77ED4C_malloc@h DB 01H
__89766DA4_corecrt_terminate@h DB 01H
__5569C08B_eh@h DB 01H
__58CFBAD8_vcruntime_exception@h DB 01H
__C7AE1CEB_exception DB 01H
__C7AADC23_new DB 01H
__CDA2903D_xatomic@h DB 01H
__8EAFF484_corecrt_memory@h DB 01H
__E8295E1E_string@h DB 01H
__3A9C1F08_cstring DB 01H
__41033263_utility DB 01H
__2177C444_xutility DB 01H
__2B9651A0_xmemory DB 01H
__BA5A5171_tuple DB 01H
__0374BC07_xpolymorphic_allocator@h DB 01H
__1EEDDF51_vector DB 01H
__9FA97A37_iosfwd DB 01H
__5F45D73C_xstring DB 01H
__1EC467ED_ctype@h DB 01H
__4929CEF5_cctype DB 01H
__9B3D25A3_string DB 01H
__3106C9CE_memory@h DB 01H
__427947DE_defs@h DB 01H
__1C794830_cmath DB 01H
__56B62A30_pushpack1@h DB 01H
__A28EE514_poppack1@h DB 01H
__E8890047_vector3@h DB 01H
__E94B6A70_vector2@h DB 01H
__F12EF6E1_color4@h DB 01H
__316093B4_matrix3x3@h DB 01H
__860F5921_matrix4x4@h DB 01H
__63D9E03D_quaternion@h DB 01H
__3CE01996_vector2@inl DB 01H
__01803026_vector3@inl DB 01H
__AD0365C7_color4@inl DB 01H
__745AC872_quaternion@inl DB 01H
__2D625E3F_algorithm DB 01H
__5717994F_matrix3x3@inl DB 01H
__20907BD1_matrix4x4@inl DB 01H
__691F0ED1_types@h DB 01H
__E1C73DD4_texture@h DB 01H
__12C2FD2A_mesh@h DB 01H
__1B1D5B29_light@h DB 01H
__4A8AAAE3_camera@h DB 01H
__F53A84F5_material@inl DB 01H
__820DF1D0_material@h DB 01H
__2BBF7950_anim@h DB 01H
__19139D6C_assert@h DB 01H
__A14E1A76_metadata@h DB 01H
__695F5193_scene@h DB 01H
__426C2C7F__fixes@hpp DB 01H
__15CDE20A_cassert DB 01H
__8352D49E_platform@h DB 01H
__E9022D7B_setup@hpp DB 01H
__03B1FCBD_qualifier@hpp DB 01H
__93C46FAE_fwd@hpp DB 01H
__6550F366_compute_vector_relational@hpp DB 01H
__21E1621A_type_vec2@inl DB 01H
__E0636BBD_type_vec2@hpp DB 01H
__44E84EE0_vector_bool2@hpp DB 01H
__3B6F42FD_vector_bool2_precision@hpp DB 01H
__71A1E0AE_vector_float2@hpp DB 01H
__5BF37FA3_vector_float2_precision@hpp DB 01H
__29C0F6B1_vector_double2@hpp DB 01H
__5EF799C8_vector_double2_precision@hpp DB 01H
__158F8600_vector_int2@hpp DB 01H
__FECBBD42_scalar_int_sized@hpp DB 01H
__2C73C0BB_vector_int2_sized@hpp DB 01H
__03D4E39D_vector_uint2@hpp DB 01H
__C0F7AB10_scalar_uint_sized@hpp DB 01H
__D8FE6A7A_vector_uint2_sized@hpp DB 01H
__F95D3862_vec2@hpp DB 01H
__1C814BAA_type_vec3@inl DB 01H
__DD03420D_type_vec3@hpp DB 01H
__79886750_vector_bool3@hpp DB 01H
__82949915_vector_bool3_precision@hpp DB 01H
__4CC1C91E_vector_float3@hpp DB 01H
__E208A44B_vector_float3_precision@hpp DB 01H
__14A0DF01_vector_double3@hpp DB 01H
__E70C4220_vector_double3_precision@hpp DB 01H
__28EFAFB0_vector_int3@hpp DB 01H
__EDFD1F7B_vector_int3_sized@hpp DB 01H
__3EB4CA2D_vector_uint3@hpp DB 01H
__1970B5BA_vector_uint3_sized@hpp DB 01H
__C43D11D2_vec3@hpp DB 01H
__AEA197BA_type_vec4@inl DB 01H
__6F239E1D_type_vec4@hpp DB 01H
__CBA8BB40_vector_bool4@hpp DB 01H
__1995960F_vector_bool4_precision@hpp DB 01H
__FEE1150E_vector_float4@hpp DB 01H
__7909AB51_vector_float4_precision@hpp DB 01H
__A6800311_vector_double4@hpp DB 01H
__7C0D4D3A_vector_double4_precision@hpp DB 01H
__9ACF73A0_vector_int4@hpp DB 01H
__C4C60AF8_vector_int4_sized@hpp DB 01H
__8C94163D_vector_uint4@hpp DB 01H
__304BA039_vector_uint4_sized@hpp DB 01H
__761DCDC2_vec4@hpp DB 01H
__6D9C0563_type_mat2x3@inl DB 01H
__AC1E0CC4_type_mat2x3@hpp DB 01H
__1D32BE8A_matrix_double2x3@hpp DB 01H
__4ACCD36E_matrix_double2x3_precision@hpp DB 01H
__65C56086_matrix_float2x3@hpp DB 01H
__A61C2A54_matrix_float2x3_precision@hpp DB 01H
__58DCCC64_mat2x3@hpp DB 01H
__DFBCD973_type_mat2x4@inl DB 01H
__1E3ED0D4_type_mat2x4@hpp DB 01H
__AF12629A_matrix_double2x4@hpp DB 01H
__D1CDDC74_matrix_double2x4_precision@hpp DB 01H
__D7E5BC96_matrix_float2x4@hpp DB 01H
__3D1D254E_matrix_float2x4_precision@hpp DB 01H
__EAFC1074_mat2x4@hpp DB 01H
__F68B2767_type_mat3x2@inl DB 01H
__37092EC0_type_mat3x2@hpp DB 01H
__86259C8E_matrix_double3x2@hpp DB 01H
__7491C3C5_matrix_double3x2_precision@hpp DB 01H
__FED24282_matrix_float3x2@hpp DB 01H
__98413AFF_matrix_float3x2_precision@hpp DB 01H
__C3CBEE60_mat3x2@hpp DB 01H
__CBEB0ED7_type_mat3x3@inl DB 01H
__0A690770_type_mat3x3@hpp DB 01H
__BB45B53E_matrix_double3x3@hpp DB 01H
__CD6A182D_matrix_double3x3_precision@hpp DB 01H
__C3B26B32_matrix_float3x3@hpp DB 01H
__21BAE117_matrix_float3x3_precision@hpp DB 01H
__FEABC7D0_mat3x3@hpp DB 01H
__79CBD2C7_type_mat3x4@inl DB 01H
__B849DB60_type_mat3x4@hpp DB 01H
__0965692E_matrix_double3x4@hpp DB 01H
__566B1737_matrix_double3x4_precision@hpp DB 01H
__7192B722_matrix_float3x4@hpp DB 01H
__BABBEE0D_matrix_float3x4_precision@hpp DB 01H
__4C8B1BC0_mat3x4@hpp DB 01H
__332C19E9_type_mat4x2@inl DB 01H
__F2AE104E_type_mat4x2@hpp DB 01H
__4382A200_matrix_double4x2@hpp DB 01H
__5403BF8E_matrix_double4x2_precision@hpp DB 01H
__3B757C0C_matrix_float4x2@hpp DB 01H
__B8D346B4_matrix_float4x2_precision@hpp DB 01H
__066CD0EE_mat4x2@hpp DB 01H
__0E4C3059_type_mat4x3@inl DB 01H
__CFCE39FE_type_mat4x3@hpp DB 01H
__7EE28BB0_matrix_double4x3@hpp DB 01H
__EDF86466_matrix_double4x3_precision@hpp DB 01H
__061555BC_matrix_float4x3@hpp DB 01H
__01289D5C_matrix_float4x3_precision@hpp DB 01H
__3B0CF95E_mat4x3@hpp DB 01H
__BC6CEC49_type_mat4x4@inl DB 01H
__7DEEE5EE_type_mat4x4@hpp DB 01H
__CCC257A0_matrix_double4x4@hpp DB 01H
__76F96B7C_matrix_double4x4_precision@hpp DB 01H
__B43589AC_matrix_float4x4@hpp DB 01H
__9A299246_matrix_float4x4_precision@hpp DB 01H
__892C254E_mat4x4@hpp DB 01H
__664118CA_type_vec1@inl DB 01H
__A7C3116D_type_vec1@hpp DB 01H
__CBB77B71_func_vector_relational@inl DB 01H
__F6D85DB3_vector_relational@hpp DB 01H
__39A564C8__vectorize@hpp DB 01H
__A46288C7_func_exponential@inl DB 01H
__DB0AA230_exponential@hpp DB 01H
__D6C7EB8E_compute_common@hpp DB 01H
__B463D43C_func_common@inl DB 01H
__E6EEAD42_common@hpp DB 01H
__C3ADFCC3_func_geometric@inl DB 01H
__3FF79F2F_geometric@hpp DB 01H
__A9F37805_func_matrix@inl DB 01H
__FB7E017B_matrix@hpp DB 01H
__50FC2CD3_type_mat2x2@inl DB 01H
__917E2574_type_mat2x2@hpp DB 01H
__2052973A_matrix_double2x2@hpp DB 01H
__F3370886_matrix_double2x2_precision@hpp DB 01H
__58A54936_matrix_float2x2@hpp DB 01H
__1FE7F1BC_matrix_float2x2_precision@hpp DB 01H
__65BCE5D4_mat2x2@hpp DB 01H
__2B2260A5_func_trigonometric@inl DB 01H
__F27CFBCE_trigonometric@hpp DB 01H
__805ABECE_type_half@inl DB 01H
__41D8B769_type_half@hpp DB 01H
__4B2669CD_func_packing@inl DB 01H
__7538056A_packing@hpp DB 01H
__DDCC54BA_setjmp@h DB 01H
__F75BE1FA_mmintrin@h DB 01H
__DFD742E1_xmmintrin@h DB 01H
__BAB5CB2D_emmintrin@h DB 01H
__6514A3A4_pmmintrin@h DB 01H
__D5CDD026_tmmintrin@h DB 01H
__FCF6C5A5_smmintrin@h DB 01H
__99944C69_nmmintrin@h DB 01H
__4C2FB627_wmmintrin@h DB 01H
__87BBFB20_zmmintrin@h DB 01H
__B0AF59EA_immintrin@h DB 01H
__0A6CB8AF_ammintrin@h DB 01H
__FBFAE8CD_intrin@h DB 01H
__204566E8_func_integer@inl DB 01H
__1E5B0A4F_integer@hpp DB 01H
__51B2F433_glm@hpp DB 01H
__3E21C180_khrplatform@h DB 01H
__6F297E97_glad@h DB 01H
__574035C6_vk_platform@h DB 01H
__67A404B0_vulkan_core@h DB 01H
__02D50DED_vulkan@h DB 01H
__DD4EC5F2_glfw3@h DB 01H
__B9D4B5B0_scalar_constants@inl DB 01H
__7856BC17_scalar_constants@hpp DB 01H
__AE85D934_constants@inl DB 01H
__6F07D093_constants@hpp DB 01H
__628FDAAC_matrix_projection@inl DB 01H
__A30DD30B_matrix_projection@hpp DB 01H
__F17FB1A9_matrix_clip_space@inl DB 01H
__30FDB80E_matrix_clip_space@hpp DB 01H
__675FFADA_matrix_transform@inl DB 01H
__A6DDF37D_matrix_transform@hpp DB 01H
__72AFA061_matrix_transform@inl DB 01H
__B32DA9C6_matrix_transform@hpp DB 01H
__C5E9B652_type_float@hpp DB 01H
__B8B6D95C_vector_relational@inl DB 01H
__7934D0FB_vector_relational@hpp DB 01H
__9CA3A914_quaternion_geometric@inl DB 01H
__5D21A0B3_quaternion_geometric@hpp DB 01H
__02CE0479_quaternion_common@inl DB 01H
__C34C0DDE_quaternion_common@hpp DB 01H
__286CA3B4_quaternion_relational@inl DB 01H
__E9EEAA13_quaternion_relational@hpp DB 01H
__D681FB2F_type_quat@inl DB 01H
__1703F288_type_quat@hpp DB 01H
__1EEE7BF6_quaternion_float@hpp DB 01H
__34B389B1_quaternion_float_precision@hpp DB 01H
__89C20F6F_quaternion_double@hpp DB 01H
__20F487E0_quaternion_double_precision@hpp DB 01H
__9F816C35_quaternion_trigonometric@inl DB 01H
__5E036592_quaternion_trigonometric@hpp DB 01H
__65C34BEC_quaternion_transform@inl DB 01H
__A441424B_quaternion_transform@hpp DB 01H
__B8E4F448_epsilon@inl DB 01H
__7966FDEF_epsilon@hpp DB 01H
__71400996_quaternion@inl DB 01H
__B0C20031_quaternion@hpp DB 01H
__03483430_vector_bool1@hpp DB 01H
__2A122884_vector_bool1_precision@hpp DB 01H
__36019A7E_vector_float1@hpp DB 01H
__4A8E15DA_vector_float1_precision@hpp DB 01H
__6E608C61_vector_double1@hpp DB 01H
__4F8AF3B1_vector_double1_precision@hpp DB 01H
__522FFCD0_vector_int1@hpp DB 01H
__B591A6BA_vector_int1_sized@hpp DB 01H
__4474994D_vector_uint1@hpp DB 01H
__411C0C7B_vector_uint1_sized@hpp DB 01H
__6291C08F_vec1@hpp DB 01H
__29887829_type_ptr@inl DB 01H
__E80A718E_type_ptr@hpp DB 01H
__30DB7304_iterator DB 01H
__F7972D0B_share@h DB 01H
__33989847___msvc_system_error_abi@hpp DB 01H
__DBC35DA9_cerrno DB 01H
__4EE026B6_stdexcept DB 01H
__3C179730_xcall_once@h DB 01H
__68DB1458_xerrc@h DB 01H
__0A9237D2_time@h DB 01H
__DACAD438_ctime DB 01H
__97B32705_xtimec@h DB 01H
__53357DCA_xthreads@h DB 01H
__3875F373_atomic DB 01H
__834A8510_system_error DB 01H
__B3F9668E_vcruntime_typeinfo@h DB 01H
__51A8375D_typeinfo DB 01H
__EFEEA33F_memory DB 01H
__C3ABF430_xfacet DB 01H
__215922A6___msvc_xlocinfo_types@hpp DB 01H
__791C33B7_locale@h DB 01H
__E5A26B39_clocale DB 01H
__4E21D495_xlocinfo DB 01H
__807BA30D_xlocale DB 01H
__77C4A386_xiosbase DB 01H
__4C409E0A_streambuf DB 01H
__1EFCC51A_xlocnum DB 01H
__3F67E635_ios DB 01H
__936B79C9_ostream DB 01H
__F0BB4CF3_istream DB 01H
__430EBE5B_iostream DB 01H
__2F5FA0DE_VulkanAPI@h DB 01H
__3DED4845_RenderAPI@h DB 01H
__7108E2E6_Shader@h DB 01H
__DD128BC6_Mesh@h DB 01H
__65BF9D60_Model@h DB 01H
__A52B8F80_imconfig@h DB 01H
__79700276_stdarg@h DB 01H
__21D911DF_imgui@h DB 01H
__D3953CEF_imgui_impl_glfw@h DB 01H
__60175028_imgui_impl_opengl3@h DB 01H
__10615243_deque DB 01H
__CD02128B_stack DB 01H
__70CAD19E_ratio DB 01H
__2664BE5C___msvc_chrono@hpp DB 01H
__CE1CBB5F_vcruntime_startup@h DB 01H
__005E73E1_corecrt_startup@h DB 01H
__8B12B2C4_process@h DB 01H
__34A3DB89_thread DB 01H
__32B79A60_list DB 01H
__E63F29F7_xbit_ops@h DB 01H
__553ED5D1_xnode_handle@h DB 01H
__73D68856_xhash DB 01H
__89C101AF_unordered_map DB 01H
__3166FC21_functional DB 01H
__37ADA93B_chrono DB 01H
__359ED022_xlocmon DB 01H
__EA3C7D87_xloctime DB 01H
__0C798AA1_iomanip DB 01H
__8034E5F6_xlocbuf DB 01H
__AC775471_xlocmes DB 01H
__44035192_locale DB 01H
__7B97B3D0_string_view DB 01H
__CE692294_xfilesystem_abi@h DB 01H
__3F97E32A_filesystem DB 01H
__10B67A16_ImFileDialog@h DB 01H
__38B03CD2_imgui_node_editor@h DB 01H
__F524C5E8_RaiEng@h DB 01H
__0ED14FEE_winpackagefamily@h DB 01H
__F92EF742_winapifamily@h DB 01H
__22E515EB_sdkddkver@h DB 01H
__3F7A3B5F_excpt@h DB 01H
__29F49F40_specstrings_undef@h DB 01H
__D0F42932_specstrings_strict@h DB 01H
__F00405FD_sdv_driverspecs@h DB 01H
__173E09CA_driverspecs@h DB 01H
__9A452361_specstrings@h DB 01H
__98517906_kernelspecs@h DB 01H
__D3497022_basetsd@h DB 01H
__7FCB5136_guiddef@h DB 01H
__FF8A9E11_pshpack4@h DB 01H
__D5438902_poppack@h DB 01H
__FB07E2A3_pshpack2@h DB 01H
__F6906775_pshpack8@h DB 01H
__F9415CFA_pshpack1@h DB 01H
__E58C6F1C_apiset@h DB 01H
__A5C52262_ktmtypes@h DB 01H
__FBBA8F9D_winnt@h DB 01H
__A32D3D2C_minwindef@h DB 01H
__7D798299_windef@h DB 01H
__9AE108E9_apisetcconv@h DB 01H
__9CE53D2C_minwinbase@h DB 01H
__5D0AA210_apiquery2@h DB 01H
__4DD4E726_processenv@h DB 01H
__3575CC96_fileapi@h DB 01H
__8EA220E6_fileapifromapp@h DB 01H
__BF9B31FE_debugapi@h DB 01H
__C3AFE134_utilapiset@h DB 01H
__76F69E51_handleapi@h DB 01H
__7E63D784_errhandlingapi@h DB 01H
__FFA7003C_fibersapi@h DB 01H
__8971CECF_namedpipeapi@h DB 01H
__46C9D8A6_profileapi@h DB 01H
__98D4F0A3_heapapi@h DB 01H
__50EF2A88_ioapiset@h DB 01H
__92EA1464_synchapi@h DB 01H
__A53D8AED_interlockedapi@h DB 01H
__B506CAAF_processthreadsapi@h DB 01H
__FF735694_sysinfoapi@h DB 01H
__29589789_memoryapi@h DB 01H
__E9C7A663_enclaveapi@h DB 01H
__D035F9F7_threadpoollegacyapiset@h DB 01H
__C899130C_threadpoolapiset@h DB 01H
__E0441EE7_jobapi@h DB 01H
__CEF86838_jobapi2@h DB 01H
__35AC6B9A_wow64apiset@h DB 01H
__C8AE41A5_libloaderapi@h DB 01H
__CC9E232D_securitybaseapi@h DB 01H
__C9D0C9B8_namespaceapi@h DB 01H
__30FF9CAD_systemtopologyapi@h DB 01H
__4D358795_processtopologyapi@h DB 01H
__40446D10_securityappcontainer@h DB 01H
__3A952EDF_realtimeapiset@h DB 01H
__F4865F4B_winerror@h DB 01H
__53C1BD93_timezoneapi@h DB 01H
__1FFBEDBF_winbase@h DB 01H
__43D3FA34_wingdi@h DB 01H
__D24A7391_tvout@h DB 01H
__7713A6C8_winuser@h DB 01H
__0B345F71_datetimeapi@h DB 01H
__9AC6960C_winnls@h DB 01H
__973A40A8_stringapiset@h DB 01H
__CC46FEE2_wincontypes@h DB 01H
__97D70BE1_consoleapi@h DB 01H
__27EC5E18_consoleapi2@h DB 01H
__262E342F_consoleapi3@h DB 01H
__641DCD70_wincon@h DB 01H
__5A96C7A7_verrsrc@h DB 01H
__B69C6FF2_winver@h DB 01H
__7AEB8C37_reason@h DB 01H
__59F1A8A9_winreg@h DB 01H
__EE0E2B7F_wnnc@h DB 01H
__DCDB7054_winnetwk@h DB 01H
__EDC72EEB_cderr@h DB 01H
__95F9199D_dde@h DB 01H
__66427627_ddeml@h DB 01H
__957C29A0_dlgs@h DB 01H
__12EA15AF_lzexpand@h DB 01H
__62131F15_mmsyscom@h DB 01H
__47E68D49_mciapi@h DB 01H
__5D7DD356_mmiscapi@h DB 01H
__7223D2EF_mmiscapi2@h DB 01H
__A330DBB3_playsoundapi@h DB 01H
__601B366F_mmeapi@h DB 01H
__1134ADD5_timeapi@h DB 01H
__93F2265A_joystickapi@h DB 01H
__DF6EB4E3_mmsystem@h DB 01H
__BD641FCB_nb30@h DB 01H
__DF8704F0_rpcdcep@h DB 01H
__5C6CA7BB_rpcdce@h DB 01H
__853533C4_rpcnsi@h DB 01H
__2D2406C3_rpcnterr@h DB 01H
__64521D71_rpcasync@h DB 01H
__AADCBA08_rpc@h DB 01H
__19E26CFF_shellapi@h DB 01H
__1E9F31D3_winperf@h DB 01H
__832A4112_inaddr@h DB 01H
__32C6F875_winsock@h DB 01H
__7953A3F8_bcrypt@h DB 01H
__E4169492_ncrypt@h DB 01H
__AF3DDDC3_dpapi@h DB 01H
__D1E23BF2_wincrypt@h DB 01H
__82AB4779_winefs@h DB 01H
__1FE431C9_rpcnsip@h DB 01H
__2B741F2D_rpcsal@h DB 01H
__92623256_rpcndr@h DB 01H
__9C18532E_wtypesbase@h DB 01H
__EA2E1D6D_wtypes@h DB 01H
__7DDD9F45_winioctl@h DB 01H
__E550A843_winsmcrd@h DB 01H
__9809C1BA_winscard@h DB 01H
__EA174FA4_prsht@h DB 01H
__0E1BD114_winspool@h DB 01H
__30B1AFDA_unknwnbase@h DB 01H
__328C1996_objidlbase@h DB 01H
__C4E06B6A_cguid@h DB 01H
__434718C5_combaseapi@h DB 01H
__DE6FDEF1_unknwn@h DB 01H
__CCE0BACC_objidl@h DB 01H
__8C7011E5_oaidl@h DB 01H
__2E0B7863_propidlbase@h DB 01H
__BF4CF2EC_coml2api@h DB 01H
__6D897344_oleidl@h DB 01H
__1129FC2C_servprov@h DB 01H
__757952E4_msxml@h DB 01H
__B1191D53_urlmon@h DB 01H
__404D1A47_propidl@h DB 01H
__A1C63593_objbase@h DB 01H
__C1B0A9CB_oleauto@h DB 01H
__24EAF61F_ole2@h DB 01H
__2B1843DA_commdlg@h DB 01H
__81DDEDE3_stralign@h DB 01H
__2134D1B4_winsvc@h DB 01H
__11C07376_mcx@h DB 01H
__577CE3E7_ime_cmodes@h DB 01H
__1E72C31E_imm@h DB 01H
__63AA7AF5_Windows@h DB 01H
__B06CCC37_Input@h DB 01H
__D9C96BA4_Primitives@h DB 01H
__0EC65DD4_RaiEng@cpp DB 01H
msvcjmc	ENDS
_DATA	SEGMENT
NvOptimusEnablement DD 01H
AmdPowerXpressRequestHighPerformance DD 01H
_DATA	ENDS
PUBLIC	??_H@YAXPEAX_K1P6APEAX0@Z@Z			; `vector constructor iterator'
PUBLIC	?__empty_global_delete@@YAXPEAX@Z		; __empty_global_delete
PUBLIC	?__empty_global_delete@@YAXPEAX_K@Z		; __empty_global_delete
PUBLIC	?__empty_global_delete@@YAXPEAXW4align_val_t@std@@@Z ; __empty_global_delete
PUBLIC	?__empty_global_delete@@YAXPEAX_KW4align_val_t@std@@@Z ; __empty_global_delete
PUBLIC	__local_stdio_printf_options
PUBLIC	_vfprintf_l
PUBLIC	printf
PUBLIC	wmemcpy
PUBLIC	?max@?$numeric_limits@_J@std@@SA_JXZ		; std::numeric_limits<__int64>::max
PUBLIC	?epsilon@?$numeric_limits@M@std@@SAMXZ		; std::numeric_limits<float>::epsilon
PUBLIC	??2@YAPEAX_KPEAX@Z				; operator new
PUBLIC	??0exception@std@@QEAA@QEBD@Z			; std::exception::exception
PUBLIC	??0exception@std@@QEAA@QEBDH@Z			; std::exception::exception
PUBLIC	??0exception@std@@QEAA@AEBV01@@Z		; std::exception::exception
PUBLIC	??1exception@std@@UEAA@XZ			; std::exception::~exception
PUBLIC	?what@exception@std@@UEBAPEBDXZ			; std::exception::what
PUBLIC	??_Gexception@std@@UEAAPEAXI@Z			; std::exception::`scalar deleting destructor'
PUBLIC	??0bad_alloc@std@@AEAA@QEBD@Z			; std::bad_alloc::bad_alloc
PUBLIC	??1bad_alloc@std@@UEAA@XZ			; std::bad_alloc::~bad_alloc
PUBLIC	??0bad_alloc@std@@QEAA@AEBV01@@Z		; std::bad_alloc::bad_alloc
PUBLIC	??_Gbad_alloc@std@@UEAAPEAXI@Z			; std::bad_alloc::`scalar deleting destructor'
PUBLIC	??0bad_array_new_length@std@@QEAA@XZ		; std::bad_array_new_length::bad_array_new_length
PUBLIC	??1bad_array_new_length@std@@UEAA@XZ		; std::bad_array_new_length::~bad_array_new_length
PUBLIC	??0bad_array_new_length@std@@QEAA@AEBV01@@Z	; std::bad_array_new_length::bad_array_new_length
PUBLIC	??_Gbad_array_new_length@std@@UEAAPEAXI@Z	; std::bad_array_new_length::`scalar deleting destructor'
PUBLIC	?_Throw_bad_array_new_length@std@@YAXXZ		; std::_Throw_bad_array_new_length
PUBLIC	?_Allocate@_Default_allocate_traits@std@@SAPEAX_K@Z ; std::_Default_allocate_traits::_Allocate
PUBLIC	?_Adjust_manually_vector_aligned@std@@YAXAEAPEAXAEA_K@Z ; std::_Adjust_manually_vector_aligned
PUBLIC	??0_Container_proxy@std@@QEAA@PEAU_Container_base12@1@@Z ; std::_Container_proxy::_Container_proxy
PUBLIC	??0_Container_base12@std@@QEAA@XZ		; std::_Container_base12::_Container_base12
PUBLIC	?_Orphan_all@_Container_base12@std@@QEAAXXZ	; std::_Container_base12::_Orphan_all
PUBLIC	?_Swap_proxy_and_iterators@_Container_base12@std@@QEAAXAEAU12@@Z ; std::_Container_base12::_Swap_proxy_and_iterators
PUBLIC	?_Orphan_all_unlocked_v3@_Container_base12@std@@AEAAXXZ ; std::_Container_base12::_Orphan_all_unlocked_v3
PUBLIC	?_Swap_proxy_and_iterators_unlocked@_Container_base12@std@@AEAAXAEAU12@@Z ; std::_Container_base12::_Swap_proxy_and_iterators_unlocked
PUBLIC	?_Orphan_all_locked_v3@_Container_base12@std@@AEAAXXZ ; std::_Container_base12::_Orphan_all_locked_v3
PUBLIC	?_Swap_proxy_and_iterators_locked@_Container_base12@std@@AEAAXAEAU12@@Z ; std::_Container_base12::_Swap_proxy_and_iterators_locked
PUBLIC	?_Release@_Basic_container_proxy_ptr12@std@@QEAAXXZ ; std::_Basic_container_proxy_ptr12::_Release
PUBLIC	??0_Basic_container_proxy_ptr12@std@@IEAA@XZ	; std::_Basic_container_proxy_ptr12::_Basic_container_proxy_ptr12
PUBLIC	?copy@?$_Char_traits@DH@std@@SAPEADQEADQEBD_K@Z	; std::_Char_traits<char,int>::copy
PUBLIC	?move@?$_Char_traits@DH@std@@SAPEADQEADQEBD_K@Z	; std::_Char_traits<char,int>::move
PUBLIC	?length@?$_Narrow_char_traits@DH@std@@SA_KQEBD@Z ; std::_Narrow_char_traits<char,int>::length
PUBLIC	?assign@?$_Narrow_char_traits@DH@std@@SAPEADQEAD_KD@Z ; std::_Narrow_char_traits<char,int>::assign
PUBLIC	?assign@?$_Narrow_char_traits@DH@std@@SAXAEADAEBD@Z ; std::_Narrow_char_traits<char,int>::assign
PUBLIC	??0?$basic_string_view@_WU?$char_traits@_W@std@@@std@@QEAA@QEB_W_K@Z ; std::basic_string_view<wchar_t,std::char_traits<wchar_t> >::basic_string_view<wchar_t,std::char_traits<wchar_t> >
PUBLIC	?size@?$basic_string_view@_WU?$char_traits@_W@std@@@std@@QEBA_KXZ ; std::basic_string_view<wchar_t,std::char_traits<wchar_t> >::size
PUBLIC	?empty@?$basic_string_view@_WU?$char_traits@_W@std@@@std@@QEBA_NXZ ; std::basic_string_view<wchar_t,std::char_traits<wchar_t> >::empty
PUBLIC	?data@?$basic_string_view@_WU?$char_traits@_W@std@@@std@@QEBAPEB_WXZ ; std::basic_string_view<wchar_t,std::char_traits<wchar_t> >::data
PUBLIC	?_Xlen_string@std@@YAXXZ			; std::_Xlen_string
PUBLIC	??0?$allocator@D@std@@QEAA@XZ			; std::allocator<char>::allocator<char>
PUBLIC	?deallocate@?$allocator@D@std@@QEAAXQEAD_K@Z	; std::allocator<char>::deallocate
PUBLIC	?allocate@?$allocator@D@std@@QEAAPEAD_K@Z	; std::allocator<char>::allocate
PUBLIC	?max_size@?$_Default_allocator_traits@V?$allocator@D@std@@@std@@SA_KAEBV?$allocator@D@2@@Z ; std::_Default_allocator_traits<std::allocator<char> >::max_size
PUBLIC	?select_on_container_copy_construction@?$_Default_allocator_traits@V?$allocator@D@std@@@std@@SA?AV?$allocator@D@2@AEBV32@@Z ; std::_Default_allocator_traits<std::allocator<char> >::select_on_container_copy_construction
PUBLIC	??0?$_String_val@U?$_Simple_types@D@std@@@std@@QEAA@XZ ; std::_String_val<std::_Simple_types<char> >::_String_val<std::_Simple_types<char> >
PUBLIC	?_Myptr@?$_String_val@U?$_Simple_types@D@std@@@std@@QEAAPEADXZ ; std::_String_val<std::_Simple_types<char> >::_Myptr
PUBLIC	?_Myptr@?$_String_val@U?$_Simple_types@D@std@@@std@@QEBAPEBDXZ ; std::_String_val<std::_Simple_types<char> >::_Myptr
PUBLIC	?_Large_string_engaged@?$_String_val@U?$_Simple_types@D@std@@@std@@QEBA_NXZ ; std::_String_val<std::_Simple_types<char> >::_Large_string_engaged
PUBLIC	??0_Bxty@?$_String_val@U?$_Simple_types@D@std@@@std@@QEAA@XZ ; std::_String_val<std::_Simple_types<char> >::_Bxty::_Bxty
PUBLIC	??1_Bxty@?$_String_val@U?$_Simple_types@D@std@@@std@@QEAA@XZ ; std::_String_val<std::_Simple_types<char> >::_Bxty::~_Bxty
PUBLIC	??1?$_String_val@U?$_Simple_types@D@std@@@std@@QEAA@XZ ; std::_String_val<std::_Simple_types<char> >::~_String_val<std::_Simple_types<char> >
PUBLIC	??0?$basic_string@DU?$char_traits@D@std@@V?$allocator@D@2@@std@@QEAA@XZ ; std::basic_string<char,std::char_traits<char>,std::allocator<char> >::basic_string<char,std::char_traits<char>,std::allocator<char> >
PUBLIC	??0?$basic_string@DU?$char_traits@D@std@@V?$allocator@D@2@@std@@QEAA@AEBV?$allocator@D@1@@Z ; std::basic_string<char,std::char_traits<char>,std::allocator<char> >::basic_string<char,std::char_traits<char>,std::allocator<char> >
PUBLIC	??0?$basic_string@DU?$char_traits@D@std@@V?$allocator@D@2@@std@@QEAA@AEBV01@@Z ; std::basic_string<char,std::char_traits<char>,std::allocator<char> >::basic_string<char,std::char_traits<char>,std::allocator<char> >
PUBLIC	??0?$basic_string@DU?$char_traits@D@std@@V?$allocator@D@2@@std@@QEAA@QEBD_K@Z ; std::basic_string<char,std::char_traits<char>,std::allocator<char> >::basic_string<char,std::char_traits<char>,std::allocator<char> >
PUBLIC	??0?$basic_string@DU?$char_traits@D@std@@V?$allocator@D@2@@std@@QEAA@QEBD@Z ; std::basic_string<char,std::char_traits<char>,std::allocator<char> >::basic_string<char,std::char_traits<char>,std::allocator<char> >
PUBLIC	??0?$basic_string@DU?$char_traits@D@std@@V?$allocator@D@2@@std@@QEAA@$$QEAV01@@Z ; std::basic_string<char,std::char_traits<char>,std::allocator<char> >::basic_string<char,std::char_traits<char>,std::allocator<char> >
PUBLIC	?_Memcpy_val_from@?$basic_string@DU?$char_traits@D@std@@V?$allocator@D@2@@std@@AEAAXAEBV12@@Z ; std::basic_string<char,std::char_traits<char>,std::allocator<char> >::_Memcpy_val_from
PUBLIC	?_Take_contents@?$basic_string@DU?$char_traits@D@std@@V?$allocator@D@2@@std@@AEAAXAEAV12@@Z ; std::basic_string<char,std::char_traits<char>,std::allocator<char> >::_Take_contents
PUBLIC	??1?$basic_string@DU?$char_traits@D@std@@V?$allocator@D@2@@std@@QEAA@XZ ; std::basic_string<char,std::char_traits<char>,std::allocator<char> >::~basic_string<char,std::char_traits<char>,std::allocator<char> >
PUBLIC	?append@?$basic_string@DU?$char_traits@D@std@@V?$allocator@D@2@@std@@QEAAAEAV12@AEBV12@@Z ; std::basic_string<char,std::char_traits<char>,std::allocator<char> >::append
PUBLIC	?append@?$basic_string@DU?$char_traits@D@std@@V?$allocator@D@2@@std@@QEAAAEAV12@QEBD_K@Z ; std::basic_string<char,std::char_traits<char>,std::allocator<char> >::append
PUBLIC	?append@?$basic_string@DU?$char_traits@D@std@@V?$allocator@D@2@@std@@QEAAAEAV12@QEBD@Z ; std::basic_string<char,std::char_traits<char>,std::allocator<char> >::append
PUBLIC	?append@?$basic_string@DU?$char_traits@D@std@@V?$allocator@D@2@@std@@QEAAAEAV12@_KD@Z ; std::basic_string<char,std::char_traits<char>,std::allocator<char> >::append
PUBLIC	?c_str@?$basic_string@DU?$char_traits@D@std@@V?$allocator@D@2@@std@@QEBAPEBDXZ ; std::basic_string<char,std::char_traits<char>,std::allocator<char> >::c_str
PUBLIC	?data@?$basic_string@DU?$char_traits@D@std@@V?$allocator@D@2@@std@@QEAAPEADXZ ; std::basic_string<char,std::char_traits<char>,std::allocator<char> >::data
PUBLIC	?size@?$basic_string@DU?$char_traits@D@std@@V?$allocator@D@2@@std@@QEBA_KXZ ; std::basic_string<char,std::char_traits<char>,std::allocator<char> >::size
PUBLIC	?max_size@?$basic_string@DU?$char_traits@D@std@@V?$allocator@D@2@@std@@QEBA_KXZ ; std::basic_string<char,std::char_traits<char>,std::allocator<char> >::max_size
PUBLIC	?resize@?$basic_string@DU?$char_traits@D@std@@V?$allocator@D@2@@std@@QEAAX_KD@Z ; std::basic_string<char,std::char_traits<char>,std::allocator<char> >::resize
PUBLIC	?empty@?$basic_string@DU?$char_traits@D@std@@V?$allocator@D@2@@std@@QEBA_NXZ ; std::basic_string<char,std::char_traits<char>,std::allocator<char> >::empty
PUBLIC	?_Calculate_growth@?$basic_string@DU?$char_traits@D@std@@V?$allocator@D@2@@std@@CA_K_K00@Z ; std::basic_string<char,std::char_traits<char>,std::allocator<char> >::_Calculate_growth
PUBLIC	?_Calculate_growth@?$basic_string@DU?$char_traits@D@std@@V?$allocator@D@2@@std@@AEBA_K_K@Z ; std::basic_string<char,std::char_traits<char>,std::allocator<char> >::_Calculate_growth
PUBLIC	?_Eos@?$basic_string@DU?$char_traits@D@std@@V?$allocator@D@2@@std@@AEAAX_K@Z ; std::basic_string<char,std::char_traits<char>,std::allocator<char> >::_Eos
PUBLIC	?_Tidy_init@?$basic_string@DU?$char_traits@D@std@@V?$allocator@D@2@@std@@AEAAXXZ ; std::basic_string<char,std::char_traits<char>,std::allocator<char> >::_Tidy_init
PUBLIC	?_Tidy_deallocate@?$basic_string@DU?$char_traits@D@std@@V?$allocator@D@2@@std@@AEAAXXZ ; std::basic_string<char,std::char_traits<char>,std::allocator<char> >::_Tidy_deallocate
PUBLIC	?_Swap_proxy_and_iterators@?$basic_string@DU?$char_traits@D@std@@V?$allocator@D@2@@std@@AEAAXAEAV12@@Z ; std::basic_string<char,std::char_traits<char>,std::allocator<char> >::_Swap_proxy_and_iterators
PUBLIC	?_Getal@?$basic_string@DU?$char_traits@D@std@@V?$allocator@D@2@@std@@AEAAAEAV?$allocator@D@2@XZ ; std::basic_string<char,std::char_traits<char>,std::allocator<char> >::_Getal
PUBLIC	?_Getal@?$basic_string@DU?$char_traits@D@std@@V?$allocator@D@2@@std@@AEBAAEBV?$allocator@D@2@XZ ; std::basic_string<char,std::char_traits<char>,std::allocator<char> >::_Getal
PUBLIC	?_Get_first@?$_Compressed_pair@V?$allocator@D@std@@V?$_String_val@U?$_Simple_types@D@std@@@2@$00@std@@QEAAAEAV?$allocator@D@2@XZ ; std::_Compressed_pair<std::allocator<char>,std::_String_val<std::_Simple_types<char> >,1>::_Get_first
PUBLIC	?_Get_first@?$_Compressed_pair@V?$allocator@D@std@@V?$_String_val@U?$_Simple_types@D@std@@@2@$00@std@@QEBAAEBV?$allocator@D@2@XZ ; std::_Compressed_pair<std::allocator<char>,std::_String_val<std::_Simple_types<char> >,1>::_Get_first
PUBLIC	??1?$_Compressed_pair@V?$allocator@D@std@@V?$_String_val@U?$_Simple_types@D@std@@@2@$00@std@@QEAA@XZ ; std::_Compressed_pair<std::allocator<char>,std::_String_val<std::_Simple_types<char> >,1>::~_Compressed_pair<std::allocator<char>,std::_String_val<std::_Simple_types<char> >,1>
PUBLIC	?_Myptr@?$_String_val@U?$_Simple_types@_W@std@@@std@@QEBAPEB_WXZ ; std::_String_val<std::_Simple_types<wchar_t> >::_Myptr
PUBLIC	?_Large_string_engaged@?$_String_val@U?$_Simple_types@_W@std@@@std@@QEBA_NXZ ; std::_String_val<std::_Simple_types<wchar_t> >::_Large_string_engaged
PUBLIC	??B?$basic_string@_WU?$char_traits@_W@std@@V?$allocator@_W@2@@std@@QEBA?AV?$basic_string_view@_WU?$char_traits@_W@std@@@1@XZ ; std::basic_string<wchar_t,std::char_traits<wchar_t>,std::allocator<wchar_t> >::operator std::basic_string_view<wchar_t,std::char_traits<wchar_t> >
PUBLIC	?sqrt@@YAMM@Z					; sqrt
PUBLIC	?tan@@YAMM@Z					; tan
PUBLIC	?length@?$vec@$03M$0A@@glm@@SAHXZ		; glm::vec<4,float,0>::length
PUBLIC	??A?$vec@$03M$0A@@glm@@QEAAAEAMH@Z		; glm::vec<4,float,0>::operator[]
PUBLIC	??A?$vec@$03M$0A@@glm@@QEBAAEBMH@Z		; glm::vec<4,float,0>::operator[]
PUBLIC	??0?$vec@$03M$0A@@glm@@QEAA@M@Z			; glm::vec<4,float,0>::vec<4,float,0>
PUBLIC	??0?$vec@$03M$0A@@glm@@QEAA@MMMM@Z		; glm::vec<4,float,0>::vec<4,float,0>
PUBLIC	??$?DM$0A@@glm@@YA?AU?$vec@$03M$0A@@0@AEBU10@AEBM@Z ; glm::operator*<float,0>
PUBLIC	??$abs@M@glm@@YAMM@Z				; glm::abs<float>
PUBLIC	??0runtime_error@std@@QEAA@AEBV?$basic_string@DU?$char_traits@D@std@@V?$allocator@D@2@@1@@Z ; std::runtime_error::runtime_error
PUBLIC	??1runtime_error@std@@UEAA@XZ			; std::runtime_error::~runtime_error
PUBLIC	??0runtime_error@std@@QEAA@AEBV01@@Z		; std::runtime_error::runtime_error
PUBLIC	??_Gruntime_error@std@@UEAAPEAXI@Z		; std::runtime_error::`scalar deleting destructor'
PUBLIC	?make_error_code@std@@YA?AVerror_code@1@W4errc@1@@Z ; std::make_error_code
PUBLIC	?generic_category@std@@YAAEBVerror_category@1@XZ ; std::generic_category
PUBLIC	?system_category@std@@YAAEBVerror_category@1@XZ	; std::system_category
PUBLIC	??1error_category@std@@UEAA@XZ			; std::error_category::~error_category
PUBLIC	?default_error_condition@error_category@std@@UEBA?AVerror_condition@2@H@Z ; std::error_category::default_error_condition
PUBLIC	?equivalent@error_category@std@@UEBA_NHAEBVerror_condition@2@@Z ; std::error_category::equivalent
PUBLIC	?equivalent@error_category@std@@UEBA_NAEBVerror_code@2@H@Z ; std::error_category::equivalent
PUBLIC	??8error_category@std@@QEBA_NAEBV01@@Z		; std::error_category::operator==
PUBLIC	??0error_code@std@@QEAA@HAEBVerror_category@1@@Z ; std::error_code::error_code
PUBLIC	?value@error_code@std@@QEBAHXZ			; std::error_code::value
PUBLIC	?category@error_code@std@@QEBAAEBVerror_category@2@XZ ; std::error_code::category
PUBLIC	?message@error_code@std@@QEBA?AV?$basic_string@DU?$char_traits@D@std@@V?$allocator@D@2@@2@XZ ; std::error_code::message
PUBLIC	??0error_condition@std@@QEAA@HAEBVerror_category@1@@Z ; std::error_condition::error_condition
PUBLIC	?value@error_condition@std@@QEBAHXZ		; std::error_condition::value
PUBLIC	?category@error_condition@std@@QEBAAEBVerror_category@2@XZ ; std::error_condition::category
PUBLIC	??8std@@YA_NAEBVerror_condition@0@0@Z		; std::operator==
PUBLIC	?_Makestr@_System_error@std@@CA?AV?$basic_string@DU?$char_traits@D@std@@V?$allocator@D@2@@2@Verror_code@2@V32@@Z ; std::_System_error::_Makestr
PUBLIC	??0_System_error@std@@IEAA@Verror_code@1@AEBV?$basic_string@DU?$char_traits@D@std@@V?$allocator@D@2@@1@@Z ; std::_System_error::_System_error
PUBLIC	??1_System_error@std@@UEAA@XZ			; std::_System_error::~_System_error
PUBLIC	??0_System_error@std@@QEAA@AEBV01@@Z		; std::_System_error::_System_error
PUBLIC	??_G_System_error@std@@UEAAPEAXI@Z		; std::_System_error::`scalar deleting destructor'
PUBLIC	??0system_error@std@@QEAA@Verror_code@1@@Z	; std::system_error::system_error
PUBLIC	??1system_error@std@@UEAA@XZ			; std::system_error::~system_error
PUBLIC	??0system_error@std@@QEAA@AEBV01@@Z		; std::system_error::system_error
PUBLIC	??_Gsystem_error@std@@UEAAPEAXI@Z		; std::system_error::`scalar deleting destructor'
PUBLIC	?_Throw_system_error@std@@YAXW4errc@1@@Z	; std::_Throw_system_error
PUBLIC	??0_System_error_message@std@@QEAA@K@Z		; std::_System_error_message::_System_error_message
PUBLIC	??1_System_error_message@std@@QEAA@XZ		; std::_System_error_message::~_System_error_message
PUBLIC	?name@_Generic_error_category@std@@UEBAPEBDXZ	; std::_Generic_error_category::name
PUBLIC	?message@_Generic_error_category@std@@UEBA?AV?$basic_string@DU?$char_traits@D@std@@V?$allocator@D@2@@2@H@Z ; std::_Generic_error_category::message
PUBLIC	??1_Generic_error_category@std@@UEAA@XZ		; std::_Generic_error_category::~_Generic_error_category
PUBLIC	??_G_Generic_error_category@std@@UEAAPEAXI@Z	; std::_Generic_error_category::`scalar deleting destructor'
PUBLIC	?name@_System_error_category@std@@UEBAPEBDXZ	; std::_System_error_category::name
PUBLIC	?message@_System_error_category@std@@UEBA?AV?$basic_string@DU?$char_traits@D@std@@V?$allocator@D@2@@2@H@Z ; std::_System_error_category::message
PUBLIC	?default_error_condition@_System_error_category@std@@UEBA?AVerror_condition@2@H@Z ; std::_System_error_category::default_error_condition
PUBLIC	??1_System_error_category@std@@UEAA@XZ		; std::_System_error_category::~_System_error_category
PUBLIC	??_G_System_error_category@std@@UEAAPEAXI@Z	; std::_System_error_category::`scalar deleting destructor'
PUBLIC	??$_Immortalize_memcpy_image@V_Generic_error_category@std@@@std@@YAAEBV_Generic_error_category@0@XZ ; std::_Immortalize_memcpy_image<std::_Generic_error_category>
PUBLIC	??$_Immortalize_memcpy_image@V_System_error_category@std@@@std@@YAAEBV_System_error_category@0@XZ ; std::_Immortalize_memcpy_image<std::_System_error_category>
PUBLIC	??$_Maklocstr@_W@std@@YAPEA_WPEBDPEA_WAEBU_Cvtvec@@@Z ; std::_Maklocstr<wchar_t>
PUBLIC	?_Maklocwcs@std@@YAPEA_WPEB_W@Z			; std::_Maklocwcs
PUBLIC	?length@?$vec@$02M$0A@@glm@@SAHXZ		; glm::vec<3,float,0>::length
PUBLIC	??A?$vec@$02M$0A@@glm@@QEBAAEBMH@Z		; glm::vec<3,float,0>::operator[]
PUBLIC	??0?$vec@$02M$0A@@glm@@QEAA@M@Z			; glm::vec<3,float,0>::vec<3,float,0>
PUBLIC	??0?$vec@$02M$0A@@glm@@QEAA@MMM@Z		; glm::vec<3,float,0>::vec<3,float,0>
PUBLIC	??0?$allocator@PEBD@std@@QEAA@XZ		; std::allocator<char const *>::allocator<char const *>
PUBLIC	?deallocate@?$allocator@PEBD@std@@QEAAXQEAPEBD_K@Z ; std::allocator<char const *>::deallocate
PUBLIC	?allocate@?$allocator@PEBD@std@@QEAAPEAPEBD_K@Z	; std::allocator<char const *>::allocate
PUBLIC	?max_size@?$_Default_allocator_traits@V?$allocator@PEBD@std@@@std@@SA_KAEBV?$allocator@PEBD@2@@Z ; std::_Default_allocator_traits<std::allocator<char const *> >::max_size
PUBLIC	??0?$vector@PEBDV?$allocator@PEBD@std@@@std@@QEAA@V?$initializer_list@PEBD@1@AEBV?$allocator@PEBD@1@@Z ; std::vector<char const *,std::allocator<char const *> >::vector<char const *,std::allocator<char const *> >
PUBLIC	??1?$vector@PEBDV?$allocator@PEBD@std@@@std@@QEAA@XZ ; std::vector<char const *,std::allocator<char const *> >::~vector<char const *,std::allocator<char const *> >
PUBLIC	?data@?$vector@PEBDV?$allocator@PEBD@std@@@std@@QEBAPEBQEBDXZ ; std::vector<char const *,std::allocator<char const *> >::data
PUBLIC	?_Unchecked_begin@?$vector@PEBDV?$allocator@PEBD@std@@@std@@QEBAPEBQEBDXZ ; std::vector<char const *,std::allocator<char const *> >::_Unchecked_begin
PUBLIC	?_Unchecked_end@?$vector@PEBDV?$allocator@PEBD@std@@@std@@QEBAPEBQEBDXZ ; std::vector<char const *,std::allocator<char const *> >::_Unchecked_end
PUBLIC	?size@?$vector@PEBDV?$allocator@PEBD@std@@@std@@QEBA_KXZ ; std::vector<char const *,std::allocator<char const *> >::size
PUBLIC	?max_size@?$vector@PEBDV?$allocator@PEBD@std@@@std@@QEBA_KXZ ; std::vector<char const *,std::allocator<char const *> >::max_size
PUBLIC	?_Buy_raw@?$vector@PEBDV?$allocator@PEBD@std@@@std@@AEAAX_K@Z ; std::vector<char const *,std::allocator<char const *> >::_Buy_raw
PUBLIC	?_Buy_nonzero@?$vector@PEBDV?$allocator@PEBD@std@@@std@@AEAAX_K@Z ; std::vector<char const *,std::allocator<char const *> >::_Buy_nonzero
PUBLIC	?_Tidy@?$vector@PEBDV?$allocator@PEBD@std@@@std@@AEAAXXZ ; std::vector<char const *,std::allocator<char const *> >::_Tidy
PUBLIC	?_Xlength@?$vector@PEBDV?$allocator@PEBD@std@@@std@@CAXXZ ; std::vector<char const *,std::allocator<char const *> >::_Xlength
PUBLIC	?_Getal@?$vector@PEBDV?$allocator@PEBD@std@@@std@@AEAAAEAV?$allocator@PEBD@2@XZ ; std::vector<char const *,std::allocator<char const *> >::_Getal
PUBLIC	?_Getal@?$vector@PEBDV?$allocator@PEBD@std@@@std@@AEBAAEBV?$allocator@PEBD@2@XZ ; std::vector<char const *,std::allocator<char const *> >::_Getal
PUBLIC	??0?$_Vector_val@U?$_Simple_types@PEBD@std@@@std@@QEAA@XZ ; std::_Vector_val<std::_Simple_types<char const *> >::_Vector_val<std::_Simple_types<char const *> >
PUBLIC	?_Get_first@?$_Compressed_pair@V?$allocator@PEBD@std@@V?$_Vector_val@U?$_Simple_types@PEBD@std@@@2@$00@std@@QEAAAEAV?$allocator@PEBD@2@XZ ; std::_Compressed_pair<std::allocator<char const *>,std::_Vector_val<std::_Simple_types<char const *> >,1>::_Get_first
PUBLIC	?_Get_first@?$_Compressed_pair@V?$allocator@PEBD@std@@V?$_Vector_val@U?$_Simple_types@PEBD@std@@@2@$00@std@@QEBAAEBV?$allocator@PEBD@2@XZ ; std::_Compressed_pair<std::allocator<char const *>,std::_Vector_val<std::_Simple_types<char const *> >,1>::_Get_first
PUBLIC	?__autoclassinit2@?$vector@PEBDV?$allocator@PEBD@std@@@std@@QEAAX_K@Z ; std::vector<char const *,std::allocator<char const *> >::__autoclassinit2
PUBLIC	??0?$initializer_list@PEBD@std@@QEAA@PEBQEBD0@Z	; std::initializer_list<char const *>::initializer_list<char const *>
PUBLIC	?begin@?$initializer_list@PEBD@std@@QEBAPEBQEBDXZ ; std::initializer_list<char const *>::begin
PUBLIC	?end@?$initializer_list@PEBD@std@@QEBAPEBQEBDXZ	; std::initializer_list<char const *>::end
PUBLIC	?size@?$initializer_list@PEBD@std@@QEBA_KXZ	; std::initializer_list<char const *>::size
PUBLIC	?checkValidationLayerSupport@@YA_NXZ		; checkValidationLayerSupport
PUBLIC	??0?$allocator@UVkLayerProperties@@@std@@QEAA@XZ ; std::allocator<VkLayerProperties>::allocator<VkLayerProperties>
PUBLIC	?deallocate@?$allocator@UVkLayerProperties@@@std@@QEAAXQEAUVkLayerProperties@@_K@Z ; std::allocator<VkLayerProperties>::deallocate
PUBLIC	?allocate@?$allocator@UVkLayerProperties@@@std@@QEAAPEAUVkLayerProperties@@_K@Z ; std::allocator<VkLayerProperties>::allocate
PUBLIC	?max_size@?$_Default_allocator_traits@V?$allocator@UVkLayerProperties@@@std@@@std@@SA_KAEBV?$allocator@UVkLayerProperties@@@2@@Z ; std::_Default_allocator_traits<std::allocator<VkLayerProperties> >::max_size
PUBLIC	??0?$vector@UVkLayerProperties@@V?$allocator@UVkLayerProperties@@@std@@@std@@QEAA@_KAEBV?$allocator@UVkLayerProperties@@@1@@Z ; std::vector<VkLayerProperties,std::allocator<VkLayerProperties> >::vector<VkLayerProperties,std::allocator<VkLayerProperties> >
PUBLIC	??1?$vector@UVkLayerProperties@@V?$allocator@UVkLayerProperties@@@std@@@std@@QEAA@XZ ; std::vector<VkLayerProperties,std::allocator<VkLayerProperties> >::~vector<VkLayerProperties,std::allocator<VkLayerProperties> >
PUBLIC	?data@?$vector@UVkLayerProperties@@V?$allocator@UVkLayerProperties@@@std@@@std@@QEAAPEAUVkLayerProperties@@XZ ; std::vector<VkLayerProperties,std::allocator<VkLayerProperties> >::data
PUBLIC	?_Unchecked_begin@?$vector@UVkLayerProperties@@V?$allocator@UVkLayerProperties@@@std@@@std@@QEAAPEAUVkLayerProperties@@XZ ; std::vector<VkLayerProperties,std::allocator<VkLayerProperties> >::_Unchecked_begin
PUBLIC	?_Unchecked_end@?$vector@UVkLayerProperties@@V?$allocator@UVkLayerProperties@@@std@@@std@@QEAAPEAUVkLayerProperties@@XZ ; std::vector<VkLayerProperties,std::allocator<VkLayerProperties> >::_Unchecked_end
PUBLIC	?max_size@?$vector@UVkLayerProperties@@V?$allocator@UVkLayerProperties@@@std@@@std@@QEBA_KXZ ; std::vector<VkLayerProperties,std::allocator<VkLayerProperties> >::max_size
PUBLIC	?_Buy_raw@?$vector@UVkLayerProperties@@V?$allocator@UVkLayerProperties@@@std@@@std@@AEAAX_K@Z ; std::vector<VkLayerProperties,std::allocator<VkLayerProperties> >::_Buy_raw
PUBLIC	?_Buy_nonzero@?$vector@UVkLayerProperties@@V?$allocator@UVkLayerProperties@@@std@@@std@@AEAAX_K@Z ; std::vector<VkLayerProperties,std::allocator<VkLayerProperties> >::_Buy_nonzero
PUBLIC	?_Tidy@?$vector@UVkLayerProperties@@V?$allocator@UVkLayerProperties@@@std@@@std@@AEAAXXZ ; std::vector<VkLayerProperties,std::allocator<VkLayerProperties> >::_Tidy
PUBLIC	?_Xlength@?$vector@UVkLayerProperties@@V?$allocator@UVkLayerProperties@@@std@@@std@@CAXXZ ; std::vector<VkLayerProperties,std::allocator<VkLayerProperties> >::_Xlength
PUBLIC	?_Getal@?$vector@UVkLayerProperties@@V?$allocator@UVkLayerProperties@@@std@@@std@@AEAAAEAV?$allocator@UVkLayerProperties@@@2@XZ ; std::vector<VkLayerProperties,std::allocator<VkLayerProperties> >::_Getal
PUBLIC	?_Getal@?$vector@UVkLayerProperties@@V?$allocator@UVkLayerProperties@@@std@@@std@@AEBAAEBV?$allocator@UVkLayerProperties@@@2@XZ ; std::vector<VkLayerProperties,std::allocator<VkLayerProperties> >::_Getal
PUBLIC	??0?$_Vector_val@U?$_Simple_types@UVkLayerProperties@@@std@@@std@@QEAA@XZ ; std::_Vector_val<std::_Simple_types<VkLayerProperties> >::_Vector_val<std::_Simple_types<VkLayerProperties> >
PUBLIC	?_Get_first@?$_Compressed_pair@V?$allocator@UVkLayerProperties@@@std@@V?$_Vector_val@U?$_Simple_types@UVkLayerProperties@@@std@@@2@$00@std@@QEAAAEAV?$allocator@UVkLayerProperties@@@2@XZ ; std::_Compressed_pair<std::allocator<VkLayerProperties>,std::_Vector_val<std::_Simple_types<VkLayerProperties> >,1>::_Get_first
PUBLIC	?_Get_first@?$_Compressed_pair@V?$allocator@UVkLayerProperties@@@std@@V?$_Vector_val@U?$_Simple_types@UVkLayerProperties@@@std@@@2@$00@std@@QEBAAEBV?$allocator@UVkLayerProperties@@@2@XZ ; std::_Compressed_pair<std::allocator<VkLayerProperties>,std::_Vector_val<std::_Simple_types<VkLayerProperties> >,1>::_Get_first
PUBLIC	?__autoclassinit2@?$vector@UVkLayerProperties@@V?$allocator@UVkLayerProperties@@@std@@@std@@QEAAX_K@Z ; std::vector<VkLayerProperties,std::allocator<VkLayerProperties> >::__autoclassinit2
PUBLIC	?_CreateWindow@@YAAEAUGLFWwindow@@PEBDHH@Z	; _CreateWindow
PUBLIC	?length@?$mat@$03$03M$0A@@glm@@SAHXZ		; glm::mat<4,4,float,0>::length
PUBLIC	??A?$mat@$03$03M$0A@@glm@@QEAAAEAU?$vec@$03M$0A@@1@H@Z ; glm::mat<4,4,float,0>::operator[]
PUBLIC	??A?$mat@$03$03M$0A@@glm@@QEBAAEBU?$vec@$03M$0A@@1@H@Z ; glm::mat<4,4,float,0>::operator[]
PUBLIC	??0?$mat@$03$03M$0A@@glm@@QEAA@AEBM@Z		; glm::mat<4,4,float,0>::mat<4,4,float,0>
PUBLIC	??$?DM$0A@@glm@@YA?AU?$vec@$03M$0A@@0@AEBU?$mat@$03$03M$0A@@0@AEBU10@@Z ; glm::operator*<float,0>
PUBLIC	?deallocate@?$allocator@I@std@@QEAAXQEAI_K@Z	; std::allocator<unsigned int>::deallocate
PUBLIC	??1?$vector@IV?$allocator@I@std@@@std@@QEAA@XZ	; std::vector<unsigned int,std::allocator<unsigned int> >::~vector<unsigned int,std::allocator<unsigned int> >
PUBLIC	?_Tidy@?$vector@IV?$allocator@I@std@@@std@@AEAAXXZ ; std::vector<unsigned int,std::allocator<unsigned int> >::_Tidy
PUBLIC	?_Getal@?$vector@IV?$allocator@I@std@@@std@@AEAAAEAV?$allocator@I@2@XZ ; std::vector<unsigned int,std::allocator<unsigned int> >::_Getal
PUBLIC	?_Get_first@?$_Compressed_pair@V?$allocator@I@std@@V?$_Vector_val@U?$_Simple_types@I@std@@@2@$00@std@@QEAAAEAV?$allocator@I@2@XZ ; std::_Compressed_pair<std::allocator<unsigned int>,std::_Vector_val<std::_Simple_types<unsigned int> >,1>::_Get_first
PUBLIC	?deallocate@?$allocator@UVertex@@@std@@QEAAXQEAUVertex@@_K@Z ; std::allocator<Vertex>::deallocate
PUBLIC	??1?$vector@UVertex@@V?$allocator@UVertex@@@std@@@std@@QEAA@XZ ; std::vector<Vertex,std::allocator<Vertex> >::~vector<Vertex,std::allocator<Vertex> >
PUBLIC	?_Tidy@?$vector@UVertex@@V?$allocator@UVertex@@@std@@@std@@AEAAXXZ ; std::vector<Vertex,std::allocator<Vertex> >::_Tidy
PUBLIC	?_Getal@?$vector@UVertex@@V?$allocator@UVertex@@@std@@@std@@AEAAAEAV?$allocator@UVertex@@@2@XZ ; std::vector<Vertex,std::allocator<Vertex> >::_Getal
PUBLIC	?_Get_first@?$_Compressed_pair@V?$allocator@UVertex@@@std@@V?$_Vector_val@U?$_Simple_types@UVertex@@@std@@@2@$00@std@@QEAAAEAV?$allocator@UVertex@@@2@XZ ; std::_Compressed_pair<std::allocator<Vertex>,std::_Vector_val<std::_Simple_types<Vertex> >,1>::_Get_first
PUBLIC	?_ClearColorBuffer@@YAXXZ			; _ClearColorBuffer
PUBLIC	?_Create2DSphere@@YAIMMMM@Z			; _Create2DSphere
PUBLIC	?_UseShader@@YAXI@Z				; _UseShader
PUBLIC	?_DrawArrays@@YAXU?$mat@$03$03M$0A@@glm@@00U?$vec@$02M$0A@@2@IIIIH@Z ; _DrawArrays
PUBLIC	??1Shader@@QEAA@XZ				; Shader::~Shader
PUBLIC	?__autoclassinit2@Shader@@QEAAX_K@Z		; Shader::__autoclassinit2
PUBLIC	??1Texture@@QEAA@XZ				; Texture::~Texture
PUBLIC	??_GTexture@@QEAAPEAXI@Z			; Texture::`scalar deleting destructor'
PUBLIC	?deallocate@?$allocator@UTexture@@@std@@QEAAXQEAUTexture@@_K@Z ; std::allocator<Texture>::deallocate
PUBLIC	??1?$vector@UTexture@@V?$allocator@UTexture@@@std@@@std@@QEAA@XZ ; std::vector<Texture,std::allocator<Texture> >::~vector<Texture,std::allocator<Texture> >
PUBLIC	?_Tidy@?$vector@UTexture@@V?$allocator@UTexture@@@std@@@std@@AEAAXXZ ; std::vector<Texture,std::allocator<Texture> >::_Tidy
PUBLIC	?_Getal@?$vector@UTexture@@V?$allocator@UTexture@@@std@@@std@@AEAAAEAV?$allocator@UTexture@@@2@XZ ; std::vector<Texture,std::allocator<Texture> >::_Getal
PUBLIC	?_Get_first@?$_Compressed_pair@V?$allocator@UTexture@@@std@@V?$_Vector_val@U?$_Simple_types@UTexture@@@std@@@2@$00@std@@QEAAAEAV?$allocator@UTexture@@@2@XZ ; std::_Compressed_pair<std::allocator<Texture>,std::_Vector_val<std::_Simple_types<Texture> >,1>::_Get_first
PUBLIC	??1Mesh@@QEAA@XZ				; Mesh::~Mesh
PUBLIC	??_GMesh@@QEAAPEAXI@Z				; Mesh::`scalar deleting destructor'
PUBLIC	??0Model@@QEAA@V?$basic_string@DU?$char_traits@D@std@@V?$allocator@D@2@@std@@@Z ; Model::Model
PUBLIC	??0?$allocator@VMesh@@@std@@QEAA@XZ		; std::allocator<Mesh>::allocator<Mesh>
PUBLIC	?deallocate@?$allocator@VMesh@@@std@@QEAAXQEAVMesh@@_K@Z ; std::allocator<Mesh>::deallocate
PUBLIC	??0?$vector@VMesh@@V?$allocator@VMesh@@@std@@@std@@QEAA@XZ ; std::vector<Mesh,std::allocator<Mesh> >::vector<Mesh,std::allocator<Mesh> >
PUBLIC	??1?$vector@VMesh@@V?$allocator@VMesh@@@std@@@std@@QEAA@XZ ; std::vector<Mesh,std::allocator<Mesh> >::~vector<Mesh,std::allocator<Mesh> >
PUBLIC	?_Tidy@?$vector@VMesh@@V?$allocator@VMesh@@@std@@@std@@AEAAXXZ ; std::vector<Mesh,std::allocator<Mesh> >::_Tidy
PUBLIC	?_Getal@?$vector@VMesh@@V?$allocator@VMesh@@@std@@@std@@AEAAAEAV?$allocator@VMesh@@@2@XZ ; std::vector<Mesh,std::allocator<Mesh> >::_Getal
PUBLIC	??0?$_Vector_val@U?$_Simple_types@VMesh@@@std@@@std@@QEAA@XZ ; std::_Vector_val<std::_Simple_types<Mesh> >::_Vector_val<std::_Simple_types<Mesh> >
PUBLIC	?_Get_first@?$_Compressed_pair@V?$allocator@VMesh@@@std@@V?$_Vector_val@U?$_Simple_types@VMesh@@@std@@@2@$00@std@@QEAAAEAV?$allocator@VMesh@@@2@XZ ; std::_Compressed_pair<std::allocator<Mesh>,std::_Vector_val<std::_Simple_types<Mesh> >,1>::_Get_first
PUBLIC	?__autoclassinit2@Model@@QEAAX_K@Z		; Model::__autoclassinit2
PUBLIC	??0ImVec2@@QEAA@MM@Z				; ImVec2::ImVec2
PUBLIC	??$_Getvals@_W@?$time_get@DV?$istreambuf_iterator@DU?$char_traits@D@std@@@std@@@std@@IEAAX_WAEBV_Locinfo@1@@Z ; std::time_get<char,std::istreambuf_iterator<char,std::char_traits<char> > >::_Getvals<wchar_t>
PUBLIC	??$_Getvals@_W@?$time_get@_WV?$istreambuf_iterator@_WU?$char_traits@_W@std@@@std@@@std@@IEAAX_WAEBV_Locinfo@1@@Z ; std::time_get<wchar_t,std::istreambuf_iterator<wchar_t,std::char_traits<wchar_t> > >::_Getvals<wchar_t>
PUBLIC	?_Make_ec@filesystem@std@@YA?AVerror_code@2@W4__std_win_error@@@Z ; std::filesystem::_Make_ec
PUBLIC	?_Throw_system_error_from_std_win_error@filesystem@std@@YAXW4__std_win_error@@@Z ; std::filesystem::_Throw_system_error_from_std_win_error
PUBLIC	?_Check_convert_result@filesystem@std@@YAHU__std_fs_convert_result@@@Z ; std::filesystem::_Check_convert_result
PUBLIC	?u8string@path@filesystem@std@@QEBA@XZ		; std::filesystem::path::u8string
PUBLIC	??$_Convert_wide_to_narrow@U?$char_traits@D@std@@V?$allocator@D@2@@filesystem@std@@YA?AV?$basic_string@DU?$char_traits@D@std@@V?$allocator@D@2@@1@W4__std_code_page@@V?$basic_string_view@_WU?$char_traits@_W@std@@@1@AEBV?$allocator@D@1@@Z ; std::filesystem::_Convert_wide_to_narrow<std::char_traits<char>,std::allocator<char> >
PUBLIC	?Instance@FileDialog@ifd@@SAAEAV12@XZ		; ifd::FileDialog::Instance
PUBLIC	?HasResult@FileDialog@ifd@@QEAA_NXZ		; ifd::FileDialog::HasResult
PUBLIC	?GetResult@FileDialog@ifd@@QEAAAEBVpath@filesystem@std@@XZ ; ifd::FileDialog::GetResult
PUBLIC	??0?$_Func_class@PEAXPEAEHHD@std@@QEAA@XZ	; std::_Func_class<void *,unsigned char *,int,int,char>::_Func_class<void *,unsigned char *,int,int,char>
PUBLIC	??1?$_Func_class@PEAXPEAEHHD@std@@QEAA@XZ	; std::_Func_class<void *,unsigned char *,int,int,char>::~_Func_class<void *,unsigned char *,int,int,char>
PUBLIC	?_Empty@?$_Func_class@PEAXPEAEHHD@std@@IEBA_NXZ	; std::_Func_class<void *,unsigned char *,int,int,char>::_Empty
PUBLIC	?_Reset_move@?$_Func_class@PEAXPEAEHHD@std@@IEAAX$$QEAV12@@Z ; std::_Func_class<void *,unsigned char *,int,int,char>::_Reset_move
PUBLIC	?_Tidy@?$_Func_class@PEAXPEAEHHD@std@@IEAAXXZ	; std::_Func_class<void *,unsigned char *,int,int,char>::_Tidy
PUBLIC	?_Swap@?$_Func_class@PEAXPEAEHHD@std@@IEAAXAEAV12@@Z ; std::_Func_class<void *,unsigned char *,int,int,char>::_Swap
PUBLIC	?_Local@?$_Func_class@PEAXPEAEHHD@std@@AEBA_NXZ	; std::_Func_class<void *,unsigned char *,int,int,char>::_Local
PUBLIC	?_Getimpl@?$_Func_class@PEAXPEAEHHD@std@@AEBAPEAV?$_Func_base@PEAXPEAEHHD@2@XZ ; std::_Func_class<void *,unsigned char *,int,int,char>::_Getimpl
PUBLIC	?_Set@?$_Func_class@PEAXPEAEHHD@std@@AEAAXPEAV?$_Func_base@PEAXPEAEHHD@2@@Z ; std::_Func_class<void *,unsigned char *,int,int,char>::_Set
PUBLIC	?swap@?$function@$$A6APEAXPEAEHHD@Z@std@@QEAAXAEAV12@@Z ; std::function<void * __cdecl(unsigned char *,int,int,char)>::swap
PUBLIC	??1?$function@$$A6APEAXPEAEHHD@Z@std@@QEAA@XZ	; std::function<void * __cdecl(unsigned char *,int,int,char)>::~function<void * __cdecl(unsigned char *,int,int,char)>
PUBLIC	??0?$_Func_class@XPEAX@std@@QEAA@XZ		; std::_Func_class<void,void *>::_Func_class<void,void *>
PUBLIC	??1?$_Func_class@XPEAX@std@@QEAA@XZ		; std::_Func_class<void,void *>::~_Func_class<void,void *>
PUBLIC	?_Empty@?$_Func_class@XPEAX@std@@IEBA_NXZ	; std::_Func_class<void,void *>::_Empty
PUBLIC	?_Reset_move@?$_Func_class@XPEAX@std@@IEAAX$$QEAV12@@Z ; std::_Func_class<void,void *>::_Reset_move
PUBLIC	?_Tidy@?$_Func_class@XPEAX@std@@IEAAXXZ		; std::_Func_class<void,void *>::_Tidy
PUBLIC	?_Swap@?$_Func_class@XPEAX@std@@IEAAXAEAV12@@Z	; std::_Func_class<void,void *>::_Swap
PUBLIC	?_Local@?$_Func_class@XPEAX@std@@AEBA_NXZ	; std::_Func_class<void,void *>::_Local
PUBLIC	?_Getimpl@?$_Func_class@XPEAX@std@@AEBAPEAV?$_Func_base@XPEAX@2@XZ ; std::_Func_class<void,void *>::_Getimpl
PUBLIC	?_Set@?$_Func_class@XPEAX@std@@AEAAXPEAV?$_Func_base@XPEAX@2@@Z ; std::_Func_class<void,void *>::_Set
PUBLIC	?swap@?$function@$$A6AXPEAX@Z@std@@QEAAXAEAV12@@Z ; std::function<void __cdecl(void *)>::swap
PUBLIC	??1?$function@$$A6AXPEAX@Z@std@@QEAA@XZ		; std::function<void __cdecl(void *)>::~function<void __cdecl(void *)>
PUBLIC	?size@?$vector@Vpath@filesystem@std@@V?$allocator@Vpath@filesystem@std@@@3@@std@@QEBA_KXZ ; std::vector<std::filesystem::path,std::allocator<std::filesystem::path> >::size
PUBLIC	??A?$vector@Vpath@filesystem@std@@V?$allocator@Vpath@filesystem@std@@@3@@std@@QEAAAEAVpath@filesystem@1@_K@Z ; std::vector<std::filesystem::path,std::allocator<std::filesystem::path> >::operator[]
PUBLIC	?__autoclassinit2@FileDialog@ifd@@QEAAX_K@Z	; ifd::FileDialog::__autoclassinit2
PUBLIC	??__Fret@?1??Instance@FileDialog@ifd@@SAAEAV12@XZ@YAXXZ ; `ifd::FileDialog::Instance'::`2'::`dynamic atexit destructor for 'ret''
PUBLIC	??$?0MHHH@?$vec@$03M$0A@@glm@@QEAA@MHHH@Z	; glm::vec<4,float,0>::vec<4,float,0><float,int,int,int>
PUBLIC	??$?0HMHH@?$vec@$03M$0A@@glm@@QEAA@HMHH@Z	; glm::vec<4,float,0>::vec<4,float,0><int,float,int,int>
PUBLIC	??$?0HHMH@?$vec@$03M$0A@@glm@@QEAA@HHMH@Z	; glm::vec<4,float,0>::vec<4,float,0><int,int,float,int>
PUBLIC	??$?0HHHM@?$vec@$03M$0A@@glm@@QEAA@HHHM@Z	; glm::vec<4,float,0>::vec<4,float,0><int,int,int,float>
PUBLIC	?_process_input@RaisinEng@@YAXPEAUGLFWwindow@@@Z ; RaisinEng::_process_input
PUBLIC	?Editor_Init@RaisinEng@@YAXXZ			; RaisinEng::Editor_Init
PUBLIC	?Editor_Loop@RaisinEng@@YAXXZ			; RaisinEng::Editor_Loop
PUBLIC	?Editor_Close@RaisinEng@@YAXXZ			; RaisinEng::Editor_Close
PUBLIC	?framebuffer_size_callback@RaisinEng@@YAXPEAUGLFWwindow@@HH@Z ; RaisinEng::framebuffer_size_callback
PUBLIC	?_Destroy@RaisinEng@@YAXXZ			; RaisinEng::_Destroy
PUBLIC	?_Loop@RaisinEng@@YAXXZ				; RaisinEng::_Loop
PUBLIC	?_Init@RaisinEng@@YAXHHPEBD@Z			; RaisinEng::_Init
PUBLIC	??0sInputRegistered@RaisinEng@@QEAA@XZ		; RaisinEng::sInputRegistered::sInputRegistered
PUBLIC	??0sSphere@@QEAA@XZ				; sSphere::sSphere
PUBLIC	?_draw@sSphere@@QEAAXU?$mat@$03$03M$0A@@glm@@00U?$vec@$02M$0A@@3@@Z ; sSphere::_draw
PUBLIC	??1sSphere@@QEAA@XZ				; sSphere::~sSphere
PUBLIC	?_camera_move_callback@@YAXH@Z			; _camera_move_callback
PUBLIC	??$?DM$0A@@glm@@YA?AU?$vec@$02M$0A@@0@MAEBU10@@Z ; glm::operator*<float,0>
PUBLIC	??$?YM@?$vec@$02M$0A@@glm@@QEAAAEAU01@AEBU01@@Z	; glm::vec<3,float,0>::operator+=<float>
PUBLIC	??$cross@M$0A@@glm@@YA?AU?$vec@$02M$0A@@0@AEBU10@0@Z ; glm::cross<float,0>
PUBLIC	??$normalize@$02M$0A@@glm@@YA?AU?$vec@$02M$0A@@0@AEBU10@@Z ; glm::normalize<3,float,0>
PUBLIC	??$?DM$0A@@glm@@YA?AU?$vec@$02M$0A@@0@AEBU10@M@Z ; glm::operator*<float,0>
PUBLIC	??$?ZM@?$vec@$02M$0A@@glm@@QEAAAEAU01@AEBU01@@Z	; glm::vec<3,float,0>::operator-=<float>
PUBLIC	?_mouse_press_callback@@YAXPEAUGLFWwindow@@HHH@Z ; _mouse_press_callback
PUBLIC	??$radians@M@glm@@YAMM@Z			; glm::radians<float>
PUBLIC	??$perspective@M@glm@@YA?AU?$mat@$03$03M$0A@@0@MMMM@Z ; glm::perspective<float>
PUBLIC	??$translate@M$0A@@glm@@YA?AU?$mat@$03$03M$0A@@0@AEBU10@AEBU?$vec@$02M$0A@@0@@Z ; glm::translate<float,0>
PUBLIC	??$?HM$0A@@glm@@YA?AU?$vec@$02M$0A@@0@AEBU10@0@Z ; glm::operator+<float,0>
PUBLIC	??$lookAt@M$0A@@glm@@YA?AU?$mat@$03$03M$0A@@0@AEBU?$vec@$02M$0A@@0@00@Z ; glm::lookAt<float,0>
PUBLIC	?allocate@?$allocator@U_Container_proxy@std@@@std@@QEAAPEAU_Container_proxy@2@_K@Z ; std::allocator<std::_Container_proxy>::allocate
PUBLIC	??$exchange@PEAU_Container_proxy@std@@$$T@std@@YAPEAU_Container_proxy@0@AEAPEAU10@$$QEA$$T@Z ; std::exchange<std::_Container_proxy *,std::nullptr_t>
PUBLIC	??$_Delete_plain_internal@V?$allocator@U_Container_proxy@std@@@std@@@std@@YAXAEAV?$allocator@U_Container_proxy@std@@@0@QEAU_Container_proxy@0@@Z ; std::_Delete_plain_internal<std::allocator<std::_Container_proxy> >
PUBLIC	??$_Alloc_proxy@V?$allocator@U_Container_proxy@std@@@std@@@_Container_base12@std@@QEAAX$$QEAV?$allocator@U_Container_proxy@std@@@1@@Z ; std::_Container_base12::_Alloc_proxy<std::allocator<std::_Container_proxy> >
PUBLIC	??$?0VMesh@@@?$allocator@U_Container_proxy@std@@@std@@QEAA@AEBV?$allocator@VMesh@@@1@@Z ; std::allocator<std::_Container_proxy>::allocator<std::_Container_proxy><Mesh>
PUBLIC	??$?0$$V@?$_Compressed_pair@V?$allocator@VMesh@@@std@@V?$_Vector_val@U?$_Simple_types@VMesh@@@std@@@2@$00@std@@QEAA@U_Zero_then_variadic_args_t@1@@Z ; std::_Compressed_pair<std::allocator<Mesh>,std::_Vector_val<std::_Simple_types<Mesh> >,1>::_Compressed_pair<std::allocator<Mesh>,std::_Vector_val<std::_Simple_types<Mesh> >,1><>
PUBLIC	??$?0UVertex@@@?$allocator@U_Container_proxy@std@@@std@@QEAA@AEBV?$allocator@UVertex@@@1@@Z ; std::allocator<std::_Container_proxy>::allocator<std::_Container_proxy><Vertex>
PUBLIC	??$?0I@?$allocator@U_Container_proxy@std@@@std@@QEAA@AEBV?$allocator@I@1@@Z ; std::allocator<std::_Container_proxy>::allocator<std::_Container_proxy><unsigned int>
PUBLIC	??$_Unfancy_maybe_null@UVkLayerProperties@@@std@@YAPEAUVkLayerProperties@@PEAU1@@Z ; std::_Unfancy_maybe_null<VkLayerProperties>
PUBLIC	??$?0UVkLayerProperties@@@?$allocator@U_Container_proxy@std@@@std@@QEAA@AEBV?$allocator@UVkLayerProperties@@@1@@Z ; std::allocator<std::_Container_proxy>::allocator<std::_Container_proxy><VkLayerProperties>
PUBLIC	??$?0AEBV?$allocator@UVkLayerProperties@@@std@@$$V@?$_Compressed_pair@V?$allocator@UVkLayerProperties@@@std@@V?$_Vector_val@U?$_Simple_types@UVkLayerProperties@@@std@@@2@$00@std@@QEAA@U_One_then_variadic_args_t@1@AEBV?$allocator@UVkLayerProperties@@@1@@Z ; std::_Compressed_pair<std::allocator<VkLayerProperties>,std::_Vector_val<std::_Simple_types<VkLayerProperties> >,1>::_Compressed_pair<std::allocator<VkLayerProperties>,std::_Vector_val<std::_Simple_types<VkLayerProperties> >,1><std::allocator<VkLayerProperties> const &>
PUBLIC	??$_Construct_n@$$V@?$vector@UVkLayerProperties@@V?$allocator@UVkLayerProperties@@@std@@@std@@AEAAX_K@Z ; std::vector<VkLayerProperties,std::allocator<VkLayerProperties> >::_Construct_n<>
PUBLIC	??$_Unfancy_maybe_null@PEBD@std@@YAPEAPEBDPEAPEBD@Z ; std::_Unfancy_maybe_null<char const *>
PUBLIC	??$?0PEBD@?$allocator@U_Container_proxy@std@@@std@@QEAA@AEBV?$allocator@PEBD@1@@Z ; std::allocator<std::_Container_proxy>::allocator<std::_Container_proxy><char const *>
PUBLIC	??$?0AEBV?$allocator@PEBD@std@@$$V@?$_Compressed_pair@V?$allocator@PEBD@std@@V?$_Vector_val@U?$_Simple_types@PEBD@std@@@2@$00@std@@QEAA@U_One_then_variadic_args_t@1@AEBV?$allocator@PEBD@1@@Z ; std::_Compressed_pair<std::allocator<char const *>,std::_Vector_val<std::_Simple_types<char const *> >,1>::_Compressed_pair<std::allocator<char const *>,std::_Vector_val<std::_Simple_types<char const *> >,1><std::allocator<char const *> const &>
PUBLIC	??$_Convert_size@_K@std@@YA_K_K@Z		; std::_Convert_size<unsigned __int64>
PUBLIC	??$_Construct_n@PEBQEBDPEBQEBD@?$vector@PEBDV?$allocator@PEBD@std@@@std@@AEAAX_K$$QEAPEBQEBD1@Z ; std::vector<char const *,std::allocator<char const *> >::_Construct_n<char const * const *,char const * const *>
PUBLIC	??$min@_K@std@@YAAEB_KAEB_K0@Z			; std::min<unsigned __int64>
PUBLIC	??$max@_K@std@@YAAEB_KAEB_K0@Z			; std::max<unsigned __int64>
PUBLIC	??$addressof@V?$_String_val@U?$_Simple_types@D@std@@@std@@@std@@YAPEAV?$_String_val@U?$_Simple_types@D@std@@@0@AEAV10@@Z ; std::addressof<std::_String_val<std::_Simple_types<char> > >
PUBLIC	??$?0D@?$allocator@U_Container_proxy@std@@@std@@QEAA@AEBV?$allocator@D@1@@Z ; std::allocator<std::_Container_proxy>::allocator<std::_Container_proxy><char>
PUBLIC	??$move@AEAV?$allocator@D@std@@@std@@YA$$QEAV?$allocator@D@0@AEAV10@@Z ; std::move<std::allocator<char> &>
PUBLIC	??$?0V?$allocator@D@std@@$$V@?$_Compressed_pair@V?$allocator@D@std@@V?$_String_val@U?$_Simple_types@D@std@@@2@$00@std@@QEAA@U_One_then_variadic_args_t@1@$$QEAV?$allocator@D@1@@Z ; std::_Compressed_pair<std::allocator<char>,std::_String_val<std::_Simple_types<char> >,1>::_Compressed_pair<std::allocator<char>,std::_String_val<std::_Simple_types<char> >,1><std::allocator<char> >
PUBLIC	??$?0$$V@?$_Compressed_pair@V?$allocator@D@std@@V?$_String_val@U?$_Simple_types@D@std@@@2@$00@std@@QEAA@U_Zero_then_variadic_args_t@1@@Z ; std::_Compressed_pair<std::allocator<char>,std::_String_val<std::_Simple_types<char> >,1>::_Compressed_pair<std::allocator<char>,std::_String_val<std::_Simple_types<char> >,1><>
PUBLIC	??$_Construct@$00PEBD@?$basic_string@DU?$char_traits@D@std@@V?$allocator@D@2@@std@@AEAAXQEBD_K@Z ; std::basic_string<char,std::char_traits<char>,std::allocator<char> >::_Construct<1,char const *>
PUBLIC	??$_Construct@$01PEBD@?$basic_string@DU?$char_traits@D@std@@V?$allocator@D@2@@std@@AEAAXQEBD_K@Z ; std::basic_string<char,std::char_traits<char>,std::allocator<char> >::_Construct<2,char const *>
PUBLIC	??0?$_Container_proxy_ptr12@V?$allocator@U_Container_proxy@std@@@std@@@std@@QEAA@AEAV?$allocator@U_Container_proxy@std@@@1@AEAU_Container_base12@1@@Z ; std::_Container_proxy_ptr12<std::allocator<std::_Container_proxy> >::_Container_proxy_ptr12<std::allocator<std::_Container_proxy> >
PUBLIC	??1?$_Container_proxy_ptr12@V?$allocator@U_Container_proxy@std@@@std@@@std@@QEAA@XZ ; std::_Container_proxy_ptr12<std::allocator<std::_Container_proxy> >::~_Container_proxy_ptr12<std::allocator<std::_Container_proxy> >
PUBLIC	??$_Destroy_range@V?$allocator@VMesh@@@std@@@std@@YAXPEAVMesh@@QEAV1@AEAV?$allocator@VMesh@@@0@@Z ; std::_Destroy_range<std::allocator<Mesh> >
PUBLIC	??$_Destroy_range@V?$allocator@UVertex@@@std@@@std@@YAXPEAUVertex@@QEAU1@AEAV?$allocator@UVertex@@@0@@Z ; std::_Destroy_range<std::allocator<Vertex> >
PUBLIC	??$_Destroy_range@V?$allocator@I@std@@@std@@YAXPEAIQEAIAEAV?$allocator@I@0@@Z ; std::_Destroy_range<std::allocator<unsigned int> >
PUBLIC	??$_Destroy_range@V?$allocator@UVkLayerProperties@@@std@@@std@@YAXPEAUVkLayerProperties@@QEAU1@AEAV?$allocator@UVkLayerProperties@@@0@@Z ; std::_Destroy_range<std::allocator<VkLayerProperties> >
PUBLIC	??$_Destroy_range@V?$allocator@PEBD@std@@@std@@YAXPEAPEBDQEAPEBDAEAV?$allocator@PEBD@0@@Z ; std::_Destroy_range<std::allocator<char const *> >
PUBLIC	??$_Unfancy@_W@std@@YAPEA_WPEA_W@Z		; std::_Unfancy<wchar_t>
PUBLIC	??$_Destroy_in_place@PEAD@std@@YAXAEAPEAD@Z	; std::_Destroy_in_place<char *>
PUBLIC	??$_Unfancy@D@std@@YAPEADPEAD@Z			; std::_Unfancy<char>
PUBLIC	??R<lambda_e1befb086ad3257e3f042a63030725f7>@@QEBA@QEADQEBD_K2D@Z ; <lambda_e1befb086ad3257e3f042a63030725f7>::operator()
PUBLIC	??$_Reallocate_grow_by@V<lambda_e1befb086ad3257e3f042a63030725f7>@@_KD@?$basic_string@DU?$char_traits@D@std@@V?$allocator@D@2@@std@@AEAAAEAV01@_KV<lambda_e1befb086ad3257e3f042a63030725f7>@@_KD@Z ; std::basic_string<char,std::char_traits<char>,std::allocator<char> >::_Reallocate_grow_by<<lambda_e1befb086ad3257e3f042a63030725f7>,unsigned __int64,char>
PUBLIC	??R<lambda_65e615be2a453ca0576c979606f46740>@@QEBA@QEADQEBD_K12@Z ; <lambda_65e615be2a453ca0576c979606f46740>::operator()
PUBLIC	??$_Reallocate_grow_by@V<lambda_65e615be2a453ca0576c979606f46740>@@PEBD_K@?$basic_string@DU?$char_traits@D@std@@V?$allocator@D@2@@std@@AEAAAEAV01@_KV<lambda_65e615be2a453ca0576c979606f46740>@@PEBD_K@Z ; std::basic_string<char,std::char_traits<char>,std::allocator<char> >::_Reallocate_grow_by<<lambda_65e615be2a453ca0576c979606f46740>,char const *,unsigned __int64>
PUBLIC	??$_Construct_in_place@PEADAEAPEAD@std@@YAXAEAPEAD0@Z ; std::_Construct_in_place<char *,char * &>
PUBLIC	??$_Unfancy@U_Container_proxy@std@@@std@@YAPEAU_Container_proxy@0@PEAU10@@Z ; std::_Unfancy<std::_Container_proxy>
PUBLIC	??$addressof@U_Container_base12@std@@@std@@YAPEAU_Container_base12@0@AEAU10@@Z ; std::addressof<std::_Container_base12>
PUBLIC	??$_Construct_in_place@U_Container_proxy@std@@PEAU_Container_base12@2@@std@@YAXAEAU_Container_proxy@0@$$QEAPEAU_Container_base12@0@@Z ; std::_Construct_in_place<std::_Container_proxy,std::_Container_base12 *>
PUBLIC	??$_Deallocate@$0BA@$0A@@std@@YAXPEAX_K@Z	; std::_Deallocate<16,0>
PUBLIC	??$_Allocate@$0BA@U_Default_allocate_traits@std@@$0A@@std@@YAPEAX_K@Z ; std::_Allocate<16,std::_Default_allocate_traits,0>
PUBLIC	??$addressof@$$CBV?$_String_val@U?$_Simple_types@D@std@@@std@@@std@@YAPEBV?$_String_val@U?$_Simple_types@D@std@@@0@AEBV10@@Z ; std::addressof<std::_String_val<std::_Simple_types<char> > const >
PUBLIC	??$_Get_size_of_n@$0BA@@std@@YA_K_K@Z		; std::_Get_size_of_n<16>
PUBLIC	??$?XM@?$vec@$03M$0A@@glm@@QEAAAEAU01@M@Z	; glm::vec<4,float,0>::operator*=<float>
PUBLIC	?call@?$compute_abs@M$00@detail@glm@@SAMM@Z	; glm::detail::compute_abs<float,1>::call
PUBLIC	??$?DM$0A@@glm@@YA?AU?$vec@$03M$0A@@0@AEBU10@0@Z ; glm::operator*<float,0>
PUBLIC	??$?HM$0A@@glm@@YA?AU?$vec@$03M$0A@@0@AEBU10@0@Z ; glm::operator+<float,0>
PUBLIC	??$_Maklocstr@D@std@@YAPEADPEBDPEADAEBU_Cvtvec@@@Z ; std::_Maklocstr<char>
PUBLIC	?call@?$compute_cross@M$0A@$0A@@detail@glm@@SA?AU?$vec@$02M$0A@@3@AEBU43@0@Z ; glm::detail::compute_cross<float,0,0>::call
PUBLIC	?call@?$compute_normalize@$02M$0A@$0A@@detail@glm@@SA?AU?$vec@$02M$0A@@3@AEBU43@@Z ; glm::detail::compute_normalize<3,float,0,0>::call
PUBLIC	??$perspectiveRH_NO@M@glm@@YA?AU?$mat@$03$03M$0A@@0@MMMM@Z ; glm::perspectiveRH_NO<float>
PUBLIC	??$lookAtRH@M$0A@@glm@@YA?AU?$mat@$03$03M$0A@@0@AEBU?$vec@$02M$0A@@0@00@Z ; glm::lookAtRH<float,0>
PUBLIC	??$_Deallocate_plain@V?$allocator@U_Container_proxy@std@@@std@@@std@@YAXAEAV?$allocator@U_Container_proxy@std@@@0@QEAU_Container_proxy@0@@Z ; std::_Deallocate_plain<std::allocator<std::_Container_proxy> >
PUBLIC	??$forward@AEBV?$allocator@UVkLayerProperties@@@std@@@std@@YAAEBV?$allocator@UVkLayerProperties@@@0@AEBV10@@Z ; std::forward<std::allocator<VkLayerProperties> const &>
PUBLIC	??1?$_Tidy_guard@V?$vector@UVkLayerProperties@@V?$allocator@UVkLayerProperties@@@std@@@std@@@std@@QEAA@XZ ; std::_Tidy_guard<std::vector<VkLayerProperties,std::allocator<VkLayerProperties> > >::~_Tidy_guard<std::vector<VkLayerProperties,std::allocator<VkLayerProperties> > >
PUBLIC	??$_Uninitialized_value_construct_n@V?$allocator@UVkLayerProperties@@@std@@@std@@YAPEAUVkLayerProperties@@PEAU1@_KAEAV?$allocator@UVkLayerProperties@@@0@@Z ; std::_Uninitialized_value_construct_n<std::allocator<VkLayerProperties> >
PUBLIC	??$forward@AEBV?$allocator@PEBD@std@@@std@@YAAEBV?$allocator@PEBD@0@AEBV10@@Z ; std::forward<std::allocator<char const *> const &>
PUBLIC	??1?$_Tidy_guard@V?$vector@PEBDV?$allocator@PEBD@std@@@std@@@std@@QEAA@XZ ; std::_Tidy_guard<std::vector<char const *,std::allocator<char const *> > >::~_Tidy_guard<std::vector<char const *,std::allocator<char const *> > >
PUBLIC	??$forward@PEBQEBD@std@@YA$$QEAPEBQEBDAEAPEBQEBD@Z ; std::forward<char const * const *>
PUBLIC	??$_Uninitialized_copy@PEBQEBDV?$allocator@PEBD@std@@@std@@YAPEAPEBDQEBQEBD0PEAPEBDAEAV?$allocator@PEBD@0@@Z ; std::_Uninitialized_copy<char const * const *,std::allocator<char const *> >
PUBLIC	??$_Construct_in_place@PEADAEBQEAD@std@@YAXAEAPEADAEBQEAD@Z ; std::_Construct_in_place<char *,char * const &>
PUBLIC	??$forward@V?$allocator@D@std@@@std@@YA$$QEAV?$allocator@D@0@AEAV10@@Z ; std::forward<std::allocator<char> >
PUBLIC	??$_Unfancy@VMesh@@@std@@YAPEAVMesh@@PEAV1@@Z	; std::_Unfancy<Mesh>
PUBLIC	??$destroy@VMesh@@@?$_Default_allocator_traits@V?$allocator@VMesh@@@std@@@std@@SAXAEAV?$allocator@VMesh@@@1@QEAVMesh@@@Z ; std::_Default_allocator_traits<std::allocator<Mesh> >::destroy<Mesh>
PUBLIC	??$addressof@PEAD@std@@YAPEAPEADAEAPEAD@Z	; std::addressof<char *>
PUBLIC	??$_Voidify_iter@PEAPEAD@std@@YAPEAXPEAPEAD@Z	; std::_Voidify_iter<char * *>
PUBLIC	??$forward@AEAPEAD@std@@YAAEAPEADAEAPEAD@Z	; std::forward<char * &>
PUBLIC	??$addressof@U_Container_proxy@std@@@std@@YAPEAU_Container_proxy@0@AEAU10@@Z ; std::addressof<std::_Container_proxy>
PUBLIC	??$_Voidify_iter@PEAU_Container_proxy@std@@@std@@YAPEAXPEAU_Container_proxy@0@@Z ; std::_Voidify_iter<std::_Container_proxy *>
PUBLIC	??$forward@PEAU_Container_base12@std@@@std@@YA$$QEAPEAU_Container_base12@0@AEAPEAU10@@Z ; std::forward<std::_Container_base12 *>
PUBLIC	??$_Allocate_manually_vector_aligned@U_Default_allocate_traits@std@@@std@@YAPEAX_K@Z ; std::_Allocate_manually_vector_aligned<std::_Default_allocate_traits>
PUBLIC	??$dot@$02M$0A@@glm@@YAMAEBU?$vec@$02M$0A@@0@0@Z ; glm::dot<3,float,0>
PUBLIC	??$inversesqrt@M@glm@@YAMM@Z			; glm::inversesqrt<float>
PUBLIC	??$?0AEBV?$allocator@D@std@@$$V@?$_Compressed_pair@V?$allocator@D@std@@V?$_String_val@U?$_Simple_types@D@std@@@2@$00@std@@QEAA@U_One_then_variadic_args_t@1@AEBV?$allocator@D@1@@Z ; std::_Compressed_pair<std::allocator<char>,std::_String_val<std::_Simple_types<char> >,1>::_Compressed_pair<std::allocator<char>,std::_String_val<std::_Simple_types<char> >,1><std::allocator<char> const &>
PUBLIC	??$_Get_size_of_n@$00@std@@YA_K_K@Z		; std::_Get_size_of_n<1>
PUBLIC	??$move@AEAV?$_Func_class@XPEAX@std@@@std@@YA$$QEAV?$_Func_class@XPEAX@0@AEAV10@@Z ; std::move<std::_Func_class<void,void *> &>
PUBLIC	??0?$_Func_base@XPEAX@std@@QEAA@XZ		; std::_Func_base<void,void *>::_Func_base<void,void *>
PUBLIC	??$move@AEAV?$_Func_class@PEAXPEAEHHD@std@@@std@@YA$$QEAV?$_Func_class@PEAXPEAEHHD@0@AEAV10@@Z ; std::move<std::_Func_class<void *,unsigned char *,int,int,char> &>
PUBLIC	??0?$_Func_base@PEAXPEAEHHD@std@@QEAA@XZ	; std::_Func_base<void *,unsigned char *,int,int,char>::_Func_base<void *,unsigned char *,int,int,char>
PUBLIC	??$_Get_size_of_n@$0CAI@@std@@YA_K_K@Z		; std::_Get_size_of_n<520>
PUBLIC	??$_Get_size_of_n@$07@std@@YA_K_K@Z		; std::_Get_size_of_n<8>
PUBLIC	?call@?$compute_vec4_mul@M$0A@$0A@@detail@glm@@SA?AU?$vec@$03M$0A@@3@AEBU43@0@Z ; glm::detail::compute_vec4_mul<float,0,0>::call
PUBLIC	??$?XM@?$vec@$03M$0A@@glm@@QEAAAEAU01@AEBU01@@Z	; glm::vec<4,float,0>::operator*=<float>
PUBLIC	??$?YM@?$vec@$03M$0A@@glm@@QEAAAEAU01@AEBU01@@Z	; glm::vec<4,float,0>::operator+=<float>
PUBLIC	??$?GM$0A@@glm@@YA?AU?$vec@$02M$0A@@0@AEBU10@0@Z ; glm::operator-<float,0>
PUBLIC	?deallocate@?$_Default_allocator_traits@V?$allocator@U_Container_proxy@std@@@std@@@std@@SAXAEAV?$allocator@U_Container_proxy@std@@@2@QEAU_Container_proxy@2@_K@Z ; std::_Default_allocator_traits<std::allocator<std::_Container_proxy> >::deallocate
PUBLIC	??0?$_Uninitialized_backout_al@V?$allocator@UVkLayerProperties@@@std@@@std@@QEAA@PEAUVkLayerProperties@@AEAV?$allocator@UVkLayerProperties@@@1@@Z ; std::_Uninitialized_backout_al<std::allocator<VkLayerProperties> >::_Uninitialized_backout_al<std::allocator<VkLayerProperties> >
PUBLIC	??1?$_Uninitialized_backout_al@V?$allocator@UVkLayerProperties@@@std@@@std@@QEAA@XZ ; std::_Uninitialized_backout_al<std::allocator<VkLayerProperties> >::~_Uninitialized_backout_al<std::allocator<VkLayerProperties> >
PUBLIC	?_Release@?$_Uninitialized_backout_al@V?$allocator@UVkLayerProperties@@@std@@@std@@QEAAPEAUVkLayerProperties@@XZ ; std::_Uninitialized_backout_al<std::allocator<VkLayerProperties> >::_Release
PUBLIC	?__autoclassinit2@?$_Uninitialized_backout_al@V?$allocator@UVkLayerProperties@@@std@@@std@@QEAAX_K@Z ; std::_Uninitialized_backout_al<std::allocator<VkLayerProperties> >::__autoclassinit2
PUBLIC	??$_Emplace_back@$$V@?$_Uninitialized_backout_al@V?$allocator@UVkLayerProperties@@@std@@@std@@QEAAXXZ ; std::_Uninitialized_backout_al<std::allocator<VkLayerProperties> >::_Emplace_back<>
PUBLIC	??$_Get_unwrapped@AEBQEBQEBD@std@@YA?A_TAEBQEBQEBD@Z ; std::_Get_unwrapped<char const * const * const &>
PUBLIC	??$_Unfancy@PEBD@std@@YAPEAPEBDPEAPEBD@Z	; std::_Unfancy<char const *>
PUBLIC	??$_Copy_memmove@PEBQEBDPEAPEBD@std@@YAPEAPEBDPEBQEBD0PEAPEBD@Z ; std::_Copy_memmove<char const * const *,char const * *>
PUBLIC	??0?$_Uninitialized_backout_al@V?$allocator@PEBD@std@@@std@@QEAA@PEAPEBDAEAV?$allocator@PEBD@1@@Z ; std::_Uninitialized_backout_al<std::allocator<char const *> >::_Uninitialized_backout_al<std::allocator<char const *> >
PUBLIC	??1?$_Uninitialized_backout_al@V?$allocator@PEBD@std@@@std@@QEAA@XZ ; std::_Uninitialized_backout_al<std::allocator<char const *> >::~_Uninitialized_backout_al<std::allocator<char const *> >
PUBLIC	?_Release@?$_Uninitialized_backout_al@V?$allocator@PEBD@std@@@std@@QEAAPEAPEBDXZ ; std::_Uninitialized_backout_al<std::allocator<char const *> >::_Release
PUBLIC	?__autoclassinit2@?$_Uninitialized_backout_al@V?$allocator@PEBD@std@@@std@@QEAAX_K@Z ; std::_Uninitialized_backout_al<std::allocator<char const *> >::__autoclassinit2
PUBLIC	??$_Emplace_back@AEBQEBD@?$_Uninitialized_backout_al@V?$allocator@PEBD@std@@@std@@QEAAXAEBQEBD@Z ; std::_Uninitialized_backout_al<std::allocator<char const *> >::_Emplace_back<char const * const &>
PUBLIC	??$forward@AEBQEAD@std@@YAAEBQEADAEBQEAD@Z	; std::forward<char * const &>
PUBLIC	?call@?$compute_dot@U?$vec@$02M$0A@@glm@@M$0A@@detail@glm@@SAMAEBU?$vec@$02M$0A@@3@0@Z ; glm::detail::compute_dot<glm::vec<3,float,0>,float,0>::call
PUBLIC	??$forward@AEBV?$allocator@D@std@@@std@@YAAEBV?$allocator@D@0@AEBV10@@Z ; std::forward<std::allocator<char> const &>
PUBLIC	??$?DM$0A@@glm@@YA?AU?$vec@$02M$0A@@0@AEBU10@0@Z ; glm::operator*<float,0>
PUBLIC	??$?0UTexture@@@?$allocator@U_Container_proxy@std@@@std@@QEAA@AEBV?$allocator@UTexture@@@1@@Z ; std::allocator<std::_Container_proxy>::allocator<std::_Container_proxy><Texture>
PUBLIC	??$_Destroy_range@V?$allocator@UTexture@@@std@@@std@@YAXPEAUTexture@@QEAU1@AEAV?$allocator@UTexture@@@0@@Z ; std::_Destroy_range<std::allocator<Texture> >
PUBLIC	?call@?$compute_vec4_add@M$0A@$0A@@detail@glm@@SA?AU?$vec@$03M$0A@@3@AEBU43@0@Z ; glm::detail::compute_vec4_add<float,0,0>::call
PUBLIC	??$_Unfancy@UVkLayerProperties@@@std@@YAPEAUVkLayerProperties@@PEAU1@@Z ; std::_Unfancy<VkLayerProperties>
PUBLIC	??$construct@UVkLayerProperties@@$$V@?$_Default_allocator_traits@V?$allocator@UVkLayerProperties@@@std@@@std@@SAXAEAV?$allocator@UVkLayerProperties@@@1@QEAUVkLayerProperties@@@Z ; std::_Default_allocator_traits<std::allocator<VkLayerProperties> >::construct<VkLayerProperties>
PUBLIC	??$_To_address@PEBQEBD@std@@YA?A_PAEBQEBQEBD@Z	; std::_To_address<char const * const *>
PUBLIC	??$_To_address@PEAPEBD@std@@YA?A_PAEBQEAPEBD@Z	; std::_To_address<char const * *>
PUBLIC	??$forward@AEBQEBD@std@@YAAEBQEBDAEBQEBD@Z	; std::forward<char const * const &>
PUBLIC	??$construct@PEBDAEBQEBD@?$_Default_allocator_traits@V?$allocator@PEBD@std@@@std@@SAXAEAV?$allocator@PEBD@1@QEAPEBDAEBQEBD@Z ; std::_Default_allocator_traits<std::allocator<char const *> >::construct<char const *,char const * const &>
PUBLIC	??$_Unfancy@UTexture@@@std@@YAPEAUTexture@@PEAU1@@Z ; std::_Unfancy<Texture>
PUBLIC	??$destroy@UTexture@@@?$_Default_allocator_traits@V?$allocator@UTexture@@@std@@@std@@SAXAEAV?$allocator@UTexture@@@1@QEAUTexture@@@Z ; std::_Default_allocator_traits<std::allocator<Texture> >::destroy<Texture>
PUBLIC	??$_Deallocate@$07$0A@@std@@YAXPEAX_K@Z		; std::_Deallocate<8,0>
PUBLIC	??$forward@PEAX@std@@YA$$QEAPEAXAEAPEAX@Z	; std::forward<void *>
PUBLIC	??$forward@PEAE@std@@YA$$QEAPEAEAEAPEAE@Z	; std::forward<unsigned char *>
PUBLIC	??$forward@H@std@@YA$$QEAHAEAH@Z		; std::forward<int>
PUBLIC	??$forward@D@std@@YA$$QEADAEAD@Z		; std::forward<char>
PUBLIC	??$_Voidify_iter@PEAUVkLayerProperties@@@std@@YAPEAXPEAUVkLayerProperties@@@Z ; std::_Voidify_iter<VkLayerProperties *>
PUBLIC	??$_Voidify_iter@PEAPEBD@std@@YAPEAXPEAPEBD@Z	; std::_Voidify_iter<char const * *>
PUBLIC	__JustMyCode_Default
PUBLIC	?_OptionsStorage@?1??__local_stdio_printf_options@@9@4_KA ; `__local_stdio_printf_options'::`2'::_OptionsStorage
PUBLIC	??_7exception@std@@6B@				; std::exception::`vftable'
PUBLIC	??_C@_0BC@EOODALEL@Unknown?5exception@		; `string'
PUBLIC	??_7bad_alloc@std@@6B@				; std::bad_alloc::`vftable'
PUBLIC	??_7bad_array_new_length@std@@6B@		; std::bad_array_new_length::`vftable'
PUBLIC	??_C@_0BF@KINCDENJ@bad?5array?5new?5length@	; `string'
PUBLIC	_TI3?AVbad_array_new_length@std@@
PUBLIC	_CTA3?AVbad_array_new_length@std@@
PUBLIC	??_R0?AVbad_array_new_length@std@@@8		; std::bad_array_new_length `RTTI Type Descriptor'
PUBLIC	_CT??_R0?AVbad_array_new_length@std@@@8??0bad_array_new_length@std@@QEAA@AEBV01@@Z24
PUBLIC	??_R0?AVbad_alloc@std@@@8			; std::bad_alloc `RTTI Type Descriptor'
PUBLIC	_CT??_R0?AVbad_alloc@std@@@8??0bad_alloc@std@@QEAA@AEBV01@@Z24
PUBLIC	??_R0?AVexception@std@@@8			; std::exception `RTTI Type Descriptor'
PUBLIC	_CT??_R0?AVexception@std@@@8??0exception@std@@QEAA@AEBV01@@Z24
PUBLIC	?__LINE__Var@?0??_Adjust_manually_vector_aligned@std@@YAXAEAPEAXAEA_K@Z@4JA ; `std::_Adjust_manually_vector_aligned'::`1'::__LINE__Var
PUBLIC	??_C@_0BB@FCMFBGOM@invalid?5argument@		; `string'
PUBLIC	??_C@_02DKCKIIND@?$CFs@				; `string'
PUBLIC	??_C@_0GC@GFIHGGPN@C?3?2Program?5Files?2Microsoft?5Visu@ ; `string'
PUBLIC	??_C@_1ME@KDCJLOP@?$AAC?$AA?3?$AA?2?$AAP?$AAr?$AAo?$AAg?$AAr?$AAa?$AAm?$AA?5?$AAF?$AAi?$AAl?$AAe@ ; `string'
PUBLIC	??_C@_11LOCGONAA@@				; `string'
PUBLIC	??_C@_1CG@JNLFBNGN@?$AA?$CC?$AAi?$AAn?$AAv?$AAa?$AAl?$AAi?$AAd?$AA?5?$AAa?$AAr?$AAg?$AAu?$AAm?$AAe@ ; `string'
PUBLIC	??_C@_0BA@JFNIOLAK@string?5too?5long@		; `string'
PUBLIC	??_C@_00CNPNBAHC@@				; `string'
PUBLIC	??_7runtime_error@std@@6B@			; std::runtime_error::`vftable'
PUBLIC	??_R0?AVruntime_error@std@@@8			; std::runtime_error `RTTI Type Descriptor'
PUBLIC	_CT??_R0?AVruntime_error@std@@@8??0runtime_error@std@@QEAA@AEBV01@@Z24
PUBLIC	??_7_System_error@std@@6B@			; std::_System_error::`vftable'
PUBLIC	??_C@_02LMMGGCAJ@?3?5@				; `string'
PUBLIC	??_7system_error@std@@6B@			; std::system_error::`vftable'
PUBLIC	_TI4?AVsystem_error@std@@
PUBLIC	_CTA4?AVsystem_error@std@@
PUBLIC	??_R0?AVsystem_error@std@@@8			; std::system_error `RTTI Type Descriptor'
PUBLIC	_CT??_R0?AVsystem_error@std@@@8??0system_error@std@@QEAA@AEBV01@@Z40
PUBLIC	??_R0?AV_System_error@std@@@8			; std::_System_error `RTTI Type Descriptor'
PUBLIC	_CT??_R0?AV_System_error@std@@@8??0_System_error@std@@QEAA@AEBV01@@Z40
PUBLIC	??_7_Generic_error_category@std@@6B@		; std::_Generic_error_category::`vftable'
PUBLIC	??_C@_07DCLBNMLN@generic@			; `string'
PUBLIC	??_C@_07IPNMCAN@success@			; `string'
PUBLIC	??_7_System_error_category@std@@6B@		; std::_System_error_category::`vftable'
PUBLIC	??_C@_06FHFOAHML@system@			; `string'
PUBLIC	?_Unknown_error@?4??message@_System_error_category@std@@UEBA?AV?$basic_string@DU?$char_traits@D@std@@V?$allocator@D@2@@3@H@Z@4QBDB ; `std::_System_error_category::message'::`5'::_Unknown_error
PUBLIC	??_C@_0GC@MNELFEFK@C?3?2Program?5Files?2Microsoft?5Visu@ ; `string'
PUBLIC	?__LINE__Var@?0??_Maklocwcs@std@@YAPEA_WPEB_W@Z@4JA ; `std::_Maklocwcs'::`1'::__LINE__Var
PUBLIC	??_C@_0GC@EOAGFGPL@C?3?2Program?5Files?2Microsoft?5Visu@ ; `string'
PUBLIC	?g_ValidationLayers@@3V?$vector@PEBDV?$allocator@PEBD@std@@@std@@B ; g_ValidationLayers
PUBLIC	??_C@_0BM@LGHMGEMH@VK_LAYER_KHRONOS_validation@	; `string'
PUBLIC	??_C@_0O@OPHEIKOD@Hello?0?5Sailor@		; `string'
PUBLIC	??_C@_06EEKBKICI@Raisin@			; `string'
PUBLIC	??_C@_0BP@GCONPBIP@ERROR?5CREATING?5INSTANCE?5VULKAN@ ; `string'
PUBLIC	??_C@_0BI@BICEKENN@Extension?5supported?3?5?$CFd@ ; `string'
PUBLIC	??_C@_08NNLAKBDG@?$HOSHADER?6@			; `string'
PUBLIC	??_C@_0BN@CLFJJJFK@resources?1textures?1WoddenBox@ ; `string'
PUBLIC	??_C@_0BP@FCPKDACH@non?9zero?5size?5null?5string_view@ ; `string'
PUBLIC	??_C@_0GC@JMEKGKBE@C?3?2Program?5Files?2Microsoft?5Visu@ ; `string'
PUBLIC	??_C@_1ME@OELOGCDO@?$AAC?$AA?3?$AA?2?$AAP?$AAr?$AAo?$AAg?$AAr?$AAa?$AAm?$AA?5?$AAF?$AAi?$AAl?$AAe@ ; `string'
PUBLIC	??_C@_1EC@EBKHCANC@?$AA?$CC?$AAn?$AAo?$AAn?$AA?9?$AAz?$AAe?$AAr?$AAo?$AA?5?$AAs?$AAi?$AAz?$AAe?$AA?5@ ; `string'
PUBLIC	?ret@?1??Instance@FileDialog@ifd@@SAAEAV23@XZ@4V23@A ; `ifd::FileDialog::Instance'::`2'::ret
PUBLIC	?$TSS0@?1??Instance@FileDialog@ifd@@SAAEAV23@XZ@4HA ; `ifd::FileDialog::Instance'::`2'::$TSS0
PUBLIC	?fCameraSpeed@RaisinEng@@3MA			; RaisinEng::fCameraSpeed
PUBLIC	?vCameraPosition@RaisinEng@@3U?$vec@$02M$0A@@glm@@A ; RaisinEng::vCameraPosition
PUBLIC	?vCameraForward@RaisinEng@@3U?$vec@$02M$0A@@glm@@A ; RaisinEng::vCameraForward
PUBLIC	?vCameraUp@RaisinEng@@3U?$vec@$02M$0A@@glm@@A	; RaisinEng::vCameraUp
PUBLIC	?mModelMatrix@RaisinEng@@3U?$mat@$03$03M$0A@@glm@@A ; RaisinEng::mModelMatrix
PUBLIC	?mViewMatrix@RaisinEng@@3U?$mat@$03$03M$0A@@glm@@A ; RaisinEng::mViewMatrix
PUBLIC	?mProjectionMatrix@RaisinEng@@3U?$mat@$03$03M$0A@@glm@@A ; RaisinEng::mProjectionMatrix
PUBLIC	?m_window@RaisinEng@@3PEAUGLFWwindow@@EA	; RaisinEng::m_window
PUBLIC	?m_Context@RaisinEng@@3PEAUEditorContext@NodeEditor@ax@@EA ; RaisinEng::m_Context
PUBLIC	?m_inputs@RaisinEng@@3PAUsInputRegistered@1@A	; RaisinEng::m_inputs
PUBLIC	??_C@_0CK@KFMKGLAJ@resources?1Shaders?1basic_shape_s@ ; `string'
PUBLIC	??_C@_0CK@HHGLMPBG@resources?1Shaders?1basic_shape_s@ ; `string'
PUBLIC	?oTempModelToCreate@@3PEAVModel@@EA		; oTempModelToCreate
PUBLIC	?oShader@@3PEAVShader@@EA			; oShader
PUBLIC	??_C@_0CI@BEPMDLAH@resources?1models?1BasicShapes?1Sp@ ; `string'
PUBLIC	??_C@_0CE@KMNIFDDH@resources?1Shaders?1basic_shader?4@ ; `string'
PUBLIC	??_C@_08JKMMBCCO@1?484?5WIP@			; `string'
PUBLIC	??_C@_0N@OIBOOOOD@?$CDversion?5430@		; `string'
PUBLIC	??_C@_05MFLOHCHP@World@				; `string'
PUBLIC	??_C@_0P@LNGOAFCF@Open?5a?5texture@		; `string'
PUBLIC	??_C@_0EK@EKODODAI@Image?5file?5?$CI?$CK?4png?$DL?$CK?4jpg?$DL?$CK?4jpeg?$DL@ ; `string'
PUBLIC	??_C@_0BC@OHKPJKDI@TextureOpenDialog@		; `string'
PUBLIC	??_C@_09PMLGEKCE@OPEN?$FL?$CFs?$FN?6@		; `string'
PUBLIC	??_C@_0BO@PFKOHNJC@vector?5subscript?5out?5of?5range@ ; `string'
PUBLIC	??_C@_0GB@FLOGEF@C?3?2Program?5Files?2Microsoft?5Visu@ ; `string'
PUBLIC	??_C@_1MC@LACENGKK@?$AAC?$AA?3?$AA?2?$AAP?$AAr?$AAo?$AAg?$AAr?$AAa?$AAm?$AA?5?$AAF?$AAi?$AAl?$AAe@ ; `string'
PUBLIC	??_C@_1EA@LEKOKFNB@?$AA?$CC?$AAv?$AAe?$AAc?$AAt?$AAo?$AAr?$AA?5?$AAs?$AAu?$AAb?$AAs?$AAc?$AAr?$AAi@ ; `string'
PUBLIC	??_C@_0N@LPFKKEBD@?3AM?3am?3PM?3pm@		; `string'
PUBLIC	??_C@_0DG@KGHKKGBC@null?5pointer?5cannot?5point?5to?5a?5@ ; `string'
PUBLIC	??_C@_1HA@FACCKGGH@?$AA?$CC?$AAn?$AAu?$AAl?$AAl?$AA?5?$AAp?$AAo?$AAi?$AAn?$AAt?$AAe?$AAr?$AA?5?$AAc@ ; `string'
PUBLIC	??_C@_1IK@LHAOMGGE@?$AAC?$AA?3?$AA?2?$AAd?$AAe?$AAv?$AA?2?$AAR?$AAa?$AAi?$AAs?$AAi?$AAn?$AA?2?$AAR@ ; `string'
PUBLIC	??_C@_1DK@BGNCJAPL@?$AAi?$AA?5?$AA?$DO?$AA?$DN?$AA?5?$AA0?$AA?5?$AA?$CG?$AA?$CG?$AA?5?$AAi?$AA?5?$AA?$DM?$AA?5?$AAt@ ; `string'
PUBLIC	?_Static@?1???$_Immortalize_memcpy_image@V_Generic_error_category@std@@@std@@YAAEBV_Generic_error_category@1@XZ@4U?$_Constexpr_immortalize_impl@V_Generic_error_category@std@@@1@A ; `std::_Immortalize_memcpy_image<std::_Generic_error_category>'::`2'::_Static
PUBLIC	?_Static@?1???$_Immortalize_memcpy_image@V_System_error_category@std@@@std@@YAAEBV_System_error_category@1@XZ@4U?$_Constexpr_immortalize_impl@V_System_error_category@std@@@1@A ; `std::_Immortalize_memcpy_image<std::_System_error_category>'::`2'::_Static
PUBLIC	??_C@_1BK@MHIKGOKE@?$AA?3?$AAA?$AAM?$AA?3?$AAa?$AAm?$AA?3?$AAP?$AAM?$AA?3?$AAp?$AAm@ ; `string'
PUBLIC	??_C@_0BA@FOIKENOD@vector?5too?5long@		; `string'
PUBLIC	??_C@_1IK@MDJGCPOL@?$AAC?$AA?3?$AA?2?$AAd?$AAe?$AAv?$AA?2?$AAR?$AAa?$AAi?$AAs?$AAi?$AAn?$AA?2?$AAR@ ; `string'
PUBLIC	??_C@_1IO@KKAFAJLP@?$AAC?$AA?3?$AA?2?$AAd?$AAe?$AAv?$AA?2?$AAR?$AAa?$AAi?$AAs?$AAi?$AAn?$AA?2?$AAR@ ; `string'
PUBLIC	??_C@_1CG@KOFHLCJL@?$AAi?$AA?5?$AA?$DM?$AA?5?$AAt?$AAh?$AAi?$AAs?$AA?9?$AA?$DO?$AAl?$AAe?$AAn?$AAg?$AAt@ ; `string'
PUBLIC	??_C@_1JE@NDHDFKNP@?$AAC?$AA?3?$AA?2?$AAd?$AAe?$AAv?$AA?2?$AAR?$AAa?$AAi?$AAs?$AAi?$AAn?$AA?2?$AAR@ ; `string'
PUBLIC	??_C@_1II@JJEBDBC@?$AAa?$AAb?$AAs?$AA?$CI?$AAa?$AAs?$AAp?$AAe?$AAc?$AAt?$AA?5?$AA?9?$AA?5?$AAs?$AAt@ ; `string'
PUBLIC	??_R4exception@std@@6B@				; std::exception::`RTTI Complete Object Locator'
PUBLIC	??_R3exception@std@@8				; std::exception::`RTTI Class Hierarchy Descriptor'
PUBLIC	??_R2exception@std@@8				; std::exception::`RTTI Base Class Array'
PUBLIC	??_R1A@?0A@EA@exception@std@@8			; std::exception::`RTTI Base Class Descriptor at (0,-1,0,64)'
PUBLIC	??_R4bad_alloc@std@@6B@				; std::bad_alloc::`RTTI Complete Object Locator'
PUBLIC	??_R3bad_alloc@std@@8				; std::bad_alloc::`RTTI Class Hierarchy Descriptor'
PUBLIC	??_R2bad_alloc@std@@8				; std::bad_alloc::`RTTI Base Class Array'
PUBLIC	??_R1A@?0A@EA@bad_alloc@std@@8			; std::bad_alloc::`RTTI Base Class Descriptor at (0,-1,0,64)'
PUBLIC	??_R4bad_array_new_length@std@@6B@		; std::bad_array_new_length::`RTTI Complete Object Locator'
PUBLIC	??_R3bad_array_new_length@std@@8		; std::bad_array_new_length::`RTTI Class Hierarchy Descriptor'
PUBLIC	??_R2bad_array_new_length@std@@8		; std::bad_array_new_length::`RTTI Base Class Array'
PUBLIC	??_R1A@?0A@EA@bad_array_new_length@std@@8	; std::bad_array_new_length::`RTTI Base Class Descriptor at (0,-1,0,64)'
PUBLIC	??_R4runtime_error@std@@6B@			; std::runtime_error::`RTTI Complete Object Locator'
PUBLIC	??_R3runtime_error@std@@8			; std::runtime_error::`RTTI Class Hierarchy Descriptor'
PUBLIC	??_R2runtime_error@std@@8			; std::runtime_error::`RTTI Base Class Array'
PUBLIC	??_R1A@?0A@EA@runtime_error@std@@8		; std::runtime_error::`RTTI Base Class Descriptor at (0,-1,0,64)'
PUBLIC	??_R0?AVerror_category@std@@@8			; std::error_category `RTTI Type Descriptor'
PUBLIC	??_R3error_category@std@@8			; std::error_category::`RTTI Class Hierarchy Descriptor'
PUBLIC	??_R2error_category@std@@8			; std::error_category::`RTTI Base Class Array'
PUBLIC	??_R1A@?0A@EA@error_category@std@@8		; std::error_category::`RTTI Base Class Descriptor at (0,-1,0,64)'
PUBLIC	??_R4_System_error@std@@6B@			; std::_System_error::`RTTI Complete Object Locator'
PUBLIC	??_R3_System_error@std@@8			; std::_System_error::`RTTI Class Hierarchy Descriptor'
PUBLIC	??_R2_System_error@std@@8			; std::_System_error::`RTTI Base Class Array'
PUBLIC	??_R1A@?0A@EA@_System_error@std@@8		; std::_System_error::`RTTI Base Class Descriptor at (0,-1,0,64)'
PUBLIC	??_R4system_error@std@@6B@			; std::system_error::`RTTI Complete Object Locator'
PUBLIC	??_R3system_error@std@@8			; std::system_error::`RTTI Class Hierarchy Descriptor'
PUBLIC	??_R2system_error@std@@8			; std::system_error::`RTTI Base Class Array'
PUBLIC	??_R1A@?0A@EA@system_error@std@@8		; std::system_error::`RTTI Base Class Descriptor at (0,-1,0,64)'
PUBLIC	??_R4_Generic_error_category@std@@6B@		; std::_Generic_error_category::`RTTI Complete Object Locator'
PUBLIC	??_R0?AV_Generic_error_category@std@@@8		; std::_Generic_error_category `RTTI Type Descriptor'
PUBLIC	??_R3_Generic_error_category@std@@8		; std::_Generic_error_category::`RTTI Class Hierarchy Descriptor'
PUBLIC	??_R2_Generic_error_category@std@@8		; std::_Generic_error_category::`RTTI Base Class Array'
PUBLIC	??_R1A@?0A@EA@_Generic_error_category@std@@8	; std::_Generic_error_category::`RTTI Base Class Descriptor at (0,-1,0,64)'
PUBLIC	??_R4_System_error_category@std@@6B@		; std::_System_error_category::`RTTI Complete Object Locator'
PUBLIC	??_R0?AV_System_error_category@std@@@8		; std::_System_error_category `RTTI Type Descriptor'
PUBLIC	??_R3_System_error_category@std@@8		; std::_System_error_category::`RTTI Class Hierarchy Descriptor'
PUBLIC	??_R2_System_error_category@std@@8		; std::_System_error_category::`RTTI Base Class Array'
PUBLIC	??_R1A@?0A@EA@_System_error_category@std@@8	; std::_System_error_category::`RTTI Base Class Descriptor at (0,-1,0,64)'
PUBLIC	??_R0?AV?$_Func_base@PEAXPEAEHHD@std@@@8	; std::_Func_base<void *,unsigned char *,int,int,char> `RTTI Type Descriptor'
PUBLIC	??_R3?$_Func_base@PEAXPEAEHHD@std@@8		; std::_Func_base<void *,unsigned char *,int,int,char>::`RTTI Class Hierarchy Descriptor'
PUBLIC	??_R2?$_Func_base@PEAXPEAEHHD@std@@8		; std::_Func_base<void *,unsigned char *,int,int,char>::`RTTI Base Class Array'
PUBLIC	??_R1A@?0A@EA@?$_Func_base@PEAXPEAEHHD@std@@8	; std::_Func_base<void *,unsigned char *,int,int,char>::`RTTI Base Class Descriptor at (0,-1,0,64)'
PUBLIC	??_R0?AV?$_Func_base@XPEAX@std@@@8		; std::_Func_base<void,void *> `RTTI Type Descriptor'
PUBLIC	??_R3?$_Func_base@XPEAX@std@@8			; std::_Func_base<void,void *>::`RTTI Class Hierarchy Descriptor'
PUBLIC	??_R2?$_Func_base@XPEAX@std@@8			; std::_Func_base<void,void *>::`RTTI Base Class Array'
PUBLIC	??_R1A@?0A@EA@?$_Func_base@XPEAX@std@@8		; std::_Func_base<void,void *>::`RTTI Base Class Descriptor at (0,-1,0,64)'
PUBLIC	__real@00000000
PUBLIC	__real@34000000
PUBLIC	__real@3c8efa35
PUBLIC	__real@3e99999a
PUBLIC	__real@3ec90ff9
PUBLIC	__real@3f800000
PUBLIC	__real@3faaaaab
PUBLIC	__real@40000000
PUBLIC	__real@42200000
PUBLIC	__real@42c80000
PUBLIC	__real@bf800000
PUBLIC	__xmm@80000000800000008000000080000000
EXTRN	??2@YAPEAX_K@Z:PROC				; operator new
EXTRN	??3@YAXPEAX_K@Z:PROC				; operator delete
EXTRN	atexit:PROC
EXTRN	_Init_thread_header:PROC
EXTRN	_Init_thread_abort:PROC
EXTRN	_Init_thread_footer:PROC
EXTRN	__imp__invalid_parameter:PROC
EXTRN	__imp___acrt_iob_func:PROC
EXTRN	__imp___stdio_common_vfprintf:PROC
EXTRN	__imp__calloc_dbg:PROC
EXTRN	__imp__CrtDbgReport:PROC
EXTRN	__imp_??0_Lockit@std@@QEAA@H@Z:PROC
EXTRN	__imp_??1_Lockit@std@@QEAA@XZ:PROC
EXTRN	__std_exception_copy:PROC
EXTRN	__std_exception_destroy:PROC
EXTRN	??_Eexception@std@@UEAAPEAXI@Z:PROC		; std::exception::`vector deleting destructor'
EXTRN	??_Ebad_alloc@std@@UEAAPEAXI@Z:PROC		; std::bad_alloc::`vector deleting destructor'
EXTRN	??_Ebad_array_new_length@std@@UEAAPEAXI@Z:PROC	; std::bad_array_new_length::`vector deleting destructor'
EXTRN	?_Xbad_alloc@std@@YAXXZ:PROC			; std::_Xbad_alloc
EXTRN	?_Xlength_error@std@@YAXPEBD@Z:PROC		; std::_Xlength_error
EXTRN	__imp__wassert:PROC
EXTRN	vkCreateInstance:PROC
EXTRN	vkEnumerateInstanceExtensionProperties:PROC
EXTRN	vkEnumerateInstanceLayerProperties:PROC
EXTRN	glfwInit:PROC
EXTRN	glfwTerminate:PROC
EXTRN	glfwWindowHint:PROC
EXTRN	glfwCreateWindow:PROC
EXTRN	glfwWindowShouldClose:PROC
EXTRN	glfwSetWindowShouldClose:PROC
EXTRN	glfwSetFramebufferSizeCallback:PROC
EXTRN	glfwPollEvents:PROC
EXTRN	glfwSetInputMode:PROC
EXTRN	glfwGetKey:PROC
EXTRN	glfwSetMouseButtonCallback:PROC
EXTRN	glfwSwapBuffers:PROC
EXTRN	glfwGetRequiredInstanceExtensions:PROC
EXTRN	__std_system_error_allocate_message:PROC
EXTRN	__std_system_error_deallocate_message:PROC
EXTRN	??_Eruntime_error@std@@UEAAPEAXI@Z:PROC		; std::runtime_error::`vector deleting destructor'
EXTRN	??_E_System_error@std@@UEAAPEAXI@Z:PROC		; std::_System_error::`vector deleting destructor'
EXTRN	??_Esystem_error@std@@UEAAPEAXI@Z:PROC		; std::system_error::`vector deleting destructor'
EXTRN	?_Syserror_map@std@@YAPEBDH@Z:PROC		; std::_Syserror_map
EXTRN	?_Winerror_map@std@@YAHH@Z:PROC			; std::_Winerror_map
EXTRN	??_E_Generic_error_category@std@@UEAAPEAXI@Z:PROC ; std::_Generic_error_category::`vector deleting destructor'
EXTRN	??_E_System_error_category@std@@UEAAPEAXI@Z:PROC ; std::_System_error_category::`vector deleting destructor'
EXTRN	_Mbrtowc:PROC
EXTRN	__imp_?_Getcvt@_Locinfo@std@@QEBA?AU_Cvtvec@@XZ:PROC
EXTRN	__imp_?_Getdays@_Locinfo@std@@QEBAPEBDXZ:PROC
EXTRN	__imp_?_Getmonths@_Locinfo@std@@QEBAPEBDXZ:PROC
EXTRN	__imp_?_W_Getdays@_Locinfo@std@@QEBAPEBGXZ:PROC
EXTRN	__imp_?_W_Getmonths@_Locinfo@std@@QEBAPEBGXZ:PROC
EXTRN	??0Shader@@QEAA@PEBD00@Z:PROC			; Shader::Shader
EXTRN	?Draw@Model@@QEAAXPEAVShader@@U?$mat@$03$03M$0A@@glm@@11U?$vec@$02M$0A@@4@@Z:PROC ; Model::Draw
EXTRN	?loadModel@Model@@AEAA_NV?$basic_string@DU?$char_traits@D@std@@V?$allocator@D@2@@std@@@Z:PROC ; Model::loadModel
EXTRN	?CreateContext@ImGui@@YAPEAUImGuiContext@@PEAUImFontAtlas@@@Z:PROC ; ImGui::CreateContext
EXTRN	?DestroyContext@ImGui@@YAXPEAUImGuiContext@@@Z:PROC ; ImGui::DestroyContext
EXTRN	?GetIO@ImGui@@YAAEAUImGuiIO@@XZ:PROC		; ImGui::GetIO
EXTRN	?GetStyle@ImGui@@YAAEAUImGuiStyle@@XZ:PROC	; ImGui::GetStyle
EXTRN	?NewFrame@ImGui@@YAXXZ:PROC			; ImGui::NewFrame
EXTRN	?Render@ImGui@@YAXXZ:PROC			; ImGui::Render
EXTRN	?GetDrawData@ImGui@@YAPEAUImDrawData@@XZ:PROC	; ImGui::GetDrawData
EXTRN	?StyleColorsDark@ImGui@@YAXPEAUImGuiStyle@@@Z:PROC ; ImGui::StyleColorsDark
EXTRN	?Begin@ImGui@@YA_NPEBDPEA_NH@Z:PROC		; ImGui::Begin
EXTRN	?End@ImGui@@YAXXZ:PROC				; ImGui::End
EXTRN	?Button@ImGui@@YA_NPEBDAEBUImVec2@@@Z:PROC	; ImGui::Button
EXTRN	?DebugCheckVersionAndDataLayout@ImGui@@YA_NPEBD_K11111@Z:PROC ; ImGui::DebugCheckVersionAndDataLayout
EXTRN	?ImGui_ImplGlfw_InitForOpenGL@@YA_NPEAUGLFWwindow@@_N@Z:PROC ; ImGui_ImplGlfw_InitForOpenGL
EXTRN	?ImGui_ImplGlfw_Shutdown@@YAXXZ:PROC		; ImGui_ImplGlfw_Shutdown
EXTRN	?ImGui_ImplGlfw_NewFrame@@YAXXZ:PROC		; ImGui_ImplGlfw_NewFrame
EXTRN	?ImGui_ImplOpenGL3_Init@@YA_NPEBD@Z:PROC	; ImGui_ImplOpenGL3_Init
EXTRN	?ImGui_ImplOpenGL3_NewFrame@@YAXXZ:PROC		; ImGui_ImplOpenGL3_NewFrame
EXTRN	?ImGui_ImplOpenGL3_RenderDrawData@@YAXPEAUImDrawData@@@Z:PROC ; ImGui_ImplOpenGL3_RenderDrawData
EXTRN	__std_fs_convert_wide_to_narrow:PROC
EXTRN	??0FileDialog@ifd@@QEAA@XZ:PROC			; ifd::FileDialog::FileDialog
EXTRN	??1FileDialog@ifd@@QEAA@XZ:PROC			; ifd::FileDialog::~FileDialog
EXTRN	?Open@FileDialog@ifd@@QEAA_NAEBV?$basic_string@DU?$char_traits@D@std@@V?$allocator@D@2@@std@@00_N0@Z:PROC ; ifd::FileDialog::Open
EXTRN	?IsDone@FileDialog@ifd@@QEAA_NAEBV?$basic_string@DU?$char_traits@D@std@@V?$allocator@D@2@@std@@@Z:PROC ; ifd::FileDialog::IsDone
EXTRN	?Close@FileDialog@ifd@@QEAAXXZ:PROC		; ifd::FileDialog::Close
EXTRN	?DestroyEditor@NodeEditor@ax@@YAXPEAUEditorContext@12@@Z:PROC ; ax::NodeEditor::DestroyEditor
EXTRN	?_process_input@RaisinEng@@YAXH@Z:PROC		; RaisinEng::_process_input
EXTRN	?_add_callback_input@RaisinEng@@YAXW4eINPUTKEY@1@P6AXH@Z@Z:PROC ; RaisinEng::_add_callback_input
EXTRN	_CxxThrowException:PROC
EXTRN	_RTC_CheckStackVars:PROC
EXTRN	_RTC_InitBase:PROC
EXTRN	_RTC_Shutdown:PROC
EXTRN	__CheckForDebuggerJustMyCode:PROC
EXTRN	__CxxFrameHandler4:PROC
EXTRN	__GSHandlerCheck:PROC
EXTRN	__GSHandlerCheck_EH4:PROC
EXTRN	__security_check_cookie:PROC
EXTRN	memmove:PROC
EXTRN	sqrtf:PROC
EXTRN	tanf:PROC
EXTRN	_Init_thread_epoch:DWORD
EXTRN	??_7type_info@@6B@:BYTE				; type_info::`vftable'
EXTRN	glad_glTexParameteri:QWORD
EXTRN	glad_glTexImage2D:QWORD
EXTRN	glad_glViewport:QWORD
EXTRN	glad_glBindTexture:QWORD
EXTRN	glad_glDeleteTextures:QWORD
EXTRN	glad_glGenTextures:QWORD
EXTRN	glad_glGenerateMipmap:QWORD
EXTRN	__security_cookie:QWORD
EXTRN	_fltused:DWORD
EXTRN	_tls_index:DWORD
;	COMDAT ?_OptionsStorage@?1??__local_stdio_printf_options@@9@4_KA
_BSS	SEGMENT
?_OptionsStorage@?1??__local_stdio_printf_options@@9@4_KA DQ 01H DUP (?) ; `__local_stdio_printf_options'::`2'::_OptionsStorage
_BSS	ENDS
;	COMDAT ?g_ValidationLayers@@3V?$vector@PEBDV?$allocator@PEBD@std@@@std@@B
_BSS	SEGMENT
?g_ValidationLayers@@3V?$vector@PEBDV?$allocator@PEBD@std@@@std@@B DB 020H DUP (?) ; g_ValidationLayers
_BSS	ENDS
;	COMDAT ?ret@?1??Instance@FileDialog@ifd@@SAAEAV23@XZ@4V23@A
_BSS	SEGMENT
?ret@?1??Instance@FileDialog@ifd@@SAAEAV23@XZ@4V23@A DB 0f80H DUP (?) ; `ifd::FileDialog::Instance'::`2'::ret
_BSS	ENDS
;	COMDAT ?$TSS0@?1??Instance@FileDialog@ifd@@SAAEAV23@XZ@4HA
_BSS	SEGMENT
?$TSS0@?1??Instance@FileDialog@ifd@@SAAEAV23@XZ@4HA DD 01H DUP (?) ; `ifd::FileDialog::Instance'::`2'::$TSS0
_BSS	ENDS
;	COMDAT ?vCameraPosition@RaisinEng@@3U?$vec@$02M$0A@@glm@@A
_BSS	SEGMENT
?vCameraPosition@RaisinEng@@3U?$vec@$02M$0A@@glm@@A DB 0cH DUP (?) ; RaisinEng::vCameraPosition
_BSS	ENDS
;	COMDAT ?m_window@RaisinEng@@3PEAUGLFWwindow@@EA
_BSS	SEGMENT
?m_window@RaisinEng@@3PEAUGLFWwindow@@EA DQ 01H DUP (?)	; RaisinEng::m_window
_BSS	ENDS
;	COMDAT ?m_Context@RaisinEng@@3PEAUEditorContext@NodeEditor@ax@@EA
_BSS	SEGMENT
?m_Context@RaisinEng@@3PEAUEditorContext@NodeEditor@ax@@EA DQ 01H DUP (?) ; RaisinEng::m_Context
_BSS	ENDS
;	COMDAT ?m_inputs@RaisinEng@@3PAUsInputRegistered@1@A
_BSS	SEGMENT
?m_inputs@RaisinEng@@3PAUsInputRegistered@1@A DB 02000H DUP (?) ; RaisinEng::m_inputs
_BSS	ENDS
;	COMDAT ?oTempModelToCreate@@3PEAVModel@@EA
_BSS	SEGMENT
?oTempModelToCreate@@3PEAVModel@@EA DQ 01H DUP (?)	; oTempModelToCreate
_BSS	ENDS
;	COMDAT ?oShader@@3PEAVShader@@EA
_BSS	SEGMENT
?oShader@@3PEAVShader@@EA DQ 01H DUP (?)		; oShader
_BSS	ENDS
;	COMDAT pdata
pdata	SEGMENT
$pdata$??_H@YAXPEAX_K1P6APEAX0@Z@Z DD imagerel $LN7
	DD	imagerel $LN7+172
	DD	imagerel $unwind$??_H@YAXPEAX_K1P6APEAX0@Z@Z
pdata	ENDS
;	COMDAT pdata
pdata	SEGMENT
$pdata$?__empty_global_delete@@YAXPEAX@Z DD imagerel $LN3
	DD	imagerel $LN3+41
	DD	imagerel $unwind$?__empty_global_delete@@YAXPEAX@Z
pdata	ENDS
;	COMDAT pdata
pdata	SEGMENT
$pdata$?__empty_global_delete@@YAXPEAX_K@Z DD imagerel $LN3
	DD	imagerel $LN3+46
	DD	imagerel $unwind$?__empty_global_delete@@YAXPEAX_K@Z
pdata	ENDS
;	COMDAT pdata
pdata	SEGMENT
$pdata$?__empty_global_delete@@YAXPEAXW4align_val_t@std@@@Z DD imagerel $LN3
	DD	imagerel $LN3+46
	DD	imagerel $unwind$?__empty_global_delete@@YAXPEAXW4align_val_t@std@@@Z
pdata	ENDS
;	COMDAT pdata
pdata	SEGMENT
$pdata$?__empty_global_delete@@YAXPEAX_KW4align_val_t@std@@@Z DD imagerel $LN3
	DD	imagerel $LN3+51
	DD	imagerel $unwind$?__empty_global_delete@@YAXPEAX_KW4align_val_t@std@@@Z
pdata	ENDS
;	COMDAT pdata
pdata	SEGMENT
$pdata$__local_stdio_printf_options DD imagerel $LN3
	DD	imagerel $LN3+44
	DD	imagerel $unwind$__local_stdio_printf_options
pdata	ENDS
;	COMDAT pdata
pdata	SEGMENT
$pdata$_vfprintf_l DD imagerel $LN3
	DD	imagerel $LN3+103
	DD	imagerel $unwind$_vfprintf_l
pdata	ENDS
;	COMDAT pdata
pdata	SEGMENT
$pdata$printf DD imagerel $LN3
	DD	imagerel $LN3+216
	DD	imagerel $unwind$printf
pdata	ENDS
;	COMDAT pdata
pdata	SEGMENT
$pdata$wmemcpy DD imagerel $LN3
	DD	imagerel $LN3+89
	DD	imagerel $unwind$wmemcpy
pdata	ENDS
;	COMDAT pdata
pdata	SEGMENT
$pdata$?max@?$numeric_limits@_J@std@@SA_JXZ DD imagerel $LN3
	DD	imagerel $LN3+47
	DD	imagerel $unwind$?max@?$numeric_limits@_J@std@@SA_JXZ
pdata	ENDS
;	COMDAT pdata
pdata	SEGMENT
$pdata$?epsilon@?$numeric_limits@M@std@@SAMXZ DD imagerel $LN3
	DD	imagerel $LN3+45
	DD	imagerel $unwind$?epsilon@?$numeric_limits@M@std@@SAMXZ
pdata	ENDS
;	COMDAT pdata
pdata	SEGMENT
$pdata$??2@YAPEAX_KPEAX@Z DD imagerel $LN3
	DD	imagerel $LN3+53
	DD	imagerel $unwind$??2@YAPEAX_KPEAX@Z
pdata	ENDS
;	COMDAT pdata
pdata	SEGMENT
$pdata$??0exception@std@@QEAA@QEBD@Z DD imagerel $LN3
	DD	imagerel $LN3+210
	DD	imagerel $unwind$??0exception@std@@QEAA@QEBD@Z
pdata	ENDS
;	COMDAT pdata
pdata	SEGMENT
$pdata$??0exception@std@@QEAA@QEBDH@Z DD imagerel $LN3
	DD	imagerel $LN3+116
	DD	imagerel $unwind$??0exception@std@@QEAA@QEBDH@Z
pdata	ENDS
;	COMDAT pdata
pdata	SEGMENT
$pdata$??0exception@std@@QEAA@AEBV01@@Z DD imagerel $LN3
	DD	imagerel $LN3+123
	DD	imagerel $unwind$??0exception@std@@QEAA@AEBV01@@Z
pdata	ENDS
;	COMDAT pdata
pdata	SEGMENT
$pdata$??1exception@std@@UEAA@XZ DD imagerel $LN3
	DD	imagerel $LN3+77
	DD	imagerel $unwind$??1exception@std@@UEAA@XZ
pdata	ENDS
;	COMDAT pdata
pdata	SEGMENT
$pdata$?what@exception@std@@UEBAPEBDXZ DD imagerel $LN5
	DD	imagerel $LN5+96
	DD	imagerel $unwind$?what@exception@std@@UEBAPEBDXZ
pdata	ENDS
;	COMDAT pdata
pdata	SEGMENT
$pdata$??_Gexception@std@@UEAAPEAXI@Z DD imagerel $LN4
	DD	imagerel $LN4+82
	DD	imagerel $unwind$??_Gexception@std@@UEAAPEAXI@Z
pdata	ENDS
;	COMDAT pdata
pdata	SEGMENT
$pdata$??0bad_alloc@std@@AEAA@QEBD@Z DD imagerel $LN3
	DD	imagerel $LN3+95
	DD	imagerel $unwind$??0bad_alloc@std@@AEAA@QEBD@Z
pdata	ENDS
;	COMDAT pdata
pdata	SEGMENT
$pdata$??1bad_alloc@std@@UEAA@XZ DD imagerel $LN3
	DD	imagerel $LN3+41
	DD	imagerel $unwind$??1bad_alloc@std@@UEAA@XZ
pdata	ENDS
;	COMDAT pdata
pdata	SEGMENT
$pdata$??0bad_alloc@std@@QEAA@AEBV01@@Z DD imagerel $LN3
	DD	imagerel $LN3+77
	DD	imagerel $unwind$??0bad_alloc@std@@QEAA@AEBV01@@Z
pdata	ENDS
;	COMDAT pdata
pdata	SEGMENT
$pdata$??_Gbad_alloc@std@@UEAAPEAXI@Z DD imagerel $LN4
	DD	imagerel $LN4+82
	DD	imagerel $unwind$??_Gbad_alloc@std@@UEAAPEAXI@Z
pdata	ENDS
;	COMDAT pdata
pdata	SEGMENT
$pdata$??0bad_array_new_length@std@@QEAA@XZ DD imagerel $LN3
	DD	imagerel $LN3+84
	DD	imagerel $unwind$??0bad_array_new_length@std@@QEAA@XZ
pdata	ENDS
;	COMDAT pdata
pdata	SEGMENT
$pdata$??1bad_array_new_length@std@@UEAA@XZ DD imagerel $LN3
	DD	imagerel $LN3+41
	DD	imagerel $unwind$??1bad_array_new_length@std@@UEAA@XZ
pdata	ENDS
;	COMDAT pdata
pdata	SEGMENT
$pdata$??0bad_array_new_length@std@@QEAA@AEBV01@@Z DD imagerel $LN3
	DD	imagerel $LN3+77
	DD	imagerel $unwind$??0bad_array_new_length@std@@QEAA@AEBV01@@Z
pdata	ENDS
;	COMDAT pdata
pdata	SEGMENT
$pdata$??_Gbad_array_new_length@std@@UEAAPEAXI@Z DD imagerel $LN4
	DD	imagerel $LN4+82
	DD	imagerel $unwind$??_Gbad_array_new_length@std@@UEAAPEAXI@Z
pdata	ENDS
;	COMDAT pdata
pdata	SEGMENT
$pdata$?_Throw_bad_array_new_length@std@@YAXXZ DD imagerel $LN3
	DD	imagerel $LN3+68
	DD	imagerel $unwind$?_Throw_bad_array_new_length@std@@YAXXZ
pdata	ENDS
;	COMDAT pdata
pdata	SEGMENT
$pdata$?_Allocate@_Default_allocate_traits@std@@SAPEAX_K@Z DD imagerel $LN3
	DD	imagerel $LN3+53
	DD	imagerel $unwind$?_Allocate@_Default_allocate_traits@std@@SAPEAX_K@Z
pdata	ENDS
;	COMDAT pdata
pdata	SEGMENT
$pdata$?_Adjust_manually_vector_aligned@std@@YAXAEAPEAXAEA_K@Z DD imagerel $LN21
	DD	imagerel $LN21+453
	DD	imagerel $unwind$?_Adjust_manually_vector_aligned@std@@YAXAEAPEAXAEA_K@Z
pdata	ENDS
;	COMDAT pdata
pdata	SEGMENT
$pdata$??0_Container_proxy@std@@QEAA@PEAU_Container_base12@1@@Z DD imagerel $LN3
	DD	imagerel $LN3+85
	DD	imagerel $unwind$??0_Container_proxy@std@@QEAA@PEAU_Container_base12@1@@Z
pdata	ENDS
;	COMDAT pdata
pdata	SEGMENT
$pdata$??0_Container_base12@std@@QEAA@XZ DD imagerel $LN3
	DD	imagerel $LN3+62
	DD	imagerel $unwind$??0_Container_base12@std@@QEAA@XZ
pdata	ENDS
;	COMDAT pdata
pdata	SEGMENT
$pdata$?_Orphan_all@_Container_base12@std@@QEAAXXZ DD imagerel $LN3
	DD	imagerel $LN3+53
	DD	imagerel $unwind$?_Orphan_all@_Container_base12@std@@QEAAXXZ
pdata	ENDS
;	COMDAT pdata
pdata	SEGMENT
$pdata$?_Swap_proxy_and_iterators@_Container_base12@std@@QEAAXAEAU12@@Z DD imagerel $LN3
	DD	imagerel $LN3+65
	DD	imagerel $unwind$?_Swap_proxy_and_iterators@_Container_base12@std@@QEAAXAEAU12@@Z
pdata	ENDS
;	COMDAT pdata
pdata	SEGMENT
$pdata$?_Orphan_all_unlocked_v3@_Container_base12@std@@AEAAXXZ DD imagerel $LN7
	DD	imagerel $LN7+138
	DD	imagerel $unwind$?_Orphan_all_unlocked_v3@_Container_base12@std@@AEAAXXZ
pdata	ENDS
;	COMDAT pdata
pdata	SEGMENT
$pdata$?_Swap_proxy_and_iterators_unlocked@_Container_base12@std@@AEAAXAEAU12@@Z DD imagerel $LN5
	DD	imagerel $LN5+160
	DD	imagerel $unwind$?_Swap_proxy_and_iterators_unlocked@_Container_base12@std@@AEAAXAEAU12@@Z
pdata	ENDS
;	COMDAT pdata
pdata	SEGMENT
$pdata$?_Orphan_all_locked_v3@_Container_base12@std@@AEAAXXZ DD imagerel $LN3
	DD	imagerel $LN3+151
	DD	imagerel $unwind$?_Orphan_all_locked_v3@_Container_base12@std@@AEAAXXZ
pdata	ENDS
;	COMDAT pdata
pdata	SEGMENT
$pdata$?_Swap_proxy_and_iterators_locked@_Container_base12@std@@AEAAXAEAU12@@Z DD imagerel $LN3
	DD	imagerel $LN3+163
	DD	imagerel $unwind$?_Swap_proxy_and_iterators_locked@_Container_base12@std@@AEAAXAEAU12@@Z
pdata	ENDS
;	COMDAT pdata
pdata	SEGMENT
$pdata$?_Release@_Basic_container_proxy_ptr12@std@@QEAAXXZ DD imagerel $LN3
	DD	imagerel $LN3+55
	DD	imagerel $unwind$?_Release@_Basic_container_proxy_ptr12@std@@QEAAXXZ
pdata	ENDS
;	COMDAT pdata
pdata	SEGMENT
$pdata$??0_Basic_container_proxy_ptr12@std@@IEAA@XZ DD imagerel $LN3
	DD	imagerel $LN3+62
	DD	imagerel $unwind$??0_Basic_container_proxy_ptr12@std@@IEAA@XZ
pdata	ENDS
;	COMDAT pdata
pdata	SEGMENT
$pdata$?copy@?$_Char_traits@DH@std@@SAPEADQEADQEBD_K@Z DD imagerel $LN3
	DD	imagerel $LN3+83
	DD	imagerel $unwind$?copy@?$_Char_traits@DH@std@@SAPEADQEADQEBD_K@Z
pdata	ENDS
;	COMDAT pdata
pdata	SEGMENT
$pdata$?move@?$_Char_traits@DH@std@@SAPEADQEADQEBD_K@Z DD imagerel $LN3
	DD	imagerel $LN3+84
	DD	imagerel $unwind$?move@?$_Char_traits@DH@std@@SAPEADQEADQEBD_K@Z
pdata	ENDS
;	COMDAT pdata
pdata	SEGMENT
$pdata$?length@?$_Narrow_char_traits@DH@std@@SA_KQEBD@Z DD imagerel $LN4
	DD	imagerel $LN4+100
	DD	imagerel $unwind$?length@?$_Narrow_char_traits@DH@std@@SA_KQEBD@Z
pdata	ENDS
;	COMDAT pdata
pdata	SEGMENT
$pdata$?assign@?$_Narrow_char_traits@DH@std@@SAPEADQEAD_KD@Z DD imagerel $LN3
	DD	imagerel $LN3+83
	DD	imagerel $unwind$?assign@?$_Narrow_char_traits@DH@std@@SAPEADQEAD_KD@Z
pdata	ENDS
;	COMDAT pdata
pdata	SEGMENT
$pdata$?assign@?$_Narrow_char_traits@DH@std@@SAXAEADAEBD@Z DD imagerel $LN3
	DD	imagerel $LN3+65
	DD	imagerel $unwind$?assign@?$_Narrow_char_traits@DH@std@@SAXAEADAEBD@Z
pdata	ENDS
;	COMDAT pdata
pdata	SEGMENT
$pdata$??0?$basic_string_view@_WU?$char_traits@_W@std@@@std@@QEAA@QEB_W_K@Z DD imagerel $LN13
	DD	imagerel $LN13+232
	DD	imagerel $unwind$??0?$basic_string_view@_WU?$char_traits@_W@std@@@std@@QEAA@QEB_W_K@Z
pdata	ENDS
;	COMDAT pdata
pdata	SEGMENT
$pdata$?size@?$basic_string_view@_WU?$char_traits@_W@std@@@std@@QEBA_KXZ DD imagerel $LN3
	DD	imagerel $LN3+52
	DD	imagerel $unwind$?size@?$basic_string_view@_WU?$char_traits@_W@std@@@std@@QEBA_KXZ
pdata	ENDS
;	COMDAT pdata
pdata	SEGMENT
$pdata$?empty@?$basic_string_view@_WU?$char_traits@_W@std@@@std@@QEBA_NXZ DD imagerel $LN5
	DD	imagerel $LN5+84
	DD	imagerel $unwind$?empty@?$basic_string_view@_WU?$char_traits@_W@std@@@std@@QEBA_NXZ
pdata	ENDS
;	COMDAT pdata
pdata	SEGMENT
$pdata$?data@?$basic_string_view@_WU?$char_traits@_W@std@@@std@@QEBAPEB_WXZ DD imagerel $LN3
	DD	imagerel $LN3+51
	DD	imagerel $unwind$?data@?$basic_string_view@_WU?$char_traits@_W@std@@@std@@QEBAPEB_WXZ
pdata	ENDS
;	COMDAT pdata
pdata	SEGMENT
$pdata$?_Xlen_string@std@@YAXXZ DD imagerel $LN3
	DD	imagerel $LN3+49
	DD	imagerel $unwind$?_Xlen_string@std@@YAXXZ
pdata	ENDS
;	COMDAT pdata
pdata	SEGMENT
$pdata$??0?$allocator@D@std@@QEAA@XZ DD imagerel $LN3
	DD	imagerel $LN3+48
	DD	imagerel $unwind$??0?$allocator@D@std@@QEAA@XZ
pdata	ENDS
;	COMDAT pdata
pdata	SEGMENT
$pdata$?deallocate@?$allocator@D@std@@QEAAXQEAD_K@Z DD imagerel $LN13
	DD	imagerel $LN13+209
	DD	imagerel $unwind$?deallocate@?$allocator@D@std@@QEAAXQEAD_K@Z
pdata	ENDS
;	COMDAT pdata
pdata	SEGMENT
$pdata$?allocate@?$allocator@D@std@@QEAAPEAD_K@Z DD imagerel $LN3
	DD	imagerel $LN3+66
	DD	imagerel $unwind$?allocate@?$allocator@D@std@@QEAAPEAD_K@Z
pdata	ENDS
;	COMDAT pdata
pdata	SEGMENT
$pdata$?max_size@?$_Default_allocator_traits@V?$allocator@D@std@@@std@@SA_KAEBV?$allocator@D@2@@Z DD imagerel $LN3
	DD	imagerel $LN3+48
	DD	imagerel $unwind$?max_size@?$_Default_allocator_traits@V?$allocator@D@std@@@std@@SA_KAEBV?$allocator@D@2@@Z
pdata	ENDS
;	COMDAT pdata
pdata	SEGMENT
$pdata$?select_on_container_copy_construction@?$_Default_allocator_traits@V?$allocator@D@std@@@std@@SA?AV?$allocator@D@2@AEBV32@@Z DD imagerel $LN3
	DD	imagerel $LN3+53
	DD	imagerel $unwind$?select_on_container_copy_construction@?$_Default_allocator_traits@V?$allocator@D@std@@@std@@SA?AV?$allocator@D@2@AEBV32@@Z
pdata	ENDS
;	COMDAT pdata
pdata	SEGMENT
$pdata$??0?$_String_val@U?$_Simple_types@D@std@@@std@@QEAA@XZ DD imagerel $LN3
	DD	imagerel $LN3+109
	DD	imagerel $unwind$??0?$_String_val@U?$_Simple_types@D@std@@@std@@QEAA@XZ
pdata	ENDS
;	COMDAT pdata
pdata	SEGMENT
$pdata$?_Myptr@?$_String_val@U?$_Simple_types@D@std@@@std@@QEAAPEADXZ DD imagerel $LN4
	DD	imagerel $LN4+99
	DD	imagerel $unwind$?_Myptr@?$_String_val@U?$_Simple_types@D@std@@@std@@QEAAPEADXZ
pdata	ENDS
;	COMDAT pdata
pdata	SEGMENT
$pdata$?_Myptr@?$_String_val@U?$_Simple_types@D@std@@@std@@QEBAPEBDXZ DD imagerel $LN4
	DD	imagerel $LN4+99
	DD	imagerel $unwind$?_Myptr@?$_String_val@U?$_Simple_types@D@std@@@std@@QEBAPEBDXZ
pdata	ENDS
;	COMDAT pdata
pdata	SEGMENT
$pdata$?_Large_string_engaged@?$_String_val@U?$_Simple_types@D@std@@@std@@QEBA_NXZ DD imagerel $LN5
	DD	imagerel $LN5+84
	DD	imagerel $unwind$?_Large_string_engaged@?$_String_val@U?$_Simple_types@D@std@@@std@@QEBA_NXZ
pdata	ENDS
;	COMDAT pdata
pdata	SEGMENT
$pdata$??0_Bxty@?$_String_val@U?$_Simple_types@D@std@@@std@@QEAA@XZ DD imagerel $LN3
	DD	imagerel $LN3+62
	DD	imagerel $unwind$??0_Bxty@?$_String_val@U?$_Simple_types@D@std@@@std@@QEAA@XZ
pdata	ENDS
;	COMDAT pdata
pdata	SEGMENT
$pdata$??1_Bxty@?$_String_val@U?$_Simple_types@D@std@@@std@@QEAA@XZ DD imagerel $LN3
	DD	imagerel $LN3+41
	DD	imagerel $unwind$??1_Bxty@?$_String_val@U?$_Simple_types@D@std@@@std@@QEAA@XZ
pdata	ENDS
;	COMDAT pdata
pdata	SEGMENT
$pdata$??1?$_String_val@U?$_Simple_types@D@std@@@std@@QEAA@XZ DD imagerel $LN3
	DD	imagerel $LN3+48
	DD	imagerel $unwind$??1?$_String_val@U?$_Simple_types@D@std@@@std@@QEAA@XZ
pdata	ENDS
;	COMDAT pdata
pdata	SEGMENT
$pdata$??0?$basic_string@DU?$char_traits@D@std@@V?$allocator@D@2@@std@@QEAA@XZ DD imagerel $LN3
	DD	imagerel $LN3+149
	DD	imagerel $unwind$??0?$basic_string@DU?$char_traits@D@std@@V?$allocator@D@2@@std@@QEAA@XZ
pdata	ENDS
;	COMDAT pdata
pdata	SEGMENT
$pdata$??0?$basic_string@DU?$char_traits@D@std@@V?$allocator@D@2@@std@@QEAA@AEBV?$allocator@D@1@@Z DD imagerel $LN3
	DD	imagerel $LN3+161
	DD	imagerel $unwind$??0?$basic_string@DU?$char_traits@D@std@@V?$allocator@D@2@@std@@QEAA@AEBV?$allocator@D@1@@Z
pdata	ENDS
;	COMDAT pdata
pdata	SEGMENT
$pdata$??0?$basic_string@DU?$char_traits@D@std@@V?$allocator@D@2@@std@@QEAA@AEBV01@@Z DD imagerel $LN4
	DD	imagerel $LN4+208
	DD	imagerel $unwind$??0?$basic_string@DU?$char_traits@D@std@@V?$allocator@D@2@@std@@QEAA@AEBV01@@Z
pdata	ENDS
;	COMDAT pdata
pdata	SEGMENT
$pdata$?dtor$0@?0???0?$basic_string@DU?$char_traits@D@std@@V?$allocator@D@2@@std@@QEAA@AEBV01@@Z@4HA DD imagerel ?dtor$0@?0???0?$basic_string@DU?$char_traits@D@std@@V?$allocator@D@2@@std@@QEAA@AEBV01@@Z@4HA
	DD	imagerel ?dtor$0@?0???0?$basic_string@DU?$char_traits@D@std@@V?$allocator@D@2@@std@@QEAA@AEBV01@@Z@4HA+39
	DD	imagerel $unwind$?dtor$0@?0???0?$basic_string@DU?$char_traits@D@std@@V?$allocator@D@2@@std@@QEAA@AEBV01@@Z@4HA
pdata	ENDS
;	COMDAT pdata
pdata	SEGMENT
$pdata$??0?$basic_string@DU?$char_traits@D@std@@V?$allocator@D@2@@std@@QEAA@QEBD_K@Z DD imagerel $LN4
	DD	imagerel $LN4+119
	DD	imagerel $unwind$??0?$basic_string@DU?$char_traits@D@std@@V?$allocator@D@2@@std@@QEAA@QEBD_K@Z
pdata	ENDS
;	COMDAT pdata
pdata	SEGMENT
$pdata$?dtor$0@?0???0?$basic_string@DU?$char_traits@D@std@@V?$allocator@D@2@@std@@QEAA@QEBD_K@Z@4HA DD imagerel ?dtor$0@?0???0?$basic_string@DU?$char_traits@D@std@@V?$allocator@D@2@@std@@QEAA@QEBD_K@Z@4HA
	DD	imagerel ?dtor$0@?0???0?$basic_string@DU?$char_traits@D@std@@V?$allocator@D@2@@std@@QEAA@QEBD_K@Z@4HA+39
	DD	imagerel $unwind$?dtor$0@?0???0?$basic_string@DU?$char_traits@D@std@@V?$allocator@D@2@@std@@QEAA@QEBD_K@Z@4HA
pdata	ENDS
;	COMDAT pdata
pdata	SEGMENT
$pdata$??0?$basic_string@DU?$char_traits@D@std@@V?$allocator@D@2@@std@@QEAA@QEBD@Z DD imagerel $LN4
	DD	imagerel $LN4+130
	DD	imagerel $unwind$??0?$basic_string@DU?$char_traits@D@std@@V?$allocator@D@2@@std@@QEAA@QEBD@Z
pdata	ENDS
;	COMDAT pdata
pdata	SEGMENT
$pdata$?dtor$0@?0???0?$basic_string@DU?$char_traits@D@std@@V?$allocator@D@2@@std@@QEAA@QEBD@Z@4HA DD imagerel ?dtor$0@?0???0?$basic_string@DU?$char_traits@D@std@@V?$allocator@D@2@@std@@QEAA@QEBD@Z@4HA
	DD	imagerel ?dtor$0@?0???0?$basic_string@DU?$char_traits@D@std@@V?$allocator@D@2@@std@@QEAA@QEBD@Z@4HA+39
	DD	imagerel $unwind$?dtor$0@?0???0?$basic_string@DU?$char_traits@D@std@@V?$allocator@D@2@@std@@QEAA@QEBD@Z@4HA
pdata	ENDS
;	COMDAT pdata
pdata	SEGMENT
$pdata$??0?$basic_string@DU?$char_traits@D@std@@V?$allocator@D@2@@std@@QEAA@$$QEAV01@@Z DD imagerel $LN3
	DD	imagerel $LN3+208
	DD	imagerel $unwind$??0?$basic_string@DU?$char_traits@D@std@@V?$allocator@D@2@@std@@QEAA@$$QEAV01@@Z
pdata	ENDS
;	COMDAT pdata
pdata	SEGMENT
$pdata$?_Memcpy_val_from@?$basic_string@DU?$char_traits@D@std@@V?$allocator@D@2@@std@@AEAAXAEBV12@@Z DD imagerel $LN3
	DD	imagerel $LN3+109
	DD	imagerel $unwind$?_Memcpy_val_from@?$basic_string@DU?$char_traits@D@std@@V?$allocator@D@2@@std@@AEAAXAEBV12@@Z
pdata	ENDS
;	COMDAT pdata
pdata	SEGMENT
$pdata$?_Take_contents@?$basic_string@DU?$char_traits@D@std@@V?$allocator@D@2@@std@@AEAAXAEAV12@@Z DD imagerel $LN7
	DD	imagerel $LN7+332
	DD	imagerel $unwind$?_Take_contents@?$basic_string@DU?$char_traits@D@std@@V?$allocator@D@2@@std@@AEAAXAEAV12@@Z
pdata	ENDS
;	COMDAT pdata
pdata	SEGMENT
$pdata$??1?$basic_string@DU?$char_traits@D@std@@V?$allocator@D@2@@std@@QEAA@XZ DD imagerel $LN3
	DD	imagerel $LN3+214
	DD	imagerel $unwind$??1?$basic_string@DU?$char_traits@D@std@@V?$allocator@D@2@@std@@QEAA@XZ
pdata	ENDS
;	COMDAT pdata
pdata	SEGMENT
$pdata$?append@?$basic_string@DU?$char_traits@D@std@@V?$allocator@D@2@@std@@QEAAAEAV12@AEBV12@@Z DD imagerel $LN3
	DD	imagerel $LN3+112
	DD	imagerel $unwind$?append@?$basic_string@DU?$char_traits@D@std@@V?$allocator@D@2@@std@@QEAAAEAV12@AEBV12@@Z
pdata	ENDS
;	COMDAT pdata
pdata	SEGMENT
$pdata$?append@?$basic_string@DU?$char_traits@D@std@@V?$allocator@D@2@@std@@QEAAAEAV12@QEBD_K@Z DD imagerel $LN4
	DD	imagerel $LN4+303
	DD	imagerel $unwind$?append@?$basic_string@DU?$char_traits@D@std@@V?$allocator@D@2@@std@@QEAAAEAV12@QEBD_K@Z
pdata	ENDS
;	COMDAT pdata
pdata	SEGMENT
$pdata$?append@?$basic_string@DU?$char_traits@D@std@@V?$allocator@D@2@@std@@QEAAAEAV12@QEBD@Z DD imagerel $LN3
	DD	imagerel $LN3+88
	DD	imagerel $unwind$?append@?$basic_string@DU?$char_traits@D@std@@V?$allocator@D@2@@std@@QEAAAEAV12@QEBD@Z
pdata	ENDS
;	COMDAT pdata
pdata	SEGMENT
$pdata$?append@?$basic_string@DU?$char_traits@D@std@@V?$allocator@D@2@@std@@QEAAAEAV12@_KD@Z DD imagerel $LN4
	DD	imagerel $LN4+303
	DD	imagerel $unwind$?append@?$basic_string@DU?$char_traits@D@std@@V?$allocator@D@2@@std@@QEAAAEAV12@_KD@Z
pdata	ENDS
;	COMDAT pdata
pdata	SEGMENT
$pdata$?c_str@?$basic_string@DU?$char_traits@D@std@@V?$allocator@D@2@@std@@QEBAPEBDXZ DD imagerel $LN3
	DD	imagerel $LN3+56
	DD	imagerel $unwind$?c_str@?$basic_string@DU?$char_traits@D@std@@V?$allocator@D@2@@std@@QEBAPEBDXZ
pdata	ENDS
;	COMDAT pdata
pdata	SEGMENT
$pdata$?data@?$basic_string@DU?$char_traits@D@std@@V?$allocator@D@2@@std@@QEAAPEADXZ DD imagerel $LN3
	DD	imagerel $LN3+56
	DD	imagerel $unwind$?data@?$basic_string@DU?$char_traits@D@std@@V?$allocator@D@2@@std@@QEAAPEADXZ
pdata	ENDS
;	COMDAT pdata
pdata	SEGMENT
$pdata$?size@?$basic_string@DU?$char_traits@D@std@@V?$allocator@D@2@@std@@QEBA_KXZ DD imagerel $LN3
	DD	imagerel $LN3+52
	DD	imagerel $unwind$?size@?$basic_string@DU?$char_traits@D@std@@V?$allocator@D@2@@std@@QEBA_KXZ
pdata	ENDS
;	COMDAT pdata
pdata	SEGMENT
$pdata$?max_size@?$basic_string@DU?$char_traits@D@std@@V?$allocator@D@2@@std@@QEBA_KXZ DD imagerel $LN3
	DD	imagerel $LN3+226
	DD	imagerel $unwind$?max_size@?$basic_string@DU?$char_traits@D@std@@V?$allocator@D@2@@std@@QEBA_KXZ
pdata	ENDS
;	COMDAT pdata
pdata	SEGMENT
$pdata$?resize@?$basic_string@DU?$char_traits@D@std@@V?$allocator@D@2@@std@@QEAAX_KD@Z DD imagerel $LN5
	DD	imagerel $LN5+141
	DD	imagerel $unwind$?resize@?$basic_string@DU?$char_traits@D@std@@V?$allocator@D@2@@std@@QEAAX_KD@Z
pdata	ENDS
;	COMDAT pdata
pdata	SEGMENT
$pdata$?empty@?$basic_string@DU?$char_traits@D@std@@V?$allocator@D@2@@std@@QEBA_NXZ DD imagerel $LN5
	DD	imagerel $LN5+84
	DD	imagerel $unwind$?empty@?$basic_string@DU?$char_traits@D@std@@V?$allocator@D@2@@std@@QEBA_NXZ
pdata	ENDS
;	COMDAT pdata
pdata	SEGMENT
$pdata$?_Calculate_growth@?$basic_string@DU?$char_traits@D@std@@V?$allocator@D@2@@std@@CA_K_K00@Z DD imagerel $LN5
	DD	imagerel $LN5+271
	DD	imagerel $unwind$?_Calculate_growth@?$basic_string@DU?$char_traits@D@std@@V?$allocator@D@2@@std@@CA_K_K00@Z
pdata	ENDS
;	COMDAT pdata
pdata	SEGMENT
$pdata$?_Calculate_growth@?$basic_string@DU?$char_traits@D@std@@V?$allocator@D@2@@std@@AEBA_K_K@Z DD imagerel $LN3
	DD	imagerel $LN3+109
	DD	imagerel $unwind$?_Calculate_growth@?$basic_string@DU?$char_traits@D@std@@V?$allocator@D@2@@std@@AEBA_K_K@Z
pdata	ENDS
;	COMDAT pdata
pdata	SEGMENT
$pdata$?_Eos@?$basic_string@DU?$char_traits@D@std@@V?$allocator@D@2@@std@@AEAAX_K@Z DD imagerel $LN3
	DD	imagerel $LN3+142
	DD	imagerel $unwind$?_Eos@?$basic_string@DU?$char_traits@D@std@@V?$allocator@D@2@@std@@AEAAX_K@Z
pdata	ENDS
;	COMDAT pdata
pdata	SEGMENT
$pdata$?_Tidy_init@?$basic_string@DU?$char_traits@D@std@@V?$allocator@D@2@@std@@AEAAXXZ DD imagerel $LN3
	DD	imagerel $LN3+116
	DD	imagerel $unwind$?_Tidy_init@?$basic_string@DU?$char_traits@D@std@@V?$allocator@D@2@@std@@AEAAXXZ
pdata	ENDS
;	COMDAT pdata
pdata	SEGMENT
$pdata$?_Tidy_deallocate@?$basic_string@DU?$char_traits@D@std@@V?$allocator@D@2@@std@@AEAAXXZ DD imagerel $LN4
	DD	imagerel $LN4+213
	DD	imagerel $unwind$?_Tidy_deallocate@?$basic_string@DU?$char_traits@D@std@@V?$allocator@D@2@@std@@AEAAXXZ
pdata	ENDS
;	COMDAT pdata
pdata	SEGMENT
$pdata$?_Swap_proxy_and_iterators@?$basic_string@DU?$char_traits@D@std@@V?$allocator@D@2@@std@@AEAAXAEAV12@@Z DD imagerel $LN3
	DD	imagerel $LN3+82
	DD	imagerel $unwind$?_Swap_proxy_and_iterators@?$basic_string@DU?$char_traits@D@std@@V?$allocator@D@2@@std@@AEAAXAEAV12@@Z
pdata	ENDS
;	COMDAT pdata
pdata	SEGMENT
$pdata$?_Getal@?$basic_string@DU?$char_traits@D@std@@V?$allocator@D@2@@std@@AEAAAEAV?$allocator@D@2@XZ DD imagerel $LN3
	DD	imagerel $LN3+56
	DD	imagerel $unwind$?_Getal@?$basic_string@DU?$char_traits@D@std@@V?$allocator@D@2@@std@@AEAAAEAV?$allocator@D@2@XZ
pdata	ENDS
;	COMDAT pdata
pdata	SEGMENT
$pdata$?_Getal@?$basic_string@DU?$char_traits@D@std@@V?$allocator@D@2@@std@@AEBAAEBV?$allocator@D@2@XZ DD imagerel $LN3
	DD	imagerel $LN3+56
	DD	imagerel $unwind$?_Getal@?$basic_string@DU?$char_traits@D@std@@V?$allocator@D@2@@std@@AEBAAEBV?$allocator@D@2@XZ
pdata	ENDS
;	COMDAT pdata
pdata	SEGMENT
$pdata$?_Get_first@?$_Compressed_pair@V?$allocator@D@std@@V?$_String_val@U?$_Simple_types@D@std@@@2@$00@std@@QEAAAEAV?$allocator@D@2@XZ DD imagerel $LN3
	DD	imagerel $LN3+48
	DD	imagerel $unwind$?_Get_first@?$_Compressed_pair@V?$allocator@D@std@@V?$_String_val@U?$_Simple_types@D@std@@@2@$00@std@@QEAAAEAV?$allocator@D@2@XZ
pdata	ENDS
;	COMDAT pdata
pdata	SEGMENT
$pdata$?_Get_first@?$_Compressed_pair@V?$allocator@D@std@@V?$_String_val@U?$_Simple_types@D@std@@@2@$00@std@@QEBAAEBV?$allocator@D@2@XZ DD imagerel $LN3
	DD	imagerel $LN3+48
	DD	imagerel $unwind$?_Get_first@?$_Compressed_pair@V?$allocator@D@std@@V?$_String_val@U?$_Simple_types@D@std@@@2@$00@std@@QEBAAEBV?$allocator@D@2@XZ
pdata	ENDS
;	COMDAT pdata
pdata	SEGMENT
$pdata$??1?$_Compressed_pair@V?$allocator@D@std@@V?$_String_val@U?$_Simple_types@D@std@@@2@$00@std@@QEAA@XZ DD imagerel $LN3
	DD	imagerel $LN3+44
	DD	imagerel $unwind$??1?$_Compressed_pair@V?$allocator@D@std@@V?$_String_val@U?$_Simple_types@D@std@@@2@$00@std@@QEAA@XZ
pdata	ENDS
;	COMDAT pdata
pdata	SEGMENT
$pdata$?_Myptr@?$_String_val@U?$_Simple_types@_W@std@@@std@@QEBAPEB_WXZ DD imagerel $LN4
	DD	imagerel $LN4+99
	DD	imagerel $unwind$?_Myptr@?$_String_val@U?$_Simple_types@_W@std@@@std@@QEBAPEB_WXZ
pdata	ENDS
;	COMDAT pdata
pdata	SEGMENT
$pdata$?_Large_string_engaged@?$_String_val@U?$_Simple_types@_W@std@@@std@@QEBA_NXZ DD imagerel $LN5
	DD	imagerel $LN5+84
	DD	imagerel $unwind$?_Large_string_engaged@?$_String_val@U?$_Simple_types@_W@std@@@std@@QEBA_NXZ
pdata	ENDS
;	COMDAT pdata
pdata	SEGMENT
$pdata$??B?$basic_string@_WU?$char_traits@_W@std@@V?$allocator@_W@2@@std@@QEBA?AV?$basic_string_view@_WU?$char_traits@_W@std@@@1@XZ DD imagerel $LN3
	DD	imagerel $LN3+119
	DD	imagerel $unwind$??B?$basic_string@_WU?$char_traits@_W@std@@V?$allocator@_W@2@@std@@QEBA?AV?$basic_string_view@_WU?$char_traits@_W@std@@@1@XZ
pdata	ENDS
;	COMDAT pdata
pdata	SEGMENT
$pdata$?sqrt@@YAMM@Z DD imagerel $LN3
	DD	imagerel $LN3+55
	DD	imagerel $unwind$?sqrt@@YAMM@Z
pdata	ENDS
;	COMDAT pdata
pdata	SEGMENT
$pdata$?tan@@YAMM@Z DD imagerel $LN3
	DD	imagerel $LN3+55
	DD	imagerel $unwind$?tan@@YAMM@Z
pdata	ENDS
;	COMDAT pdata
pdata	SEGMENT
$pdata$?length@?$vec@$03M$0A@@glm@@SAHXZ DD imagerel $LN3
	DD	imagerel $LN3+42
	DD	imagerel $unwind$?length@?$vec@$03M$0A@@glm@@SAHXZ
pdata	ENDS
;	COMDAT pdata
pdata	SEGMENT
$pdata$??A?$vec@$03M$0A@@glm@@QEAAAEAMH@Z DD imagerel $LN12
	DD	imagerel $LN12+189
	DD	imagerel $unwind$??A?$vec@$03M$0A@@glm@@QEAAAEAMH@Z
pdata	ENDS
;	COMDAT pdata
pdata	SEGMENT
$pdata$??A?$vec@$03M$0A@@glm@@QEBAAEBMH@Z DD imagerel $LN12
	DD	imagerel $LN12+189
	DD	imagerel $unwind$??A?$vec@$03M$0A@@glm@@QEBAAEBMH@Z
pdata	ENDS
;	COMDAT pdata
pdata	SEGMENT
$pdata$??0?$vec@$03M$0A@@glm@@QEAA@M@Z DD imagerel $LN3
	DD	imagerel $LN3+133
	DD	imagerel $unwind$??0?$vec@$03M$0A@@glm@@QEAA@M@Z
pdata	ENDS
;	COMDAT pdata
pdata	SEGMENT
$pdata$??0?$vec@$03M$0A@@glm@@QEAA@MMMM@Z DD imagerel $LN3
	DD	imagerel $LN3+145
	DD	imagerel $unwind$??0?$vec@$03M$0A@@glm@@QEAA@MMMM@Z
pdata	ENDS
;	COMDAT pdata
pdata	SEGMENT
$pdata$??$?DM$0A@@glm@@YA?AU?$vec@$03M$0A@@0@AEBU10@AEBM@Z DD imagerel $LN3
	DD	imagerel $LN3+124
	DD	imagerel $unwind$??$?DM$0A@@glm@@YA?AU?$vec@$03M$0A@@0@AEBU10@AEBM@Z
pdata	ENDS
;	COMDAT pdata
pdata	SEGMENT
$pdata$??$abs@M@glm@@YAMM@Z DD imagerel $LN3
	DD	imagerel $LN3+55
	DD	imagerel $unwind$??$abs@M@glm@@YAMM@Z
pdata	ENDS
;	COMDAT pdata
pdata	SEGMENT
$pdata$??0runtime_error@std@@QEAA@AEBV?$basic_string@DU?$char_traits@D@std@@V?$allocator@D@2@@1@@Z DD imagerel $LN4
	DD	imagerel $LN4+97
	DD	imagerel $unwind$??0runtime_error@std@@QEAA@AEBV?$basic_string@DU?$char_traits@D@std@@V?$allocator@D@2@@1@@Z
pdata	ENDS
;	COMDAT pdata
pdata	SEGMENT
$pdata$??1runtime_error@std@@UEAA@XZ DD imagerel $LN3
	DD	imagerel $LN3+41
	DD	imagerel $unwind$??1runtime_error@std@@UEAA@XZ
pdata	ENDS
;	COMDAT pdata
pdata	SEGMENT
$pdata$??0runtime_error@std@@QEAA@AEBV01@@Z DD imagerel $LN3
	DD	imagerel $LN3+77
	DD	imagerel $unwind$??0runtime_error@std@@QEAA@AEBV01@@Z
pdata	ENDS
;	COMDAT pdata
pdata	SEGMENT
$pdata$??_Gruntime_error@std@@UEAAPEAXI@Z DD imagerel $LN4
	DD	imagerel $LN4+82
	DD	imagerel $unwind$??_Gruntime_error@std@@UEAAPEAXI@Z
pdata	ENDS
;	COMDAT pdata
pdata	SEGMENT
$pdata$?make_error_code@std@@YA?AVerror_code@1@W4errc@1@@Z DD imagerel $LN3
	DD	imagerel $LN3+78
	DD	imagerel $unwind$?make_error_code@std@@YA?AVerror_code@1@W4errc@1@@Z
pdata	ENDS
;	COMDAT pdata
pdata	SEGMENT
$pdata$?generic_category@std@@YAAEBVerror_category@1@XZ DD imagerel $LN3
	DD	imagerel $LN3+42
	DD	imagerel $unwind$?generic_category@std@@YAAEBVerror_category@1@XZ
pdata	ENDS
;	COMDAT pdata
pdata	SEGMENT
$pdata$?system_category@std@@YAAEBVerror_category@1@XZ DD imagerel $LN3
	DD	imagerel $LN3+42
	DD	imagerel $unwind$?system_category@std@@YAAEBVerror_category@1@XZ
pdata	ENDS
;	COMDAT pdata
pdata	SEGMENT
$pdata$??1error_category@std@@UEAA@XZ DD imagerel $LN3
	DD	imagerel $LN3+41
	DD	imagerel $unwind$??1error_category@std@@UEAA@XZ
pdata	ENDS
;	COMDAT pdata
pdata	SEGMENT
$pdata$?default_error_condition@error_category@std@@UEBA?AVerror_condition@2@H@Z DD imagerel $LN3
	DD	imagerel $LN3+83
	DD	imagerel $unwind$?default_error_condition@error_category@std@@UEBA?AVerror_condition@2@H@Z
pdata	ENDS
;	COMDAT pdata
pdata	SEGMENT
$pdata$?equivalent@error_category@std@@UEBA_NHAEBVerror_condition@2@@Z DD imagerel $LN3
	DD	imagerel $LN3+113
	DD	imagerel $unwind$?equivalent@error_category@std@@UEBA_NHAEBVerror_condition@2@@Z
pdata	ENDS
;	COMDAT pdata
pdata	SEGMENT
$pdata$?equivalent@error_category@std@@UEBA_NAEBVerror_code@2@H@Z DD imagerel $LN5
	DD	imagerel $LN5+134
	DD	imagerel $unwind$?equivalent@error_category@std@@UEBA_NAEBVerror_code@2@H@Z
pdata	ENDS
;	COMDAT pdata
pdata	SEGMENT
$pdata$??8error_category@std@@QEBA_NAEBV01@@Z DD imagerel $LN5
	DD	imagerel $LN5+99
	DD	imagerel $unwind$??8error_category@std@@QEBA_NAEBV01@@Z
pdata	ENDS
;	COMDAT pdata
pdata	SEGMENT
$pdata$??0error_code@std@@QEAA@HAEBVerror_category@1@@Z DD imagerel $LN3
	DD	imagerel $LN3+90
	DD	imagerel $unwind$??0error_code@std@@QEAA@HAEBVerror_category@1@@Z
pdata	ENDS
;	COMDAT pdata
pdata	SEGMENT
$pdata$?value@error_code@std@@QEBAHXZ DD imagerel $LN3
	DD	imagerel $LN3+50
	DD	imagerel $unwind$?value@error_code@std@@QEBAHXZ
pdata	ENDS
;	COMDAT pdata
pdata	SEGMENT
$pdata$?category@error_code@std@@QEBAAEBVerror_category@2@XZ DD imagerel $LN3
	DD	imagerel $LN3+52
	DD	imagerel $unwind$?category@error_code@std@@QEBAAEBVerror_category@2@XZ
pdata	ENDS
;	COMDAT pdata
pdata	SEGMENT
$pdata$?message@error_code@std@@QEBA?AV?$basic_string@DU?$char_traits@D@std@@V?$allocator@D@2@@2@XZ DD imagerel $LN5
	DD	imagerel $LN5+163
	DD	imagerel $unwind$?message@error_code@std@@QEBA?AV?$basic_string@DU?$char_traits@D@std@@V?$allocator@D@2@@2@XZ
pdata	ENDS
;	COMDAT pdata
pdata	SEGMENT
$pdata$??0error_condition@std@@QEAA@HAEBVerror_category@1@@Z DD imagerel $LN3
	DD	imagerel $LN3+90
	DD	imagerel $unwind$??0error_condition@std@@QEAA@HAEBVerror_category@1@@Z
pdata	ENDS
;	COMDAT pdata
pdata	SEGMENT
$pdata$?value@error_condition@std@@QEBAHXZ DD imagerel $LN3
	DD	imagerel $LN3+50
	DD	imagerel $unwind$?value@error_condition@std@@QEBAHXZ
pdata	ENDS
;	COMDAT pdata
pdata	SEGMENT
$pdata$?category@error_condition@std@@QEBAAEBVerror_category@2@XZ DD imagerel $LN3
	DD	imagerel $LN3+52
	DD	imagerel $unwind$?category@error_condition@std@@QEBAAEBVerror_category@2@XZ
pdata	ENDS
;	COMDAT pdata
pdata	SEGMENT
$pdata$??8std@@YA_NAEBVerror_condition@0@0@Z DD imagerel $LN5
	DD	imagerel $LN5+179
	DD	imagerel $unwind$??8std@@YA_NAEBVerror_condition@0@0@Z
pdata	ENDS
;	COMDAT pdata
pdata	SEGMENT
$pdata$?_Makestr@_System_error@std@@CA?AV?$basic_string@DU?$char_traits@D@std@@V?$allocator@D@2@@2@Verror_code@2@V32@@Z DD imagerel $LN8
	DD	imagerel $LN8+238
	DD	imagerel $unwind$?_Makestr@_System_error@std@@CA?AV?$basic_string@DU?$char_traits@D@std@@V?$allocator@D@2@@2@Verror_code@2@V32@@Z
pdata	ENDS
;	COMDAT pdata
pdata	SEGMENT
$pdata$?dtor$0@?0??_Makestr@_System_error@std@@CA?AV?$basic_string@DU?$char_traits@D@std@@V?$allocator@D@2@@2@Verror_code@2@V32@@Z@4HA DD imagerel ?dtor$0@?0??_Makestr@_System_error@std@@CA?AV?$basic_string@DU?$char_traits@D@std@@V?$allocator@D@2@@2@Verror_code@2@V32@@Z@4HA
	DD	imagerel ?dtor$0@?0??_Makestr@_System_error@std@@CA?AV?$basic_string@DU?$char_traits@D@std@@V?$allocator@D@2@@2@Verror_code@2@V32@@Z@4HA+39
	DD	imagerel $unwind$?dtor$0@?0??_Makestr@_System_error@std@@CA?AV?$basic_string@DU?$char_traits@D@std@@V?$allocator@D@2@@2@Verror_code@2@V32@@Z@4HA
pdata	ENDS
;	COMDAT pdata
pdata	SEGMENT
$pdata$?dtor$1@?0??_Makestr@_System_error@std@@CA?AV?$basic_string@DU?$char_traits@D@std@@V?$allocator@D@2@@2@Verror_code@2@V32@@Z@4HA DD imagerel ?dtor$1@?0??_Makestr@_System_error@std@@CA?AV?$basic_string@DU?$char_traits@D@std@@V?$allocator@D@2@@2@Verror_code@2@V32@@Z@4HA
	DD	imagerel ?dtor$1@?0??_Makestr@_System_error@std@@CA?AV?$basic_string@DU?$char_traits@D@std@@V?$allocator@D@2@@2@Verror_code@2@V32@@Z@4HA+39
	DD	imagerel $unwind$?dtor$1@?0??_Makestr@_System_error@std@@CA?AV?$basic_string@DU?$char_traits@D@std@@V?$allocator@D@2@@2@Verror_code@2@V32@@Z@4HA
pdata	ENDS
;	COMDAT pdata
pdata	SEGMENT
$pdata$??0_System_error@std@@IEAA@Verror_code@1@AEBV?$basic_string@DU?$char_traits@D@std@@V?$allocator@D@2@@1@@Z DD imagerel $LN6
	DD	imagerel $LN6+286
	DD	imagerel $unwind$??0_System_error@std@@IEAA@Verror_code@1@AEBV?$basic_string@DU?$char_traits@D@std@@V?$allocator@D@2@@1@@Z
pdata	ENDS
;	COMDAT pdata
pdata	SEGMENT
$pdata$?dtor$1@?0???0_System_error@std@@IEAA@Verror_code@1@AEBV?$basic_string@DU?$char_traits@D@std@@V?$allocator@D@2@@1@@Z@4HA DD imagerel ?dtor$1@?0???0_System_error@std@@IEAA@Verror_code@1@AEBV?$basic_string@DU?$char_traits@D@std@@V?$allocator@D@2@@1@@Z@4HA
	DD	imagerel ?dtor$1@?0???0_System_error@std@@IEAA@Verror_code@1@AEBV?$basic_string@DU?$char_traits@D@std@@V?$allocator@D@2@@1@@Z@4HA+39
	DD	imagerel $unwind$?dtor$1@?0???0_System_error@std@@IEAA@Verror_code@1@AEBV?$basic_string@DU?$char_traits@D@std@@V?$allocator@D@2@@1@@Z@4HA
pdata	ENDS
;	COMDAT pdata
pdata	SEGMENT
$pdata$??1_System_error@std@@UEAA@XZ DD imagerel $LN3
	DD	imagerel $LN3+41
	DD	imagerel $unwind$??1_System_error@std@@UEAA@XZ
pdata	ENDS
;	COMDAT pdata
pdata	SEGMENT
$pdata$??0_System_error@std@@QEAA@AEBV01@@Z DD imagerel $LN3
	DD	imagerel $LN3+108
	DD	imagerel $unwind$??0_System_error@std@@QEAA@AEBV01@@Z
pdata	ENDS
;	COMDAT pdata
pdata	SEGMENT
$pdata$??_G_System_error@std@@UEAAPEAXI@Z DD imagerel $LN4
	DD	imagerel $LN4+82
	DD	imagerel $unwind$??_G_System_error@std@@UEAAPEAXI@Z
pdata	ENDS
;	COMDAT pdata
pdata	SEGMENT
$pdata$??0system_error@std@@QEAA@Verror_code@1@@Z DD imagerel $LN5
	DD	imagerel $LN5+155
	DD	imagerel $unwind$??0system_error@std@@QEAA@Verror_code@1@@Z
pdata	ENDS
;	COMDAT pdata
pdata	SEGMENT
$pdata$?dtor$0@?0???0system_error@std@@QEAA@Verror_code@1@@Z@4HA DD imagerel ?dtor$0@?0???0system_error@std@@QEAA@Verror_code@1@@Z@4HA
	DD	imagerel ?dtor$0@?0???0system_error@std@@QEAA@Verror_code@1@@Z@4HA+39
	DD	imagerel $unwind$?dtor$0@?0???0system_error@std@@QEAA@Verror_code@1@@Z@4HA
pdata	ENDS
;	COMDAT pdata
pdata	SEGMENT
$pdata$??1system_error@std@@UEAA@XZ DD imagerel $LN3
	DD	imagerel $LN3+41
	DD	imagerel $unwind$??1system_error@std@@UEAA@XZ
pdata	ENDS
;	COMDAT pdata
pdata	SEGMENT
$pdata$??0system_error@std@@QEAA@AEBV01@@Z DD imagerel $LN3
	DD	imagerel $LN3+77
	DD	imagerel $unwind$??0system_error@std@@QEAA@AEBV01@@Z
pdata	ENDS
;	COMDAT pdata
pdata	SEGMENT
$pdata$??_Gsystem_error@std@@UEAAPEAXI@Z DD imagerel $LN4
	DD	imagerel $LN4+82
	DD	imagerel $unwind$??_Gsystem_error@std@@UEAAPEAXI@Z
pdata	ENDS
;	COMDAT pdata
pdata	SEGMENT
$pdata$?_Throw_system_error@std@@YAXW4errc@1@@Z DD imagerel $LN3
	DD	imagerel $LN3+118
	DD	imagerel $unwind$?_Throw_system_error@std@@YAXW4errc@1@@Z
pdata	ENDS
;	COMDAT pdata
pdata	SEGMENT
$pdata$??0_System_error_message@std@@QEAA@K@Z DD imagerel $LN3
	DD	imagerel $LN3+98
	DD	imagerel $unwind$??0_System_error_message@std@@QEAA@K@Z
pdata	ENDS
;	COMDAT pdata
pdata	SEGMENT
$pdata$??1_System_error_message@std@@QEAA@XZ DD imagerel $LN3
	DD	imagerel $LN3+56
	DD	imagerel $unwind$??1_System_error_message@std@@QEAA@XZ
pdata	ENDS
;	COMDAT pdata
pdata	SEGMENT
$pdata$?name@_Generic_error_category@std@@UEBAPEBDXZ DD imagerel $LN3
	DD	imagerel $LN3+48
	DD	imagerel $unwind$?name@_Generic_error_category@std@@UEBAPEBDXZ
pdata	ENDS
;	COMDAT pdata
pdata	SEGMENT
$pdata$?message@_Generic_error_category@std@@UEBA?AV?$basic_string@DU?$char_traits@D@std@@V?$allocator@D@2@@2@H@Z DD imagerel $LN7
	DD	imagerel $LN7+163
	DD	imagerel $unwind$?message@_Generic_error_category@std@@UEBA?AV?$basic_string@DU?$char_traits@D@std@@V?$allocator@D@2@@2@H@Z
pdata	ENDS
;	COMDAT pdata
pdata	SEGMENT
$pdata$??1_Generic_error_category@std@@UEAA@XZ DD imagerel $LN3
	DD	imagerel $LN3+41
	DD	imagerel $unwind$??1_Generic_error_category@std@@UEAA@XZ
pdata	ENDS
;	COMDAT pdata
pdata	SEGMENT
$pdata$??_G_Generic_error_category@std@@UEAAPEAXI@Z DD imagerel $LN4
	DD	imagerel $LN4+82
	DD	imagerel $unwind$??_G_Generic_error_category@std@@UEAAPEAXI@Z
pdata	ENDS
;	COMDAT pdata
pdata	SEGMENT
$pdata$?name@_System_error_category@std@@UEBAPEBDXZ DD imagerel $LN3
	DD	imagerel $LN3+48
	DD	imagerel $unwind$?name@_System_error_category@std@@UEBAPEBDXZ
pdata	ENDS
;	COMDAT pdata
pdata	SEGMENT
$pdata$?message@_System_error_category@std@@UEBA?AV?$basic_string@DU?$char_traits@D@std@@V?$allocator@D@2@@2@H@Z DD imagerel $LN8
	DD	imagerel $LN8+294
	DD	imagerel $unwind$?message@_System_error_category@std@@UEBA?AV?$basic_string@DU?$char_traits@D@std@@V?$allocator@D@2@@2@H@Z
pdata	ENDS
;	COMDAT pdata
pdata	SEGMENT
$pdata$?dtor$0@?0??message@_System_error_category@std@@UEBA?AV?$basic_string@DU?$char_traits@D@std@@V?$allocator@D@2@@2@H@Z@4HA DD imagerel ?dtor$0@?0??message@_System_error_category@std@@UEBA?AV?$basic_string@DU?$char_traits@D@std@@V?$allocator@D@2@@2@H@Z@4HA
	DD	imagerel ?dtor$0@?0??message@_System_error_category@std@@UEBA?AV?$basic_string@DU?$char_traits@D@std@@V?$allocator@D@2@@2@H@Z@4HA+36
	DD	imagerel $unwind$?dtor$0@?0??message@_System_error_category@std@@UEBA?AV?$basic_string@DU?$char_traits@D@std@@V?$allocator@D@2@@2@H@Z@4HA
pdata	ENDS
;	COMDAT pdata
pdata	SEGMENT
$pdata$?default_error_condition@_System_error_category@std@@UEBA?AVerror_condition@2@H@Z DD imagerel $LN6
	DD	imagerel $LN6+178
	DD	imagerel $unwind$?default_error_condition@_System_error_category@std@@UEBA?AVerror_condition@2@H@Z
pdata	ENDS
;	COMDAT pdata
pdata	SEGMENT
$pdata$??1_System_error_category@std@@UEAA@XZ DD imagerel $LN3
	DD	imagerel $LN3+41
	DD	imagerel $unwind$??1_System_error_category@std@@UEAA@XZ
pdata	ENDS
;	COMDAT pdata
pdata	SEGMENT
$pdata$??_G_System_error_category@std@@UEAAPEAXI@Z DD imagerel $LN4
	DD	imagerel $LN4+82
	DD	imagerel $unwind$??_G_System_error_category@std@@UEAAPEAXI@Z
pdata	ENDS
;	COMDAT pdata
pdata	SEGMENT
$pdata$??$_Immortalize_memcpy_image@V_Generic_error_category@std@@@std@@YAAEBV_Generic_error_category@0@XZ DD imagerel $LN3
	DD	imagerel $LN3+44
	DD	imagerel $unwind$??$_Immortalize_memcpy_image@V_Generic_error_category@std@@@std@@YAAEBV_Generic_error_category@0@XZ
pdata	ENDS
;	COMDAT pdata
pdata	SEGMENT
$pdata$??$_Immortalize_memcpy_image@V_System_error_category@std@@@std@@YAAEBV_System_error_category@0@XZ DD imagerel $LN3
	DD	imagerel $LN3+44
	DD	imagerel $unwind$??$_Immortalize_memcpy_image@V_System_error_category@std@@@std@@YAAEBV_System_error_category@0@XZ
pdata	ENDS
;	COMDAT pdata
pdata	SEGMENT
$pdata$??$_Maklocstr@_W@std@@YAPEA_WPEBDPEA_WAEBU_Cvtvec@@@Z DD imagerel $LN13
	DD	imagerel $LN13+633
	DD	imagerel $unwind$??$_Maklocstr@_W@std@@YAPEA_WPEBDPEA_WAEBU_Cvtvec@@@Z
pdata	ENDS
;	COMDAT pdata
pdata	SEGMENT
$pdata$?_Maklocwcs@std@@YAPEA_WPEB_W@Z DD imagerel $LN5
	DD	imagerel $LN5+189
	DD	imagerel $unwind$?_Maklocwcs@std@@YAPEA_WPEB_W@Z
pdata	ENDS
;	COMDAT pdata
pdata	SEGMENT
$pdata$?length@?$vec@$02M$0A@@glm@@SAHXZ DD imagerel $LN3
	DD	imagerel $LN3+42
	DD	imagerel $unwind$?length@?$vec@$02M$0A@@glm@@SAHXZ
pdata	ENDS
;	COMDAT pdata
pdata	SEGMENT
$pdata$??A?$vec@$02M$0A@@glm@@QEBAAEBMH@Z DD imagerel $LN11
	DD	imagerel $LN11+167
	DD	imagerel $unwind$??A?$vec@$02M$0A@@glm@@QEBAAEBMH@Z
pdata	ENDS
;	COMDAT pdata
pdata	SEGMENT
$pdata$??0?$vec@$02M$0A@@glm@@QEAA@M@Z DD imagerel $LN3
	DD	imagerel $LN3+113
	DD	imagerel $unwind$??0?$vec@$02M$0A@@glm@@QEAA@M@Z
pdata	ENDS
;	COMDAT pdata
pdata	SEGMENT
$pdata$??0?$vec@$02M$0A@@glm@@QEAA@MMM@Z DD imagerel $LN3
	DD	imagerel $LN3+125
	DD	imagerel $unwind$??0?$vec@$02M$0A@@glm@@QEAA@MMM@Z
pdata	ENDS
;	COMDAT pdata
pdata	SEGMENT
$pdata$??0?$allocator@PEBD@std@@QEAA@XZ DD imagerel $LN3
	DD	imagerel $LN3+48
	DD	imagerel $unwind$??0?$allocator@PEBD@std@@QEAA@XZ
pdata	ENDS
;	COMDAT pdata
pdata	SEGMENT
$pdata$?deallocate@?$allocator@PEBD@std@@QEAAXQEAPEBD_K@Z DD imagerel $LN13
	DD	imagerel $LN13+216
	DD	imagerel $unwind$?deallocate@?$allocator@PEBD@std@@QEAAXQEAPEBD_K@Z
pdata	ENDS
;	COMDAT pdata
pdata	SEGMENT
$pdata$?allocate@?$allocator@PEBD@std@@QEAAPEAPEBD_K@Z DD imagerel $LN3
	DD	imagerel $LN3+66
	DD	imagerel $unwind$?allocate@?$allocator@PEBD@std@@QEAAPEAPEBD_K@Z
pdata	ENDS
;	COMDAT pdata
pdata	SEGMENT
$pdata$?max_size@?$_Default_allocator_traits@V?$allocator@PEBD@std@@@std@@SA_KAEBV?$allocator@PEBD@2@@Z DD imagerel $LN3
	DD	imagerel $LN3+51
	DD	imagerel $unwind$?max_size@?$_Default_allocator_traits@V?$allocator@PEBD@std@@@std@@SA_KAEBV?$allocator@PEBD@2@@Z
pdata	ENDS
;	COMDAT pdata
pdata	SEGMENT
$pdata$??0?$vector@PEBDV?$allocator@PEBD@std@@@std@@QEAA@V?$initializer_list@PEBD@1@AEBV?$allocator@PEBD@1@@Z DD imagerel $LN3
	DD	imagerel $LN3+185
	DD	imagerel $unwind$??0?$vector@PEBDV?$allocator@PEBD@std@@@std@@QEAA@V?$initializer_list@PEBD@1@AEBV?$allocator@PEBD@1@@Z
pdata	ENDS
;	COMDAT pdata
pdata	SEGMENT
$pdata$??1?$vector@PEBDV?$allocator@PEBD@std@@@std@@QEAA@XZ DD imagerel $LN3
	DD	imagerel $LN3+203
	DD	imagerel $unwind$??1?$vector@PEBDV?$allocator@PEBD@std@@@std@@QEAA@XZ
pdata	ENDS
;	COMDAT pdata
pdata	SEGMENT
$pdata$?data@?$vector@PEBDV?$allocator@PEBD@std@@@std@@QEBAPEBQEBDXZ DD imagerel $LN3
	DD	imagerel $LN3+57
	DD	imagerel $unwind$?data@?$vector@PEBDV?$allocator@PEBD@std@@@std@@QEBAPEBQEBDXZ
pdata	ENDS
;	COMDAT pdata
pdata	SEGMENT
$pdata$?_Unchecked_begin@?$vector@PEBDV?$allocator@PEBD@std@@@std@@QEBAPEBQEBDXZ DD imagerel $LN3
	DD	imagerel $LN3+52
	DD	imagerel $unwind$?_Unchecked_begin@?$vector@PEBDV?$allocator@PEBD@std@@@std@@QEBAPEBQEBDXZ
pdata	ENDS
;	COMDAT pdata
pdata	SEGMENT
$pdata$?_Unchecked_end@?$vector@PEBDV?$allocator@PEBD@std@@@std@@QEBAPEBQEBDXZ DD imagerel $LN3
	DD	imagerel $LN3+52
	DD	imagerel $unwind$?_Unchecked_end@?$vector@PEBDV?$allocator@PEBD@std@@@std@@QEBAPEBQEBDXZ
pdata	ENDS
;	COMDAT pdata
pdata	SEGMENT
$pdata$?size@?$vector@PEBDV?$allocator@PEBD@std@@@std@@QEBA_KXZ DD imagerel $LN3
	DD	imagerel $LN3+75
	DD	imagerel $unwind$?size@?$vector@PEBDV?$allocator@PEBD@std@@@std@@QEBA_KXZ
pdata	ENDS
;	COMDAT pdata
pdata	SEGMENT
$pdata$?max_size@?$vector@PEBDV?$allocator@PEBD@std@@@std@@QEBA_KXZ DD imagerel $LN3
	DD	imagerel $LN3+102
	DD	imagerel $unwind$?max_size@?$vector@PEBDV?$allocator@PEBD@std@@@std@@QEBA_KXZ
pdata	ENDS
;	COMDAT pdata
pdata	SEGMENT
$pdata$?_Buy_raw@?$vector@PEBDV?$allocator@PEBD@std@@@std@@AEAAX_K@Z DD imagerel $LN3
	DD	imagerel $LN3+191
	DD	imagerel $unwind$?_Buy_raw@?$vector@PEBDV?$allocator@PEBD@std@@@std@@AEAAX_K@Z
pdata	ENDS
;	COMDAT pdata
pdata	SEGMENT
$pdata$?_Buy_nonzero@?$vector@PEBDV?$allocator@PEBD@std@@@std@@AEAAX_K@Z DD imagerel $LN4
	DD	imagerel $LN4+91
	DD	imagerel $unwind$?_Buy_nonzero@?$vector@PEBDV?$allocator@PEBD@std@@@std@@AEAAX_K@Z
pdata	ENDS
;	COMDAT pdata
pdata	SEGMENT
$pdata$?_Tidy@?$vector@PEBDV?$allocator@PEBD@std@@@std@@AEAAXXZ DD imagerel $LN4
	DD	imagerel $LN4+228
	DD	imagerel $unwind$?_Tidy@?$vector@PEBDV?$allocator@PEBD@std@@@std@@AEAAXXZ
pdata	ENDS
;	COMDAT pdata
pdata	SEGMENT
$pdata$?_Xlength@?$vector@PEBDV?$allocator@PEBD@std@@@std@@CAXXZ DD imagerel $LN3
	DD	imagerel $LN3+49
	DD	imagerel $unwind$?_Xlength@?$vector@PEBDV?$allocator@PEBD@std@@@std@@CAXXZ
pdata	ENDS
;	COMDAT pdata
pdata	SEGMENT
$pdata$?_Getal@?$vector@PEBDV?$allocator@PEBD@std@@@std@@AEAAAEAV?$allocator@PEBD@2@XZ DD imagerel $LN3
	DD	imagerel $LN3+56
	DD	imagerel $unwind$?_Getal@?$vector@PEBDV?$allocator@PEBD@std@@@std@@AEAAAEAV?$allocator@PEBD@2@XZ
pdata	ENDS
;	COMDAT pdata
pdata	SEGMENT
$pdata$?_Getal@?$vector@PEBDV?$allocator@PEBD@std@@@std@@AEBAAEBV?$allocator@PEBD@2@XZ DD imagerel $LN3
	DD	imagerel $LN3+56
	DD	imagerel $unwind$?_Getal@?$vector@PEBDV?$allocator@PEBD@std@@@std@@AEBAAEBV?$allocator@PEBD@2@XZ
pdata	ENDS
;	COMDAT pdata
pdata	SEGMENT
$pdata$??0?$_Vector_val@U?$_Simple_types@PEBD@std@@@std@@QEAA@XZ DD imagerel $LN3
	DD	imagerel $LN3+105
	DD	imagerel $unwind$??0?$_Vector_val@U?$_Simple_types@PEBD@std@@@std@@QEAA@XZ
pdata	ENDS
;	COMDAT pdata
pdata	SEGMENT
$pdata$?_Get_first@?$_Compressed_pair@V?$allocator@PEBD@std@@V?$_Vector_val@U?$_Simple_types@PEBD@std@@@2@$00@std@@QEAAAEAV?$allocator@PEBD@2@XZ DD imagerel $LN3
	DD	imagerel $LN3+48
	DD	imagerel $unwind$?_Get_first@?$_Compressed_pair@V?$allocator@PEBD@std@@V?$_Vector_val@U?$_Simple_types@PEBD@std@@@2@$00@std@@QEAAAEAV?$allocator@PEBD@2@XZ
pdata	ENDS
;	COMDAT pdata
pdata	SEGMENT
$pdata$?_Get_first@?$_Compressed_pair@V?$allocator@PEBD@std@@V?$_Vector_val@U?$_Simple_types@PEBD@std@@@2@$00@std@@QEBAAEBV?$allocator@PEBD@2@XZ DD imagerel $LN3
	DD	imagerel $LN3+48
	DD	imagerel $unwind$?_Get_first@?$_Compressed_pair@V?$allocator@PEBD@std@@V?$_Vector_val@U?$_Simple_types@PEBD@std@@@2@$00@std@@QEBAAEBV?$allocator@PEBD@2@XZ
pdata	ENDS
;	COMDAT pdata
pdata	SEGMENT
$pdata$?__autoclassinit2@?$vector@PEBDV?$allocator@PEBD@std@@@std@@QEAAX_K@Z DD imagerel $LN3
	DD	imagerel $LN3+50
	DD	imagerel $unwind$?__autoclassinit2@?$vector@PEBDV?$allocator@PEBD@std@@@std@@QEAAX_K@Z
pdata	ENDS
;	COMDAT pdata
pdata	SEGMENT
$pdata$??__Eg_ValidationLayers@@YAXXZ DD imagerel ??__Eg_ValidationLayers@@YAXXZ
	DD	imagerel ??__Eg_ValidationLayers@@YAXXZ+203
	DD	imagerel $unwind$??__Eg_ValidationLayers@@YAXXZ
pdata	ENDS
;	COMDAT pdata
pdata	SEGMENT
$pdata$??0?$initializer_list@PEBD@std@@QEAA@PEBQEBD0@Z DD imagerel $LN3
	DD	imagerel $LN3+93
	DD	imagerel $unwind$??0?$initializer_list@PEBD@std@@QEAA@PEBQEBD0@Z
pdata	ENDS
;	COMDAT pdata
pdata	SEGMENT
$pdata$?begin@?$initializer_list@PEBD@std@@QEBAPEBQEBDXZ DD imagerel $LN3
	DD	imagerel $LN3+51
	DD	imagerel $unwind$?begin@?$initializer_list@PEBD@std@@QEBAPEBQEBDXZ
pdata	ENDS
;	COMDAT pdata
pdata	SEGMENT
$pdata$?end@?$initializer_list@PEBD@std@@QEBAPEBQEBDXZ DD imagerel $LN3
	DD	imagerel $LN3+52
	DD	imagerel $unwind$?end@?$initializer_list@PEBD@std@@QEBAPEBQEBDXZ
pdata	ENDS
;	COMDAT pdata
pdata	SEGMENT
$pdata$?size@?$initializer_list@PEBD@std@@QEBA_KXZ DD imagerel $LN3
	DD	imagerel $LN3+69
	DD	imagerel $unwind$?size@?$initializer_list@PEBD@std@@QEBA_KXZ
pdata	ENDS
;	COMDAT pdata
pdata	SEGMENT
$pdata$??__Fg_ValidationLayers@@YAXXZ DD imagerel ??__Fg_ValidationLayers@@YAXXZ
	DD	imagerel ??__Fg_ValidationLayers@@YAXXZ+37
	DD	imagerel $unwind$??__Fg_ValidationLayers@@YAXXZ
pdata	ENDS
;	COMDAT pdata
pdata	SEGMENT
$pdata$?checkValidationLayerSupport@@YA_NXZ DD imagerel $LN14
	DD	imagerel $LN14+531
	DD	imagerel $unwind$?checkValidationLayerSupport@@YA_NXZ
pdata	ENDS
;	COMDAT pdata
pdata	SEGMENT
$pdata$??0?$allocator@UVkLayerProperties@@@std@@QEAA@XZ DD imagerel $LN3
	DD	imagerel $LN3+48
	DD	imagerel $unwind$??0?$allocator@UVkLayerProperties@@@std@@QEAA@XZ
pdata	ENDS
;	COMDAT pdata
pdata	SEGMENT
$pdata$?deallocate@?$allocator@UVkLayerProperties@@@std@@QEAAXQEAUVkLayerProperties@@_K@Z DD imagerel $LN13
	DD	imagerel $LN13+216
	DD	imagerel $unwind$?deallocate@?$allocator@UVkLayerProperties@@@std@@QEAAXQEAUVkLayerProperties@@_K@Z
pdata	ENDS
;	COMDAT pdata
pdata	SEGMENT
$pdata$?allocate@?$allocator@UVkLayerProperties@@@std@@QEAAPEAUVkLayerProperties@@_K@Z DD imagerel $LN3
	DD	imagerel $LN3+66
	DD	imagerel $unwind$?allocate@?$allocator@UVkLayerProperties@@@std@@QEAAPEAUVkLayerProperties@@_K@Z
pdata	ENDS
;	COMDAT pdata
pdata	SEGMENT
$pdata$?max_size@?$_Default_allocator_traits@V?$allocator@UVkLayerProperties@@@std@@@std@@SA_KAEBV?$allocator@UVkLayerProperties@@@2@@Z DD imagerel $LN3
	DD	imagerel $LN3+51
	DD	imagerel $unwind$?max_size@?$_Default_allocator_traits@V?$allocator@UVkLayerProperties@@@std@@@std@@SA_KAEBV?$allocator@UVkLayerProperties@@@2@@Z
pdata	ENDS
;	COMDAT pdata
pdata	SEGMENT
$pdata$??0?$vector@UVkLayerProperties@@V?$allocator@UVkLayerProperties@@@std@@@std@@QEAA@_KAEBV?$allocator@UVkLayerProperties@@@1@@Z DD imagerel $LN3
	DD	imagerel $LN3+117
	DD	imagerel $unwind$??0?$vector@UVkLayerProperties@@V?$allocator@UVkLayerProperties@@@std@@@std@@QEAA@_KAEBV?$allocator@UVkLayerProperties@@@1@@Z
pdata	ENDS
;	COMDAT pdata
pdata	SEGMENT
$pdata$??1?$vector@UVkLayerProperties@@V?$allocator@UVkLayerProperties@@@std@@@std@@QEAA@XZ DD imagerel $LN3
	DD	imagerel $LN3+203
	DD	imagerel $unwind$??1?$vector@UVkLayerProperties@@V?$allocator@UVkLayerProperties@@@std@@@std@@QEAA@XZ
pdata	ENDS
;	COMDAT pdata
pdata	SEGMENT
$pdata$?data@?$vector@UVkLayerProperties@@V?$allocator@UVkLayerProperties@@@std@@@std@@QEAAPEAUVkLayerProperties@@XZ DD imagerel $LN3
	DD	imagerel $LN3+57
	DD	imagerel $unwind$?data@?$vector@UVkLayerProperties@@V?$allocator@UVkLayerProperties@@@std@@@std@@QEAAPEAUVkLayerProperties@@XZ
pdata	ENDS
;	COMDAT pdata
pdata	SEGMENT
$pdata$?_Unchecked_begin@?$vector@UVkLayerProperties@@V?$allocator@UVkLayerProperties@@@std@@@std@@QEAAPEAUVkLayerProperties@@XZ DD imagerel $LN3
	DD	imagerel $LN3+52
	DD	imagerel $unwind$?_Unchecked_begin@?$vector@UVkLayerProperties@@V?$allocator@UVkLayerProperties@@@std@@@std@@QEAAPEAUVkLayerProperties@@XZ
pdata	ENDS
;	COMDAT pdata
pdata	SEGMENT
$pdata$?_Unchecked_end@?$vector@UVkLayerProperties@@V?$allocator@UVkLayerProperties@@@std@@@std@@QEAAPEAUVkLayerProperties@@XZ DD imagerel $LN3
	DD	imagerel $LN3+52
	DD	imagerel $unwind$?_Unchecked_end@?$vector@UVkLayerProperties@@V?$allocator@UVkLayerProperties@@@std@@@std@@QEAAPEAUVkLayerProperties@@XZ
pdata	ENDS
;	COMDAT pdata
pdata	SEGMENT
$pdata$?max_size@?$vector@UVkLayerProperties@@V?$allocator@UVkLayerProperties@@@std@@@std@@QEBA_KXZ DD imagerel $LN3
	DD	imagerel $LN3+102
	DD	imagerel $unwind$?max_size@?$vector@UVkLayerProperties@@V?$allocator@UVkLayerProperties@@@std@@@std@@QEBA_KXZ
pdata	ENDS
;	COMDAT pdata
pdata	SEGMENT
$pdata$?_Buy_raw@?$vector@UVkLayerProperties@@V?$allocator@UVkLayerProperties@@@std@@@std@@AEAAX_K@Z DD imagerel $LN3
	DD	imagerel $LN3+197
	DD	imagerel $unwind$?_Buy_raw@?$vector@UVkLayerProperties@@V?$allocator@UVkLayerProperties@@@std@@@std@@AEAAX_K@Z
pdata	ENDS
;	COMDAT pdata
pdata	SEGMENT
$pdata$?_Buy_nonzero@?$vector@UVkLayerProperties@@V?$allocator@UVkLayerProperties@@@std@@@std@@AEAAX_K@Z DD imagerel $LN4
	DD	imagerel $LN4+91
	DD	imagerel $unwind$?_Buy_nonzero@?$vector@UVkLayerProperties@@V?$allocator@UVkLayerProperties@@@std@@@std@@AEAAX_K@Z
pdata	ENDS
;	COMDAT pdata
pdata	SEGMENT
$pdata$?_Tidy@?$vector@UVkLayerProperties@@V?$allocator@UVkLayerProperties@@@std@@@std@@AEAAXXZ DD imagerel $LN4
	DD	imagerel $LN4+234
	DD	imagerel $unwind$?_Tidy@?$vector@UVkLayerProperties@@V?$allocator@UVkLayerProperties@@@std@@@std@@AEAAXXZ
pdata	ENDS
;	COMDAT pdata
pdata	SEGMENT
$pdata$?_Xlength@?$vector@UVkLayerProperties@@V?$allocator@UVkLayerProperties@@@std@@@std@@CAXXZ DD imagerel $LN3
	DD	imagerel $LN3+49
	DD	imagerel $unwind$?_Xlength@?$vector@UVkLayerProperties@@V?$allocator@UVkLayerProperties@@@std@@@std@@CAXXZ
pdata	ENDS
;	COMDAT pdata
pdata	SEGMENT
$pdata$?_Getal@?$vector@UVkLayerProperties@@V?$allocator@UVkLayerProperties@@@std@@@std@@AEAAAEAV?$allocator@UVkLayerProperties@@@2@XZ DD imagerel $LN3
	DD	imagerel $LN3+56
	DD	imagerel $unwind$?_Getal@?$vector@UVkLayerProperties@@V?$allocator@UVkLayerProperties@@@std@@@std@@AEAAAEAV?$allocator@UVkLayerProperties@@@2@XZ
pdata	ENDS
;	COMDAT pdata
pdata	SEGMENT
$pdata$?_Getal@?$vector@UVkLayerProperties@@V?$allocator@UVkLayerProperties@@@std@@@std@@AEBAAEBV?$allocator@UVkLayerProperties@@@2@XZ DD imagerel $LN3
	DD	imagerel $LN3+56
	DD	imagerel $unwind$?_Getal@?$vector@UVkLayerProperties@@V?$allocator@UVkLayerProperties@@@std@@@std@@AEBAAEBV?$allocator@UVkLayerProperties@@@2@XZ
pdata	ENDS
;	COMDAT pdata
pdata	SEGMENT
$pdata$??0?$_Vector_val@U?$_Simple_types@UVkLayerProperties@@@std@@@std@@QEAA@XZ DD imagerel $LN3
	DD	imagerel $LN3+105
	DD	imagerel $unwind$??0?$_Vector_val@U?$_Simple_types@UVkLayerProperties@@@std@@@std@@QEAA@XZ
pdata	ENDS
;	COMDAT pdata
pdata	SEGMENT
$pdata$?_Get_first@?$_Compressed_pair@V?$allocator@UVkLayerProperties@@@std@@V?$_Vector_val@U?$_Simple_types@UVkLayerProperties@@@std@@@2@$00@std@@QEAAAEAV?$allocator@UVkLayerProperties@@@2@XZ DD imagerel $LN3
	DD	imagerel $LN3+48
	DD	imagerel $unwind$?_Get_first@?$_Compressed_pair@V?$allocator@UVkLayerProperties@@@std@@V?$_Vector_val@U?$_Simple_types@UVkLayerProperties@@@std@@@2@$00@std@@QEAAAEAV?$allocator@UVkLayerProperties@@@2@XZ
pdata	ENDS
;	COMDAT pdata
pdata	SEGMENT
$pdata$?_Get_first@?$_Compressed_pair@V?$allocator@UVkLayerProperties@@@std@@V?$_Vector_val@U?$_Simple_types@UVkLayerProperties@@@std@@@2@$00@std@@QEBAAEBV?$allocator@UVkLayerProperties@@@2@XZ DD imagerel $LN3
	DD	imagerel $LN3+48
	DD	imagerel $unwind$?_Get_first@?$_Compressed_pair@V?$allocator@UVkLayerProperties@@@std@@V?$_Vector_val@U?$_Simple_types@UVkLayerProperties@@@std@@@2@$00@std@@QEBAAEBV?$allocator@UVkLayerProperties@@@2@XZ
pdata	ENDS
;	COMDAT pdata
pdata	SEGMENT
$pdata$?__autoclassinit2@?$vector@UVkLayerProperties@@V?$allocator@UVkLayerProperties@@@std@@@std@@QEAAX_K@Z DD imagerel $LN3
	DD	imagerel $LN3+50
	DD	imagerel $unwind$?__autoclassinit2@?$vector@UVkLayerProperties@@V?$allocator@UVkLayerProperties@@@std@@@std@@QEAAX_K@Z
pdata	ENDS
;	COMDAT pdata
pdata	SEGMENT
$pdata$?_CreateWindow@@YAAEAUGLFWwindow@@PEBDHH@Z DD imagerel $LN5
	DD	imagerel $LN5+544
	DD	imagerel $unwind$?_CreateWindow@@YAAEAUGLFWwindow@@PEBDHH@Z
pdata	ENDS
;	COMDAT pdata
pdata	SEGMENT
$pdata$?length@?$mat@$03$03M$0A@@glm@@SAHXZ DD imagerel $LN3
	DD	imagerel $LN3+42
	DD	imagerel $unwind$?length@?$mat@$03$03M$0A@@glm@@SAHXZ
pdata	ENDS
;	COMDAT pdata
pdata	SEGMENT
$pdata$??A?$mat@$03$03M$0A@@glm@@QEAAAEAU?$vec@$03M$0A@@1@H@Z DD imagerel $LN4
	DD	imagerel $LN4+110
	DD	imagerel $unwind$??A?$mat@$03$03M$0A@@glm@@QEAAAEAU?$vec@$03M$0A@@1@H@Z
pdata	ENDS
;	COMDAT pdata
pdata	SEGMENT
$pdata$??A?$mat@$03$03M$0A@@glm@@QEBAAEBU?$vec@$03M$0A@@1@H@Z DD imagerel $LN4
	DD	imagerel $LN4+110
	DD	imagerel $unwind$??A?$mat@$03$03M$0A@@glm@@QEBAAEBU?$vec@$03M$0A@@1@H@Z
pdata	ENDS
;	COMDAT pdata
pdata	SEGMENT
$pdata$??0?$mat@$03$03M$0A@@glm@@QEAA@AEBM@Z DD imagerel $LN3
	DD	imagerel $LN3+267
	DD	imagerel $unwind$??0?$mat@$03$03M$0A@@glm@@QEAA@AEBM@Z
pdata	ENDS
;	COMDAT pdata
pdata	SEGMENT
$pdata$??$?DM$0A@@glm@@YA?AU?$vec@$03M$0A@@0@AEBU?$mat@$03$03M$0A@@0@AEBU10@@Z DD imagerel $LN3
	DD	imagerel $LN3+505
	DD	imagerel $unwind$??$?DM$0A@@glm@@YA?AU?$vec@$03M$0A@@0@AEBU?$mat@$03$03M$0A@@0@AEBU10@@Z
pdata	ENDS
;	COMDAT pdata
pdata	SEGMENT
$pdata$?deallocate@?$allocator@I@std@@QEAAXQEAI_K@Z DD imagerel $LN13
	DD	imagerel $LN13+216
	DD	imagerel $unwind$?deallocate@?$allocator@I@std@@QEAAXQEAI_K@Z
pdata	ENDS
;	COMDAT pdata
pdata	SEGMENT
$pdata$??1?$vector@IV?$allocator@I@std@@@std@@QEAA@XZ DD imagerel $LN3
	DD	imagerel $LN3+203
	DD	imagerel $unwind$??1?$vector@IV?$allocator@I@std@@@std@@QEAA@XZ
pdata	ENDS
;	COMDAT pdata
pdata	SEGMENT
$pdata$?_Tidy@?$vector@IV?$allocator@I@std@@@std@@AEAAXXZ DD imagerel $LN4
	DD	imagerel $LN4+228
	DD	imagerel $unwind$?_Tidy@?$vector@IV?$allocator@I@std@@@std@@AEAAXXZ
pdata	ENDS
;	COMDAT pdata
pdata	SEGMENT
$pdata$?_Getal@?$vector@IV?$allocator@I@std@@@std@@AEAAAEAV?$allocator@I@2@XZ DD imagerel $LN3
	DD	imagerel $LN3+56
	DD	imagerel $unwind$?_Getal@?$vector@IV?$allocator@I@std@@@std@@AEAAAEAV?$allocator@I@2@XZ
pdata	ENDS
;	COMDAT pdata
pdata	SEGMENT
$pdata$?_Get_first@?$_Compressed_pair@V?$allocator@I@std@@V?$_Vector_val@U?$_Simple_types@I@std@@@2@$00@std@@QEAAAEAV?$allocator@I@2@XZ DD imagerel $LN3
	DD	imagerel $LN3+48
	DD	imagerel $unwind$?_Get_first@?$_Compressed_pair@V?$allocator@I@std@@V?$_Vector_val@U?$_Simple_types@I@std@@@2@$00@std@@QEAAAEAV?$allocator@I@2@XZ
pdata	ENDS
;	COMDAT pdata
pdata	SEGMENT
$pdata$?deallocate@?$allocator@UVertex@@@std@@QEAAXQEAUVertex@@_K@Z DD imagerel $LN13
	DD	imagerel $LN13+213
	DD	imagerel $unwind$?deallocate@?$allocator@UVertex@@@std@@QEAAXQEAUVertex@@_K@Z
pdata	ENDS
;	COMDAT pdata
pdata	SEGMENT
$pdata$??1?$vector@UVertex@@V?$allocator@UVertex@@@std@@@std@@QEAA@XZ DD imagerel $LN3
	DD	imagerel $LN3+203
	DD	imagerel $unwind$??1?$vector@UVertex@@V?$allocator@UVertex@@@std@@@std@@QEAA@XZ
pdata	ENDS
;	COMDAT pdata
pdata	SEGMENT
$pdata$?_Tidy@?$vector@UVertex@@V?$allocator@UVertex@@@std@@@std@@AEAAXXZ DD imagerel $LN4
	DD	imagerel $LN4+228
	DD	imagerel $unwind$?_Tidy@?$vector@UVertex@@V?$allocator@UVertex@@@std@@@std@@AEAAXXZ
pdata	ENDS
;	COMDAT pdata
pdata	SEGMENT
$pdata$?_Getal@?$vector@UVertex@@V?$allocator@UVertex@@@std@@@std@@AEAAAEAV?$allocator@UVertex@@@2@XZ DD imagerel $LN3
	DD	imagerel $LN3+56
	DD	imagerel $unwind$?_Getal@?$vector@UVertex@@V?$allocator@UVertex@@@std@@@std@@AEAAAEAV?$allocator@UVertex@@@2@XZ
pdata	ENDS
;	COMDAT pdata
pdata	SEGMENT
$pdata$?_Get_first@?$_Compressed_pair@V?$allocator@UVertex@@@std@@V?$_Vector_val@U?$_Simple_types@UVertex@@@std@@@2@$00@std@@QEAAAEAV?$allocator@UVertex@@@2@XZ DD imagerel $LN3
	DD	imagerel $LN3+48
	DD	imagerel $unwind$?_Get_first@?$_Compressed_pair@V?$allocator@UVertex@@@std@@V?$_Vector_val@U?$_Simple_types@UVertex@@@std@@@2@$00@std@@QEAAAEAV?$allocator@UVertex@@@2@XZ
pdata	ENDS
;	COMDAT pdata
pdata	SEGMENT
$pdata$?_ClearColorBuffer@@YAXXZ DD imagerel $LN3
	DD	imagerel $LN3+37
	DD	imagerel $unwind$?_ClearColorBuffer@@YAXXZ
pdata	ENDS
;	COMDAT pdata
pdata	SEGMENT
$pdata$?_Create2DSphere@@YAIMMMM@Z DD imagerel $LN3
	DD	imagerel $LN3+65
	DD	imagerel $unwind$?_Create2DSphere@@YAIMMMM@Z
pdata	ENDS
;	COMDAT pdata
pdata	SEGMENT
$pdata$?_UseShader@@YAXI@Z DD imagerel $LN3
	DD	imagerel $LN3+40
	DD	imagerel $unwind$?_UseShader@@YAXI@Z
pdata	ENDS
;	COMDAT pdata
pdata	SEGMENT
$pdata$?_DrawArrays@@YAXU?$mat@$03$03M$0A@@glm@@00U?$vec@$02M$0A@@2@IIIIH@Z DD imagerel $LN3
	DD	imagerel $LN3+67
	DD	imagerel $unwind$?_DrawArrays@@YAXU?$mat@$03$03M$0A@@glm@@00U?$vec@$02M$0A@@2@IIIIH@Z
pdata	ENDS
;	COMDAT pdata
pdata	SEGMENT
$pdata$??1Shader@@QEAA@XZ DD imagerel $LN3
	DD	imagerel $LN3+53
	DD	imagerel $unwind$??1Shader@@QEAA@XZ
pdata	ENDS
;	COMDAT pdata
pdata	SEGMENT
$pdata$?__autoclassinit2@Shader@@QEAAX_K@Z DD imagerel $LN3
	DD	imagerel $LN3+50
	DD	imagerel $unwind$?__autoclassinit2@Shader@@QEAAX_K@Z
pdata	ENDS
;	COMDAT pdata
pdata	SEGMENT
$pdata$??1Texture@@QEAA@XZ DD imagerel $LN3
	DD	imagerel $LN3+67
	DD	imagerel $unwind$??1Texture@@QEAA@XZ
pdata	ENDS
;	COMDAT pdata
pdata	SEGMENT
$pdata$??_GTexture@@QEAAPEAXI@Z DD imagerel $LN4
	DD	imagerel $LN4+82
	DD	imagerel $unwind$??_GTexture@@QEAAPEAXI@Z
pdata	ENDS
;	COMDAT pdata
pdata	SEGMENT
$pdata$?deallocate@?$allocator@UTexture@@@std@@QEAAXQEAUTexture@@_K@Z DD imagerel $LN13
	DD	imagerel $LN13+213
	DD	imagerel $unwind$?deallocate@?$allocator@UTexture@@@std@@QEAAXQEAUTexture@@_K@Z
pdata	ENDS
;	COMDAT pdata
pdata	SEGMENT
$pdata$??1?$vector@UTexture@@V?$allocator@UTexture@@@std@@@std@@QEAA@XZ DD imagerel $LN3
	DD	imagerel $LN3+203
	DD	imagerel $unwind$??1?$vector@UTexture@@V?$allocator@UTexture@@@std@@@std@@QEAA@XZ
pdata	ENDS
;	COMDAT pdata
pdata	SEGMENT
$pdata$?_Tidy@?$vector@UTexture@@V?$allocator@UTexture@@@std@@@std@@AEAAXXZ DD imagerel $LN4
	DD	imagerel $LN4+234
	DD	imagerel $unwind$?_Tidy@?$vector@UTexture@@V?$allocator@UTexture@@@std@@@std@@AEAAXXZ
pdata	ENDS
;	COMDAT pdata
pdata	SEGMENT
$pdata$?_Getal@?$vector@UTexture@@V?$allocator@UTexture@@@std@@@std@@AEAAAEAV?$allocator@UTexture@@@2@XZ DD imagerel $LN3
	DD	imagerel $LN3+56
	DD	imagerel $unwind$?_Getal@?$vector@UTexture@@V?$allocator@UTexture@@@std@@@std@@AEAAAEAV?$allocator@UTexture@@@2@XZ
pdata	ENDS
;	COMDAT pdata
pdata	SEGMENT
$pdata$?_Get_first@?$_Compressed_pair@V?$allocator@UTexture@@@std@@V?$_Vector_val@U?$_Simple_types@UTexture@@@std@@@2@$00@std@@QEAAAEAV?$allocator@UTexture@@@2@XZ DD imagerel $LN3
	DD	imagerel $LN3+48
	DD	imagerel $unwind$?_Get_first@?$_Compressed_pair@V?$allocator@UTexture@@@std@@V?$_Vector_val@U?$_Simple_types@UTexture@@@std@@@2@$00@std@@QEAAAEAV?$allocator@UTexture@@@2@XZ
pdata	ENDS
;	COMDAT pdata
pdata	SEGMENT
$pdata$??1Mesh@@QEAA@XZ DD imagerel $LN3
	DD	imagerel $LN3+86
	DD	imagerel $unwind$??1Mesh@@QEAA@XZ
pdata	ENDS
;	COMDAT pdata
pdata	SEGMENT
$pdata$??_GMesh@@QEAAPEAXI@Z DD imagerel $LN4
	DD	imagerel $LN4+82
	DD	imagerel $unwind$??_GMesh@@QEAAPEAXI@Z
pdata	ENDS
;	COMDAT pdata
pdata	SEGMENT
$pdata$??0Model@@QEAA@V?$basic_string@DU?$char_traits@D@std@@V?$allocator@D@2@@std@@@Z DD imagerel $LN7
	DD	imagerel $LN7+218
	DD	imagerel $unwind$??0Model@@QEAA@V?$basic_string@DU?$char_traits@D@std@@V?$allocator@D@2@@std@@@Z
pdata	ENDS
;	COMDAT pdata
pdata	SEGMENT
$pdata$?dtor$0@?0???0Model@@QEAA@V?$basic_string@DU?$char_traits@D@std@@V?$allocator@D@2@@std@@@Z@4HA DD imagerel ?dtor$0@?0???0Model@@QEAA@V?$basic_string@DU?$char_traits@D@std@@V?$allocator@D@2@@std@@@Z@4HA
	DD	imagerel ?dtor$0@?0???0Model@@QEAA@V?$basic_string@DU?$char_traits@D@std@@V?$allocator@D@2@@std@@@Z@4HA+39
	DD	imagerel $unwind$?dtor$0@?0???0Model@@QEAA@V?$basic_string@DU?$char_traits@D@std@@V?$allocator@D@2@@std@@@Z@4HA
pdata	ENDS
;	COMDAT pdata
pdata	SEGMENT
$pdata$?dtor$1@?0???0Model@@QEAA@V?$basic_string@DU?$char_traits@D@std@@V?$allocator@D@2@@std@@@Z@4HA DD imagerel ?dtor$1@?0???0Model@@QEAA@V?$basic_string@DU?$char_traits@D@std@@V?$allocator@D@2@@std@@@Z@4HA
	DD	imagerel ?dtor$1@?0???0Model@@QEAA@V?$basic_string@DU?$char_traits@D@std@@V?$allocator@D@2@@std@@@Z@4HA+46
	DD	imagerel $unwind$?dtor$1@?0???0Model@@QEAA@V?$basic_string@DU?$char_traits@D@std@@V?$allocator@D@2@@std@@@Z@4HA
pdata	ENDS
;	COMDAT pdata
pdata	SEGMENT
$pdata$?dtor$2@?0???0Model@@QEAA@V?$basic_string@DU?$char_traits@D@std@@V?$allocator@D@2@@std@@@Z@4HA DD imagerel ?dtor$2@?0???0Model@@QEAA@V?$basic_string@DU?$char_traits@D@std@@V?$allocator@D@2@@std@@@Z@4HA
	DD	imagerel ?dtor$2@?0???0Model@@QEAA@V?$basic_string@DU?$char_traits@D@std@@V?$allocator@D@2@@std@@@Z@4HA+46
	DD	imagerel $unwind$?dtor$2@?0???0Model@@QEAA@V?$basic_string@DU?$char_traits@D@std@@V?$allocator@D@2@@std@@@Z@4HA
pdata	ENDS
;	COMDAT pdata
pdata	SEGMENT
$pdata$??0?$allocator@VMesh@@@std@@QEAA@XZ DD imagerel $LN3
	DD	imagerel $LN3+48
	DD	imagerel $unwind$??0?$allocator@VMesh@@@std@@QEAA@XZ
pdata	ENDS
;	COMDAT pdata
pdata	SEGMENT
$pdata$?deallocate@?$allocator@VMesh@@@std@@QEAAXQEAVMesh@@_K@Z DD imagerel $LN13
	DD	imagerel $LN13+213
	DD	imagerel $unwind$?deallocate@?$allocator@VMesh@@@std@@QEAAXQEAVMesh@@_K@Z
pdata	ENDS
;	COMDAT pdata
pdata	SEGMENT
$pdata$??0?$vector@VMesh@@V?$allocator@VMesh@@@std@@@std@@QEAA@XZ DD imagerel $LN3
	DD	imagerel $LN3+137
	DD	imagerel $unwind$??0?$vector@VMesh@@V?$allocator@VMesh@@@std@@@std@@QEAA@XZ
pdata	ENDS
;	COMDAT pdata
pdata	SEGMENT
$pdata$??1?$vector@VMesh@@V?$allocator@VMesh@@@std@@@std@@QEAA@XZ DD imagerel $LN3
	DD	imagerel $LN3+203
	DD	imagerel $unwind$??1?$vector@VMesh@@V?$allocator@VMesh@@@std@@@std@@QEAA@XZ
pdata	ENDS
;	COMDAT pdata
pdata	SEGMENT
$pdata$?_Tidy@?$vector@VMesh@@V?$allocator@VMesh@@@std@@@std@@AEAAXXZ DD imagerel $LN4
	DD	imagerel $LN4+234
	DD	imagerel $unwind$?_Tidy@?$vector@VMesh@@V?$allocator@VMesh@@@std@@@std@@AEAAXXZ
pdata	ENDS
;	COMDAT pdata
pdata	SEGMENT
$pdata$?_Getal@?$vector@VMesh@@V?$allocator@VMesh@@@std@@@std@@AEAAAEAV?$allocator@VMesh@@@2@XZ DD imagerel $LN3
	DD	imagerel $LN3+56
	DD	imagerel $unwind$?_Getal@?$vector@VMesh@@V?$allocator@VMesh@@@std@@@std@@AEAAAEAV?$allocator@VMesh@@@2@XZ
pdata	ENDS
;	COMDAT pdata
pdata	SEGMENT
$pdata$??0?$_Vector_val@U?$_Simple_types@VMesh@@@std@@@std@@QEAA@XZ DD imagerel $LN3
	DD	imagerel $LN3+105
	DD	imagerel $unwind$??0?$_Vector_val@U?$_Simple_types@VMesh@@@std@@@std@@QEAA@XZ
pdata	ENDS
;	COMDAT pdata
pdata	SEGMENT
$pdata$?_Get_first@?$_Compressed_pair@V?$allocator@VMesh@@@std@@V?$_Vector_val@U?$_Simple_types@VMesh@@@std@@@2@$00@std@@QEAAAEAV?$allocator@VMesh@@@2@XZ DD imagerel $LN3
	DD	imagerel $LN3+48
	DD	imagerel $unwind$?_Get_first@?$_Compressed_pair@V?$allocator@VMesh@@@std@@V?$_Vector_val@U?$_Simple_types@VMesh@@@std@@@2@$00@std@@QEAAAEAV?$allocator@VMesh@@@2@XZ
pdata	ENDS
;	COMDAT pdata
pdata	SEGMENT
$pdata$?__autoclassinit2@Model@@QEAAX_K@Z DD imagerel $LN3
	DD	imagerel $LN3+50
	DD	imagerel $unwind$?__autoclassinit2@Model@@QEAAX_K@Z
pdata	ENDS
;	COMDAT pdata
pdata	SEGMENT
$pdata$??0ImVec2@@QEAA@MM@Z DD imagerel $LN3
	DD	imagerel $LN3+76
	DD	imagerel $unwind$??0ImVec2@@QEAA@MM@Z
pdata	ENDS
;	COMDAT pdata
pdata	SEGMENT
$pdata$??$_Getvals@_W@?$time_get@DV?$istreambuf_iterator@DU?$char_traits@D@std@@@std@@@std@@IEAAX_WAEBV_Locinfo@1@@Z DD imagerel $LN5
	DD	imagerel $LN5+356
	DD	imagerel $unwind$??$_Getvals@_W@?$time_get@DV?$istreambuf_iterator@DU?$char_traits@D@std@@@std@@@std@@IEAAX_WAEBV_Locinfo@1@@Z
pdata	ENDS
;	COMDAT pdata
pdata	SEGMENT
$pdata$??$_Getvals@_W@?$time_get@_WV?$istreambuf_iterator@_WU?$char_traits@_W@std@@@std@@@std@@IEAAX_WAEBV_Locinfo@1@@Z DD imagerel $LN5
	DD	imagerel $LN5+356
	DD	imagerel $unwind$??$_Getvals@_W@?$time_get@_WV?$istreambuf_iterator@_WU?$char_traits@_W@std@@@std@@@std@@IEAAX_WAEBV_Locinfo@1@@Z
pdata	ENDS
;	COMDAT pdata
pdata	SEGMENT
$pdata$?_Make_ec@filesystem@std@@YA?AVerror_code@2@W4__std_win_error@@@Z DD imagerel $LN3
	DD	imagerel $LN3+78
	DD	imagerel $unwind$?_Make_ec@filesystem@std@@YA?AVerror_code@2@W4__std_win_error@@@Z
pdata	ENDS
;	COMDAT pdata
pdata	SEGMENT
$pdata$?_Throw_system_error_from_std_win_error@filesystem@std@@YAXW4__std_win_error@@@Z DD imagerel $LN3
	DD	imagerel $LN3+118
	DD	imagerel $unwind$?_Throw_system_error_from_std_win_error@filesystem@std@@YAXW4__std_win_error@@@Z
pdata	ENDS
;	COMDAT pdata
pdata	SEGMENT
$pdata$?_Check_convert_result@filesystem@std@@YAHU__std_fs_convert_result@@@Z DD imagerel $LN4
	DD	imagerel $LN4+67
	DD	imagerel $unwind$?_Check_convert_result@filesystem@std@@YAHU__std_fs_convert_result@@@Z
pdata	ENDS
;	COMDAT pdata
pdata	SEGMENT
$pdata$?u8string@path@filesystem@std@@QEBA@XZ DD imagerel $LN5
	DD	imagerel $LN5+210
	DD	imagerel $unwind$?u8string@path@filesystem@std@@QEBA@XZ
pdata	ENDS
;	COMDAT pdata
pdata	SEGMENT
$pdata$??$_Convert_wide_to_narrow@U?$char_traits@D@std@@V?$allocator@D@2@@filesystem@std@@YA?AV?$basic_string@DU?$char_traits@D@std@@V?$allocator@D@2@@1@W4__std_code_page@@V?$basic_string_view@_WU?$char_traits@_W@std@@@1@AEBV?$allocator@D@1@@Z DD imagerel $LN9
	DD	imagerel $LN9+480
	DD	imagerel $unwind$??$_Convert_wide_to_narrow@U?$char_traits@D@std@@V?$allocator@D@2@@filesystem@std@@YA?AV?$basic_string@DU?$char_traits@D@std@@V?$allocator@D@2@@1@W4__std_code_page@@V?$basic_string_view@_WU?$char_traits@_W@std@@@1@AEBV?$allocator@D@1@@Z
pdata	ENDS
;	COMDAT pdata
pdata	SEGMENT
$pdata$?dtor$0@?0???$_Convert_wide_to_narrow@U?$char_traits@D@std@@V?$allocator@D@2@@filesystem@std@@YA?AV?$basic_string@DU?$char_traits@D@std@@V?$allocator@D@2@@1@W4__std_code_page@@V?$basic_string_view@_WU?$char_traits@_W@std@@@1@AEBV?$allocator@D@1@@Z@4HA DD imagerel ?dtor$0@?0???$_Convert_wide_to_narrow@U?$char_traits@D@std@@V?$allocator@D@2@@filesystem@std@@YA?AV?$basic_string@DU?$char_traits@D@std@@V?$allocator@D@2@@1@W4__std_code_page@@V?$basic_string_view@_WU?$char_traits@_W@std@@@1@AEBV?$allocator@D@1@@Z@4HA
	DD	imagerel ?dtor$0@?0???$_Convert_wide_to_narrow@U?$char_traits@D@std@@V?$allocator@D@2@@filesystem@std@@YA?AV?$basic_string@DU?$char_traits@D@std@@V?$allocator@D@2@@1@W4__std_code_page@@V?$basic_string_view@_WU?$char_traits@_W@std@@@1@AEBV?$allocator@D@1@@Z@4HA+36
	DD	imagerel $unwind$?dtor$0@?0???$_Convert_wide_to_narrow@U?$char_traits@D@std@@V?$allocator@D@2@@filesystem@std@@YA?AV?$basic_string@DU?$char_traits@D@std@@V?$allocator@D@2@@1@W4__std_code_page@@V?$basic_string_view@_WU?$char_traits@_W@std@@@1@AEBV?$allocator@D@1@@Z@4HA
pdata	ENDS
;	COMDAT pdata
pdata	SEGMENT
$pdata$?Instance@FileDialog@ifd@@SAAEAV12@XZ DD imagerel $LN5
	DD	imagerel $LN5+156
	DD	imagerel $unwind$?Instance@FileDialog@ifd@@SAAEAV12@XZ
pdata	ENDS
;	COMDAT pdata
pdata	SEGMENT
$pdata$?dtor$0@?0??Instance@FileDialog@ifd@@SAAEAV12@XZ@4HA DD imagerel ?dtor$0@?0??Instance@FileDialog@ifd@@SAAEAV12@XZ@4HA
	DD	imagerel ?dtor$0@?0??Instance@FileDialog@ifd@@SAAEAV12@XZ@4HA+39
	DD	imagerel $unwind$?dtor$0@?0??Instance@FileDialog@ifd@@SAAEAV12@XZ@4HA
pdata	ENDS
;	COMDAT pdata
pdata	SEGMENT
$pdata$?HasResult@FileDialog@ifd@@QEAA_NXZ DD imagerel $LN5
	DD	imagerel $LN5+90
	DD	imagerel $unwind$?HasResult@FileDialog@ifd@@QEAA_NXZ
pdata	ENDS
;	COMDAT pdata
pdata	SEGMENT
$pdata$?GetResult@FileDialog@ifd@@QEAAAEBVpath@filesystem@std@@XZ DD imagerel $LN3
	DD	imagerel $LN3+75
	DD	imagerel $unwind$?GetResult@FileDialog@ifd@@QEAAAEBVpath@filesystem@std@@XZ
pdata	ENDS
;	COMDAT pdata
pdata	SEGMENT
$pdata$??0?$_Func_class@PEAXPEAEHHD@std@@QEAA@XZ DD imagerel $LN3
	DD	imagerel $LN3+62
	DD	imagerel $unwind$??0?$_Func_class@PEAXPEAEHHD@std@@QEAA@XZ
pdata	ENDS
;	COMDAT pdata
pdata	SEGMENT
$pdata$??1?$_Func_class@PEAXPEAEHHD@std@@QEAA@XZ DD imagerel $LN3
	DD	imagerel $LN3+53
	DD	imagerel $unwind$??1?$_Func_class@PEAXPEAEHHD@std@@QEAA@XZ
pdata	ENDS
;	COMDAT pdata
pdata	SEGMENT
$pdata$?_Empty@?$_Func_class@PEAXPEAEHHD@std@@IEBA_NXZ DD imagerel $LN5
	DD	imagerel $LN5+87
	DD	imagerel $unwind$?_Empty@?$_Func_class@PEAXPEAEHHD@std@@IEBA_NXZ
pdata	ENDS
;	COMDAT pdata
pdata	SEGMENT
$pdata$?_Reset_move@?$_Func_class@PEAXPEAEHHD@std@@IEAAX$$QEAV12@@Z DD imagerel $LN6
	DD	imagerel $LN6+221
	DD	imagerel $unwind$?_Reset_move@?$_Func_class@PEAXPEAEHHD@std@@IEAAX$$QEAV12@@Z
pdata	ENDS
;	COMDAT pdata
pdata	SEGMENT
$pdata$?_Tidy@?$_Func_class@PEAXPEAEHHD@std@@IEAAXXZ DD imagerel $LN6
	DD	imagerel $LN6+169
	DD	imagerel $unwind$?_Tidy@?$_Func_class@PEAXPEAEHHD@std@@IEAAXXZ
pdata	ENDS
;	COMDAT pdata
pdata	SEGMENT
$pdata$?_Swap@?$_Func_class@PEAXPEAEHHD@std@@IEAAXAEAV12@@Z DD imagerel $LN5
	DD	imagerel $LN5+311
	DD	imagerel $unwind$?_Swap@?$_Func_class@PEAXPEAEHHD@std@@IEAAXAEAV12@@Z
pdata	ENDS
;	COMDAT pdata
pdata	SEGMENT
$pdata$?_Local@?$_Func_class@PEAXPEAEHHD@std@@AEBA_NXZ DD imagerel $LN5
	DD	imagerel $LN5+94
	DD	imagerel $unwind$?_Local@?$_Func_class@PEAXPEAEHHD@std@@AEBA_NXZ
pdata	ENDS
;	COMDAT pdata
pdata	SEGMENT
$pdata$?_Getimpl@?$_Func_class@PEAXPEAEHHD@std@@AEBAPEAV?$_Func_base@PEAXPEAEHHD@2@XZ DD imagerel $LN3
	DD	imagerel $LN3+61
	DD	imagerel $unwind$?_Getimpl@?$_Func_class@PEAXPEAEHHD@std@@AEBAPEAV?$_Func_base@PEAXPEAEHHD@2@XZ
pdata	ENDS
;	COMDAT pdata
pdata	SEGMENT
$pdata$?_Set@?$_Func_class@PEAXPEAEHHD@std@@AEAAXPEAV?$_Func_base@PEAXPEAEHHD@2@@Z DD imagerel $LN3
	DD	imagerel $LN3+73
	DD	imagerel $unwind$?_Set@?$_Func_class@PEAXPEAEHHD@std@@AEAAXPEAV?$_Func_base@PEAXPEAEHHD@2@@Z
pdata	ENDS
;	COMDAT pdata
pdata	SEGMENT
$pdata$?swap@?$function@$$A6APEAXPEAEHHD@Z@std@@QEAAXAEAV12@@Z DD imagerel $LN3
	DD	imagerel $LN3+65
	DD	imagerel $unwind$?swap@?$function@$$A6APEAXPEAEHHD@Z@std@@QEAAXAEAV12@@Z
pdata	ENDS
;	COMDAT pdata
pdata	SEGMENT
$pdata$??1?$function@$$A6APEAXPEAEHHD@Z@std@@QEAA@XZ DD imagerel $LN3
	DD	imagerel $LN3+41
	DD	imagerel $unwind$??1?$function@$$A6APEAXPEAEHHD@Z@std@@QEAA@XZ
pdata	ENDS
;	COMDAT pdata
pdata	SEGMENT
$pdata$??0?$_Func_class@XPEAX@std@@QEAA@XZ DD imagerel $LN3
	DD	imagerel $LN3+62
	DD	imagerel $unwind$??0?$_Func_class@XPEAX@std@@QEAA@XZ
pdata	ENDS
;	COMDAT pdata
pdata	SEGMENT
$pdata$??1?$_Func_class@XPEAX@std@@QEAA@XZ DD imagerel $LN3
	DD	imagerel $LN3+53
	DD	imagerel $unwind$??1?$_Func_class@XPEAX@std@@QEAA@XZ
pdata	ENDS
;	COMDAT pdata
pdata	SEGMENT
$pdata$?_Empty@?$_Func_class@XPEAX@std@@IEBA_NXZ DD imagerel $LN5
	DD	imagerel $LN5+87
	DD	imagerel $unwind$?_Empty@?$_Func_class@XPEAX@std@@IEBA_NXZ
pdata	ENDS
;	COMDAT pdata
pdata	SEGMENT
$pdata$?_Reset_move@?$_Func_class@XPEAX@std@@IEAAX$$QEAV12@@Z DD imagerel $LN6
	DD	imagerel $LN6+221
	DD	imagerel $unwind$?_Reset_move@?$_Func_class@XPEAX@std@@IEAAX$$QEAV12@@Z
pdata	ENDS
;	COMDAT pdata
pdata	SEGMENT
$pdata$?_Tidy@?$_Func_class@XPEAX@std@@IEAAXXZ DD imagerel $LN6
	DD	imagerel $LN6+169
	DD	imagerel $unwind$?_Tidy@?$_Func_class@XPEAX@std@@IEAAXXZ
pdata	ENDS
;	COMDAT pdata
pdata	SEGMENT
$pdata$?_Swap@?$_Func_class@XPEAX@std@@IEAAXAEAV12@@Z DD imagerel $LN5
	DD	imagerel $LN5+311
	DD	imagerel $unwind$?_Swap@?$_Func_class@XPEAX@std@@IEAAXAEAV12@@Z
pdata	ENDS
;	COMDAT pdata
pdata	SEGMENT
$pdata$?_Local@?$_Func_class@XPEAX@std@@AEBA_NXZ DD imagerel $LN5
	DD	imagerel $LN5+94
	DD	imagerel $unwind$?_Local@?$_Func_class@XPEAX@std@@AEBA_NXZ
pdata	ENDS
;	COMDAT pdata
pdata	SEGMENT
$pdata$?_Getimpl@?$_Func_class@XPEAX@std@@AEBAPEAV?$_Func_base@XPEAX@2@XZ DD imagerel $LN3
	DD	imagerel $LN3+61
	DD	imagerel $unwind$?_Getimpl@?$_Func_class@XPEAX@std@@AEBAPEAV?$_Func_base@XPEAX@2@XZ
pdata	ENDS
;	COMDAT pdata
pdata	SEGMENT
$pdata$?_Set@?$_Func_class@XPEAX@std@@AEAAXPEAV?$_Func_base@XPEAX@2@@Z DD imagerel $LN3
	DD	imagerel $LN3+73
	DD	imagerel $unwind$?_Set@?$_Func_class@XPEAX@std@@AEAAXPEAV?$_Func_base@XPEAX@2@@Z
pdata	ENDS
;	COMDAT pdata
pdata	SEGMENT
$pdata$?swap@?$function@$$A6AXPEAX@Z@std@@QEAAXAEAV12@@Z DD imagerel $LN3
	DD	imagerel $LN3+65
	DD	imagerel $unwind$?swap@?$function@$$A6AXPEAX@Z@std@@QEAAXAEAV12@@Z
pdata	ENDS
;	COMDAT pdata
pdata	SEGMENT
$pdata$??1?$function@$$A6AXPEAX@Z@std@@QEAA@XZ DD imagerel $LN3
	DD	imagerel $LN3+41
	DD	imagerel $unwind$??1?$function@$$A6AXPEAX@Z@std@@QEAA@XZ
pdata	ENDS
;	COMDAT pdata
pdata	SEGMENT
$pdata$?size@?$vector@Vpath@filesystem@std@@V?$allocator@Vpath@filesystem@std@@@3@@std@@QEBA_KXZ DD imagerel $LN3
	DD	imagerel $LN3+81
	DD	imagerel $unwind$?size@?$vector@Vpath@filesystem@std@@V?$allocator@Vpath@filesystem@std@@@3@@std@@QEBA_KXZ
pdata	ENDS
;	COMDAT pdata
pdata	SEGMENT
$pdata$??A?$vector@Vpath@filesystem@std@@V?$allocator@Vpath@filesystem@std@@@3@@std@@QEAAAEAVpath@filesystem@1@_K@Z DD imagerel $LN12
	DD	imagerel $LN12+230
	DD	imagerel $unwind$??A?$vector@Vpath@filesystem@std@@V?$allocator@Vpath@filesystem@std@@@3@@std@@QEAAAEAVpath@filesystem@1@_K@Z
pdata	ENDS
;	COMDAT pdata
pdata	SEGMENT
$pdata$?__autoclassinit2@FileDialog@ifd@@QEAAX_K@Z DD imagerel $LN3
	DD	imagerel $LN3+50
	DD	imagerel $unwind$?__autoclassinit2@FileDialog@ifd@@QEAAX_K@Z
pdata	ENDS
;	COMDAT pdata
pdata	SEGMENT
$pdata$??__Fret@?1??Instance@FileDialog@ifd@@SAAEAV12@XZ@YAXXZ DD imagerel $LN3
	DD	imagerel $LN3+37
	DD	imagerel $unwind$??__Fret@?1??Instance@FileDialog@ifd@@SAAEAV12@XZ@YAXXZ
pdata	ENDS
;	COMDAT pdata
pdata	SEGMENT
$pdata$??$?0MHHH@?$vec@$03M$0A@@glm@@QEAA@MHHH@Z DD imagerel $LN3
	DD	imagerel $LN3+143
	DD	imagerel $unwind$??$?0MHHH@?$vec@$03M$0A@@glm@@QEAA@MHHH@Z
pdata	ENDS
;	COMDAT pdata
pdata	SEGMENT
$pdata$??$?0HMHH@?$vec@$03M$0A@@glm@@QEAA@HMHH@Z DD imagerel $LN3
	DD	imagerel $LN3+142
	DD	imagerel $unwind$??$?0HMHH@?$vec@$03M$0A@@glm@@QEAA@HMHH@Z
pdata	ENDS
;	COMDAT pdata
pdata	SEGMENT
$pdata$??$?0HHMH@?$vec@$03M$0A@@glm@@QEAA@HHMH@Z DD imagerel $LN3
	DD	imagerel $LN3+142
	DD	imagerel $unwind$??$?0HHMH@?$vec@$03M$0A@@glm@@QEAA@HHMH@Z
pdata	ENDS
;	COMDAT pdata
pdata	SEGMENT
$pdata$??$?0HHHM@?$vec@$03M$0A@@glm@@QEAA@HHHM@Z DD imagerel $LN3
	DD	imagerel $LN3+141
	DD	imagerel $unwind$??$?0HHHM@?$vec@$03M$0A@@glm@@QEAA@HHHM@Z
pdata	ENDS
;	COMDAT pdata
pdata	SEGMENT
$pdata$?_process_input@RaisinEng@@YAXPEAUGLFWwindow@@@Z DD imagerel $LN7
	DD	imagerel $LN7+127
	DD	imagerel $unwind$?_process_input@RaisinEng@@YAXPEAUGLFWwindow@@@Z
pdata	ENDS
;	COMDAT pdata
pdata	SEGMENT
$pdata$?Editor_Init@RaisinEng@@YAXXZ DD imagerel $LN3
	DD	imagerel $LN3+168
	DD	imagerel $unwind$?Editor_Init@RaisinEng@@YAXXZ
pdata	ENDS
;	COMDAT pdata
pdata	SEGMENT
$pdata$?Editor_Loop@RaisinEng@@YAXXZ DD imagerel $LN12
	DD	imagerel $LN12+659
	DD	imagerel $unwind$?Editor_Loop@RaisinEng@@YAXXZ
pdata	ENDS
;	COMDAT pdata
pdata	SEGMENT
$pdata$?dtor$0@?0??Editor_Loop@RaisinEng@@YAXXZ@4HA DD imagerel ?dtor$0@?0??Editor_Loop@RaisinEng@@YAXXZ@4HA
	DD	imagerel ?dtor$0@?0??Editor_Loop@RaisinEng@@YAXXZ@4HA+39
	DD	imagerel $unwind$?dtor$0@?0??Editor_Loop@RaisinEng@@YAXXZ@4HA
pdata	ENDS
;	COMDAT pdata
pdata	SEGMENT
$pdata$?dtor$1@?0??Editor_Loop@RaisinEng@@YAXXZ@4HA DD imagerel ?dtor$1@?0??Editor_Loop@RaisinEng@@YAXXZ@4HA
	DD	imagerel ?dtor$1@?0??Editor_Loop@RaisinEng@@YAXXZ@4HA+39
	DD	imagerel $unwind$?dtor$1@?0??Editor_Loop@RaisinEng@@YAXXZ@4HA
pdata	ENDS
;	COMDAT pdata
pdata	SEGMENT
$pdata$?dtor$2@?0??Editor_Loop@RaisinEng@@YAXXZ@4HA DD imagerel ?dtor$2@?0??Editor_Loop@RaisinEng@@YAXXZ@4HA
	DD	imagerel ?dtor$2@?0??Editor_Loop@RaisinEng@@YAXXZ@4HA+39
	DD	imagerel $unwind$?dtor$2@?0??Editor_Loop@RaisinEng@@YAXXZ@4HA
pdata	ENDS
;	COMDAT pdata
pdata	SEGMENT
$pdata$?dtor$3@?0??Editor_Loop@RaisinEng@@YAXXZ@4HA DD imagerel ?dtor$3@?0??Editor_Loop@RaisinEng@@YAXXZ@4HA
	DD	imagerel ?dtor$3@?0??Editor_Loop@RaisinEng@@YAXXZ@4HA+39
	DD	imagerel $unwind$?dtor$3@?0??Editor_Loop@RaisinEng@@YAXXZ@4HA
pdata	ENDS
;	COMDAT pdata
pdata	SEGMENT
$pdata$?dtor$4@?0??Editor_Loop@RaisinEng@@YAXXZ@4HA DD imagerel ?dtor$4@?0??Editor_Loop@RaisinEng@@YAXXZ@4HA
	DD	imagerel ?dtor$4@?0??Editor_Loop@RaisinEng@@YAXXZ@4HA+39
	DD	imagerel $unwind$?dtor$4@?0??Editor_Loop@RaisinEng@@YAXXZ@4HA
pdata	ENDS
;	COMDAT pdata
pdata	SEGMENT
$pdata$?Editor_Close@RaisinEng@@YAXXZ DD imagerel $LN3
	DD	imagerel $LN3+61
	DD	imagerel $unwind$?Editor_Close@RaisinEng@@YAXXZ
pdata	ENDS
;	COMDAT pdata
pdata	SEGMENT
$pdata$?framebuffer_size_callback@RaisinEng@@YAXPEAUGLFWwindow@@HH@Z DD imagerel $LN3
	DD	imagerel $LN3+88
	DD	imagerel $unwind$?framebuffer_size_callback@RaisinEng@@YAXPEAUGLFWwindow@@HH@Z
pdata	ENDS
;	COMDAT pdata
pdata	SEGMENT
$pdata$?_Destroy@RaisinEng@@YAXXZ DD imagerel $LN3
	DD	imagerel $LN3+42
	DD	imagerel $unwind$?_Destroy@RaisinEng@@YAXXZ
pdata	ENDS
;	COMDAT pdata
pdata	SEGMENT
$pdata$?_Loop@RaisinEng@@YAXXZ DD imagerel $LN6
	DD	imagerel $LN6+760
	DD	imagerel $unwind$?_Loop@RaisinEng@@YAXXZ
pdata	ENDS
;	COMDAT pdata
pdata	SEGMENT
$pdata$?dtor$0@?0??_Loop@RaisinEng@@YAXXZ@4HA DD imagerel ?dtor$0@?0??_Loop@RaisinEng@@YAXXZ@4HA
	DD	imagerel ?dtor$0@?0??_Loop@RaisinEng@@YAXXZ@4HA+36
	DD	imagerel $unwind$?dtor$0@?0??_Loop@RaisinEng@@YAXXZ@4HA
pdata	ENDS
;	COMDAT pdata
pdata	SEGMENT
$pdata$?_Init@RaisinEng@@YAXHHPEBD@Z DD imagerel $LN10
	DD	imagerel $LN10+609
	DD	imagerel $unwind$?_Init@RaisinEng@@YAXHHPEBD@Z
pdata	ENDS
;	COMDAT pdata
pdata	SEGMENT
$pdata$?dtor$0@?0??_Init@RaisinEng@@YAXHHPEBD@Z@4HA DD imagerel ?dtor$0@?0??_Init@RaisinEng@@YAXHHPEBD@Z@4HA
	DD	imagerel ?dtor$0@?0??_Init@RaisinEng@@YAXHHPEBD@Z@4HA+44
	DD	imagerel $unwind$?dtor$0@?0??_Init@RaisinEng@@YAXHHPEBD@Z@4HA
pdata	ENDS
;	COMDAT pdata
pdata	SEGMENT
$pdata$?dtor$2@?0??_Init@RaisinEng@@YAXHHPEBD@Z@4HA DD imagerel ?dtor$2@?0??_Init@RaisinEng@@YAXHHPEBD@Z@4HA
	DD	imagerel ?dtor$2@?0??_Init@RaisinEng@@YAXHHPEBD@Z@4HA+44
	DD	imagerel $unwind$?dtor$2@?0??_Init@RaisinEng@@YAXHHPEBD@Z@4HA
pdata	ENDS
;	COMDAT pdata
pdata	SEGMENT
$pdata$??0sInputRegistered@RaisinEng@@QEAA@XZ DD imagerel $LN3
	DD	imagerel $LN3+76
	DD	imagerel $unwind$??0sInputRegistered@RaisinEng@@QEAA@XZ
pdata	ENDS
;	COMDAT pdata
pdata	SEGMENT
$pdata$??__Em_inputs@RaisinEng@@YAXXZ DD imagerel ??__Em_inputs@RaisinEng@@YAXXZ
	DD	imagerel ??__Em_inputs@RaisinEng@@YAXXZ+67
	DD	imagerel $unwind$??__Em_inputs@RaisinEng@@YAXXZ
pdata	ENDS
;	COMDAT pdata
pdata	SEGMENT
$pdata$??0sSphere@@QEAA@XZ DD imagerel $LN4
	DD	imagerel $LN4+464
	DD	imagerel $unwind$??0sSphere@@QEAA@XZ
pdata	ENDS
;	COMDAT pdata
pdata	SEGMENT
$pdata$?dtor$0@?0???0sSphere@@QEAA@XZ@4HA DD imagerel ?dtor$0@?0???0sSphere@@QEAA@XZ@4HA
	DD	imagerel ?dtor$0@?0???0sSphere@@QEAA@XZ@4HA+46
	DD	imagerel $unwind$?dtor$0@?0???0sSphere@@QEAA@XZ@4HA
pdata	ENDS
;	COMDAT pdata
pdata	SEGMENT
$pdata$?_draw@sSphere@@QEAAXU?$mat@$03$03M$0A@@glm@@00U?$vec@$02M$0A@@3@@Z DD imagerel $LN3
	DD	imagerel $LN3+242
	DD	imagerel $unwind$?_draw@sSphere@@QEAAXU?$mat@$03$03M$0A@@glm@@00U?$vec@$02M$0A@@3@@Z
pdata	ENDS
;	COMDAT pdata
pdata	SEGMENT
$pdata$??1sSphere@@QEAA@XZ DD imagerel $LN3
	DD	imagerel $LN3+50
	DD	imagerel $unwind$??1sSphere@@QEAA@XZ
pdata	ENDS
;	COMDAT pdata
pdata	SEGMENT
$pdata$?_camera_move_callback@@YAXH@Z DD imagerel $LN10
	DD	imagerel $LN10+409
	DD	imagerel $unwind$?_camera_move_callback@@YAXH@Z
pdata	ENDS
;	COMDAT pdata
pdata	SEGMENT
$pdata$??$?DM$0A@@glm@@YA?AU?$vec@$02M$0A@@0@MAEBU10@@Z DD imagerel $LN3
	DD	imagerel $LN3+155
	DD	imagerel $unwind$??$?DM$0A@@glm@@YA?AU?$vec@$02M$0A@@0@MAEBU10@@Z
pdata	ENDS
;	COMDAT pdata
pdata	SEGMENT
$pdata$??$?YM@?$vec@$02M$0A@@glm@@QEAAAEAU01@AEBU01@@Z DD imagerel $LN3
	DD	imagerel $LN3+158
	DD	imagerel $unwind$??$?YM@?$vec@$02M$0A@@glm@@QEAAAEAU01@AEBU01@@Z
pdata	ENDS
;	COMDAT pdata
pdata	SEGMENT
$pdata$??$cross@M$0A@@glm@@YA?AU?$vec@$02M$0A@@0@AEBU10@0@Z DD imagerel $LN3
	DD	imagerel $LN3+84
	DD	imagerel $unwind$??$cross@M$0A@@glm@@YA?AU?$vec@$02M$0A@@0@AEBU10@0@Z
pdata	ENDS
;	COMDAT pdata
pdata	SEGMENT
$pdata$??$normalize@$02M$0A@@glm@@YA?AU?$vec@$02M$0A@@0@AEBU10@@Z DD imagerel $LN3
	DD	imagerel $LN3+72
	DD	imagerel $unwind$??$normalize@$02M$0A@@glm@@YA?AU?$vec@$02M$0A@@0@AEBU10@@Z
pdata	ENDS
;	COMDAT pdata
pdata	SEGMENT
$pdata$??$?DM$0A@@glm@@YA?AU?$vec@$02M$0A@@0@AEBU10@M@Z DD imagerel $LN3
	DD	imagerel $LN3+155
	DD	imagerel $unwind$??$?DM$0A@@glm@@YA?AU?$vec@$02M$0A@@0@AEBU10@M@Z
pdata	ENDS
;	COMDAT pdata
pdata	SEGMENT
$pdata$??$?ZM@?$vec@$02M$0A@@glm@@QEAAAEAU01@AEBU01@@Z DD imagerel $LN3
	DD	imagerel $LN3+158
	DD	imagerel $unwind$??$?ZM@?$vec@$02M$0A@@glm@@QEAAAEAU01@AEBU01@@Z
pdata	ENDS
;	COMDAT pdata
pdata	SEGMENT
$pdata$?_mouse_press_callback@@YAXPEAUGLFWwindow@@HHH@Z DD imagerel $LN3
	DD	imagerel $LN3+55
	DD	imagerel $unwind$?_mouse_press_callback@@YAXPEAUGLFWwindow@@HHH@Z
pdata	ENDS
;	COMDAT pdata
pdata	SEGMENT
$pdata$??$radians@M@glm@@YAMM@Z DD imagerel $LN3
	DD	imagerel $LN3+58
	DD	imagerel $unwind$??$radians@M@glm@@YAMM@Z
pdata	ENDS
;	COMDAT pdata
pdata	SEGMENT
$pdata$??$perspective@M@glm@@YA?AU?$mat@$03$03M$0A@@0@MMMM@Z DD imagerel $LN3
	DD	imagerel $LN3+116
	DD	imagerel $unwind$??$perspective@M@glm@@YA?AU?$mat@$03$03M$0A@@0@MMMM@Z
pdata	ENDS
;	COMDAT pdata
pdata	SEGMENT
$pdata$??$translate@M$0A@@glm@@YA?AU?$mat@$03$03M$0A@@0@AEBU10@AEBU?$vec@$02M$0A@@0@@Z DD imagerel $LN3
	DD	imagerel $LN3+588
	DD	imagerel $unwind$??$translate@M$0A@@glm@@YA?AU?$mat@$03$03M$0A@@0@AEBU10@AEBU?$vec@$02M$0A@@0@@Z
pdata	ENDS
;	COMDAT pdata
pdata	SEGMENT
$pdata$??$?HM$0A@@glm@@YA?AU?$vec@$02M$0A@@0@AEBU10@0@Z DD imagerel $LN3
	DD	imagerel $LN3+165
	DD	imagerel $unwind$??$?HM$0A@@glm@@YA?AU?$vec@$02M$0A@@0@AEBU10@0@Z
pdata	ENDS
;	COMDAT pdata
pdata	SEGMENT
$pdata$??$lookAt@M$0A@@glm@@YA?AU?$mat@$03$03M$0A@@0@AEBU?$vec@$02M$0A@@0@00@Z DD imagerel $LN3
	DD	imagerel $LN3+96
	DD	imagerel $unwind$??$lookAt@M$0A@@glm@@YA?AU?$mat@$03$03M$0A@@0@AEBU?$vec@$02M$0A@@0@00@Z
pdata	ENDS
;	COMDAT pdata
pdata	SEGMENT
$pdata$??R<lambda_bf6ca281e462b82a5894b37d6cd34b2f>@@QEBAPEAXPEAEHHD@Z DD imagerel ??R<lambda_bf6ca281e462b82a5894b37d6cd34b2f>@@QEBAPEAXPEAEHHD@Z
	DD	imagerel ??R<lambda_bf6ca281e462b82a5894b37d6cd34b2f>@@QEBAPEAXPEAEHHD@Z+510
	DD	imagerel $unwind$??R<lambda_bf6ca281e462b82a5894b37d6cd34b2f>@@QEBAPEAXPEAEHHD@Z
pdata	ENDS
;	COMDAT pdata
pdata	SEGMENT
$pdata$??$?4V<lambda_bf6ca281e462b82a5894b37d6cd34b2f>@@$0A@@?$function@$$A6APEAXPEAEHHD@Z@std@@QEAAAEAV01@$$QEAV<lambda_bf6ca281e462b82a5894b37d6cd34b2f>@@@Z DD imagerel ??$?4V<lambda_bf6ca281e462b82a5894b37d6cd34b2f>@@$0A@@?$function@$$A6APEAXPEAEHHD@Z@std@@QEAAAEAV01@$$QEAV<lambda_bf6ca281e462b82a5894b37d6cd34b2f>@@@Z
	DD	imagerel ??$?4V<lambda_bf6ca281e462b82a5894b37d6cd34b2f>@@$0A@@?$function@$$A6APEAXPEAEHHD@Z@std@@QEAAAEAV01@$$QEAV<lambda_bf6ca281e462b82a5894b37d6cd34b2f>@@@Z+132
	DD	imagerel $unwind$??$?4V<lambda_bf6ca281e462b82a5894b37d6cd34b2f>@@$0A@@?$function@$$A6APEAXPEAEHHD@Z@std@@QEAAAEAV01@$$QEAV<lambda_bf6ca281e462b82a5894b37d6cd34b2f>@@@Z
pdata	ENDS
;	COMDAT pdata
pdata	SEGMENT
$pdata$??$?0V<lambda_bf6ca281e462b82a5894b37d6cd34b2f>@@$0A@@?$function@$$A6APEAXPEAEHHD@Z@std@@QEAA@$$QEAV<lambda_bf6ca281e462b82a5894b37d6cd34b2f>@@@Z DD imagerel ??$?0V<lambda_bf6ca281e462b82a5894b37d6cd34b2f>@@$0A@@?$function@$$A6APEAXPEAEHHD@Z@std@@QEAA@$$QEAV<lambda_bf6ca281e462b82a5894b37d6cd34b2f>@@@Z
	DD	imagerel ??$?0V<lambda_bf6ca281e462b82a5894b37d6cd34b2f>@@$0A@@?$function@$$A6APEAXPEAEHHD@Z@std@@QEAA@$$QEAV<lambda_bf6ca281e462b82a5894b37d6cd34b2f>@@@Z+94
	DD	imagerel $unwind$??$?0V<lambda_bf6ca281e462b82a5894b37d6cd34b2f>@@$0A@@?$function@$$A6APEAXPEAEHHD@Z@std@@QEAA@$$QEAV<lambda_bf6ca281e462b82a5894b37d6cd34b2f>@@@Z
pdata	ENDS
;	COMDAT pdata
pdata	SEGMENT
$pdata$?dtor$0@?0???$?0V<lambda_bf6ca281e462b82a5894b37d6cd34b2f>@@$0A@@?$function@$$A6APEAXPEAEHHD@Z@std@@QEAA@$$QEAV<lambda_bf6ca281e462b82a5894b37d6cd34b2f>@@@Z@4HA DD imagerel ?dtor$0@?0???$?0V<lambda_bf6ca281e462b82a5894b37d6cd34b2f>@@$0A@@?$function@$$A6APEAXPEAEHHD@Z@std@@QEAA@$$QEAV<lambda_bf6ca281e462b82a5894b37d6cd34b2f>@@@Z@4HA
	DD	imagerel ?dtor$0@?0???$?0V<lambda_bf6ca281e462b82a5894b37d6cd34b2f>@@$0A@@?$function@$$A6APEAXPEAEHHD@Z@std@@QEAA@$$QEAV<lambda_bf6ca281e462b82a5894b37d6cd34b2f>@@@Z@4HA+39
	DD	imagerel $unwind$?dtor$0@?0???$?0V<lambda_bf6ca281e462b82a5894b37d6cd34b2f>@@$0A@@?$function@$$A6APEAXPEAEHHD@Z@std@@QEAA@$$QEAV<lambda_bf6ca281e462b82a5894b37d6cd34b2f>@@@Z@4HA
pdata	ENDS
;	COMDAT pdata
pdata	SEGMENT
$pdata$??R<lambda_2d00a5b31fb0ddb685a7e903646d6657>@@QEBA@PEAX@Z DD imagerel ??R<lambda_2d00a5b31fb0ddb685a7e903646d6657>@@QEBA@PEAX@Z
	DD	imagerel ??R<lambda_2d00a5b31fb0ddb685a7e903646d6657>@@QEBA@PEAX@Z+157
	DD	imagerel $unwind$??R<lambda_2d00a5b31fb0ddb685a7e903646d6657>@@QEBA@PEAX@Z
pdata	ENDS
;	COMDAT pdata
pdata	SEGMENT
$pdata$??$?4V<lambda_2d00a5b31fb0ddb685a7e903646d6657>@@$0A@@?$function@$$A6AXPEAX@Z@std@@QEAAAEAV01@$$QEAV<lambda_2d00a5b31fb0ddb685a7e903646d6657>@@@Z DD imagerel ??$?4V<lambda_2d00a5b31fb0ddb685a7e903646d6657>@@$0A@@?$function@$$A6AXPEAX@Z@std@@QEAAAEAV01@$$QEAV<lambda_2d00a5b31fb0ddb685a7e903646d6657>@@@Z
	DD	imagerel ??$?4V<lambda_2d00a5b31fb0ddb685a7e903646d6657>@@$0A@@?$function@$$A6AXPEAX@Z@std@@QEAAAEAV01@$$QEAV<lambda_2d00a5b31fb0ddb685a7e903646d6657>@@@Z+132
	DD	imagerel $unwind$??$?4V<lambda_2d00a5b31fb0ddb685a7e903646d6657>@@$0A@@?$function@$$A6AXPEAX@Z@std@@QEAAAEAV01@$$QEAV<lambda_2d00a5b31fb0ddb685a7e903646d6657>@@@Z
pdata	ENDS
;	COMDAT pdata
pdata	SEGMENT
$pdata$??$?0V<lambda_2d00a5b31fb0ddb685a7e903646d6657>@@$0A@@?$function@$$A6AXPEAX@Z@std@@QEAA@$$QEAV<lambda_2d00a5b31fb0ddb685a7e903646d6657>@@@Z DD imagerel ??$?0V<lambda_2d00a5b31fb0ddb685a7e903646d6657>@@$0A@@?$function@$$A6AXPEAX@Z@std@@QEAA@$$QEAV<lambda_2d00a5b31fb0ddb685a7e903646d6657>@@@Z
	DD	imagerel ??$?0V<lambda_2d00a5b31fb0ddb685a7e903646d6657>@@$0A@@?$function@$$A6AXPEAX@Z@std@@QEAA@$$QEAV<lambda_2d00a5b31fb0ddb685a7e903646d6657>@@@Z+94
	DD	imagerel $unwind$??$?0V<lambda_2d00a5b31fb0ddb685a7e903646d6657>@@$0A@@?$function@$$A6AXPEAX@Z@std@@QEAA@$$QEAV<lambda_2d00a5b31fb0ddb685a7e903646d6657>@@@Z
pdata	ENDS
;	COMDAT pdata
pdata	SEGMENT
$pdata$?dtor$0@?0???$?0V<lambda_2d00a5b31fb0ddb685a7e903646d6657>@@$0A@@?$function@$$A6AXPEAX@Z@std@@QEAA@$$QEAV<lambda_2d00a5b31fb0ddb685a7e903646d6657>@@@Z@4HA DD imagerel ?dtor$0@?0???$?0V<lambda_2d00a5b31fb0ddb685a7e903646d6657>@@$0A@@?$function@$$A6AXPEAX@Z@std@@QEAA@$$QEAV<lambda_2d00a5b31fb0ddb685a7e903646d6657>@@@Z@4HA
	DD	imagerel ?dtor$0@?0???$?0V<lambda_2d00a5b31fb0ddb685a7e903646d6657>@@$0A@@?$function@$$A6AXPEAX@Z@std@@QEAA@$$QEAV<lambda_2d00a5b31fb0ddb685a7e903646d6657>@@@Z@4HA+39
	DD	imagerel $unwind$?dtor$0@?0???$?0V<lambda_2d00a5b31fb0ddb685a7e903646d6657>@@$0A@@?$function@$$A6AXPEAX@Z@std@@QEAA@$$QEAV<lambda_2d00a5b31fb0ddb685a7e903646d6657>@@@Z@4HA
pdata	ENDS
;	COMDAT pdata
pdata	SEGMENT
$pdata$?allocate@?$allocator@U_Container_proxy@std@@@std@@QEAAPEAU_Container_proxy@2@_K@Z DD imagerel $LN3
	DD	imagerel $LN3+66
	DD	imagerel $unwind$?allocate@?$allocator@U_Container_proxy@std@@@std@@QEAAPEAU_Container_proxy@2@_K@Z
pdata	ENDS
;	COMDAT pdata
pdata	SEGMENT
$pdata$??$exchange@PEAU_Container_proxy@std@@$$T@std@@YAPEAU_Container_proxy@0@AEAPEAU10@$$QEA$$T@Z DD imagerel $LN3
	DD	imagerel $LN3+84
	DD	imagerel $unwind$??$exchange@PEAU_Container_proxy@std@@$$T@std@@YAPEAU_Container_proxy@0@AEAPEAU10@$$QEA$$T@Z
pdata	ENDS
;	COMDAT pdata
pdata	SEGMENT
$pdata$??$_Delete_plain_internal@V?$allocator@U_Container_proxy@std@@@std@@@std@@YAXAEAV?$allocator@U_Container_proxy@std@@@0@QEAU_Container_proxy@0@@Z DD imagerel $LN3
	DD	imagerel $LN3+65
	DD	imagerel $unwind$??$_Delete_plain_internal@V?$allocator@U_Container_proxy@std@@@std@@@std@@YAXAEAV?$allocator@U_Container_proxy@std@@@0@QEAU_Container_proxy@0@@Z
pdata	ENDS
;	COMDAT pdata
pdata	SEGMENT
$pdata$??$_Alloc_proxy@V?$allocator@U_Container_proxy@std@@@std@@@_Container_base12@std@@QEAAX$$QEAV?$allocator@U_Container_proxy@std@@@1@@Z DD imagerel $LN3
	DD	imagerel $LN3+133
	DD	imagerel $unwind$??$_Alloc_proxy@V?$allocator@U_Container_proxy@std@@@std@@@_Container_base12@std@@QEAAX$$QEAV?$allocator@U_Container_proxy@std@@@1@@Z
pdata	ENDS
;	COMDAT pdata
pdata	SEGMENT
$pdata$??$?0VMesh@@@?$allocator@U_Container_proxy@std@@@std@@QEAA@AEBV?$allocator@VMesh@@@1@@Z DD imagerel $LN3
	DD	imagerel $LN3+53
	DD	imagerel $unwind$??$?0VMesh@@@?$allocator@U_Container_proxy@std@@@std@@QEAA@AEBV?$allocator@VMesh@@@1@@Z
pdata	ENDS
;	COMDAT pdata
pdata	SEGMENT
$pdata$??$?0$$V@?$_Compressed_pair@V?$allocator@VMesh@@@std@@V?$_Vector_val@U?$_Simple_types@VMesh@@@std@@@2@$00@std@@QEAA@U_Zero_then_variadic_args_t@1@@Z DD imagerel $LN3
	DD	imagerel $LN3+79
	DD	imagerel $unwind$??$?0$$V@?$_Compressed_pair@V?$allocator@VMesh@@@std@@V?$_Vector_val@U?$_Simple_types@VMesh@@@std@@@2@$00@std@@QEAA@U_Zero_then_variadic_args_t@1@@Z
pdata	ENDS
;	COMDAT pdata
pdata	SEGMENT
$pdata$??$?0UVertex@@@?$allocator@U_Container_proxy@std@@@std@@QEAA@AEBV?$allocator@UVertex@@@1@@Z DD imagerel $LN3
	DD	imagerel $LN3+53
	DD	imagerel $unwind$??$?0UVertex@@@?$allocator@U_Container_proxy@std@@@std@@QEAA@AEBV?$allocator@UVertex@@@1@@Z
pdata	ENDS
;	COMDAT pdata
pdata	SEGMENT
$pdata$??$?0I@?$allocator@U_Container_proxy@std@@@std@@QEAA@AEBV?$allocator@I@1@@Z DD imagerel $LN3
	DD	imagerel $LN3+53
	DD	imagerel $unwind$??$?0I@?$allocator@U_Container_proxy@std@@@std@@QEAA@AEBV?$allocator@I@1@@Z
pdata	ENDS
;	COMDAT pdata
pdata	SEGMENT
$pdata$??$_Unfancy_maybe_null@UVkLayerProperties@@@std@@YAPEAUVkLayerProperties@@PEAU1@@Z DD imagerel $LN3
	DD	imagerel $LN3+48
	DD	imagerel $unwind$??$_Unfancy_maybe_null@UVkLayerProperties@@@std@@YAPEAUVkLayerProperties@@PEAU1@@Z
pdata	ENDS
;	COMDAT pdata
pdata	SEGMENT
$pdata$??$?0UVkLayerProperties@@@?$allocator@U_Container_proxy@std@@@std@@QEAA@AEBV?$allocator@UVkLayerProperties@@@1@@Z DD imagerel $LN3
	DD	imagerel $LN3+53
	DD	imagerel $unwind$??$?0UVkLayerProperties@@@?$allocator@U_Container_proxy@std@@@std@@QEAA@AEBV?$allocator@UVkLayerProperties@@@1@@Z
pdata	ENDS
;	COMDAT pdata
pdata	SEGMENT
$pdata$??$?0AEBV?$allocator@UVkLayerProperties@@@std@@$$V@?$_Compressed_pair@V?$allocator@UVkLayerProperties@@@std@@V?$_Vector_val@U?$_Simple_types@UVkLayerProperties@@@std@@@2@$00@std@@QEAA@U_One_then_variadic_args_t@1@AEBV?$allocator@UVkLayerProperties@@@1@@Z DD imagerel $LN3
	DD	imagerel $LN3+84
	DD	imagerel $unwind$??$?0AEBV?$allocator@UVkLayerProperties@@@std@@$$V@?$_Compressed_pair@V?$allocator@UVkLayerProperties@@@std@@V?$_Vector_val@U?$_Simple_types@UVkLayerProperties@@@std@@@2@$00@std@@QEAA@U_One_then_variadic_args_t@1@AEBV?$allocator@UVkLayerProperties@@@1@@Z
pdata	ENDS
;	COMDAT pdata
pdata	SEGMENT
$pdata$??$_Construct_n@$$V@?$vector@UVkLayerProperties@@V?$allocator@UVkLayerProperties@@@std@@@std@@AEAAX_K@Z DD imagerel $LN6
	DD	imagerel $LN6+311
	DD	imagerel $unwind$??$_Construct_n@$$V@?$vector@UVkLayerProperties@@V?$allocator@UVkLayerProperties@@@std@@@std@@AEAAX_K@Z
pdata	ENDS
;	COMDAT pdata
pdata	SEGMENT
$pdata$?dtor$0@?0???$_Construct_n@$$V@?$vector@UVkLayerProperties@@V?$allocator@UVkLayerProperties@@@std@@@std@@AEAAX_K@Z@4HA DD imagerel ?dtor$0@?0???$_Construct_n@$$V@?$vector@UVkLayerProperties@@V?$allocator@UVkLayerProperties@@@std@@@std@@AEAAX_K@Z@4HA
	DD	imagerel ?dtor$0@?0???$_Construct_n@$$V@?$vector@UVkLayerProperties@@V?$allocator@UVkLayerProperties@@@std@@@std@@AEAAX_K@Z@4HA+39
	DD	imagerel $unwind$?dtor$0@?0???$_Construct_n@$$V@?$vector@UVkLayerProperties@@V?$allocator@UVkLayerProperties@@@std@@@std@@AEAAX_K@Z@4HA
pdata	ENDS
;	COMDAT pdata
pdata	SEGMENT
$pdata$?dtor$1@?0???$_Construct_n@$$V@?$vector@UVkLayerProperties@@V?$allocator@UVkLayerProperties@@@std@@@std@@AEAAX_K@Z@4HA DD imagerel ?dtor$1@?0???$_Construct_n@$$V@?$vector@UVkLayerProperties@@V?$allocator@UVkLayerProperties@@@std@@@std@@AEAAX_K@Z@4HA
	DD	imagerel ?dtor$1@?0???$_Construct_n@$$V@?$vector@UVkLayerProperties@@V?$allocator@UVkLayerProperties@@@std@@@std@@AEAAX_K@Z@4HA+39
	DD	imagerel $unwind$?dtor$1@?0???$_Construct_n@$$V@?$vector@UVkLayerProperties@@V?$allocator@UVkLayerProperties@@@std@@@std@@AEAAX_K@Z@4HA
pdata	ENDS
;	COMDAT pdata
pdata	SEGMENT
$pdata$??$_Unfancy_maybe_null@PEBD@std@@YAPEAPEBDPEAPEBD@Z DD imagerel $LN3
	DD	imagerel $LN3+48
	DD	imagerel $unwind$??$_Unfancy_maybe_null@PEBD@std@@YAPEAPEBDPEAPEBD@Z
pdata	ENDS
;	COMDAT pdata
pdata	SEGMENT
$pdata$??$?0PEBD@?$allocator@U_Container_proxy@std@@@std@@QEAA@AEBV?$allocator@PEBD@1@@Z DD imagerel $LN3
	DD	imagerel $LN3+53
	DD	imagerel $unwind$??$?0PEBD@?$allocator@U_Container_proxy@std@@@std@@QEAA@AEBV?$allocator@PEBD@1@@Z
pdata	ENDS
;	COMDAT pdata
pdata	SEGMENT
$pdata$??$?0AEBV?$allocator@PEBD@std@@$$V@?$_Compressed_pair@V?$allocator@PEBD@std@@V?$_Vector_val@U?$_Simple_types@PEBD@std@@@2@$00@std@@QEAA@U_One_then_variadic_args_t@1@AEBV?$allocator@PEBD@1@@Z DD imagerel $LN3
	DD	imagerel $LN3+84
	DD	imagerel $unwind$??$?0AEBV?$allocator@PEBD@std@@$$V@?$_Compressed_pair@V?$allocator@PEBD@std@@V?$_Vector_val@U?$_Simple_types@PEBD@std@@@2@$00@std@@QEAA@U_One_then_variadic_args_t@1@AEBV?$allocator@PEBD@1@@Z
pdata	ENDS
;	COMDAT pdata
pdata	SEGMENT
$pdata$??$_Convert_size@_K@std@@YA_K_K@Z DD imagerel $LN3
	DD	imagerel $LN3+48
	DD	imagerel $unwind$??$_Convert_size@_K@std@@YA_K_K@Z
pdata	ENDS
;	COMDAT pdata
pdata	SEGMENT
$pdata$??$_Construct_n@PEBQEBDPEBQEBD@?$vector@PEBDV?$allocator@PEBD@std@@@std@@AEAAX_K$$QEAPEBQEBD1@Z DD imagerel $LN6
	DD	imagerel $LN6+390
	DD	imagerel $unwind$??$_Construct_n@PEBQEBDPEBQEBD@?$vector@PEBDV?$allocator@PEBD@std@@@std@@AEAAX_K$$QEAPEBQEBD1@Z
pdata	ENDS
;	COMDAT pdata
pdata	SEGMENT
$pdata$?dtor$0@?0???$_Construct_n@PEBQEBDPEBQEBD@?$vector@PEBDV?$allocator@PEBD@std@@@std@@AEAAX_K$$QEAPEBQEBD1@Z@4HA DD imagerel ?dtor$0@?0???$_Construct_n@PEBQEBDPEBQEBD@?$vector@PEBDV?$allocator@PEBD@std@@@std@@AEAAX_K$$QEAPEBQEBD1@Z@4HA
	DD	imagerel ?dtor$0@?0???$_Construct_n@PEBQEBDPEBQEBD@?$vector@PEBDV?$allocator@PEBD@std@@@std@@AEAAX_K$$QEAPEBQEBD1@Z@4HA+39
	DD	imagerel $unwind$?dtor$0@?0???$_Construct_n@PEBQEBDPEBQEBD@?$vector@PEBDV?$allocator@PEBD@std@@@std@@AEAAX_K$$QEAPEBQEBD1@Z@4HA
pdata	ENDS
;	COMDAT pdata
pdata	SEGMENT
$pdata$?dtor$1@?0???$_Construct_n@PEBQEBDPEBQEBD@?$vector@PEBDV?$allocator@PEBD@std@@@std@@AEAAX_K$$QEAPEBQEBD1@Z@4HA DD imagerel ?dtor$1@?0???$_Construct_n@PEBQEBDPEBQEBD@?$vector@PEBDV?$allocator@PEBD@std@@@std@@AEAAX_K$$QEAPEBQEBD1@Z@4HA
	DD	imagerel ?dtor$1@?0???$_Construct_n@PEBQEBDPEBQEBD@?$vector@PEBDV?$allocator@PEBD@std@@@std@@AEAAX_K$$QEAPEBQEBD1@Z@4HA+39
	DD	imagerel $unwind$?dtor$1@?0???$_Construct_n@PEBQEBDPEBQEBD@?$vector@PEBDV?$allocator@PEBD@std@@@std@@AEAAX_K$$QEAPEBQEBD1@Z@4HA
pdata	ENDS
;	COMDAT pdata
pdata	SEGMENT
$pdata$??$min@_K@std@@YAAEB_KAEB_K0@Z DD imagerel $LN5
	DD	imagerel $LN5+119
	DD	imagerel $unwind$??$min@_K@std@@YAAEB_KAEB_K0@Z
pdata	ENDS
;	COMDAT pdata
pdata	SEGMENT
$pdata$??$max@_K@std@@YAAEB_KAEB_K0@Z DD imagerel $LN5
	DD	imagerel $LN5+119
	DD	imagerel $unwind$??$max@_K@std@@YAAEB_KAEB_K0@Z
pdata	ENDS
;	COMDAT pdata
pdata	SEGMENT
$pdata$??$addressof@V?$_String_val@U?$_Simple_types@D@std@@@std@@@std@@YAPEAV?$_String_val@U?$_Simple_types@D@std@@@0@AEAV10@@Z DD imagerel $LN3
	DD	imagerel $LN3+48
	DD	imagerel $unwind$??$addressof@V?$_String_val@U?$_Simple_types@D@std@@@std@@@std@@YAPEAV?$_String_val@U?$_Simple_types@D@std@@@0@AEAV10@@Z
pdata	ENDS
;	COMDAT pdata
pdata	SEGMENT
$pdata$??$?0D@?$allocator@U_Container_proxy@std@@@std@@QEAA@AEBV?$allocator@D@1@@Z DD imagerel $LN3
	DD	imagerel $LN3+53
	DD	imagerel $unwind$??$?0D@?$allocator@U_Container_proxy@std@@@std@@QEAA@AEBV?$allocator@D@1@@Z
pdata	ENDS
;	COMDAT pdata
pdata	SEGMENT
$pdata$??$move@AEAV?$allocator@D@std@@@std@@YA$$QEAV?$allocator@D@0@AEAV10@@Z DD imagerel $LN3
	DD	imagerel $LN3+48
	DD	imagerel $unwind$??$move@AEAV?$allocator@D@std@@@std@@YA$$QEAV?$allocator@D@0@AEAV10@@Z
pdata	ENDS
;	COMDAT pdata
pdata	SEGMENT
$pdata$??$?0V?$allocator@D@std@@$$V@?$_Compressed_pair@V?$allocator@D@std@@V?$_String_val@U?$_Simple_types@D@std@@@2@$00@std@@QEAA@U_One_then_variadic_args_t@1@$$QEAV?$allocator@D@1@@Z DD imagerel $LN3
	DD	imagerel $LN3+84
	DD	imagerel $unwind$??$?0V?$allocator@D@std@@$$V@?$_Compressed_pair@V?$allocator@D@std@@V?$_String_val@U?$_Simple_types@D@std@@@2@$00@std@@QEAA@U_One_then_variadic_args_t@1@$$QEAV?$allocator@D@1@@Z
pdata	ENDS
;	COMDAT pdata
pdata	SEGMENT
$pdata$??$?0$$V@?$_Compressed_pair@V?$allocator@D@std@@V?$_String_val@U?$_Simple_types@D@std@@@2@$00@std@@QEAA@U_Zero_then_variadic_args_t@1@@Z DD imagerel $LN3
	DD	imagerel $LN3+79
	DD	imagerel $unwind$??$?0$$V@?$_Compressed_pair@V?$allocator@D@std@@V?$_String_val@U?$_Simple_types@D@std@@@2@$00@std@@QEAA@U_Zero_then_variadic_args_t@1@@Z
pdata	ENDS
;	COMDAT pdata
pdata	SEGMENT
$pdata$??$_Construct@$00PEBD@?$basic_string@DU?$char_traits@D@std@@V?$allocator@D@2@@std@@AEAAXQEBD_K@Z DD imagerel $LN9
	DD	imagerel $LN9+614
	DD	imagerel $unwind$??$_Construct@$00PEBD@?$basic_string@DU?$char_traits@D@std@@V?$allocator@D@2@@std@@AEAAXQEBD_K@Z
pdata	ENDS
;	COMDAT pdata
pdata	SEGMENT
$pdata$?dtor$0@?0???$_Construct@$00PEBD@?$basic_string@DU?$char_traits@D@std@@V?$allocator@D@2@@std@@AEAAXQEBD_K@Z@4HA DD imagerel ?dtor$0@?0???$_Construct@$00PEBD@?$basic_string@DU?$char_traits@D@std@@V?$allocator@D@2@@std@@AEAAXQEBD_K@Z@4HA
	DD	imagerel ?dtor$0@?0???$_Construct@$00PEBD@?$basic_string@DU?$char_traits@D@std@@V?$allocator@D@2@@std@@AEAAXQEBD_K@Z@4HA+39
	DD	imagerel $unwind$?dtor$0@?0???$_Construct@$00PEBD@?$basic_string@DU?$char_traits@D@std@@V?$allocator@D@2@@std@@AEAAXQEBD_K@Z@4HA
pdata	ENDS
;	COMDAT pdata
pdata	SEGMENT
$pdata$??$_Construct@$01PEBD@?$basic_string@DU?$char_traits@D@std@@V?$allocator@D@2@@std@@AEAAXQEBD_K@Z DD imagerel $LN9
	DD	imagerel $LN9+554
	DD	imagerel $unwind$??$_Construct@$01PEBD@?$basic_string@DU?$char_traits@D@std@@V?$allocator@D@2@@std@@AEAAXQEBD_K@Z
pdata	ENDS
;	COMDAT pdata
pdata	SEGMENT
$pdata$?dtor$0@?0???$_Construct@$01PEBD@?$basic_string@DU?$char_traits@D@std@@V?$allocator@D@2@@std@@AEAAXQEBD_K@Z@4HA DD imagerel ?dtor$0@?0???$_Construct@$01PEBD@?$basic_string@DU?$char_traits@D@std@@V?$allocator@D@2@@std@@AEAAXQEBD_K@Z@4HA
	DD	imagerel ?dtor$0@?0???$_Construct@$01PEBD@?$basic_string@DU?$char_traits@D@std@@V?$allocator@D@2@@std@@AEAAXQEBD_K@Z@4HA+39
	DD	imagerel $unwind$?dtor$0@?0???$_Construct@$01PEBD@?$basic_string@DU?$char_traits@D@std@@V?$allocator@D@2@@std@@AEAAXQEBD_K@Z@4HA
pdata	ENDS
;	COMDAT pdata
pdata	SEGMENT
$pdata$??0?$_Container_proxy_ptr12@V?$allocator@U_Container_proxy@std@@@std@@@std@@QEAA@AEAV?$allocator@U_Container_proxy@std@@@1@AEAU_Container_base12@1@@Z DD imagerel $LN3
	DD	imagerel $LN3+184
	DD	imagerel $unwind$??0?$_Container_proxy_ptr12@V?$allocator@U_Container_proxy@std@@@std@@@std@@QEAA@AEAV?$allocator@U_Container_proxy@std@@@1@AEAU_Container_base12@1@@Z
pdata	ENDS
;	COMDAT pdata
pdata	SEGMENT
$pdata$??1?$_Container_proxy_ptr12@V?$allocator@U_Container_proxy@std@@@std@@@std@@QEAA@XZ DD imagerel $LN4
	DD	imagerel $LN4+80
	DD	imagerel $unwind$??1?$_Container_proxy_ptr12@V?$allocator@U_Container_proxy@std@@@std@@@std@@QEAA@XZ
pdata	ENDS
;	COMDAT pdata
pdata	SEGMENT
$pdata$??$_Destroy_range@V?$allocator@VMesh@@@std@@@std@@YAXPEAVMesh@@QEAV1@AEAV?$allocator@VMesh@@@0@@Z DD imagerel $LN6
	DD	imagerel $LN6+116
	DD	imagerel $unwind$??$_Destroy_range@V?$allocator@VMesh@@@std@@@std@@YAXPEAVMesh@@QEAV1@AEAV?$allocator@VMesh@@@0@@Z
pdata	ENDS
;	COMDAT pdata
pdata	SEGMENT
$pdata$??$_Destroy_range@V?$allocator@UVertex@@@std@@@std@@YAXPEAUVertex@@QEAU1@AEAV?$allocator@UVertex@@@0@@Z DD imagerel $LN3
	DD	imagerel $LN3+51
	DD	imagerel $unwind$??$_Destroy_range@V?$allocator@UVertex@@@std@@@std@@YAXPEAUVertex@@QEAU1@AEAV?$allocator@UVertex@@@0@@Z
pdata	ENDS
;	COMDAT pdata
pdata	SEGMENT
$pdata$??$_Destroy_range@V?$allocator@I@std@@@std@@YAXPEAIQEAIAEAV?$allocator@I@0@@Z DD imagerel $LN3
	DD	imagerel $LN3+51
	DD	imagerel $unwind$??$_Destroy_range@V?$allocator@I@std@@@std@@YAXPEAIQEAIAEAV?$allocator@I@0@@Z
pdata	ENDS
;	COMDAT pdata
pdata	SEGMENT
$pdata$??$_Destroy_range@V?$allocator@UVkLayerProperties@@@std@@@std@@YAXPEAUVkLayerProperties@@QEAU1@AEAV?$allocator@UVkLayerProperties@@@0@@Z DD imagerel $LN3
	DD	imagerel $LN3+51
	DD	imagerel $unwind$??$_Destroy_range@V?$allocator@UVkLayerProperties@@@std@@@std@@YAXPEAUVkLayerProperties@@QEAU1@AEAV?$allocator@UVkLayerProperties@@@0@@Z
pdata	ENDS
;	COMDAT pdata
pdata	SEGMENT
$pdata$??$_Destroy_range@V?$allocator@PEBD@std@@@std@@YAXPEAPEBDQEAPEBDAEAV?$allocator@PEBD@0@@Z DD imagerel $LN3
	DD	imagerel $LN3+51
	DD	imagerel $unwind$??$_Destroy_range@V?$allocator@PEBD@std@@@std@@YAXPEAPEBDQEAPEBDAEAV?$allocator@PEBD@0@@Z
pdata	ENDS
;	COMDAT pdata
pdata	SEGMENT
$pdata$??$_Unfancy@_W@std@@YAPEA_WPEA_W@Z DD imagerel $LN3
	DD	imagerel $LN3+48
	DD	imagerel $unwind$??$_Unfancy@_W@std@@YAPEA_WPEA_W@Z
pdata	ENDS
;	COMDAT pdata
pdata	SEGMENT
$pdata$??$_Destroy_in_place@PEAD@std@@YAXAEAPEAD@Z DD imagerel $LN3
	DD	imagerel $LN3+41
	DD	imagerel $unwind$??$_Destroy_in_place@PEAD@std@@YAXAEAPEAD@Z
pdata	ENDS
;	COMDAT pdata
pdata	SEGMENT
$pdata$??$_Unfancy@D@std@@YAPEADPEAD@Z DD imagerel $LN3
	DD	imagerel $LN3+48
	DD	imagerel $unwind$??$_Unfancy@D@std@@YAPEADPEAD@Z
pdata	ENDS
;	COMDAT pdata
pdata	SEGMENT
$pdata$??R<lambda_e1befb086ad3257e3f042a63030725f7>@@QEBA@QEADQEBD_K2D@Z DD imagerel $LN3
	DD	imagerel $LN3+180
	DD	imagerel $unwind$??R<lambda_e1befb086ad3257e3f042a63030725f7>@@QEBA@QEADQEBD_K2D@Z
pdata	ENDS
;	COMDAT pdata
pdata	SEGMENT
$pdata$??$_Reallocate_grow_by@V<lambda_e1befb086ad3257e3f042a63030725f7>@@_KD@?$basic_string@DU?$char_traits@D@std@@V?$allocator@D@2@@std@@AEAAAEAV01@_KV<lambda_e1befb086ad3257e3f042a63030725f7>@@_KD@Z DD imagerel $LN6
	DD	imagerel $LN6+566
	DD	imagerel $unwind$??$_Reallocate_grow_by@V<lambda_e1befb086ad3257e3f042a63030725f7>@@_KD@?$basic_string@DU?$char_traits@D@std@@V?$allocator@D@2@@std@@AEAAAEAV01@_KV<lambda_e1befb086ad3257e3f042a63030725f7>@@_KD@Z
pdata	ENDS
;	COMDAT pdata
pdata	SEGMENT
$pdata$??R<lambda_65e615be2a453ca0576c979606f46740>@@QEBA@QEADQEBD_K12@Z DD imagerel $LN3
	DD	imagerel $LN3+179
	DD	imagerel $unwind$??R<lambda_65e615be2a453ca0576c979606f46740>@@QEBA@QEADQEBD_K12@Z
pdata	ENDS
;	COMDAT pdata
pdata	SEGMENT
$pdata$??$_Reallocate_grow_by@V<lambda_65e615be2a453ca0576c979606f46740>@@PEBD_K@?$basic_string@DU?$char_traits@D@std@@V?$allocator@D@2@@std@@AEAAAEAV01@_KV<lambda_65e615be2a453ca0576c979606f46740>@@PEBD_K@Z DD imagerel $LN6
	DD	imagerel $LN6+568
	DD	imagerel $unwind$??$_Reallocate_grow_by@V<lambda_65e615be2a453ca0576c979606f46740>@@PEBD_K@?$basic_string@DU?$char_traits@D@std@@V?$allocator@D@2@@std@@AEAAAEAV01@_KV<lambda_65e615be2a453ca0576c979606f46740>@@PEBD_K@Z
pdata	ENDS
;	COMDAT pdata
pdata	SEGMENT
$pdata$??$_Construct_in_place@PEADAEAPEAD@std@@YAXAEAPEAD0@Z DD imagerel $LN3
	DD	imagerel $LN3+111
	DD	imagerel $unwind$??$_Construct_in_place@PEADAEAPEAD@std@@YAXAEAPEAD0@Z
pdata	ENDS
;	COMDAT pdata
pdata	SEGMENT
$pdata$??$_Unfancy@U_Container_proxy@std@@@std@@YAPEAU_Container_proxy@0@PEAU10@@Z DD imagerel $LN3
	DD	imagerel $LN3+48
	DD	imagerel $unwind$??$_Unfancy@U_Container_proxy@std@@@std@@YAPEAU_Container_proxy@0@PEAU10@@Z
pdata	ENDS
;	COMDAT pdata
pdata	SEGMENT
$pdata$??$addressof@U_Container_base12@std@@@std@@YAPEAU_Container_base12@0@AEAU10@@Z DD imagerel $LN3
	DD	imagerel $LN3+48
	DD	imagerel $unwind$??$addressof@U_Container_base12@std@@@std@@YAPEAU_Container_base12@0@AEAU10@@Z
pdata	ENDS
;	COMDAT pdata
pdata	SEGMENT
$pdata$??$_Construct_in_place@U_Container_proxy@std@@PEAU_Container_base12@2@@std@@YAXAEAU_Container_proxy@0@$$QEAPEAU_Container_base12@0@@Z DD imagerel $LN3
	DD	imagerel $LN3+127
	DD	imagerel $unwind$??$_Construct_in_place@U_Container_proxy@std@@PEAU_Container_base12@2@@std@@YAXAEAU_Container_proxy@0@$$QEAPEAU_Container_base12@0@@Z
pdata	ENDS
;	COMDAT pdata
pdata	SEGMENT
$pdata$??$_Deallocate@$0BA@$0A@@std@@YAXPEAX_K@Z DD imagerel $LN4
	DD	imagerel $LN4+98
	DD	imagerel $unwind$??$_Deallocate@$0BA@$0A@@std@@YAXPEAX_K@Z
pdata	ENDS
;	COMDAT pdata
pdata	SEGMENT
$pdata$??$_Allocate@$0BA@U_Default_allocate_traits@std@@$0A@@std@@YAPEAX_K@Z DD imagerel $LN5
	DD	imagerel $LN5+94
	DD	imagerel $unwind$??$_Allocate@$0BA@U_Default_allocate_traits@std@@$0A@@std@@YAPEAX_K@Z
pdata	ENDS
;	COMDAT pdata
pdata	SEGMENT
$pdata$??$addressof@$$CBV?$_String_val@U?$_Simple_types@D@std@@@std@@@std@@YAPEBV?$_String_val@U?$_Simple_types@D@std@@@0@AEBV10@@Z DD imagerel $LN3
	DD	imagerel $LN3+48
	DD	imagerel $unwind$??$addressof@$$CBV?$_String_val@U?$_Simple_types@D@std@@@std@@@std@@YAPEBV?$_String_val@U?$_Simple_types@D@std@@@0@AEBV10@@Z
pdata	ENDS
;	COMDAT pdata
pdata	SEGMENT
$pdata$??$_Get_size_of_n@$0BA@@std@@YA_K_K@Z DD imagerel $LN4
	DD	imagerel $LN4+91
	DD	imagerel $unwind$??$_Get_size_of_n@$0BA@@std@@YA_K_K@Z
pdata	ENDS
;	COMDAT pdata
pdata	SEGMENT
$pdata$??$?XM@?$vec@$03M$0A@@glm@@QEAAAEAU01@M@Z DD imagerel $LN3
	DD	imagerel $LN3+115
	DD	imagerel $unwind$??$?XM@?$vec@$03M$0A@@glm@@QEAAAEAU01@M@Z
pdata	ENDS
;	COMDAT pdata
pdata	SEGMENT
$pdata$?call@?$compute_abs@M$00@detail@glm@@SAMM@Z DD imagerel $LN5
	DD	imagerel $LN5+108
	DD	imagerel $unwind$?call@?$compute_abs@M$00@detail@glm@@SAMM@Z
pdata	ENDS
;	COMDAT pdata
pdata	SEGMENT
$pdata$??$?DM$0A@@glm@@YA?AU?$vec@$03M$0A@@0@AEBU10@0@Z DD imagerel $LN3
	DD	imagerel $LN3+120
	DD	imagerel $unwind$??$?DM$0A@@glm@@YA?AU?$vec@$03M$0A@@0@AEBU10@0@Z
pdata	ENDS
;	COMDAT pdata
pdata	SEGMENT
$pdata$??$?HM$0A@@glm@@YA?AU?$vec@$03M$0A@@0@AEBU10@0@Z DD imagerel $LN3
	DD	imagerel $LN3+120
	DD	imagerel $unwind$??$?HM$0A@@glm@@YA?AU?$vec@$03M$0A@@0@AEBU10@0@Z
pdata	ENDS
;	COMDAT pdata
pdata	SEGMENT
$pdata$??$_Maklocstr@D@std@@YAPEADPEBDPEADAEBU_Cvtvec@@@Z DD imagerel $LN8
	DD	imagerel $LN8+247
	DD	imagerel $unwind$??$_Maklocstr@D@std@@YAPEADPEBDPEADAEBU_Cvtvec@@@Z
pdata	ENDS
;	COMDAT pdata
pdata	SEGMENT
$pdata$?call@?$compute_cross@M$0A@$0A@@detail@glm@@SA?AU?$vec@$02M$0A@@3@AEBU43@0@Z DD imagerel $LN3
	DD	imagerel $LN3+247
	DD	imagerel $unwind$?call@?$compute_cross@M$0A@$0A@@detail@glm@@SA?AU?$vec@$02M$0A@@3@AEBU43@0@Z
pdata	ENDS
;	COMDAT pdata
pdata	SEGMENT
$pdata$?call@?$compute_normalize@$02M$0A@$0A@@detail@glm@@SA?AU?$vec@$02M$0A@@3@AEBU43@@Z DD imagerel $LN3
	DD	imagerel $LN3+99
	DD	imagerel $unwind$?call@?$compute_normalize@$02M$0A@$0A@@detail@glm@@SA?AU?$vec@$02M$0A@@3@AEBU43@@Z
pdata	ENDS
;	COMDAT pdata
pdata	SEGMENT
$pdata$??$perspectiveRH_NO@M@glm@@YA?AU?$mat@$03$03M$0A@@0@MMMM@Z DD imagerel $LN4
	DD	imagerel $LN4+700
	DD	imagerel $unwind$??$perspectiveRH_NO@M@glm@@YA?AU?$mat@$03$03M$0A@@0@MMMM@Z
pdata	ENDS
;	COMDAT pdata
pdata	SEGMENT
$pdata$??$lookAtRH@M$0A@@glm@@YA?AU?$mat@$03$03M$0A@@0@AEBU?$vec@$02M$0A@@0@00@Z DD imagerel $LN3
	DD	imagerel $LN3+1036
	DD	imagerel $unwind$??$lookAtRH@M$0A@@glm@@YA?AU?$mat@$03$03M$0A@@0@AEBU?$vec@$02M$0A@@0@00@Z
pdata	ENDS
;	COMDAT pdata
pdata	SEGMENT
$pdata$??$forward@V<lambda_bf6ca281e462b82a5894b37d6cd34b2f>@@@std@@YA$$QEAV<lambda_bf6ca281e462b82a5894b37d6cd34b2f>@@AEAV1@@Z DD imagerel ??$forward@V<lambda_bf6ca281e462b82a5894b37d6cd34b2f>@@@std@@YA$$QEAV<lambda_bf6ca281e462b82a5894b37d6cd34b2f>@@AEAV1@@Z
	DD	imagerel ??$forward@V<lambda_bf6ca281e462b82a5894b37d6cd34b2f>@@@std@@YA$$QEAV<lambda_bf6ca281e462b82a5894b37d6cd34b2f>@@AEAV1@@Z+48
	DD	imagerel $unwind$??$forward@V<lambda_bf6ca281e462b82a5894b37d6cd34b2f>@@@std@@YA$$QEAV<lambda_bf6ca281e462b82a5894b37d6cd34b2f>@@AEAV1@@Z
pdata	ENDS
;	COMDAT pdata
pdata	SEGMENT
$pdata$??$forward@V<lambda_2d00a5b31fb0ddb685a7e903646d6657>@@@std@@YA$$QEAV<lambda_2d00a5b31fb0ddb685a7e903646d6657>@@AEAV1@@Z DD imagerel ??$forward@V<lambda_2d00a5b31fb0ddb685a7e903646d6657>@@@std@@YA$$QEAV<lambda_2d00a5b31fb0ddb685a7e903646d6657>@@AEAV1@@Z
	DD	imagerel ??$forward@V<lambda_2d00a5b31fb0ddb685a7e903646d6657>@@@std@@YA$$QEAV<lambda_2d00a5b31fb0ddb685a7e903646d6657>@@AEAV1@@Z+48
	DD	imagerel $unwind$??$forward@V<lambda_2d00a5b31fb0ddb685a7e903646d6657>@@@std@@YA$$QEAV<lambda_2d00a5b31fb0ddb685a7e903646d6657>@@AEAV1@@Z
pdata	ENDS
;	COMDAT pdata
pdata	SEGMENT
$pdata$??$_Deallocate_plain@V?$allocator@U_Container_proxy@std@@@std@@@std@@YAXAEAV?$allocator@U_Container_proxy@std@@@0@QEAU_Container_proxy@0@@Z DD imagerel $LN3
	DD	imagerel $LN3+72
	DD	imagerel $unwind$??$_Deallocate_plain@V?$allocator@U_Container_proxy@std@@@std@@@std@@YAXAEAV?$allocator@U_Container_proxy@std@@@0@QEAU_Container_proxy@0@@Z
pdata	ENDS
;	COMDAT pdata
pdata	SEGMENT
$pdata$??$forward@AEBV?$allocator@UVkLayerProperties@@@std@@@std@@YAAEBV?$allocator@UVkLayerProperties@@@0@AEBV10@@Z DD imagerel $LN3
	DD	imagerel $LN3+48
	DD	imagerel $unwind$??$forward@AEBV?$allocator@UVkLayerProperties@@@std@@@std@@YAAEBV?$allocator@UVkLayerProperties@@@0@AEBV10@@Z
pdata	ENDS
;	COMDAT pdata
pdata	SEGMENT
$pdata$??1?$_Tidy_guard@V?$vector@UVkLayerProperties@@V?$allocator@UVkLayerProperties@@@std@@@std@@@std@@QEAA@XZ DD imagerel $LN4
	DD	imagerel $LN4+69
	DD	imagerel $unwind$??1?$_Tidy_guard@V?$vector@UVkLayerProperties@@V?$allocator@UVkLayerProperties@@@std@@@std@@@std@@QEAA@XZ
pdata	ENDS
;	COMDAT pdata
pdata	SEGMENT
$pdata$??$_Uninitialized_value_construct_n@V?$allocator@UVkLayerProperties@@@std@@@std@@YAPEAUVkLayerProperties@@PEAU1@_KAEAV?$allocator@UVkLayerProperties@@@0@@Z DD imagerel $LN7
	DD	imagerel $LN7+240
	DD	imagerel $unwind$??$_Uninitialized_value_construct_n@V?$allocator@UVkLayerProperties@@@std@@@std@@YAPEAUVkLayerProperties@@PEAU1@_KAEAV?$allocator@UVkLayerProperties@@@0@@Z
pdata	ENDS
;	COMDAT pdata
pdata	SEGMENT
$pdata$?dtor$0@?0???$_Uninitialized_value_construct_n@V?$allocator@UVkLayerProperties@@@std@@@std@@YAPEAUVkLayerProperties@@PEAU1@_KAEAV?$allocator@UVkLayerProperties@@@0@@Z@4HA DD imagerel ?dtor$0@?0???$_Uninitialized_value_construct_n@V?$allocator@UVkLayerProperties@@@std@@@std@@YAPEAUVkLayerProperties@@PEAU1@_KAEAV?$allocator@UVkLayerProperties@@@0@@Z@4HA
	DD	imagerel ?dtor$0@?0???$_Uninitialized_value_construct_n@V?$allocator@UVkLayerProperties@@@std@@@std@@YAPEAUVkLayerProperties@@PEAU1@_KAEAV?$allocator@UVkLayerProperties@@@0@@Z@4HA+36
	DD	imagerel $unwind$?dtor$0@?0???$_Uninitialized_value_construct_n@V?$allocator@UVkLayerProperties@@@std@@@std@@YAPEAUVkLayerProperties@@PEAU1@_KAEAV?$allocator@UVkLayerProperties@@@0@@Z@4HA
pdata	ENDS
;	COMDAT pdata
pdata	SEGMENT
$pdata$??$forward@AEBV?$allocator@PEBD@std@@@std@@YAAEBV?$allocator@PEBD@0@AEBV10@@Z DD imagerel $LN3
	DD	imagerel $LN3+48
	DD	imagerel $unwind$??$forward@AEBV?$allocator@PEBD@std@@@std@@YAAEBV?$allocator@PEBD@0@AEBV10@@Z
pdata	ENDS
;	COMDAT pdata
pdata	SEGMENT
$pdata$??1?$_Tidy_guard@V?$vector@PEBDV?$allocator@PEBD@std@@@std@@@std@@QEAA@XZ DD imagerel $LN4
	DD	imagerel $LN4+69
	DD	imagerel $unwind$??1?$_Tidy_guard@V?$vector@PEBDV?$allocator@PEBD@std@@@std@@@std@@QEAA@XZ
pdata	ENDS
;	COMDAT pdata
pdata	SEGMENT
$pdata$??$forward@PEBQEBD@std@@YA$$QEAPEBQEBDAEAPEBQEBD@Z DD imagerel $LN3
	DD	imagerel $LN3+48
	DD	imagerel $unwind$??$forward@PEBQEBD@std@@YA$$QEAPEBQEBDAEAPEBQEBD@Z
pdata	ENDS
;	COMDAT pdata
pdata	SEGMENT
$pdata$??$_Uninitialized_copy@PEBQEBDV?$allocator@PEBD@std@@@std@@YAPEAPEBDQEBQEBD0PEAPEBDAEAV?$allocator@PEBD@0@@Z DD imagerel $LN7
	DD	imagerel $LN7+348
	DD	imagerel $unwind$??$_Uninitialized_copy@PEBQEBDV?$allocator@PEBD@std@@@std@@YAPEAPEBDQEBQEBD0PEAPEBDAEAV?$allocator@PEBD@0@@Z
pdata	ENDS
;	COMDAT pdata
pdata	SEGMENT
$pdata$?dtor$0@?0???$_Uninitialized_copy@PEBQEBDV?$allocator@PEBD@std@@@std@@YAPEAPEBDQEBQEBD0PEAPEBDAEAV?$allocator@PEBD@0@@Z@4HA DD imagerel ?dtor$0@?0???$_Uninitialized_copy@PEBQEBDV?$allocator@PEBD@std@@@std@@YAPEAPEBDQEBQEBD0PEAPEBDAEAV?$allocator@PEBD@0@@Z@4HA
	DD	imagerel ?dtor$0@?0???$_Uninitialized_copy@PEBQEBDV?$allocator@PEBD@std@@@std@@YAPEAPEBDQEBQEBD0PEAPEBDAEAV?$allocator@PEBD@0@@Z@4HA+36
	DD	imagerel $unwind$?dtor$0@?0???$_Uninitialized_copy@PEBQEBDV?$allocator@PEBD@std@@@std@@YAPEAPEBDQEBQEBD0PEAPEBDAEAV?$allocator@PEBD@0@@Z@4HA
pdata	ENDS
;	COMDAT pdata
pdata	SEGMENT
$pdata$??$_Construct_in_place@PEADAEBQEAD@std@@YAXAEAPEADAEBQEAD@Z DD imagerel $LN3
	DD	imagerel $LN3+111
	DD	imagerel $unwind$??$_Construct_in_place@PEADAEBQEAD@std@@YAXAEAPEADAEBQEAD@Z
pdata	ENDS
;	COMDAT pdata
pdata	SEGMENT
$pdata$??$forward@V?$allocator@D@std@@@std@@YA$$QEAV?$allocator@D@0@AEAV10@@Z DD imagerel $LN3
	DD	imagerel $LN3+48
	DD	imagerel $unwind$??$forward@V?$allocator@D@std@@@std@@YA$$QEAV?$allocator@D@0@AEAV10@@Z
pdata	ENDS
;	COMDAT pdata
pdata	SEGMENT
$pdata$??$_Unfancy@VMesh@@@std@@YAPEAVMesh@@PEAV1@@Z DD imagerel $LN3
	DD	imagerel $LN3+48
	DD	imagerel $unwind$??$_Unfancy@VMesh@@@std@@YAPEAVMesh@@PEAV1@@Z
pdata	ENDS
;	COMDAT pdata
pdata	SEGMENT
$pdata$??$destroy@VMesh@@@?$_Default_allocator_traits@V?$allocator@VMesh@@@std@@@std@@SAXAEAV?$allocator@VMesh@@@1@QEAVMesh@@@Z DD imagerel $LN3
	DD	imagerel $LN3+60
	DD	imagerel $unwind$??$destroy@VMesh@@@?$_Default_allocator_traits@V?$allocator@VMesh@@@std@@@std@@SAXAEAV?$allocator@VMesh@@@1@QEAVMesh@@@Z
pdata	ENDS
;	COMDAT pdata
pdata	SEGMENT
$pdata$??$addressof@PEAD@std@@YAPEAPEADAEAPEAD@Z DD imagerel $LN3
	DD	imagerel $LN3+48
	DD	imagerel $unwind$??$addressof@PEAD@std@@YAPEAPEADAEAPEAD@Z
pdata	ENDS
;	COMDAT pdata
pdata	SEGMENT
$pdata$??$_Voidify_iter@PEAPEAD@std@@YAPEAXPEAPEAD@Z DD imagerel $LN3
	DD	imagerel $LN3+48
	DD	imagerel $unwind$??$_Voidify_iter@PEAPEAD@std@@YAPEAXPEAPEAD@Z
pdata	ENDS
;	COMDAT pdata
pdata	SEGMENT
$pdata$??$forward@AEAPEAD@std@@YAAEAPEADAEAPEAD@Z DD imagerel $LN3
	DD	imagerel $LN3+48
	DD	imagerel $unwind$??$forward@AEAPEAD@std@@YAAEAPEADAEAPEAD@Z
pdata	ENDS
;	COMDAT pdata
pdata	SEGMENT
$pdata$??$addressof@U_Container_proxy@std@@@std@@YAPEAU_Container_proxy@0@AEAU10@@Z DD imagerel $LN3
	DD	imagerel $LN3+48
	DD	imagerel $unwind$??$addressof@U_Container_proxy@std@@@std@@YAPEAU_Container_proxy@0@AEAU10@@Z
pdata	ENDS
;	COMDAT pdata
pdata	SEGMENT
$pdata$??$_Voidify_iter@PEAU_Container_proxy@std@@@std@@YAPEAXPEAU_Container_proxy@0@@Z DD imagerel $LN3
	DD	imagerel $LN3+48
	DD	imagerel $unwind$??$_Voidify_iter@PEAU_Container_proxy@std@@@std@@YAPEAXPEAU_Container_proxy@0@@Z
pdata	ENDS
;	COMDAT pdata
pdata	SEGMENT
$pdata$??$forward@PEAU_Container_base12@std@@@std@@YA$$QEAPEAU_Container_base12@0@AEAPEAU10@@Z DD imagerel $LN3
	DD	imagerel $LN3+48
	DD	imagerel $unwind$??$forward@PEAU_Container_base12@std@@@std@@YA$$QEAPEAU_Container_base12@0@AEAPEAU10@@Z
pdata	ENDS
;	COMDAT pdata
pdata	SEGMENT
$pdata$??$_Allocate_manually_vector_aligned@U_Default_allocate_traits@std@@@std@@YAPEAX_K@Z DD imagerel $LN13
	DD	imagerel $LN13+277
	DD	imagerel $unwind$??$_Allocate_manually_vector_aligned@U_Default_allocate_traits@std@@@std@@YAPEAX_K@Z
pdata	ENDS
;	COMDAT pdata
pdata	SEGMENT
$pdata$??$dot@$02M$0A@@glm@@YAMAEBU?$vec@$02M$0A@@0@0@Z DD imagerel $LN3
	DD	imagerel $LN3+65
	DD	imagerel $unwind$??$dot@$02M$0A@@glm@@YAMAEBU?$vec@$02M$0A@@0@0@Z
pdata	ENDS
;	COMDAT pdata
pdata	SEGMENT
$pdata$??$inversesqrt@M@glm@@YAMM@Z DD imagerel $LN3
	DD	imagerel $LN3+70
	DD	imagerel $unwind$??$inversesqrt@M@glm@@YAMM@Z
pdata	ENDS
;	COMDAT pdata
pdata	SEGMENT
$pdata$??$?0AEBV?$allocator@D@std@@$$V@?$_Compressed_pair@V?$allocator@D@std@@V?$_String_val@U?$_Simple_types@D@std@@@2@$00@std@@QEAA@U_One_then_variadic_args_t@1@AEBV?$allocator@D@1@@Z DD imagerel $LN3
	DD	imagerel $LN3+84
	DD	imagerel $unwind$??$?0AEBV?$allocator@D@std@@$$V@?$_Compressed_pair@V?$allocator@D@std@@V?$_String_val@U?$_Simple_types@D@std@@@2@$00@std@@QEAA@U_One_then_variadic_args_t@1@AEBV?$allocator@D@1@@Z
pdata	ENDS
;	COMDAT pdata
pdata	SEGMENT
$pdata$??$_Get_size_of_n@$00@std@@YA_K_K@Z DD imagerel $LN3
	DD	imagerel $LN3+52
	DD	imagerel $unwind$??$_Get_size_of_n@$00@std@@YA_K_K@Z
pdata	ENDS
;	COMDAT pdata
pdata	SEGMENT
$pdata$??$move@AEAV?$_Func_class@XPEAX@std@@@std@@YA$$QEAV?$_Func_class@XPEAX@0@AEAV10@@Z DD imagerel $LN3
	DD	imagerel $LN3+48
	DD	imagerel $unwind$??$move@AEAV?$_Func_class@XPEAX@std@@@std@@YA$$QEAV?$_Func_class@XPEAX@0@AEAV10@@Z
pdata	ENDS
;	COMDAT pdata
pdata	SEGMENT
$pdata$??0?$_Func_base@XPEAX@std@@QEAA@XZ DD imagerel $LN3
	DD	imagerel $LN3+48
	DD	imagerel $unwind$??0?$_Func_base@XPEAX@std@@QEAA@XZ
pdata	ENDS
;	COMDAT pdata
pdata	SEGMENT
$pdata$??$move@AEAV?$_Func_class@PEAXPEAEHHD@std@@@std@@YA$$QEAV?$_Func_class@PEAXPEAEHHD@0@AEAV10@@Z DD imagerel $LN3
	DD	imagerel $LN3+48
	DD	imagerel $unwind$??$move@AEAV?$_Func_class@PEAXPEAEHHD@std@@@std@@YA$$QEAV?$_Func_class@PEAXPEAEHHD@0@AEAV10@@Z
pdata	ENDS
;	COMDAT pdata
pdata	SEGMENT
$pdata$??0?$_Func_base@PEAXPEAEHHD@std@@QEAA@XZ DD imagerel $LN3
	DD	imagerel $LN3+48
	DD	imagerel $unwind$??0?$_Func_base@PEAXPEAEHHD@std@@QEAA@XZ
pdata	ENDS
;	COMDAT pdata
pdata	SEGMENT
$pdata$??$_Get_size_of_n@$0CAI@@std@@YA_K_K@Z DD imagerel $LN4
	DD	imagerel $LN4+94
	DD	imagerel $unwind$??$_Get_size_of_n@$0CAI@@std@@YA_K_K@Z
pdata	ENDS
;	COMDAT pdata
pdata	SEGMENT
$pdata$??$_Get_size_of_n@$07@std@@YA_K_K@Z DD imagerel $LN4
	DD	imagerel $LN4+94
	DD	imagerel $unwind$??$_Get_size_of_n@$07@std@@YA_K_K@Z
pdata	ENDS
;	COMDAT pdata
pdata	SEGMENT
$pdata$??$_Reset@V<lambda_bf6ca281e462b82a5894b37d6cd34b2f>@@@?$_Func_class@PEAXPEAEHHD@std@@IEAAX$$QEAV<lambda_bf6ca281e462b82a5894b37d6cd34b2f>@@@Z DD imagerel ??$_Reset@V<lambda_bf6ca281e462b82a5894b37d6cd34b2f>@@@?$_Func_class@PEAXPEAEHHD@std@@IEAAX$$QEAV<lambda_bf6ca281e462b82a5894b37d6cd34b2f>@@@Z
	DD	imagerel ??$_Reset@V<lambda_bf6ca281e462b82a5894b37d6cd34b2f>@@@?$_Func_class@PEAXPEAEHHD@std@@IEAAX$$QEAV<lambda_bf6ca281e462b82a5894b37d6cd34b2f>@@@Z+147
	DD	imagerel $unwind$??$_Reset@V<lambda_bf6ca281e462b82a5894b37d6cd34b2f>@@@?$_Func_class@PEAXPEAEHHD@std@@IEAAX$$QEAV<lambda_bf6ca281e462b82a5894b37d6cd34b2f>@@@Z
pdata	ENDS
;	COMDAT pdata
pdata	SEGMENT
$pdata$??$_Reset@V<lambda_2d00a5b31fb0ddb685a7e903646d6657>@@@?$_Func_class@XPEAX@std@@IEAAX$$QEAV<lambda_2d00a5b31fb0ddb685a7e903646d6657>@@@Z DD imagerel ??$_Reset@V<lambda_2d00a5b31fb0ddb685a7e903646d6657>@@@?$_Func_class@XPEAX@std@@IEAAX$$QEAV<lambda_2d00a5b31fb0ddb685a7e903646d6657>@@@Z
	DD	imagerel ??$_Reset@V<lambda_2d00a5b31fb0ddb685a7e903646d6657>@@@?$_Func_class@XPEAX@std@@IEAAX$$QEAV<lambda_2d00a5b31fb0ddb685a7e903646d6657>@@@Z+147
	DD	imagerel $unwind$??$_Reset@V<lambda_2d00a5b31fb0ddb685a7e903646d6657>@@@?$_Func_class@XPEAX@std@@IEAAX$$QEAV<lambda_2d00a5b31fb0ddb685a7e903646d6657>@@@Z
pdata	ENDS
;	COMDAT pdata
pdata	SEGMENT
$pdata$?call@?$compute_vec4_mul@M$0A@$0A@@detail@glm@@SA?AU?$vec@$03M$0A@@3@AEBU43@0@Z DD imagerel $LN3
	DD	imagerel $LN3+192
	DD	imagerel $unwind$?call@?$compute_vec4_mul@M$0A@$0A@@detail@glm@@SA?AU?$vec@$03M$0A@@3@AEBU43@0@Z
pdata	ENDS
;	COMDAT pdata
pdata	SEGMENT
$pdata$??$?XM@?$vec@$03M$0A@@glm@@QEAAAEAU01@AEBU01@@Z DD imagerel $LN3
	DD	imagerel $LN3+122
	DD	imagerel $unwind$??$?XM@?$vec@$03M$0A@@glm@@QEAAAEAU01@AEBU01@@Z
pdata	ENDS
;	COMDAT pdata
pdata	SEGMENT
$pdata$??$?YM@?$vec@$03M$0A@@glm@@QEAAAEAU01@AEBU01@@Z DD imagerel $LN3
	DD	imagerel $LN3+122
	DD	imagerel $unwind$??$?YM@?$vec@$03M$0A@@glm@@QEAAAEAU01@AEBU01@@Z
pdata	ENDS
;	COMDAT pdata
pdata	SEGMENT
$pdata$??$?GM$0A@@glm@@YA?AU?$vec@$02M$0A@@0@AEBU10@0@Z DD imagerel $LN3
	DD	imagerel $LN3+165
	DD	imagerel $unwind$??$?GM$0A@@glm@@YA?AU?$vec@$02M$0A@@0@AEBU10@0@Z
pdata	ENDS
;	COMDAT pdata
pdata	SEGMENT
$pdata$?deallocate@?$_Default_allocator_traits@V?$allocator@U_Container_proxy@std@@@std@@@std@@SAXAEAV?$allocator@U_Container_proxy@std@@@2@QEAU_Container_proxy@2@_K@Z DD imagerel $LN3
	DD	imagerel $LN3+74
	DD	imagerel $unwind$?deallocate@?$_Default_allocator_traits@V?$allocator@U_Container_proxy@std@@@std@@@std@@SAXAEAV?$allocator@U_Container_proxy@std@@@2@QEAU_Container_proxy@2@_K@Z
pdata	ENDS
;	COMDAT pdata
pdata	SEGMENT
$pdata$??0?$_Uninitialized_backout_al@V?$allocator@UVkLayerProperties@@@std@@@std@@QEAA@PEAUVkLayerProperties@@AEAV?$allocator@UVkLayerProperties@@@1@@Z DD imagerel $LN3
	DD	imagerel $LN3+111
	DD	imagerel $unwind$??0?$_Uninitialized_backout_al@V?$allocator@UVkLayerProperties@@@std@@@std@@QEAA@PEAUVkLayerProperties@@AEAV?$allocator@UVkLayerProperties@@@1@@Z
pdata	ENDS
;	COMDAT pdata
pdata	SEGMENT
$pdata$??1?$_Uninitialized_backout_al@V?$allocator@UVkLayerProperties@@@std@@@std@@QEAA@XZ DD imagerel $LN3
	DD	imagerel $LN3+78
	DD	imagerel $unwind$??1?$_Uninitialized_backout_al@V?$allocator@UVkLayerProperties@@@std@@@std@@QEAA@XZ
pdata	ENDS
;	COMDAT pdata
pdata	SEGMENT
$pdata$?_Release@?$_Uninitialized_backout_al@V?$allocator@UVkLayerProperties@@@std@@@std@@QEAAPEAUVkLayerProperties@@XZ DD imagerel $LN3
	DD	imagerel $LN3+73
	DD	imagerel $unwind$?_Release@?$_Uninitialized_backout_al@V?$allocator@UVkLayerProperties@@@std@@@std@@QEAAPEAUVkLayerProperties@@XZ
pdata	ENDS
;	COMDAT pdata
pdata	SEGMENT
$pdata$?__autoclassinit2@?$_Uninitialized_backout_al@V?$allocator@UVkLayerProperties@@@std@@@std@@QEAAX_K@Z DD imagerel $LN3
	DD	imagerel $LN3+50
	DD	imagerel $unwind$?__autoclassinit2@?$_Uninitialized_backout_al@V?$allocator@UVkLayerProperties@@@std@@@std@@QEAAX_K@Z
pdata	ENDS
;	COMDAT pdata
pdata	SEGMENT
$pdata$??$_Emplace_back@$$V@?$_Uninitialized_backout_al@V?$allocator@UVkLayerProperties@@@std@@@std@@QEAAXXZ DD imagerel $LN3
	DD	imagerel $LN3+129
	DD	imagerel $unwind$??$_Emplace_back@$$V@?$_Uninitialized_backout_al@V?$allocator@UVkLayerProperties@@@std@@@std@@QEAAXXZ
pdata	ENDS
;	COMDAT pdata
pdata	SEGMENT
$pdata$??$_Get_unwrapped@AEBQEBQEBD@std@@YA?A_TAEBQEBQEBD@Z DD imagerel $LN3
	DD	imagerel $LN3+51
	DD	imagerel $unwind$??$_Get_unwrapped@AEBQEBQEBD@std@@YA?A_TAEBQEBQEBD@Z
pdata	ENDS
;	COMDAT pdata
pdata	SEGMENT
$pdata$??$_Unfancy@PEBD@std@@YAPEAPEBDPEAPEBD@Z DD imagerel $LN3
	DD	imagerel $LN3+48
	DD	imagerel $unwind$??$_Unfancy@PEBD@std@@YAPEAPEBDPEAPEBD@Z
pdata	ENDS
;	COMDAT pdata
pdata	SEGMENT
$pdata$??$_Copy_memmove@PEBQEBDPEAPEBD@std@@YAPEAPEBDPEBQEBD0PEAPEBD@Z DD imagerel $LN3
	DD	imagerel $LN3+196
	DD	imagerel $unwind$??$_Copy_memmove@PEBQEBDPEAPEBD@std@@YAPEAPEBDPEBQEBD0PEAPEBD@Z
pdata	ENDS
;	COMDAT pdata
pdata	SEGMENT
$pdata$??0?$_Uninitialized_backout_al@V?$allocator@PEBD@std@@@std@@QEAA@PEAPEBDAEAV?$allocator@PEBD@1@@Z DD imagerel $LN3
	DD	imagerel $LN3+111
	DD	imagerel $unwind$??0?$_Uninitialized_backout_al@V?$allocator@PEBD@std@@@std@@QEAA@PEAPEBDAEAV?$allocator@PEBD@1@@Z
pdata	ENDS
;	COMDAT pdata
pdata	SEGMENT
$pdata$??1?$_Uninitialized_backout_al@V?$allocator@PEBD@std@@@std@@QEAA@XZ DD imagerel $LN3
	DD	imagerel $LN3+78
	DD	imagerel $unwind$??1?$_Uninitialized_backout_al@V?$allocator@PEBD@std@@@std@@QEAA@XZ
pdata	ENDS
;	COMDAT pdata
pdata	SEGMENT
$pdata$?_Release@?$_Uninitialized_backout_al@V?$allocator@PEBD@std@@@std@@QEAAPEAPEBDXZ DD imagerel $LN3
	DD	imagerel $LN3+73
	DD	imagerel $unwind$?_Release@?$_Uninitialized_backout_al@V?$allocator@PEBD@std@@@std@@QEAAPEAPEBDXZ
pdata	ENDS
;	COMDAT pdata
pdata	SEGMENT
$pdata$?__autoclassinit2@?$_Uninitialized_backout_al@V?$allocator@PEBD@std@@@std@@QEAAX_K@Z DD imagerel $LN3
	DD	imagerel $LN3+50
	DD	imagerel $unwind$?__autoclassinit2@?$_Uninitialized_backout_al@V?$allocator@PEBD@std@@@std@@QEAAX_K@Z
pdata	ENDS
;	COMDAT pdata
pdata	SEGMENT
$pdata$??$_Emplace_back@AEBQEBD@?$_Uninitialized_backout_al@V?$allocator@PEBD@std@@@std@@QEAAXAEBQEBD@Z DD imagerel $LN3
	DD	imagerel $LN3+158
	DD	imagerel $unwind$??$_Emplace_back@AEBQEBD@?$_Uninitialized_backout_al@V?$allocator@PEBD@std@@@std@@QEAAXAEBQEBD@Z
pdata	ENDS
;	COMDAT pdata
pdata	SEGMENT
$pdata$??$forward@AEBQEAD@std@@YAAEBQEADAEBQEAD@Z DD imagerel $LN3
	DD	imagerel $LN3+48
	DD	imagerel $unwind$??$forward@AEBQEAD@std@@YAAEBQEADAEBQEAD@Z
pdata	ENDS
;	COMDAT pdata
pdata	SEGMENT
$pdata$?call@?$compute_dot@U?$vec@$02M$0A@@glm@@M$0A@@detail@glm@@SAMAEBU?$vec@$02M$0A@@3@0@Z DD imagerel $LN3
	DD	imagerel $LN3+169
	DD	imagerel $unwind$?call@?$compute_dot@U?$vec@$02M$0A@@glm@@M$0A@@detail@glm@@SAMAEBU?$vec@$02M$0A@@3@0@Z
pdata	ENDS
;	COMDAT pdata
pdata	SEGMENT
$pdata$??$forward@AEBV?$allocator@D@std@@@std@@YAAEBV?$allocator@D@0@AEBV10@@Z DD imagerel $LN3
	DD	imagerel $LN3+48
	DD	imagerel $unwind$??$forward@AEBV?$allocator@D@std@@@std@@YAAEBV?$allocator@D@0@AEBV10@@Z
pdata	ENDS
;	COMDAT pdata
pdata	SEGMENT
$pdata$??$?DM$0A@@glm@@YA?AU?$vec@$02M$0A@@0@AEBU10@0@Z DD imagerel $LN3
	DD	imagerel $LN3+165
	DD	imagerel $unwind$??$?DM$0A@@glm@@YA?AU?$vec@$02M$0A@@0@AEBU10@0@Z
pdata	ENDS
;	COMDAT pdata
pdata	SEGMENT
$pdata$??$?0UTexture@@@?$allocator@U_Container_proxy@std@@@std@@QEAA@AEBV?$allocator@UTexture@@@1@@Z DD imagerel $LN3
	DD	imagerel $LN3+53
	DD	imagerel $unwind$??$?0UTexture@@@?$allocator@U_Container_proxy@std@@@std@@QEAA@AEBV?$allocator@UTexture@@@1@@Z
pdata	ENDS
;	COMDAT pdata
pdata	SEGMENT
$pdata$??$_Destroy_range@V?$allocator@UTexture@@@std@@@std@@YAXPEAUTexture@@QEAU1@AEAV?$allocator@UTexture@@@0@@Z DD imagerel $LN6
	DD	imagerel $LN6+116
	DD	imagerel $unwind$??$_Destroy_range@V?$allocator@UTexture@@@std@@@std@@YAXPEAUTexture@@QEAU1@AEAV?$allocator@UTexture@@@0@@Z
pdata	ENDS
;	COMDAT pdata
pdata	SEGMENT
$pdata$??$_Test_callable@V<lambda_bf6ca281e462b82a5894b37d6cd34b2f>@@@std@@YA_NAEBV<lambda_bf6ca281e462b82a5894b37d6cd34b2f>@@@Z DD imagerel ??$_Test_callable@V<lambda_bf6ca281e462b82a5894b37d6cd34b2f>@@@std@@YA_NAEBV<lambda_bf6ca281e462b82a5894b37d6cd34b2f>@@@Z
	DD	imagerel ??$_Test_callable@V<lambda_bf6ca281e462b82a5894b37d6cd34b2f>@@@std@@YA_NAEBV<lambda_bf6ca281e462b82a5894b37d6cd34b2f>@@@Z+43
	DD	imagerel $unwind$??$_Test_callable@V<lambda_bf6ca281e462b82a5894b37d6cd34b2f>@@@std@@YA_NAEBV<lambda_bf6ca281e462b82a5894b37d6cd34b2f>@@@Z
pdata	ENDS
;	COMDAT pdata
pdata	SEGMENT
$pdata$?_Copy@?$_Func_impl_no_alloc@V<lambda_bf6ca281e462b82a5894b37d6cd34b2f>@@PEAXPEAEHHD@std@@EEBAPEAV?$_Func_base@PEAXPEAEHHD@2@PEAX@Z DD imagerel ?_Copy@?$_Func_impl_no_alloc@V<lambda_bf6ca281e462b82a5894b37d6cd34b2f>@@PEAXPEAEHHD@std@@EEBAPEAV?$_Func_base@PEAXPEAEHHD@2@PEAX@Z
	DD	imagerel ?_Copy@?$_Func_impl_no_alloc@V<lambda_bf6ca281e462b82a5894b37d6cd34b2f>@@PEAXPEAEHHD@std@@EEBAPEAV?$_Func_base@PEAXPEAEHHD@2@PEAX@Z+96
	DD	imagerel $unwind$?_Copy@?$_Func_impl_no_alloc@V<lambda_bf6ca281e462b82a5894b37d6cd34b2f>@@PEAXPEAEHHD@std@@EEBAPEAV?$_Func_base@PEAXPEAEHHD@2@PEAX@Z
pdata	ENDS
;	COMDAT pdata
pdata	SEGMENT
$pdata$?_Move@?$_Func_impl_no_alloc@V<lambda_bf6ca281e462b82a5894b37d6cd34b2f>@@PEAXPEAEHHD@std@@EEAAPEAV?$_Func_base@PEAXPEAEHHD@2@PEAX@Z DD imagerel ?_Move@?$_Func_impl_no_alloc@V<lambda_bf6ca281e462b82a5894b37d6cd34b2f>@@PEAXPEAEHHD@std@@EEAAPEAV?$_Func_base@PEAXPEAEHHD@2@PEAX@Z
	DD	imagerel ?_Move@?$_Func_impl_no_alloc@V<lambda_bf6ca281e462b82a5894b37d6cd34b2f>@@PEAXPEAEHHD@std@@EEAAPEAV?$_Func_base@PEAXPEAEHHD@2@PEAX@Z+116
	DD	imagerel $unwind$?_Move@?$_Func_impl_no_alloc@V<lambda_bf6ca281e462b82a5894b37d6cd34b2f>@@PEAXPEAEHHD@std@@EEAAPEAV?$_Func_base@PEAXPEAEHHD@2@PEAX@Z
pdata	ENDS
;	COMDAT pdata
pdata	SEGMENT
$pdata$?_Do_call@?$_Func_impl_no_alloc@V<lambda_bf6ca281e462b82a5894b37d6cd34b2f>@@PEAXPEAEHHD@std@@EEAAPEAX$$QEAPEAE$$QEAH1$$QEAD@Z DD imagerel ?_Do_call@?$_Func_impl_no_alloc@V<lambda_bf6ca281e462b82a5894b37d6cd34b2f>@@PEAXPEAEHHD@std@@EEAAPEAX$$QEAPEAE$$QEAH1$$QEAD@Z
	DD	imagerel ?_Do_call@?$_Func_impl_no_alloc@V<lambda_bf6ca281e462b82a5894b37d6cd34b2f>@@PEAXPEAEHHD@std@@EEAAPEAX$$QEAPEAE$$QEAH1$$QEAD@Z+184
	DD	imagerel $unwind$?_Do_call@?$_Func_impl_no_alloc@V<lambda_bf6ca281e462b82a5894b37d6cd34b2f>@@PEAXPEAEHHD@std@@EEAAPEAX$$QEAPEAE$$QEAH1$$QEAD@Z
pdata	ENDS
;	COMDAT pdata
pdata	SEGMENT
$pdata$?_Target_type@?$_Func_impl_no_alloc@V<lambda_bf6ca281e462b82a5894b37d6cd34b2f>@@PEAXPEAEHHD@std@@EEBAAEBVtype_info@@XZ DD imagerel ?_Target_type@?$_Func_impl_no_alloc@V<lambda_bf6ca281e462b82a5894b37d6cd34b2f>@@PEAXPEAEHHD@std@@EEBAAEBVtype_info@@XZ
	DD	imagerel ?_Target_type@?$_Func_impl_no_alloc@V<lambda_bf6ca281e462b82a5894b37d6cd34b2f>@@PEAXPEAEHHD@std@@EEBAAEBVtype_info@@XZ+48
	DD	imagerel $unwind$?_Target_type@?$_Func_impl_no_alloc@V<lambda_bf6ca281e462b82a5894b37d6cd34b2f>@@PEAXPEAEHHD@std@@EEBAAEBVtype_info@@XZ
pdata	ENDS
;	COMDAT pdata
pdata	SEGMENT
$pdata$?_Get@?$_Func_impl_no_alloc@V<lambda_bf6ca281e462b82a5894b37d6cd34b2f>@@PEAXPEAEHHD@std@@EEBAPEBXXZ DD imagerel ?_Get@?$_Func_impl_no_alloc@V<lambda_bf6ca281e462b82a5894b37d6cd34b2f>@@PEAXPEAEHHD@std@@EEBAPEBXXZ
	DD	imagerel ?_Get@?$_Func_impl_no_alloc@V<lambda_bf6ca281e462b82a5894b37d6cd34b2f>@@PEAXPEAEHHD@std@@EEBAPEBXXZ+60
	DD	imagerel $unwind$?_Get@?$_Func_impl_no_alloc@V<lambda_bf6ca281e462b82a5894b37d6cd34b2f>@@PEAXPEAEHHD@std@@EEBAPEBXXZ
pdata	ENDS
;	COMDAT pdata
pdata	SEGMENT
$pdata$?_Delete_this@?$_Func_impl_no_alloc@V<lambda_bf6ca281e462b82a5894b37d6cd34b2f>@@PEAXPEAEHHD@std@@EEAAX_N@Z DD imagerel ?_Delete_this@?$_Func_impl_no_alloc@V<lambda_bf6ca281e462b82a5894b37d6cd34b2f>@@PEAXPEAEHHD@std@@EEAAX_N@Z
	DD	imagerel ?_Delete_this@?$_Func_impl_no_alloc@V<lambda_bf6ca281e462b82a5894b37d6cd34b2f>@@PEAXPEAEHHD@std@@EEAAX_N@Z+73
	DD	imagerel $unwind$?_Delete_this@?$_Func_impl_no_alloc@V<lambda_bf6ca281e462b82a5894b37d6cd34b2f>@@PEAXPEAEHHD@std@@EEAAX_N@Z
pdata	ENDS
;	COMDAT pdata
pdata	SEGMENT
$pdata$??$?0V<lambda_bf6ca281e462b82a5894b37d6cd34b2f>@@$0A@@?$_Func_impl_no_alloc@V<lambda_bf6ca281e462b82a5894b37d6cd34b2f>@@PEAXPEAEHHD@std@@QEAA@$$QEAV<lambda_bf6ca281e462b82a5894b37d6cd34b2f>@@@Z DD imagerel ??$?0V<lambda_bf6ca281e462b82a5894b37d6cd34b2f>@@$0A@@?$_Func_impl_no_alloc@V<lambda_bf6ca281e462b82a5894b37d6cd34b2f>@@PEAXPEAEHHD@std@@QEAA@$$QEAV<lambda_bf6ca281e462b82a5894b37d6cd34b2f>@@@Z
	DD	imagerel ??$?0V<lambda_bf6ca281e462b82a5894b37d6cd34b2f>@@$0A@@?$_Func_impl_no_alloc@V<lambda_bf6ca281e462b82a5894b37d6cd34b2f>@@PEAXPEAEHHD@std@@QEAA@$$QEAV<lambda_bf6ca281e462b82a5894b37d6cd34b2f>@@@Z+94
	DD	imagerel $unwind$??$?0V<lambda_bf6ca281e462b82a5894b37d6cd34b2f>@@$0A@@?$_Func_impl_no_alloc@V<lambda_bf6ca281e462b82a5894b37d6cd34b2f>@@PEAXPEAEHHD@std@@QEAA@$$QEAV<lambda_bf6ca281e462b82a5894b37d6cd34b2f>@@@Z
pdata	ENDS
;	COMDAT pdata
pdata	SEGMENT
$pdata$??$_Test_callable@V<lambda_2d00a5b31fb0ddb685a7e903646d6657>@@@std@@YA_NAEBV<lambda_2d00a5b31fb0ddb685a7e903646d6657>@@@Z DD imagerel ??$_Test_callable@V<lambda_2d00a5b31fb0ddb685a7e903646d6657>@@@std@@YA_NAEBV<lambda_2d00a5b31fb0ddb685a7e903646d6657>@@@Z
	DD	imagerel ??$_Test_callable@V<lambda_2d00a5b31fb0ddb685a7e903646d6657>@@@std@@YA_NAEBV<lambda_2d00a5b31fb0ddb685a7e903646d6657>@@@Z+43
	DD	imagerel $unwind$??$_Test_callable@V<lambda_2d00a5b31fb0ddb685a7e903646d6657>@@@std@@YA_NAEBV<lambda_2d00a5b31fb0ddb685a7e903646d6657>@@@Z
pdata	ENDS
;	COMDAT pdata
pdata	SEGMENT
$pdata$?_Copy@?$_Func_impl_no_alloc@V<lambda_2d00a5b31fb0ddb685a7e903646d6657>@@XPEAX@std@@EEBAPEAV?$_Func_base@XPEAX@2@PEAX@Z DD imagerel ?_Copy@?$_Func_impl_no_alloc@V<lambda_2d00a5b31fb0ddb685a7e903646d6657>@@XPEAX@std@@EEBAPEAV?$_Func_base@XPEAX@2@PEAX@Z
	DD	imagerel ?_Copy@?$_Func_impl_no_alloc@V<lambda_2d00a5b31fb0ddb685a7e903646d6657>@@XPEAX@std@@EEBAPEAV?$_Func_base@XPEAX@2@PEAX@Z+96
	DD	imagerel $unwind$?_Copy@?$_Func_impl_no_alloc@V<lambda_2d00a5b31fb0ddb685a7e903646d6657>@@XPEAX@std@@EEBAPEAV?$_Func_base@XPEAX@2@PEAX@Z
pdata	ENDS
;	COMDAT pdata
pdata	SEGMENT
$pdata$?_Move@?$_Func_impl_no_alloc@V<lambda_2d00a5b31fb0ddb685a7e903646d6657>@@XPEAX@std@@EEAAPEAV?$_Func_base@XPEAX@2@PEAX@Z DD imagerel ?_Move@?$_Func_impl_no_alloc@V<lambda_2d00a5b31fb0ddb685a7e903646d6657>@@XPEAX@std@@EEAAPEAV?$_Func_base@XPEAX@2@PEAX@Z
	DD	imagerel ?_Move@?$_Func_impl_no_alloc@V<lambda_2d00a5b31fb0ddb685a7e903646d6657>@@XPEAX@std@@EEAAPEAV?$_Func_base@XPEAX@2@PEAX@Z+116
	DD	imagerel $unwind$?_Move@?$_Func_impl_no_alloc@V<lambda_2d00a5b31fb0ddb685a7e903646d6657>@@XPEAX@std@@EEAAPEAV?$_Func_base@XPEAX@2@PEAX@Z
pdata	ENDS
;	COMDAT pdata
pdata	SEGMENT
$pdata$?_Do_call@?$_Func_impl_no_alloc@V<lambda_2d00a5b31fb0ddb685a7e903646d6657>@@XPEAX@std@@EEAAX$$QEAPEAX@Z DD imagerel ?_Do_call@?$_Func_impl_no_alloc@V<lambda_2d00a5b31fb0ddb685a7e903646d6657>@@XPEAX@std@@EEAAX$$QEAPEAX@Z
	DD	imagerel ?_Do_call@?$_Func_impl_no_alloc@V<lambda_2d00a5b31fb0ddb685a7e903646d6657>@@XPEAX@std@@EEAAX$$QEAPEAX@Z+77
	DD	imagerel $unwind$?_Do_call@?$_Func_impl_no_alloc@V<lambda_2d00a5b31fb0ddb685a7e903646d6657>@@XPEAX@std@@EEAAX$$QEAPEAX@Z
pdata	ENDS
;	COMDAT pdata
pdata	SEGMENT
$pdata$?_Target_type@?$_Func_impl_no_alloc@V<lambda_2d00a5b31fb0ddb685a7e903646d6657>@@XPEAX@std@@EEBAAEBVtype_info@@XZ DD imagerel ?_Target_type@?$_Func_impl_no_alloc@V<lambda_2d00a5b31fb0ddb685a7e903646d6657>@@XPEAX@std@@EEBAAEBVtype_info@@XZ
	DD	imagerel ?_Target_type@?$_Func_impl_no_alloc@V<lambda_2d00a5b31fb0ddb685a7e903646d6657>@@XPEAX@std@@EEBAAEBVtype_info@@XZ+48
	DD	imagerel $unwind$?_Target_type@?$_Func_impl_no_alloc@V<lambda_2d00a5b31fb0ddb685a7e903646d6657>@@XPEAX@std@@EEBAAEBVtype_info@@XZ
pdata	ENDS
;	COMDAT pdata
pdata	SEGMENT
$pdata$?_Get@?$_Func_impl_no_alloc@V<lambda_2d00a5b31fb0ddb685a7e903646d6657>@@XPEAX@std@@EEBAPEBXXZ DD imagerel ?_Get@?$_Func_impl_no_alloc@V<lambda_2d00a5b31fb0ddb685a7e903646d6657>@@XPEAX@std@@EEBAPEBXXZ
	DD	imagerel ?_Get@?$_Func_impl_no_alloc@V<lambda_2d00a5b31fb0ddb685a7e903646d6657>@@XPEAX@std@@EEBAPEBXXZ+60
	DD	imagerel $unwind$?_Get@?$_Func_impl_no_alloc@V<lambda_2d00a5b31fb0ddb685a7e903646d6657>@@XPEAX@std@@EEBAPEBXXZ
pdata	ENDS
;	COMDAT pdata
pdata	SEGMENT
$pdata$?_Delete_this@?$_Func_impl_no_alloc@V<lambda_2d00a5b31fb0ddb685a7e903646d6657>@@XPEAX@std@@EEAAX_N@Z DD imagerel ?_Delete_this@?$_Func_impl_no_alloc@V<lambda_2d00a5b31fb0ddb685a7e903646d6657>@@XPEAX@std@@EEAAX_N@Z
	DD	imagerel ?_Delete_this@?$_Func_impl_no_alloc@V<lambda_2d00a5b31fb0ddb685a7e903646d6657>@@XPEAX@std@@EEAAX_N@Z+73
	DD	imagerel $unwind$?_Delete_this@?$_Func_impl_no_alloc@V<lambda_2d00a5b31fb0ddb685a7e903646d6657>@@XPEAX@std@@EEAAX_N@Z
pdata	ENDS
;	COMDAT pdata
pdata	SEGMENT
$pdata$??$?0V<lambda_2d00a5b31fb0ddb685a7e903646d6657>@@$0A@@?$_Func_impl_no_alloc@V<lambda_2d00a5b31fb0ddb685a7e903646d6657>@@XPEAX@std@@QEAA@$$QEAV<lambda_2d00a5b31fb0ddb685a7e903646d6657>@@@Z DD imagerel ??$?0V<lambda_2d00a5b31fb0ddb685a7e903646d6657>@@$0A@@?$_Func_impl_no_alloc@V<lambda_2d00a5b31fb0ddb685a7e903646d6657>@@XPEAX@std@@QEAA@$$QEAV<lambda_2d00a5b31fb0ddb685a7e903646d6657>@@@Z
	DD	imagerel ??$?0V<lambda_2d00a5b31fb0ddb685a7e903646d6657>@@$0A@@?$_Func_impl_no_alloc@V<lambda_2d00a5b31fb0ddb685a7e903646d6657>@@XPEAX@std@@QEAA@$$QEAV<lambda_2d00a5b31fb0ddb685a7e903646d6657>@@@Z+94
	DD	imagerel $unwind$??$?0V<lambda_2d00a5b31fb0ddb685a7e903646d6657>@@$0A@@?$_Func_impl_no_alloc@V<lambda_2d00a5b31fb0ddb685a7e903646d6657>@@XPEAX@std@@QEAA@$$QEAV<lambda_2d00a5b31fb0ddb685a7e903646d6657>@@@Z
pdata	ENDS
;	COMDAT pdata
pdata	SEGMENT
$pdata$?call@?$compute_vec4_add@M$0A@$0A@@detail@glm@@SA?AU?$vec@$03M$0A@@3@AEBU43@0@Z DD imagerel $LN3
	DD	imagerel $LN3+192
	DD	imagerel $unwind$?call@?$compute_vec4_add@M$0A@$0A@@detail@glm@@SA?AU?$vec@$03M$0A@@3@AEBU43@0@Z
pdata	ENDS
;	COMDAT pdata
pdata	SEGMENT
$pdata$??$_Unfancy@UVkLayerProperties@@@std@@YAPEAUVkLayerProperties@@PEAU1@@Z DD imagerel $LN3
	DD	imagerel $LN3+48
	DD	imagerel $unwind$??$_Unfancy@UVkLayerProperties@@@std@@YAPEAUVkLayerProperties@@PEAU1@@Z
pdata	ENDS
;	COMDAT pdata
pdata	SEGMENT
$pdata$??$construct@UVkLayerProperties@@$$V@?$_Default_allocator_traits@V?$allocator@UVkLayerProperties@@@std@@@std@@SAXAEAV?$allocator@UVkLayerProperties@@@1@QEAUVkLayerProperties@@@Z DD imagerel $LN3
	DD	imagerel $LN3+94
	DD	imagerel $unwind$??$construct@UVkLayerProperties@@$$V@?$_Default_allocator_traits@V?$allocator@UVkLayerProperties@@@std@@@std@@SAXAEAV?$allocator@UVkLayerProperties@@@1@QEAUVkLayerProperties@@@Z
pdata	ENDS
;	COMDAT pdata
pdata	SEGMENT
$pdata$??$_To_address@PEBQEBD@std@@YA?A_PAEBQEBQEBD@Z DD imagerel $LN3
	DD	imagerel $LN3+51
	DD	imagerel $unwind$??$_To_address@PEBQEBD@std@@YA?A_PAEBQEBQEBD@Z
pdata	ENDS
;	COMDAT pdata
pdata	SEGMENT
$pdata$??$_To_address@PEAPEBD@std@@YA?A_PAEBQEAPEBD@Z DD imagerel $LN3
	DD	imagerel $LN3+51
	DD	imagerel $unwind$??$_To_address@PEAPEBD@std@@YA?A_PAEBQEAPEBD@Z
pdata	ENDS
;	COMDAT pdata
pdata	SEGMENT
$pdata$??$forward@AEBQEBD@std@@YAAEBQEBDAEBQEBD@Z DD imagerel $LN3
	DD	imagerel $LN3+48
	DD	imagerel $unwind$??$forward@AEBQEBD@std@@YAAEBQEBDAEBQEBD@Z
pdata	ENDS
;	COMDAT pdata
pdata	SEGMENT
$pdata$??$construct@PEBDAEBQEBD@?$_Default_allocator_traits@V?$allocator@PEBD@std@@@std@@SAXAEAV?$allocator@PEBD@1@QEAPEBDAEBQEBD@Z DD imagerel $LN3
	DD	imagerel $LN3+108
	DD	imagerel $unwind$??$construct@PEBDAEBQEBD@?$_Default_allocator_traits@V?$allocator@PEBD@std@@@std@@SAXAEAV?$allocator@PEBD@1@QEAPEBDAEBQEBD@Z
pdata	ENDS
;	COMDAT pdata
pdata	SEGMENT
$pdata$??$_Unfancy@UTexture@@@std@@YAPEAUTexture@@PEAU1@@Z DD imagerel $LN3
	DD	imagerel $LN3+48
	DD	imagerel $unwind$??$_Unfancy@UTexture@@@std@@YAPEAUTexture@@PEAU1@@Z
pdata	ENDS
;	COMDAT pdata
pdata	SEGMENT
$pdata$??$destroy@UTexture@@@?$_Default_allocator_traits@V?$allocator@UTexture@@@std@@@std@@SAXAEAV?$allocator@UTexture@@@1@QEAUTexture@@@Z DD imagerel $LN3
	DD	imagerel $LN3+60
	DD	imagerel $unwind$??$destroy@UTexture@@@?$_Default_allocator_traits@V?$allocator@UTexture@@@std@@@std@@SAXAEAV?$allocator@UTexture@@@1@QEAUTexture@@@Z
pdata	ENDS
;	COMDAT pdata
pdata	SEGMENT
$pdata$??$_Deallocate@$07$0A@@std@@YAXPEAX_K@Z DD imagerel $LN4
	DD	imagerel $LN4+98
	DD	imagerel $unwind$??$_Deallocate@$07$0A@@std@@YAXPEAX_K@Z
pdata	ENDS
;	COMDAT pdata
pdata	SEGMENT
$pdata$??$addressof@$$CBV<lambda_2d00a5b31fb0ddb685a7e903646d6657>@@@std@@YAPEBV<lambda_2d00a5b31fb0ddb685a7e903646d6657>@@AEBV1@@Z DD imagerel ??$addressof@$$CBV<lambda_2d00a5b31fb0ddb685a7e903646d6657>@@@std@@YAPEBV<lambda_2d00a5b31fb0ddb685a7e903646d6657>@@AEBV1@@Z
	DD	imagerel ??$addressof@$$CBV<lambda_2d00a5b31fb0ddb685a7e903646d6657>@@@std@@YAPEBV<lambda_2d00a5b31fb0ddb685a7e903646d6657>@@AEBV1@@Z+48
	DD	imagerel $unwind$??$addressof@$$CBV<lambda_2d00a5b31fb0ddb685a7e903646d6657>@@@std@@YAPEBV<lambda_2d00a5b31fb0ddb685a7e903646d6657>@@AEBV1@@Z
pdata	ENDS
;	COMDAT pdata
pdata	SEGMENT
$pdata$??$forward@PEAX@std@@YA$$QEAPEAXAEAPEAX@Z DD imagerel $LN3
	DD	imagerel $LN3+48
	DD	imagerel $unwind$??$forward@PEAX@std@@YA$$QEAPEAXAEAPEAX@Z
pdata	ENDS
;	COMDAT pdata
pdata	SEGMENT
$pdata$??$_Call@AEAV<lambda_2d00a5b31fb0ddb685a7e903646d6657>@@PEAX@?$_Invoker_ret@X@std@@SAXAEAV<lambda_2d00a5b31fb0ddb685a7e903646d6657>@@$$QEAPEAX@Z DD imagerel ??$_Call@AEAV<lambda_2d00a5b31fb0ddb685a7e903646d6657>@@PEAX@?$_Invoker_ret@X@std@@SAXAEAV<lambda_2d00a5b31fb0ddb685a7e903646d6657>@@$$QEAPEAX@Z
	DD	imagerel ??$_Call@AEAV<lambda_2d00a5b31fb0ddb685a7e903646d6657>@@PEAX@?$_Invoker_ret@X@std@@SAXAEAV<lambda_2d00a5b31fb0ddb685a7e903646d6657>@@$$QEAPEAX@Z+65
	DD	imagerel $unwind$??$_Call@AEAV<lambda_2d00a5b31fb0ddb685a7e903646d6657>@@PEAX@?$_Invoker_ret@X@std@@SAXAEAV<lambda_2d00a5b31fb0ddb685a7e903646d6657>@@$$QEAPEAX@Z
pdata	ENDS
;	COMDAT pdata
pdata	SEGMENT
$pdata$??$move@AEAV<lambda_2d00a5b31fb0ddb685a7e903646d6657>@@@std@@YA$$QEAV<lambda_2d00a5b31fb0ddb685a7e903646d6657>@@AEAV1@@Z DD imagerel ??$move@AEAV<lambda_2d00a5b31fb0ddb685a7e903646d6657>@@@std@@YA$$QEAV<lambda_2d00a5b31fb0ddb685a7e903646d6657>@@AEAV1@@Z
	DD	imagerel ??$move@AEAV<lambda_2d00a5b31fb0ddb685a7e903646d6657>@@@std@@YA$$QEAV<lambda_2d00a5b31fb0ddb685a7e903646d6657>@@AEAV1@@Z+48
	DD	imagerel $unwind$??$move@AEAV<lambda_2d00a5b31fb0ddb685a7e903646d6657>@@@std@@YA$$QEAV<lambda_2d00a5b31fb0ddb685a7e903646d6657>@@AEAV1@@Z
pdata	ENDS
;	COMDAT pdata
pdata	SEGMENT
$pdata$??$?0AEBV<lambda_2d00a5b31fb0ddb685a7e903646d6657>@@$0A@@?$_Func_impl_no_alloc@V<lambda_2d00a5b31fb0ddb685a7e903646d6657>@@XPEAX@std@@QEAA@AEBV<lambda_2d00a5b31fb0ddb685a7e903646d6657>@@@Z DD imagerel ??$?0AEBV<lambda_2d00a5b31fb0ddb685a7e903646d6657>@@$0A@@?$_Func_impl_no_alloc@V<lambda_2d00a5b31fb0ddb685a7e903646d6657>@@XPEAX@std@@QEAA@AEBV<lambda_2d00a5b31fb0ddb685a7e903646d6657>@@@Z
	DD	imagerel ??$?0AEBV<lambda_2d00a5b31fb0ddb685a7e903646d6657>@@$0A@@?$_Func_impl_no_alloc@V<lambda_2d00a5b31fb0ddb685a7e903646d6657>@@XPEAX@std@@QEAA@AEBV<lambda_2d00a5b31fb0ddb685a7e903646d6657>@@@Z+94
	DD	imagerel $unwind$??$?0AEBV<lambda_2d00a5b31fb0ddb685a7e903646d6657>@@$0A@@?$_Func_impl_no_alloc@V<lambda_2d00a5b31fb0ddb685a7e903646d6657>@@XPEAX@std@@QEAA@AEBV<lambda_2d00a5b31fb0ddb685a7e903646d6657>@@@Z
pdata	ENDS
;	COMDAT pdata
pdata	SEGMENT
$pdata$??$addressof@$$CBV<lambda_bf6ca281e462b82a5894b37d6cd34b2f>@@@std@@YAPEBV<lambda_bf6ca281e462b82a5894b37d6cd34b2f>@@AEBV1@@Z DD imagerel ??$addressof@$$CBV<lambda_bf6ca281e462b82a5894b37d6cd34b2f>@@@std@@YAPEBV<lambda_bf6ca281e462b82a5894b37d6cd34b2f>@@AEBV1@@Z
	DD	imagerel ??$addressof@$$CBV<lambda_bf6ca281e462b82a5894b37d6cd34b2f>@@@std@@YAPEBV<lambda_bf6ca281e462b82a5894b37d6cd34b2f>@@AEBV1@@Z+48
	DD	imagerel $unwind$??$addressof@$$CBV<lambda_bf6ca281e462b82a5894b37d6cd34b2f>@@@std@@YAPEBV<lambda_bf6ca281e462b82a5894b37d6cd34b2f>@@AEBV1@@Z
pdata	ENDS
;	COMDAT pdata
pdata	SEGMENT
$pdata$??$forward@PEAE@std@@YA$$QEAPEAEAEAPEAE@Z DD imagerel $LN3
	DD	imagerel $LN3+48
	DD	imagerel $unwind$??$forward@PEAE@std@@YA$$QEAPEAEAEAPEAE@Z
pdata	ENDS
;	COMDAT pdata
pdata	SEGMENT
$pdata$??$forward@H@std@@YA$$QEAHAEAH@Z DD imagerel $LN3
	DD	imagerel $LN3+48
	DD	imagerel $unwind$??$forward@H@std@@YA$$QEAHAEAH@Z
pdata	ENDS
;	COMDAT pdata
pdata	SEGMENT
$pdata$??$forward@D@std@@YA$$QEADAEAD@Z DD imagerel $LN3
	DD	imagerel $LN3+48
	DD	imagerel $unwind$??$forward@D@std@@YA$$QEADAEAD@Z
pdata	ENDS
;	COMDAT pdata
pdata	SEGMENT
$pdata$??$_Call@AEAV<lambda_bf6ca281e462b82a5894b37d6cd34b2f>@@PEAEHHD@?$_Invoker_ret@PEAX@std@@SAPEAXAEAV<lambda_bf6ca281e462b82a5894b37d6cd34b2f>@@$$QEAPEAE$$QEAH2$$QEAD@Z DD imagerel ??$_Call@AEAV<lambda_bf6ca281e462b82a5894b37d6cd34b2f>@@PEAEHHD@?$_Invoker_ret@PEAX@std@@SAPEAXAEAV<lambda_bf6ca281e462b82a5894b37d6cd34b2f>@@$$QEAPEAE$$QEAH2$$QEAD@Z
	DD	imagerel ??$_Call@AEAV<lambda_bf6ca281e462b82a5894b37d6cd34b2f>@@PEAEHHD@?$_Invoker_ret@PEAX@std@@SAPEAXAEAV<lambda_bf6ca281e462b82a5894b37d6cd34b2f>@@$$QEAPEAE$$QEAH2$$QEAD@Z+101
	DD	imagerel $unwind$??$_Call@AEAV<lambda_bf6ca281e462b82a5894b37d6cd34b2f>@@PEAEHHD@?$_Invoker_ret@PEAX@std@@SAPEAXAEAV<lambda_bf6ca281e462b82a5894b37d6cd34b2f>@@$$QEAPEAE$$QEAH2$$QEAD@Z
pdata	ENDS
;	COMDAT pdata
pdata	SEGMENT
$pdata$??$move@AEAV<lambda_bf6ca281e462b82a5894b37d6cd34b2f>@@@std@@YA$$QEAV<lambda_bf6ca281e462b82a5894b37d6cd34b2f>@@AEAV1@@Z DD imagerel ??$move@AEAV<lambda_bf6ca281e462b82a5894b37d6cd34b2f>@@@std@@YA$$QEAV<lambda_bf6ca281e462b82a5894b37d6cd34b2f>@@AEAV1@@Z
	DD	imagerel ??$move@AEAV<lambda_bf6ca281e462b82a5894b37d6cd34b2f>@@@std@@YA$$QEAV<lambda_bf6ca281e462b82a5894b37d6cd34b2f>@@AEAV1@@Z+48
	DD	imagerel $unwind$??$move@AEAV<lambda_bf6ca281e462b82a5894b37d6cd34b2f>@@@std@@YA$$QEAV<lambda_bf6ca281e462b82a5894b37d6cd34b2f>@@AEAV1@@Z
pdata	ENDS
;	COMDAT pdata
pdata	SEGMENT
$pdata$??$?0AEBV<lambda_bf6ca281e462b82a5894b37d6cd34b2f>@@$0A@@?$_Func_impl_no_alloc@V<lambda_bf6ca281e462b82a5894b37d6cd34b2f>@@PEAXPEAEHHD@std@@QEAA@AEBV<lambda_bf6ca281e462b82a5894b37d6cd34b2f>@@@Z DD imagerel ??$?0AEBV<lambda_bf6ca281e462b82a5894b37d6cd34b2f>@@$0A@@?$_Func_impl_no_alloc@V<lambda_bf6ca281e462b82a5894b37d6cd34b2f>@@PEAXPEAEHHD@std@@QEAA@AEBV<lambda_bf6ca281e462b82a5894b37d6cd34b2f>@@@Z
	DD	imagerel ??$?0AEBV<lambda_bf6ca281e462b82a5894b37d6cd34b2f>@@$0A@@?$_Func_impl_no_alloc@V<lambda_bf6ca281e462b82a5894b37d6cd34b2f>@@PEAXPEAEHHD@std@@QEAA@AEBV<lambda_bf6ca281e462b82a5894b37d6cd34b2f>@@@Z+94
	DD	imagerel $unwind$??$?0AEBV<lambda_bf6ca281e462b82a5894b37d6cd34b2f>@@$0A@@?$_Func_impl_no_alloc@V<lambda_bf6ca281e462b82a5894b37d6cd34b2f>@@PEAXPEAEHHD@std@@QEAA@AEBV<lambda_bf6ca281e462b82a5894b37d6cd34b2f>@@@Z
pdata	ENDS
;	COMDAT pdata
pdata	SEGMENT
$pdata$??$_Voidify_iter@PEAUVkLayerProperties@@@std@@YAPEAXPEAUVkLayerProperties@@@Z DD imagerel $LN3
	DD	imagerel $LN3+48
	DD	imagerel $unwind$??$_Voidify_iter@PEAUVkLayerProperties@@@std@@YAPEAXPEAUVkLayerProperties@@@Z
pdata	ENDS
;	COMDAT pdata
pdata	SEGMENT
$pdata$??$_Voidify_iter@PEAPEBD@std@@YAPEAXPEAPEBD@Z DD imagerel $LN3
	DD	imagerel $LN3+48
	DD	imagerel $unwind$??$_Voidify_iter@PEAPEBD@std@@YAPEAXPEAPEBD@Z
pdata	ENDS
;	COMDAT pdata
pdata	SEGMENT
$pdata$??$invoke@AEAV<lambda_2d00a5b31fb0ddb685a7e903646d6657>@@PEAX$$V@std@@YAXAEAV<lambda_2d00a5b31fb0ddb685a7e903646d6657>@@$$QEAPEAX@Z DD imagerel ??$invoke@AEAV<lambda_2d00a5b31fb0ddb685a7e903646d6657>@@PEAX$$V@std@@YAXAEAV<lambda_2d00a5b31fb0ddb685a7e903646d6657>@@$$QEAPEAX@Z
	DD	imagerel ??$invoke@AEAV<lambda_2d00a5b31fb0ddb685a7e903646d6657>@@PEAX$$V@std@@YAXAEAV<lambda_2d00a5b31fb0ddb685a7e903646d6657>@@$$QEAPEAX@Z+68
	DD	imagerel $unwind$??$invoke@AEAV<lambda_2d00a5b31fb0ddb685a7e903646d6657>@@PEAX$$V@std@@YAXAEAV<lambda_2d00a5b31fb0ddb685a7e903646d6657>@@$$QEAPEAX@Z
pdata	ENDS
;	COMDAT pdata
pdata	SEGMENT
$pdata$??$forward@AEBV<lambda_2d00a5b31fb0ddb685a7e903646d6657>@@@std@@YAAEBV<lambda_2d00a5b31fb0ddb685a7e903646d6657>@@AEBV1@@Z DD imagerel ??$forward@AEBV<lambda_2d00a5b31fb0ddb685a7e903646d6657>@@@std@@YAAEBV<lambda_2d00a5b31fb0ddb685a7e903646d6657>@@AEBV1@@Z
	DD	imagerel ??$forward@AEBV<lambda_2d00a5b31fb0ddb685a7e903646d6657>@@@std@@YAAEBV<lambda_2d00a5b31fb0ddb685a7e903646d6657>@@AEBV1@@Z+48
	DD	imagerel $unwind$??$forward@AEBV<lambda_2d00a5b31fb0ddb685a7e903646d6657>@@@std@@YAAEBV<lambda_2d00a5b31fb0ddb685a7e903646d6657>@@AEBV1@@Z
pdata	ENDS
;	COMDAT pdata
pdata	SEGMENT
$pdata$??$invoke@AEAV<lambda_bf6ca281e462b82a5894b37d6cd34b2f>@@PEAEHHD@std@@YAPEAXAEAV<lambda_bf6ca281e462b82a5894b37d6cd34b2f>@@$$QEAPEAE$$QEAH2$$QEAD@Z DD imagerel ??$invoke@AEAV<lambda_bf6ca281e462b82a5894b37d6cd34b2f>@@PEAEHHD@std@@YAPEAXAEAV<lambda_bf6ca281e462b82a5894b37d6cd34b2f>@@$$QEAPEAE$$QEAH2$$QEAD@Z
	DD	imagerel ??$invoke@AEAV<lambda_bf6ca281e462b82a5894b37d6cd34b2f>@@PEAEHHD@std@@YAPEAXAEAV<lambda_bf6ca281e462b82a5894b37d6cd34b2f>@@$$QEAPEAE$$QEAH2$$QEAD@Z+112
	DD	imagerel $unwind$??$invoke@AEAV<lambda_bf6ca281e462b82a5894b37d6cd34b2f>@@PEAEHHD@std@@YAPEAXAEAV<lambda_bf6ca281e462b82a5894b37d6cd34b2f>@@$$QEAPEAE$$QEAH2$$QEAD@Z
pdata	ENDS
;	COMDAT pdata
pdata	SEGMENT
$pdata$??$forward@AEBV<lambda_bf6ca281e462b82a5894b37d6cd34b2f>@@@std@@YAAEBV<lambda_bf6ca281e462b82a5894b37d6cd34b2f>@@AEBV1@@Z DD imagerel ??$forward@AEBV<lambda_bf6ca281e462b82a5894b37d6cd34b2f>@@@std@@YAAEBV<lambda_bf6ca281e462b82a5894b37d6cd34b2f>@@AEBV1@@Z
	DD	imagerel ??$forward@AEBV<lambda_bf6ca281e462b82a5894b37d6cd34b2f>@@@std@@YAAEBV<lambda_bf6ca281e462b82a5894b37d6cd34b2f>@@AEBV1@@Z+48
	DD	imagerel $unwind$??$forward@AEBV<lambda_bf6ca281e462b82a5894b37d6cd34b2f>@@@std@@YAAEBV<lambda_bf6ca281e462b82a5894b37d6cd34b2f>@@AEBV1@@Z
pdata	ENDS
;	COMDAT CRT$XCU
CRT$XCU	SEGMENT
?g_ValidationLayers$initializer$@@3P6AXXZEA DQ FLAT:??__Eg_ValidationLayers@@YAXXZ ; g_ValidationLayers$initializer$
CRT$XCU	ENDS
;	COMDAT __xmm@80000000800000008000000080000000
CONST	SEGMENT
__xmm@80000000800000008000000080000000 DB 00H, 00H, 00H, 080H, 00H, 00H, 00H
	DB	080H, 00H, 00H, 00H, 080H, 00H, 00H, 00H, 080H
CONST	ENDS
;	COMDAT __real@bf800000
CONST	SEGMENT
__real@bf800000 DD 0bf800000r			; -1
CONST	ENDS
;	COMDAT __real@42c80000
CONST	SEGMENT
__real@42c80000 DD 042c80000r			; 100
CONST	ENDS
;	COMDAT __real@42200000
CONST	SEGMENT
__real@42200000 DD 042200000r			; 40
CONST	ENDS
;	COMDAT __real@40000000
CONST	SEGMENT
__real@40000000 DD 040000000r			; 2
CONST	ENDS
;	COMDAT __real@3faaaaab
CONST	SEGMENT
__real@3faaaaab DD 03faaaaabr			; 1.33333
CONST	ENDS
;	COMDAT __real@3f800000
CONST	SEGMENT
__real@3f800000 DD 03f800000r			; 1
CONST	ENDS
;	COMDAT __real@3ec90ff9
CONST	SEGMENT
__real@3ec90ff9 DD 03ec90ff9r			; 0.3927
CONST	ENDS
;	COMDAT __real@3e99999a
CONST	SEGMENT
__real@3e99999a DD 03e99999ar			; 0.3
CONST	ENDS
;	COMDAT __real@3c8efa35
CONST	SEGMENT
__real@3c8efa35 DD 03c8efa35r			; 0.0174533
CONST	ENDS
;	COMDAT __real@34000000
CONST	SEGMENT
__real@34000000 DD 034000000r			; 1.19209e-07
CONST	ENDS
;	COMDAT __real@00000000
CONST	SEGMENT
__real@00000000 DD 000000000r			; 0
CONST	ENDS
;	COMDAT rtc$TMZ
rtc$TMZ	SEGMENT
_RTC_Shutdown.rtc$TMZ DQ FLAT:_RTC_Shutdown
rtc$TMZ	ENDS
;	COMDAT rtc$IMZ
rtc$IMZ	SEGMENT
_RTC_InitBase.rtc$IMZ DQ FLAT:_RTC_InitBase
rtc$IMZ	ENDS
;	COMDAT ??_R1A@?0A@EA@?$_Func_impl_no_alloc@V<lambda_2d00a5b31fb0ddb685a7e903646d6657>@@XPEAX@std@@8
rdata$r	SEGMENT
??_R1A@?0A@EA@?$_Func_impl_no_alloc@V<lambda_2d00a5b31fb0ddb685a7e903646d6657>@@XPEAX@std@@8 DD imagerel ??_R0?AV?$_Func_impl_no_alloc@V<lambda_2d00a5b31fb0ddb685a7e903646d6657>@@XPEAX@std@@@8 ; std::_Func_impl_no_alloc<<lambda_2d00a5b31fb0ddb685a7e903646d6657>,void,void *>::`RTTI Base Class Descriptor at (0,-1,0,64)'
	DD	01H
	DD	00H
	DD	0ffffffffH
	DD	00H
	DD	040H
	DD	imagerel ??_R3?$_Func_impl_no_alloc@V<lambda_2d00a5b31fb0ddb685a7e903646d6657>@@XPEAX@std@@8
rdata$r	ENDS
;	COMDAT ??_R2?$_Func_impl_no_alloc@V<lambda_2d00a5b31fb0ddb685a7e903646d6657>@@XPEAX@std@@8
rdata$r	SEGMENT
??_R2?$_Func_impl_no_alloc@V<lambda_2d00a5b31fb0ddb685a7e903646d6657>@@XPEAX@std@@8 DD imagerel ??_R1A@?0A@EA@?$_Func_impl_no_alloc@V<lambda_2d00a5b31fb0ddb685a7e903646d6657>@@XPEAX@std@@8 ; std::_Func_impl_no_alloc<<lambda_2d00a5b31fb0ddb685a7e903646d6657>,void,void *>::`RTTI Base Class Array'
	DD	imagerel ??_R1A@?0A@EA@?$_Func_base@XPEAX@std@@8
	ORG $+3
rdata$r	ENDS
;	COMDAT ??_R3?$_Func_impl_no_alloc@V<lambda_2d00a5b31fb0ddb685a7e903646d6657>@@XPEAX@std@@8
rdata$r	SEGMENT
??_R3?$_Func_impl_no_alloc@V<lambda_2d00a5b31fb0ddb685a7e903646d6657>@@XPEAX@std@@8 DD 00H ; std::_Func_impl_no_alloc<<lambda_2d00a5b31fb0ddb685a7e903646d6657>,void,void *>::`RTTI Class Hierarchy Descriptor'
	DD	00H
	DD	02H
	DD	imagerel ??_R2?$_Func_impl_no_alloc@V<lambda_2d00a5b31fb0ddb685a7e903646d6657>@@XPEAX@std@@8
rdata$r	ENDS
;	COMDAT ??_R0?AV?$_Func_impl_no_alloc@V<lambda_2d00a5b31fb0ddb685a7e903646d6657>@@XPEAX@std@@@8
data$rs	SEGMENT
??_R0?AV?$_Func_impl_no_alloc@V<lambda_2d00a5b31fb0ddb685a7e903646d6657>@@XPEAX@std@@@8 DQ FLAT:??_7type_info@@6B@ ; std::_Func_impl_no_alloc<<lambda_2d00a5b31fb0ddb685a7e903646d6657>,void,void *> `RTTI Type Descriptor'
	DQ	0000000000000000H
	DB	'.?AV?$_Func_impl_no_alloc@V<lambda_2d00a5b31fb0ddb685a7e'
	DB	'903646d6657>@@XPEAX@std@@', 00H
data$rs	ENDS
;	COMDAT ??_R4?$_Func_impl_no_alloc@V<lambda_2d00a5b31fb0ddb685a7e903646d6657>@@XPEAX@std@@6B@
rdata$r	SEGMENT
??_R4?$_Func_impl_no_alloc@V<lambda_2d00a5b31fb0ddb685a7e903646d6657>@@XPEAX@std@@6B@ DD 01H ; std::_Func_impl_no_alloc<<lambda_2d00a5b31fb0ddb685a7e903646d6657>,void,void *>::`RTTI Complete Object Locator'
	DD	00H
	DD	00H
	DD	imagerel ??_R0?AV?$_Func_impl_no_alloc@V<lambda_2d00a5b31fb0ddb685a7e903646d6657>@@XPEAX@std@@@8
	DD	imagerel ??_R3?$_Func_impl_no_alloc@V<lambda_2d00a5b31fb0ddb685a7e903646d6657>@@XPEAX@std@@8
	DD	imagerel ??_R4?$_Func_impl_no_alloc@V<lambda_2d00a5b31fb0ddb685a7e903646d6657>@@XPEAX@std@@6B@
rdata$r	ENDS
;	COMDAT ??_R1A@?0A@EA@?$_Func_impl_no_alloc@V<lambda_bf6ca281e462b82a5894b37d6cd34b2f>@@PEAXPEAEHHD@std@@8
rdata$r	SEGMENT
??_R1A@?0A@EA@?$_Func_impl_no_alloc@V<lambda_bf6ca281e462b82a5894b37d6cd34b2f>@@PEAXPEAEHHD@std@@8 DD imagerel ??_R0?AV?$_Func_impl_no_alloc@V<lambda_bf6ca281e462b82a5894b37d6cd34b2f>@@PEAXPEAEHHD@std@@@8 ; std::_Func_impl_no_alloc<<lambda_bf6ca281e462b82a5894b37d6cd34b2f>,void *,unsigned char *,int,int,char>::`RTTI Base Class Descriptor at (0,-1,0,64)'
	DD	01H
	DD	00H
	DD	0ffffffffH
	DD	00H
	DD	040H
	DD	imagerel ??_R3?$_Func_impl_no_alloc@V<lambda_bf6ca281e462b82a5894b37d6cd34b2f>@@PEAXPEAEHHD@std@@8
rdata$r	ENDS
;	COMDAT ??_R2?$_Func_impl_no_alloc@V<lambda_bf6ca281e462b82a5894b37d6cd34b2f>@@PEAXPEAEHHD@std@@8
rdata$r	SEGMENT
??_R2?$_Func_impl_no_alloc@V<lambda_bf6ca281e462b82a5894b37d6cd34b2f>@@PEAXPEAEHHD@std@@8 DD imagerel ??_R1A@?0A@EA@?$_Func_impl_no_alloc@V<lambda_bf6ca281e462b82a5894b37d6cd34b2f>@@PEAXPEAEHHD@std@@8 ; std::_Func_impl_no_alloc<<lambda_bf6ca281e462b82a5894b37d6cd34b2f>,void *,unsigned char *,int,int,char>::`RTTI Base Class Array'
	DD	imagerel ??_R1A@?0A@EA@?$_Func_base@PEAXPEAEHHD@std@@8
	ORG $+3
rdata$r	ENDS
;	COMDAT ??_R3?$_Func_impl_no_alloc@V<lambda_bf6ca281e462b82a5894b37d6cd34b2f>@@PEAXPEAEHHD@std@@8
rdata$r	SEGMENT
??_R3?$_Func_impl_no_alloc@V<lambda_bf6ca281e462b82a5894b37d6cd34b2f>@@PEAXPEAEHHD@std@@8 DD 00H ; std::_Func_impl_no_alloc<<lambda_bf6ca281e462b82a5894b37d6cd34b2f>,void *,unsigned char *,int,int,char>::`RTTI Class Hierarchy Descriptor'
	DD	00H
	DD	02H
	DD	imagerel ??_R2?$_Func_impl_no_alloc@V<lambda_bf6ca281e462b82a5894b37d6cd34b2f>@@PEAXPEAEHHD@std@@8
rdata$r	ENDS
;	COMDAT ??_R0?AV?$_Func_impl_no_alloc@V<lambda_bf6ca281e462b82a5894b37d6cd34b2f>@@PEAXPEAEHHD@std@@@8
data$rs	SEGMENT
??_R0?AV?$_Func_impl_no_alloc@V<lambda_bf6ca281e462b82a5894b37d6cd34b2f>@@PEAXPEAEHHD@std@@@8 DQ FLAT:??_7type_info@@6B@ ; std::_Func_impl_no_alloc<<lambda_bf6ca281e462b82a5894b37d6cd34b2f>,void *,unsigned char *,int,int,char> `RTTI Type Descriptor'
	DQ	0000000000000000H
	DB	'.?AV?$_Func_impl_no_alloc@V<lambda_bf6ca281e462b82a5894b'
	DB	'37d6cd34b2f>@@PEAXPEAEHHD@std@@', 00H
data$rs	ENDS
;	COMDAT ??_R4?$_Func_impl_no_alloc@V<lambda_bf6ca281e462b82a5894b37d6cd34b2f>@@PEAXPEAEHHD@std@@6B@
rdata$r	SEGMENT
??_R4?$_Func_impl_no_alloc@V<lambda_bf6ca281e462b82a5894b37d6cd34b2f>@@PEAXPEAEHHD@std@@6B@ DD 01H ; std::_Func_impl_no_alloc<<lambda_bf6ca281e462b82a5894b37d6cd34b2f>,void *,unsigned char *,int,int,char>::`RTTI Complete Object Locator'
	DD	00H
	DD	00H
	DD	imagerel ??_R0?AV?$_Func_impl_no_alloc@V<lambda_bf6ca281e462b82a5894b37d6cd34b2f>@@PEAXPEAEHHD@std@@@8
	DD	imagerel ??_R3?$_Func_impl_no_alloc@V<lambda_bf6ca281e462b82a5894b37d6cd34b2f>@@PEAXPEAEHHD@std@@8
	DD	imagerel ??_R4?$_Func_impl_no_alloc@V<lambda_bf6ca281e462b82a5894b37d6cd34b2f>@@PEAXPEAEHHD@std@@6B@
rdata$r	ENDS
;	COMDAT ??_R1A@?0A@EA@?$_Func_base@XPEAX@std@@8
rdata$r	SEGMENT
??_R1A@?0A@EA@?$_Func_base@XPEAX@std@@8 DD imagerel ??_R0?AV?$_Func_base@XPEAX@std@@@8 ; std::_Func_base<void,void *>::`RTTI Base Class Descriptor at (0,-1,0,64)'
	DD	00H
	DD	00H
	DD	0ffffffffH
	DD	00H
	DD	040H
	DD	imagerel ??_R3?$_Func_base@XPEAX@std@@8
rdata$r	ENDS
;	COMDAT ??_R2?$_Func_base@XPEAX@std@@8
rdata$r	SEGMENT
??_R2?$_Func_base@XPEAX@std@@8 DD imagerel ??_R1A@?0A@EA@?$_Func_base@XPEAX@std@@8 ; std::_Func_base<void,void *>::`RTTI Base Class Array'
	ORG $+3
rdata$r	ENDS
;	COMDAT ??_R3?$_Func_base@XPEAX@std@@8
rdata$r	SEGMENT
??_R3?$_Func_base@XPEAX@std@@8 DD 00H			; std::_Func_base<void,void *>::`RTTI Class Hierarchy Descriptor'
	DD	00H
	DD	01H
	DD	imagerel ??_R2?$_Func_base@XPEAX@std@@8
rdata$r	ENDS
;	COMDAT ??_R0?AV?$_Func_base@XPEAX@std@@@8
data$rs	SEGMENT
??_R0?AV?$_Func_base@XPEAX@std@@@8 DQ FLAT:??_7type_info@@6B@ ; std::_Func_base<void,void *> `RTTI Type Descriptor'
	DQ	0000000000000000H
	DB	'.?AV?$_Func_base@XPEAX@std@@', 00H
data$rs	ENDS
;	COMDAT ??_R1A@?0A@EA@?$_Func_base@PEAXPEAEHHD@std@@8
rdata$r	SEGMENT
??_R1A@?0A@EA@?$_Func_base@PEAXPEAEHHD@std@@8 DD imagerel ??_R0?AV?$_Func_base@PEAXPEAEHHD@std@@@8 ; std::_Func_base<void *,unsigned char *,int,int,char>::`RTTI Base Class Descriptor at (0,-1,0,64)'
	DD	00H
	DD	00H
	DD	0ffffffffH
	DD	00H
	DD	040H
	DD	imagerel ??_R3?$_Func_base@PEAXPEAEHHD@std@@8
rdata$r	ENDS
;	COMDAT ??_R2?$_Func_base@PEAXPEAEHHD@std@@8
rdata$r	SEGMENT
??_R2?$_Func_base@PEAXPEAEHHD@std@@8 DD imagerel ??_R1A@?0A@EA@?$_Func_base@PEAXPEAEHHD@std@@8 ; std::_Func_base<void *,unsigned char *,int,int,char>::`RTTI Base Class Array'
	ORG $+3
rdata$r	ENDS
;	COMDAT ??_R3?$_Func_base@PEAXPEAEHHD@std@@8
rdata$r	SEGMENT
??_R3?$_Func_base@PEAXPEAEHHD@std@@8 DD 00H		; std::_Func_base<void *,unsigned char *,int,int,char>::`RTTI Class Hierarchy Descriptor'
	DD	00H
	DD	01H
	DD	imagerel ??_R2?$_Func_base@PEAXPEAEHHD@std@@8
rdata$r	ENDS
;	COMDAT ??_R0?AV?$_Func_base@PEAXPEAEHHD@std@@@8
data$rs	SEGMENT
??_R0?AV?$_Func_base@PEAXPEAEHHD@std@@@8 DQ FLAT:??_7type_info@@6B@ ; std::_Func_base<void *,unsigned char *,int,int,char> `RTTI Type Descriptor'
	DQ	0000000000000000H
	DB	'.?AV?$_Func_base@PEAXPEAEHHD@std@@', 00H
data$rs	ENDS
;	COMDAT ??_R1A@?0A@EA@_System_error_category@std@@8
rdata$r	SEGMENT
??_R1A@?0A@EA@_System_error_category@std@@8 DD imagerel ??_R0?AV_System_error_category@std@@@8 ; std::_System_error_category::`RTTI Base Class Descriptor at (0,-1,0,64)'
	DD	01H
	DD	00H
	DD	0ffffffffH
	DD	00H
	DD	040H
	DD	imagerel ??_R3_System_error_category@std@@8
rdata$r	ENDS
;	COMDAT ??_R2_System_error_category@std@@8
rdata$r	SEGMENT
??_R2_System_error_category@std@@8 DD imagerel ??_R1A@?0A@EA@_System_error_category@std@@8 ; std::_System_error_category::`RTTI Base Class Array'
	DD	imagerel ??_R1A@?0A@EA@error_category@std@@8
	ORG $+3
rdata$r	ENDS
;	COMDAT ??_R3_System_error_category@std@@8
rdata$r	SEGMENT
??_R3_System_error_category@std@@8 DD 00H		; std::_System_error_category::`RTTI Class Hierarchy Descriptor'
	DD	00H
	DD	02H
	DD	imagerel ??_R2_System_error_category@std@@8
rdata$r	ENDS
;	COMDAT ??_R0?AV_System_error_category@std@@@8
data$rs	SEGMENT
??_R0?AV_System_error_category@std@@@8 DQ FLAT:??_7type_info@@6B@ ; std::_System_error_category `RTTI Type Descriptor'
	DQ	0000000000000000H
	DB	'.?AV_System_error_category@std@@', 00H
data$rs	ENDS
;	COMDAT ??_R4_System_error_category@std@@6B@
rdata$r	SEGMENT
??_R4_System_error_category@std@@6B@ DD 01H		; std::_System_error_category::`RTTI Complete Object Locator'
	DD	00H
	DD	00H
	DD	imagerel ??_R0?AV_System_error_category@std@@@8
	DD	imagerel ??_R3_System_error_category@std@@8
	DD	imagerel ??_R4_System_error_category@std@@6B@
rdata$r	ENDS
;	COMDAT ??_R1A@?0A@EA@_Generic_error_category@std@@8
rdata$r	SEGMENT
??_R1A@?0A@EA@_Generic_error_category@std@@8 DD imagerel ??_R0?AV_Generic_error_category@std@@@8 ; std::_Generic_error_category::`RTTI Base Class Descriptor at (0,-1,0,64)'
	DD	01H
	DD	00H
	DD	0ffffffffH
	DD	00H
	DD	040H
	DD	imagerel ??_R3_Generic_error_category@std@@8
rdata$r	ENDS
;	COMDAT ??_R2_Generic_error_category@std@@8
rdata$r	SEGMENT
??_R2_Generic_error_category@std@@8 DD imagerel ??_R1A@?0A@EA@_Generic_error_category@std@@8 ; std::_Generic_error_category::`RTTI Base Class Array'
	DD	imagerel ??_R1A@?0A@EA@error_category@std@@8
	ORG $+3
rdata$r	ENDS
;	COMDAT ??_R3_Generic_error_category@std@@8
rdata$r	SEGMENT
??_R3_Generic_error_category@std@@8 DD 00H		; std::_Generic_error_category::`RTTI Class Hierarchy Descriptor'
	DD	00H
	DD	02H
	DD	imagerel ??_R2_Generic_error_category@std@@8
rdata$r	ENDS
